	.cpu generic+fp+simd
	.file	"drv_venc_queue_mng.c"
	.text
.Ltext0:
	.cfi_sections	.debug_frame
	.align	2
	.global	VENC_DRV_MngQueueInit
	.type	VENC_DRV_MngQueueInit, %function
VENC_DRV_MngQueueInit:
.LFB2757:
	.file 1 "/mnt/disk/jenkins/ci/workspace/chipset_release_960_xloader/opensource/component_code/vendor/huawei/extra/build/build_script/kirin_kernel_release/kernel/drivers/vcodec/hi_vcodec/venc/drv/venc/drv_venc_queue_mng.c"
	.loc 1 82 0
	.cfi_startproc
.LVL0:
	stp	x29, x30, [sp, -80]!
	.cfi_def_cfa_offset 80
	.cfi_offset 29, -80
	.cfi_offset 30, -72
	add	x29, sp, 0
	.cfi_def_cfa_register 29
	stp	x23, x24, [sp,48]
	.cfi_offset 23, -32
	.cfi_offset 24, -24
	.loc 1 87 0
	sub	w23, w0, #1
	.loc 1 82 0
	mov	w24, w1
	stp	x21, x22, [sp,32]
	stp	x19, x20, [sp,16]
	.cfi_offset 21, -48
	.cfi_offset 22, -40
	.cfi_offset 19, -64
	.cfi_offset 20, -56
	.loc 1 87 0
	cmp	w23, 199
	.loc 1 82 0
	mov	w22, w0
	.loc 1 87 0
	bhi	.L13
	.loc 1 94 0
	mov	x0, 120
	bl	vmalloc
.LVL1:
	mov	x20, x0
.LVL2:
	.loc 1 95 0
	cbz	x0, .L14
.LBB201:
	.loc 1 100 0 discriminator 1
	adrp	x19, .LANCHOR1
	adrp	x1, .LC3
	add	x19, x19, :lo12:.LANCHOR1
	add	x1, x1, :lo12:.LC3
	mov	x2, x19
.LBE201:
	.loc 1 102 0
	add	x21, x0, 96
.LBB202:
	.loc 1 100 0 discriminator 1
	bl	__raw_spin_lock_init
.LVL3:
.LBE202:
.LBB203:
.LBB204:
	.file 2 "/mnt/disk/jenkins/ci/workspace/chipset_release_960_xloader/opensource/component_code/vendor/huawei/extra/build/build_script/kirin_kernel_release/kernel/include/linux/list.h"
	.loc 2 28 0
	str	x21, [x20,104]
.LBE204:
.LBE203:
	.loc 1 101 0
	add	x0, x20, 80
.LBB209:
.LBB210:
.LBB211:
.LBB212:
.LBB213:
	.file 3 "/mnt/disk/jenkins/ci/workspace/chipset_release_960_xloader/opensource/component_code/vendor/huawei/extra/build/build_script/kirin_kernel_release/kernel/include/linux/compiler.h"
	.loc 3 276 0
	str	x0, [x20,80]
.LBE213:
.LBE212:
.LBE211:
	.loc 2 28 0
	str	x0, [x20,88]
.LBE210:
.LBE209:
.LBB214:
.LBB208:
.LBB205:
.LBB206:
.LBB207:
	.loc 3 276 0
	str	x21, [x20,96]
.LBE207:
.LBE206:
.LBE205:
.LBE208:
.LBE214:
	.loc 1 104 0
	cbnz	w24, .L15
.L5:
	.loc 1 112 0
	mov	w2, 944
	.loc 1 109 0
	str	wzr, [x20,76]
	.loc 1 112 0
	umull	x2, w22, w2
	str	x2, [x29,72]
	mov	x0, x2
	bl	vmalloc
.LVL4:
	mov	x19, x0
.LVL5:
	.loc 1 113 0
	ldr	x2, [x29,72]
	cbz	x0, .L16
	.loc 1 120 0
	mov	w1, 0
	bl	memset
.LVL6:
	.loc 1 121 0
	str	x19, [x20,64]
	add	x1, x23, 1
	lsl	x0, x1, 6
	sub	x0, x0, x1, lsl 2
	sub	x1, x0, x1
	add	x1, x19, x1, lsl 4
.L7:
.LBB215:
.LBB216:
	.loc 2 63 0
	ldr	x0, [x20,96]
.LBB217:
.LBB218:
	.loc 2 42 0
	str	x19, [x0,8]
	.loc 2 43 0
	str	x0, [x19]
	.loc 2 44 0
	str	x21, [x19,8]
.LBB219:
.LBB220:
.LBB221:
	.loc 3 276 0
	str	x19, [x20,96]
.LBE221:
.LBE220:
.LBE219:
.LBE218:
.LBE217:
.LBE216:
.LBE215:
	.loc 1 122 0 discriminator 2
	add	x19, x19, 944
	.loc 1 122 0 is_stmt 0 discriminator 1
	cmp	x19, x1
	bne	.L7
	.loc 1 127 0 is_stmt 1
	str	w22, [x20,72]
	.loc 1 129 0
	mov	x0, x20
	.loc 1 128 0
	str	wzr, [x20,112]
.L3:
	.loc 1 130 0
	ldp	x19, x20, [sp,16]
	.cfi_remember_state
	.cfi_restore 20
	.cfi_restore 19
.LVL7:
	ldp	x21, x22, [sp,32]
	.cfi_restore 22
	.cfi_restore 21
.LVL8:
	ldp	x23, x24, [sp,48]
	.cfi_restore 24
	.cfi_restore 23
.LVL9:
	ldp	x29, x30, [sp], 80
	.cfi_restore 30
	.cfi_restore 29
	.cfi_def_cfa 31, 0
	ret
.LVL10:
.L15:
	.cfi_restore_state
.LBB222:
	.loc 1 106 0
	adrp	x1, .LC4
	add	x0, x20, 24
	add	x1, x1, :lo12:.LC4
	mov	x2, x19
	bl	__init_waitqueue_head
.LVL11:
	b	.L5
.LVL12:
.L13:
.LBE222:
	.loc 1 89 0
	adrp	x3, .LANCHOR0
	adrp	x1, .LC0
	add	x3, x3, :lo12:.LANCHOR0
	adrp	x4, .LC1
	mov	w6, w22
	mov	w0, 1
	add	x1, x1, :lo12:.LC0
	mov	w2, 89
	add	x4, x4, :lo12:.LC1
	add	x5, x3, 24
	bl	HI_PRINT
.LVL13:
	.loc 1 90 0
	mov	x0, 0
	.loc 1 130 0
	ldp	x19, x20, [sp,16]
	.cfi_remember_state
	.cfi_restore 19
	.cfi_restore 20
	ldp	x21, x22, [sp,32]
	.cfi_restore 21
	.cfi_restore 22
.LVL14:
	ldp	x23, x24, [sp,48]
	.cfi_restore 23
	.cfi_restore 24
.LVL15:
	ldp	x29, x30, [sp], 80
	.cfi_restore 29
	.cfi_restore 30
	.cfi_def_cfa 31, 0
	ret
.LVL16:
.L16:
	.cfi_restore_state
	.loc 1 115 0
	adrp	x3, .LANCHOR0
	adrp	x1, .LC0
	add	x3, x3, :lo12:.LANCHOR0
	adrp	x4, .LC5
	add	x1, x1, :lo12:.LC0
	mov	w2, 115
	add	x4, x4, :lo12:.LC5
	add	x5, x3, 24
	mov	w0, 1
.LVL17:
	bl	HI_PRINT
.LVL18:
	.loc 1 116 0
	mov	x0, x20
	bl	vfree
.LVL19:
	.loc 1 118 0
	mov	x0, 0
	b	.L3
.LVL20:
.L14:
	.loc 1 96 0
	adrp	x3, .LANCHOR0
	adrp	x1, .LC0
	add	x3, x3, :lo12:.LANCHOR0
	adrp	x4, .LC2
	mov	w0, 1
.LVL21:
	add	x1, x1, :lo12:.LC0
	mov	w2, 96
	add	x4, x4, :lo12:.LC2
	add	x5, x3, 24
	bl	HI_PRINT
.LVL22:
	.loc 1 97 0
	mov	x0, 0
	b	.L3
	.cfi_endproc
.LFE2757:
	.size	VENC_DRV_MngQueueInit, .-VENC_DRV_MngQueueInit
	.align	2
	.global	VENC_DRV_MngQueueDeinit
	.type	VENC_DRV_MngQueueDeinit, %function
VENC_DRV_MngQueueDeinit:
.LFB2758:
	.loc 1 133 0
	.cfi_startproc
.LVL23:
	stp	x29, x30, [sp, -80]!
	.cfi_def_cfa_offset 80
	.cfi_offset 29, -80
	.cfi_offset 30, -72
	add	x29, sp, 0
	.cfi_def_cfa_register 29
	stp	x19, x20, [sp,16]
	stp	x21, x22, [sp,32]
	stp	x23, x24, [sp,48]
	stp	x25, x26, [sp,64]
	.cfi_offset 19, -64
	.cfi_offset 20, -56
	.cfi_offset 21, -48
	.cfi_offset 22, -40
	.cfi_offset 23, -32
	.cfi_offset 24, -24
	.cfi_offset 25, -16
	.cfi_offset 26, -8
	.loc 1 133 0
	mov	x19, x0
	.loc 1 134 0
	cbnz	x0, .L30
	b	.L32
.LVL24:
.L28:
	.loc 1 142 0
	mov	w0, 10
	bl	msleep
.LVL25:
.L30:
	.loc 1 140 0
	ldr	w0, [x19,112]
	cbnz	w0, .L28
.LBB247:
.LBB248:
	.loc 1 60 0
	adrp	x20, .LANCHOR0
	adrp	x21, .LC0
	add	x0, x20, :lo12:.LANCHOR0
	add	x25, x21, :lo12:.LC0
	add	x24, x0, 48
	add	x23, x0, 72
	adrp	x4, .LC6
	mov	x1, x25
	mov	w2, 60
	mov	x3, x24
	add	x4, x4, :lo12:.LC6
	mov	x5, x23
	mov	w0, 4
	.loc 1 65 0
	add	x22, x19, 80
	.loc 1 60 0
	bl	HI_PRINT
.LVL26:
	.loc 1 63 0 discriminator 1
	mov	x0, x19
	bl	_raw_spin_lock_irqsave
.LVL27:
	mov	x26, x0
.LVL28:
.LBB249:
.LBB250:
.LBB251:
.LBB252:
	.loc 3 247 0 discriminator 5
	ldr	x0, [x19,80]
.LBE252:
.LBE251:
.LBE250:
.LBE249:
	.loc 1 64 0
	mov	w1, 1
	str	w1, [x19,76]
	.loc 1 65 0
	cmp	x22, x0
	beq	.L21
	.loc 1 67 0
	adrp	x4, .LC9
	mov	w0, 3
	mov	x1, x25
	mov	w2, 67
	mov	x3, x24
	add	x4, x4, :lo12:.LC9
	mov	x5, x23
	bl	HI_PRINT
.LVL29:
	.loc 1 68 0
	ldr	x0, [x19,80]
	.loc 1 68 0 is_stmt 0 discriminator 1
	cmp	x22, x0
	.loc 1 68 0
	ldr	x1, [x0]
	.loc 1 68 0 discriminator 1
	beq	.L21
	add	x5, x19, 96
.L26:
.LBB253:
.LBB254:
	.loc 2 107 0 is_stmt 1
	ldr	x4, [x0,8]
	.loc 2 108 0
	mov	x3, 256
.LBB255:
.LBB256:
	.loc 2 89 0
	str	x4, [x1,8]
.LBE256:
.LBE255:
	.loc 2 109 0
	mov	x2, 512
	movk	x2, 0xdead, lsl 48
	.loc 2 108 0
	movk	x3, 0xdead, lsl 48
.LBB261:
.LBB260:
.LBB257:
.LBB258:
.LBB259:
	.loc 3 276 0
	str	x1, [x4]
.LBE259:
.LBE258:
.LBE257:
.LBE260:
.LBE261:
.LBE254:
.LBE253:
	.loc 1 68 0 discriminator 1
	cmp	x22, x1
.LBB263:
.LBB262:
	.loc 2 108 0
	str	x3, [x0]
	.loc 2 109 0
	str	x2, [x0,8]
.LBE262:
.LBE263:
.LBB264:
.LBB265:
	.loc 2 77 0
	ldr	x2, [x19,104]
.LBB266:
.LBB267:
	.loc 2 42 0
	str	x0, [x19,104]
	.loc 2 43 0
	str	x5, [x0]
	.loc 2 44 0
	str	x2, [x0,8]
.LBB268:
.LBB269:
.LBB270:
	.loc 3 276 0
	str	x0, [x2]
	mov	x0, x1
.LBE270:
.LBE269:
.LBE268:
.LBE267:
.LBE266:
.LBE265:
.LBE264:
	.loc 1 68 0 discriminator 3
	ldr	x1, [x1]
	.loc 1 68 0 is_stmt 0 discriminator 1
	bne	.L26
.L21:
.LBB271:
.LBB272:
	.file 4 "/mnt/disk/jenkins/ci/workspace/chipset_release_960_xloader/opensource/component_code/vendor/huawei/extra/build/build_script/kirin_kernel_release/kernel/include/linux/spinlock.h"
	.loc 4 362 0 is_stmt 1
	mov	x0, x19
	mov	x1, x26
	bl	_raw_spin_unlock_irqrestore
.LVL30:
.LBE272:
.LBE271:
	.loc 1 75 0
	add	x0, x19, 24
	mov	w1, 3
	mov	w2, 1
	mov	x3, 0
	bl	__wake_up
.LVL31:
	.loc 1 77 0
	add	x5, x20, :lo12:.LANCHOR0
	adrp	x4, .LC8
	mov	w0, 4
	add	x3, x5, 48
	add	x1, x21, :lo12:.LC0
	mov	w2, 77
	add	x4, x4, :lo12:.LC8
	add	x5, x5, 72
	bl	HI_PRINT
.LVL32:
.LBE248:
.LBE247:
	.loc 1 146 0
	ldr	x0, [x19,64]
	cbz	x0, .L25
	.loc 1 148 0
	bl	vfree
.LVL33:
	.loc 1 149 0
	str	xzr, [x19,64]
.L25:
	.loc 1 153 0
	mov	x0, x19
	bl	vfree
.LVL34:
	.loc 1 156 0
	mov	w0, 0
	.loc 1 157 0
	ldp	x19, x20, [sp,16]
	.cfi_remember_state
	.cfi_restore 20
	.cfi_restore 19
.LVL35:
	ldp	x21, x22, [sp,32]
	.cfi_restore 22
	.cfi_restore 21
	ldp	x23, x24, [sp,48]
	.cfi_restore 24
	.cfi_restore 23
	ldp	x25, x26, [sp,64]
	.cfi_restore 26
	.cfi_restore 25
.LVL36:
	ldp	x29, x30, [sp], 80
	.cfi_restore 30
	.cfi_restore 29
	.cfi_def_cfa 31, 0
	ret
.LVL37:
.L32:
	.cfi_restore_state
	.loc 1 136 0
	adrp	x5, .LANCHOR0
	adrp	x1, .LC0
	add	x5, x5, :lo12:.LANCHOR0
	adrp	x4, .LC7
	add	x3, x5, 96
	mov	w0, 1
.LVL38:
	add	x1, x1, :lo12:.LC0
	mov	w2, 136
	add	x4, x4, :lo12:.LC7
	add	x5, x5, 120
	bl	HI_PRINT
.LVL39:
	.loc 1 137 0
	mov	w0, 11
	.loc 1 157 0
	ldp	x19, x20, [sp,16]
	.cfi_restore 19
	.cfi_restore 20
.LVL40:
	ldp	x21, x22, [sp,32]
	.cfi_restore 21
	.cfi_restore 22
	ldp	x23, x24, [sp,48]
	.cfi_restore 23
	.cfi_restore 24
	ldp	x25, x26, [sp,64]
	.cfi_restore 25
	.cfi_restore 26
	ldp	x29, x30, [sp], 80
	.cfi_restore 29
	.cfi_restore 30
	.cfi_def_cfa 31, 0
	ret
	.cfi_endproc
.LFE2758:
	.size	VENC_DRV_MngQueueDeinit, .-VENC_DRV_MngQueueDeinit
	.align	2
	.global	VENC_DRV_MngQueueEmpty
	.type	VENC_DRV_MngQueueEmpty, %function
VENC_DRV_MngQueueEmpty:
.LFB2759:
	.loc 1 160 0
	.cfi_startproc
.LVL41:
.LBB273:
.LBB274:
.LBB275:
.LBB276:
.LBB277:
	.loc 3 247 0 discriminator 5
	ldr	x1, [x0,80]!
.LVL42:
.LBE277:
.LBE276:
.LBE275:
	.loc 2 189 0 discriminator 5
	cmp	x0, x1
.LBE274:
.LBE273:
	.loc 1 162 0
	cset	w0, eq
	ret
	.cfi_endproc
.LFE2759:
	.size	VENC_DRV_MngQueueEmpty, .-VENC_DRV_MngQueueEmpty
	.align	2
	.global	VENC_DRV_MngQueueFull
	.type	VENC_DRV_MngQueueFull, %function
VENC_DRV_MngQueueFull:
.LFB2760:
	.loc 1 165 0
	.cfi_startproc
.LVL43:
.LBB278:
.LBB279:
.LBB280:
.LBB281:
.LBB282:
	.loc 3 247 0 discriminator 5
	ldr	x1, [x0,96]!
.LVL44:
.LBE282:
.LBE281:
.LBE280:
	.loc 2 189 0 discriminator 5
	cmp	x0, x1
.LBE279:
.LBE278:
	.loc 1 167 0
	cset	w0, eq
	ret
	.cfi_endproc
.LFE2760:
	.size	VENC_DRV_MngQueueFull, .-VENC_DRV_MngQueueFull
	.align	2
	.global	VENC_DRV_MngDequeue
	.type	VENC_DRV_MngDequeue, %function
VENC_DRV_MngDequeue:
.LFB2762:
	.loc 1 188 0
	.cfi_startproc
.LVL45:
	stp	x29, x30, [sp, -144]!
	.cfi_def_cfa_offset 144
	.cfi_offset 29, -144
	.cfi_offset 30, -136
	.loc 1 193 0
	cmp	x0, xzr
	.loc 1 188 0
	add	x29, sp, 0
	.cfi_def_cfa_register 29
	stp	x21, x22, [sp,32]
	.cfi_offset 21, -112
	.cfi_offset 22, -104
	adrp	x22, __stack_chk_guard
	.loc 1 193 0
	cset	w2, eq
	cmp	x1, xzr
	.loc 1 188 0
	str	x27, [sp,80]
	stp	x23, x24, [sp,48]
	ldr	x3, [x22,#:lo12:__stack_chk_guard]
	.cfi_offset 27, -64
	.cfi_offset 23, -96
	.cfi_offset 24, -88
	mov	x23, x1
	.loc 1 193 0
	cset	w1, eq
.LVL46:
	.loc 1 188 0
	str	x3, [x29,136]
	stp	x19, x20, [sp,16]
	stp	x25, x26, [sp,64]
	.cfi_offset 19, -128
	.cfi_offset 20, -120
	.cfi_offset 25, -80
	.cfi_offset 26, -72
	.loc 1 193 0
	orr	w1, w2, w1
	.loc 1 188 0
	mov	x19, x0
	.loc 1 193 0
	cbz	w1, .L36
	.loc 1 195 0
	adrp	x5, .LANCHOR0
	adrp	x1, .LC0
	add	x5, x5, :lo12:.LANCHOR0
	adrp	x4, .LC10
	add	x3, x5, 144
	mov	w0, 1
	add	x1, x1, :lo12:.LC0
	mov	w2, 195
	add	x4, x4, :lo12:.LC10
	add	x5, x5, 168
	mov	x6, x19
	mov	x7, x23
	.loc 1 196 0
	mov	w21, 11
	.loc 1 195 0
	bl	HI_PRINT
.LVL47:
.L37:
	.loc 1 230 0
	ldr	x2, [x29,136]
	mov	w0, w21
	ldr	x1, [x22,#:lo12:__stack_chk_guard]
	cmp	x2, x1
	bne	.L58
	ldp	x19, x20, [sp,16]
	.cfi_remember_state
	.cfi_restore 20
	.cfi_restore 19
.LVL48:
	ldp	x21, x22, [sp,32]
	.cfi_restore 22
	.cfi_restore 21
	ldp	x23, x24, [sp,48]
	.cfi_restore 24
	.cfi_restore 23
.LVL49:
	ldp	x25, x26, [sp,64]
	.cfi_restore 26
	.cfi_restore 25
	ldr	x27, [sp,80]
	.cfi_restore 27
	ldp	x29, x30, [sp], 144
	.cfi_restore 30
	.cfi_restore 29
	.cfi_def_cfa 31, 0
	ret
.LVL50:
.L36:
	.cfi_restore_state
	.loc 1 199 0
	mov	w1, 1
	str	w1, [x0,112]
.LBB337:
.LBB338:
.LBB339:
.LBB340:
	.loc 1 179 0
	add	x25, x0, 80
	.loc 1 178 0 discriminator 1
	bl	_raw_spin_lock_irqsave
.LVL51:
.LBB341:
.LBB342:
	.loc 4 362 0
	mov	x1, x0
	mov	x0, x19
.LVL52:
.LBE342:
.LBE341:
.LBB344:
.LBB345:
.LBB346:
.LBB347:
	.loc 3 247 0 discriminator 5
	ldr	x21, [x19,80]
.LBE347:
.LBE346:
.LBE345:
.LBE344:
	.loc 1 180 0
	ldr	w20, [x19,76]
.LBB348:
.LBB343:
	.loc 4 362 0
	bl	_raw_spin_unlock_irqrestore
.LVL53:
.LBE343:
.LBE348:
	.loc 1 179 0
	cmp	x25, x21
	cset	w0, ne
.LVL54:
	.loc 1 184 0
	orr	w20, w0, w20
.LVL55:
.LBE340:
.LBE339:
.LBE338:
	.loc 1 201 0 discriminator 4
	cbz	w20, .L59
.LBE337:
	.loc 1 202 0
	str	wzr, [x19,112]
.L46:
	.loc 1 208 0 discriminator 1
	mov	x0, x19
	bl	_raw_spin_lock_irqsave
.LVL56:
	.loc 1 209 0
	ldr	w21, [x19,76]
	.loc 1 208 0 discriminator 1
	mov	x24, x0
.LVL57:
	.loc 1 209 0
	cbnz	w21, .L60
.LBB362:
.LBB363:
.LBB364:
.LBB365:
	.loc 3 247 0 discriminator 5
	ldr	x0, [x19,80]
.LBE365:
.LBE364:
.LBE363:
.LBE362:
	.loc 1 216 0
	cmp	x25, x0
	beq	.L61
.LBB366:
	.loc 1 223 0
	ldr	x20, [x19,80]
.LVL58:
.LBE366:
.LBB367:
.LBB368:
	.loc 2 108 0
	mov	x4, 256
	.loc 2 109 0
	mov	x3, 512
	.loc 2 108 0
	movk	x4, 0xdead, lsl 48
	.loc 2 109 0
	movk	x3, 0xdead, lsl 48
.LBE368:
.LBE367:
	.loc 1 225 0
	add	x1, x20, 776
.LBB377:
.LBB374:
	.loc 2 107 0
	ldr	x6, [x20]
.LBE374:
.LBE377:
	.loc 1 225 0
	add	x0, x23, 776
.LBB378:
.LBB375:
	.loc 2 107 0
	ldr	x5, [x20,8]
.LBE375:
.LBE378:
	.loc 1 225 0
	mov	x2, 168
.LBB379:
.LBB376:
.LBB369:
.LBB370:
	.loc 2 89 0
	str	x5, [x6,8]
.LBB371:
.LBB372:
.LBB373:
	.loc 3 276 0
	str	x6, [x5]
.LBE373:
.LBE372:
.LBE371:
.LBE370:
.LBE369:
	.loc 2 109 0
	str	x3, [x20,8]
	.loc 2 108 0
	str	x4, [x20]
.LBE376:
.LBE379:
	.loc 1 225 0
	bl	memcpy
.LVL59:
.LBB380:
.LBB381:
	.loc 2 63 0
	mov	x2, x19
.LBE381:
.LBE380:
.LBB388:
.LBB389:
	.loc 4 362 0
	mov	x0, x19
.LVL60:
	mov	x1, x24
.LBE389:
.LBE388:
.LBB391:
.LBB387:
	.loc 2 63 0
	ldr	x3, [x2,96]!
.LBB382:
.LBB383:
	.loc 2 42 0
	str	x20, [x3,8]
	.loc 2 43 0
	str	x3, [x20]
	.loc 2 44 0
	str	x2, [x20,8]
.LVL61:
.LBB384:
.LBB385:
.LBB386:
	.loc 3 276 0
	str	x20, [x19,96]
.LBE386:
.LBE385:
.LBE384:
.LBE383:
.LBE382:
.LBE387:
.LBE391:
.LBB392:
.LBB390:
	.loc 4 362 0
	bl	_raw_spin_unlock_irqrestore
.LVL62:
.LBE390:
.LBE392:
	.loc 1 229 0
	b	.L37
.LVL63:
.L59:
.LBB393:
.LBB349:
	.loc 1 201 0 discriminator 8
	mov	w1, 0
	add	x0, x29, 96
	add	x26, x19, 24
	.loc 1 201 0 is_stmt 0 discriminator 5
	mov	x21, 8
	.loc 1 201 0 discriminator 8
	bl	init_wait_entry
.LVL64:
.L43:
.LBB350:
	.loc 1 201 0 discriminator 21
	add	x1, x29, 96
	mov	w2, 1
	mov	x0, x26
	bl	prepare_to_wait_event
.LVL65:
	mov	x24, x0
.LBB351:
.LBB352:
.LBB353:
	.loc 1 178 0 is_stmt 1 discriminator 1
	mov	x0, x19
	bl	_raw_spin_lock_irqsave
.LVL66:
.LBB354:
.LBB355:
	.loc 4 362 0
	mov	x1, x0
	mov	x0, x19
.LVL67:
.LBE355:
.LBE354:
.LBB357:
.LBB358:
.LBB359:
.LBB360:
	.loc 3 247 0 discriminator 5
	ldr	x27, [x19,80]
.LBE360:
.LBE359:
.LBE358:
.LBE357:
	.loc 1 180 0
	ldr	w20, [x19,76]
.LBB361:
.LBB356:
	.loc 4 362 0
	bl	_raw_spin_unlock_irqrestore
.LVL68:
.LBE356:
.LBE361:
	.loc 1 179 0
	cmp	x25, x27
	cset	w0, ne
.LVL69:
	.loc 1 184 0
	orr	w20, w0, w20
.LVL70:
	cmp	w20, wzr
	cset	w0, ne
.LBE353:
.LBE352:
	.loc 1 201 0 discriminator 21
	cbnz	x21, .L50
	cbz	w0, .L41
	.loc 1 201 0 is_stmt 0 discriminator 12
	mov	x21, 1
.L50:
.LBE351:
	.loc 1 201 0 discriminator 14
	cbnz	w0, .L41
	.loc 1 201 0 discriminator 16
	cbnz	x24, .L42
	.loc 1 201 0 discriminator 20
	mov	x0, x21
	bl	schedule_timeout
.LVL71:
	mov	x21, x0
.LBE350:
	.loc 1 201 0
	b	.L43
.L41:
	.loc 1 201 0 discriminator 22
	mov	x0, x26
	add	x1, x29, 96
	mov	x24, x21
	bl	finish_wait
.LVL72:
.L42:
.LBE349:
.LBE393:
	.loc 1 202 0 is_stmt 1
	str	wzr, [x19,112]
	.loc 1 203 0
	cmp	w24, wzr
	bgt	.L46
	.loc 1 206 0
	mov	w21, -1
	b	.L37
.LVL73:
.L60:
	.loc 1 211 0
	adrp	x5, .LANCHOR0
	adrp	x4, .LC11
	add	x5, x5, :lo12:.LANCHOR0
	mov	w2, 211
	add	x3, x5, 144
	add	x4, x4, :lo12:.LC11
.L56:
	.loc 1 218 0
	adrp	x1, .LC0
	add	x5, x5, 168
	mov	w0, 1
	add	x1, x1, :lo12:.LC0
	.loc 1 220 0
	mov	w21, -1
	.loc 1 218 0
	bl	HI_PRINT
.LVL74:
.LBB394:
.LBB395:
	.loc 4 362 0
	mov	x0, x19
	mov	x1, x24
	bl	_raw_spin_unlock_irqrestore
.LVL75:
.LBE395:
.LBE394:
	.loc 1 220 0
	b	.L37
.L61:
	.loc 1 218 0
	adrp	x5, .LANCHOR0
	adrp	x4, .LC12
	add	x5, x5, :lo12:.LANCHOR0
	mov	w2, 218
	add	x3, x5, 144
	add	x4, x4, :lo12:.LC12
	b	.L56
.LVL76:
.L58:
	.loc 1 230 0
	bl	__stack_chk_fail
.LVL77:
	.cfi_endproc
.LFE2762:
	.size	VENC_DRV_MngDequeue, .-VENC_DRV_MngDequeue
	.align	2
	.global	VENC_DRV_MngQueue
	.type	VENC_DRV_MngQueue, %function
VENC_DRV_MngQueue:
.LFB2763:
	.loc 1 233 0
	.cfi_startproc
.LVL78:
	stp	x29, x30, [sp, -80]!
	.cfi_def_cfa_offset 80
	.cfi_offset 29, -80
	.cfi_offset 30, -72
	add	x29, sp, 0
	.cfi_def_cfa_register 29
	stp	x19, x20, [sp,16]
	stp	x21, x22, [sp,32]
	.cfi_offset 19, -64
	.cfi_offset 20, -56
	.cfi_offset 21, -48
	.cfi_offset 22, -40
	.loc 1 233 0
	mov	x20, x0
	.loc 1 236 0
	cbz	x0, .L70
	str	x3, [x29,56]
	str	x2, [x29,64]
	str	x1, [x29,72]
	.loc 1 242 0 discriminator 1
	bl	_raw_spin_lock_irqsave
.LVL79:
	.loc 1 243 0
	ldr	w21, [x20,76]
	.loc 1 242 0 discriminator 1
	mov	x22, x0
.LVL80:
	.loc 1 243 0
	ldr	x1, [x29,72]
.LVL81:
	ldr	x2, [x29,64]
.LVL82:
	ldr	x3, [x29,56]
.LVL83:
	cbnz	w21, .L71
.LBB396:
.LBB397:
.LBB398:
.LBB399:
	.loc 3 247 0 discriminator 5
	mov	x0, x20
	ldr	x4, [x0,96]!
.LBE399:
.LBE398:
.LBE397:
.LBE396:
	.loc 1 250 0
	cmp	x0, x4
	beq	.L72
.LBB400:
	.loc 1 257 0
	ldr	x19, [x20,96]
.LVL84:
.LBE400:
	.loc 1 263 0
	sub	w0, w2, #655360
.LBB401:
.LBB402:
	.loc 2 108 0
	mov	x5, 256
	.loc 2 109 0
	mov	x4, 512
.LBE402:
.LBE401:
	.loc 1 263 0
	sub	w0, w0, #7
.LBB410:
.LBB408:
	.loc 2 108 0
	movk	x5, 0xdead, lsl 48
	.loc 2 107 0
	ldr	x7, [x19]
	.loc 2 109 0
	movk	x4, 0xdead, lsl 48
	.loc 2 107 0
	ldr	x6, [x19,8]
.LBE408:
.LBE410:
	.loc 1 263 0
	cmp	w0, 1
.LBB411:
.LBB409:
.LBB403:
.LBB404:
	.loc 2 89 0
	str	x6, [x7,8]
.LBB405:
.LBB406:
.LBB407:
	.loc 3 276 0
	str	x7, [x6]
.LBE407:
.LBE406:
.LBE405:
.LBE404:
.LBE403:
	.loc 2 108 0
	str	x5, [x19]
	.loc 2 109 0
	str	x4, [x19,8]
.LBE409:
.LBE411:
	.loc 1 261 0
	str	w3, [x19,776]
	.loc 1 262 0
	str	w2, [x19,780]
	.loc 1 263 0
	bls	.L73
.L67:
.LBB412:
.LBB413:
	.loc 2 77 0
	ldr	x2, [x20,88]
.LVL85:
.LBE413:
.LBE412:
	.loc 1 274 0
	add	x1, x20, 80
.LVL86:
.LBB426:
.LBB423:
.LBB414:
.LBB415:
	.loc 2 42 0
	str	x19, [x20,88]
.LBE415:
.LBE414:
.LBE423:
.LBE426:
.LBB427:
.LBB428:
	.loc 4 362 0
	mov	x0, x20
.LBE428:
.LBE427:
.LBB431:
.LBB424:
.LBB421:
.LBB419:
	.loc 2 43 0
	str	x1, [x19]
.LBE419:
.LBE421:
.LBE424:
.LBE431:
.LBB432:
.LBB429:
	.loc 4 362 0
	mov	x1, x22
.LBE429:
.LBE432:
.LBB433:
.LBB425:
.LBB422:
.LBB420:
	.loc 2 44 0
	str	x2, [x19,8]
.LBB416:
.LBB417:
.LBB418:
	.loc 3 276 0
	str	x19, [x2]
.LBE418:
.LBE417:
.LBE416:
.LBE420:
.LBE422:
.LBE425:
.LBE433:
.LBB434:
.LBB430:
	.loc 4 362 0
	bl	_raw_spin_unlock_irqrestore
.LVL87:
.LBE430:
.LBE434:
	.loc 1 276 0
	mov	w1, 1
	add	x0, x20, 24
	mov	w2, w1
	mov	x3, 0
	bl	__wake_up
.LVL88:
.L64:
	.loc 1 279 0
	mov	w0, w21
	ldp	x19, x20, [sp,16]
	.cfi_remember_state
	.cfi_restore 20
	.cfi_restore 19
.LVL89:
	ldp	x21, x22, [sp,32]
	.cfi_restore 22
	.cfi_restore 21
.LVL90:
	ldp	x29, x30, [sp], 80
	.cfi_restore 30
	.cfi_restore 29
	.cfi_def_cfa 31, 0
	ret
.LVL91:
.L73:
	.cfi_restore_state
	.loc 1 265 0
	cbz	x1, .L74
	.loc 1 271 0
	add	x0, x19, 784
	add	x1, x1, 784
.LVL92:
	mov	x2, 152
.LVL93:
	bl	memcpy
.LVL94:
	b	.L67
.LVL95:
.L70:
	.loc 1 238 0
	adrp	x5, .LANCHOR0
	adrp	x1, .LC0
.LVL96:
	add	x5, x5, :lo12:.LANCHOR0
	adrp	x4, .LC7
	add	x3, x5, 192
.LVL97:
	mov	w0, 1
.LVL98:
	add	x1, x1, :lo12:.LC0
	mov	w2, 238
.LVL99:
	add	x4, x4, :lo12:.LC7
	add	x5, x5, 216
	.loc 1 239 0
	mov	w21, 11
	.loc 1 238 0
	bl	HI_PRINT
.LVL100:
	.loc 1 279 0
	mov	w0, w21
	ldp	x19, x20, [sp,16]
	.cfi_remember_state
	.cfi_restore 19
	.cfi_restore 20
.LVL101:
	ldp	x21, x22, [sp,32]
	.cfi_restore 21
	.cfi_restore 22
	ldp	x29, x30, [sp], 80
	.cfi_restore 29
	.cfi_restore 30
	.cfi_def_cfa 31, 0
	ret
.LVL102:
.L74:
	.cfi_restore_state
	.loc 1 267 0
	adrp	x5, .LANCHOR0
	adrp	x4, .LC15
	add	x5, x5, :lo12:.LANCHOR0
	adrp	x1, .LC0
.LVL103:
	add	x3, x5, 192
.LVL104:
	mov	w2, 267
.LVL105:
	add	x4, x4, :lo12:.LC15
	add	x5, x5, 216
	mov	x6, 0
	mov	w0, 1
	add	x1, x1, :lo12:.LC0
	.loc 1 269 0
	mov	w21, 11
	.loc 1 267 0
	bl	HI_PRINT
.LVL106:
.LBB435:
.LBB436:
	.loc 4 362 0
	mov	x0, x20
	mov	x1, x22
	bl	_raw_spin_unlock_irqrestore
.LVL107:
.LBE436:
.LBE435:
	.loc 1 269 0
	b	.L64
.LVL108:
.L71:
	.loc 1 245 0
	adrp	x5, .LANCHOR0
	adrp	x4, .LC13
	add	x5, x5, :lo12:.LANCHOR0
	mov	w2, 245
.LVL109:
	add	x3, x5, 192
.LVL110:
	add	x4, x4, :lo12:.LC13
.L69:
	.loc 1 252 0
	adrp	x1, .LC0
.LVL111:
	add	x5, x5, 216
	mov	w0, 1
	add	x1, x1, :lo12:.LC0
	.loc 1 254 0
	mov	w21, -1
	.loc 1 252 0
	bl	HI_PRINT
.LVL112:
.LBB437:
.LBB438:
	.loc 4 362 0
	mov	x0, x20
	mov	x1, x22
	bl	_raw_spin_unlock_irqrestore
.LVL113:
.LBE438:
.LBE437:
	.loc 1 254 0
	b	.L64
.LVL114:
.L72:
	.loc 1 252 0
	adrp	x5, .LANCHOR0
	adrp	x4, .LC14
	add	x5, x5, :lo12:.LANCHOR0
	mov	w2, 252
.LVL115:
	add	x3, x5, 192
.LVL116:
	add	x4, x4, :lo12:.LC14
	b	.L69
	.cfi_endproc
.LFE2763:
	.size	VENC_DRV_MngQueue, .-VENC_DRV_MngQueue
	.align	2
	.global	VENC_DRV_MngQueueRefresh
	.type	VENC_DRV_MngQueueRefresh, %function
VENC_DRV_MngQueueRefresh:
.LFB2764:
	.loc 1 282 0
	.cfi_startproc
.LVL117:
	stp	x29, x30, [sp, -32]!
	.cfi_def_cfa_offset 32
	.cfi_offset 29, -32
	.cfi_offset 30, -24
	add	x29, sp, 0
	.cfi_def_cfa_register 29
	str	x19, [sp,16]
	.cfi_offset 19, -16
	.loc 1 282 0
	mov	x19, x0
	.loc 1 285 0 discriminator 1
	bl	_raw_spin_lock_irqsave
.LVL118:
	mov	x1, x0
.LVL119:
.LBB439:
.LBB440:
	.loc 1 161 0
	add	x6, x19, 80
	add	x7, x19, 96
.LBB441:
.LBB442:
.LBB443:
.LBB444:
	.loc 3 247 0 discriminator 5
	ldr	x0, [x19,80]
.LBE444:
.LBE443:
.LBE442:
.LBE441:
.LBE440:
.LBE439:
	.loc 1 286 0
	cmp	x6, x0
	beq	.L78
.L79:
.LBB450:
	.loc 1 288 0
	ldr	x0, [x19,80]
.LVL120:
.LBE450:
.LBB451:
.LBB452:
	.loc 2 108 0
	mov	x3, 256
	.loc 2 109 0
	mov	x2, 512
	.loc 2 108 0
	movk	x3, 0xdead, lsl 48
	.loc 2 109 0
	movk	x2, 0xdead, lsl 48
	.loc 2 107 0
	ldr	x5, [x0]
	ldr	x4, [x0,8]
.LBB453:
.LBB454:
	.loc 2 89 0
	str	x4, [x5,8]
.LBB455:
.LBB456:
.LBB457:
	.loc 3 276 0
	str	x5, [x4]
.LBE457:
.LBE456:
.LBE455:
.LBE454:
.LBE453:
	.loc 2 108 0
	str	x3, [x0]
	.loc 2 109 0
	str	x2, [x0,8]
.LBE452:
.LBE451:
.LBB458:
.LBB459:
	.loc 2 63 0
	ldr	x2, [x19,96]
.LBB460:
.LBB461:
	.loc 2 42 0
	str	x0, [x2,8]
	.loc 2 43 0
	str	x2, [x0]
	.loc 2 44 0
	str	x7, [x0,8]
.LBB462:
.LBB463:
.LBB464:
	.loc 3 276 0
	str	x0, [x19,96]
.LBE464:
.LBE463:
.LBE462:
.LBE461:
.LBE460:
.LBE459:
.LBE458:
.LBB465:
.LBB449:
.LBB448:
.LBB447:
.LBB446:
.LBB445:
	.loc 3 247 0 discriminator 5
	ldr	x0, [x19,80]
.LVL121:
.LBE445:
.LBE446:
.LBE447:
.LBE448:
.LBE449:
.LBE465:
	.loc 1 286 0
	cmp	x6, x0
	bne	.L79
.L78:
.LBB466:
.LBB467:
	.loc 4 362 0
	mov	x0, x19
	bl	_raw_spin_unlock_irqrestore
.LVL122:
.LBE467:
.LBE466:
	.loc 1 294 0
	ldr	x19, [sp,16]
	.cfi_restore 19
.LVL123:
	mov	w0, 0
	ldp	x29, x30, [sp], 32
	.cfi_restore 30
	.cfi_restore 29
	.cfi_def_cfa 31, 0
	ret
	.cfi_endproc
.LFE2764:
	.size	VENC_DRV_MngQueueRefresh, .-VENC_DRV_MngQueueRefresh
	.align	2
	.global	VENC_DRV_MngQueueSize
	.type	VENC_DRV_MngQueueSize, %function
VENC_DRV_MngQueueSize:
.LFB2765:
	.loc 1 297 0
	.cfi_startproc
.LVL124:
	stp	x29, x30, [sp, -32]!
	.cfi_def_cfa_offset 32
	.cfi_offset 29, -32
	.cfi_offset 30, -24
	add	x29, sp, 0
	.cfi_def_cfa_register 29
	stp	x19, x20, [sp,16]
	.cfi_offset 19, -16
	.cfi_offset 20, -8
	.loc 1 297 0
	mov	x20, x0
	.loc 1 301 0 discriminator 1
	bl	_raw_spin_lock_irqsave
.LVL125:
	.loc 1 302 0
	mov	x2, x20
	.loc 1 301 0 discriminator 1
	mov	x1, x0
.LVL126:
	.loc 1 302 0 discriminator 1
	mov	w19, 0
.LVL127:
	.loc 1 302 0 is_stmt 0
	ldr	x0, [x2,80]!
.LVL128:
	.loc 1 302 0 discriminator 1
	cmp	x0, x2
	beq	.L83
.L84:
	.loc 1 302 0 discriminator 3
	ldr	x0, [x0]
	.loc 1 304 0 is_stmt 1
	add	w19, w19, 1
	.loc 1 302 0 discriminator 1
	cmp	x0, x2
	bne	.L84
.L83:
.LBB468:
.LBB469:
	.loc 4 362 0
	mov	x0, x20
.LVL129:
	bl	_raw_spin_unlock_irqrestore
.LVL130:
.LBE469:
.LBE468:
	.loc 1 308 0
	mov	w0, w19
	ldp	x19, x20, [sp,16]
	.cfi_restore 20
	.cfi_restore 19
.LVL131:
	ldp	x29, x30, [sp], 32
	.cfi_restore 30
	.cfi_restore 29
	.cfi_def_cfa 31, 0
	ret
	.cfi_endproc
.LFE2765:
	.size	VENC_DRV_MngQueueSize, .-VENC_DRV_MngQueueSize
	.section	.rodata
	.align	3
.LANCHOR0 = . + 0
	.type	__FUNCTION__.35158, %object
	.size	__FUNCTION__.35158, 22
__FUNCTION__.35158:
	.string	"VENC_DRV_MngQueueInit"
	.zero	2
	.type	__func__.35159, %object
	.size	__func__.35159, 22
__func__.35159:
	.string	"VENC_DRV_MngQueueInit"
	.zero	2
	.type	__FUNCTION__.35143, %object
	.size	__FUNCTION__.35143, 22
__FUNCTION__.35143:
	.string	"VENC_DRV_MngQueueStop"
	.zero	2
	.type	__func__.35144, %object
	.size	__func__.35144, 22
__func__.35144:
	.string	"VENC_DRV_MngQueueStop"
	.zero	2
	.type	__FUNCTION__.35168, %object
	.size	__FUNCTION__.35168, 24
__FUNCTION__.35168:
	.string	"VENC_DRV_MngQueueDeinit"
	.type	__func__.35169, %object
	.size	__func__.35169, 24
__func__.35169:
	.string	"VENC_DRV_MngQueueDeinit"
	.type	__FUNCTION__.35195, %object
	.size	__FUNCTION__.35195, 20
__FUNCTION__.35195:
	.string	"VENC_DRV_MngDequeue"
	.zero	4
	.type	__func__.35196, %object
	.size	__func__.35196, 20
__func__.35196:
	.string	"VENC_DRV_MngDequeue"
	.zero	4
	.type	__FUNCTION__.35223, %object
	.size	__FUNCTION__.35223, 18
__FUNCTION__.35223:
	.string	"VENC_DRV_MngQueue"
	.zero	6
	.type	__func__.35224, %object
	.size	__func__.35224, 18
__func__.35224:
	.string	"VENC_DRV_MngQueue"
	.section	.rodata.str1.8,"aMS",%progbits,1
	.align	3
.LC0:
	.string	"/mnt/disk/jenkins/ci/workspace/chipset_release_960_xloader/opensource/component_code/vendor/huawei/extra/build/build_script/kirin_kernel_release/kernel/drivers/vcodec/hi_vcodec/venc/drv/venc/drv_venc_queue_mng.c"
	.zero	4
.LC1:
	.string	"%s, Invalid Param: depth = %d!\n"
.LC2:
	.string	"%s, vmalloc queue failed!\n"
	.zero	5
.LC3:
	.string	"&(&queue->msg_lock)->rlock"
	.zero	5
.LC4:
	.string	"&queue->wait"
	.zero	3
.LC5:
	.string	"%s, vmalloc queue_data_s failed\n"
	.zero	7
.LC6:
	.string	"%s, msg prepare to stop!\n"
	.zero	6
.LC7:
	.string	"%s, Invalid Param : queue is null!\n"
	.zero	4
.LC8:
	.string	"%s, Queue Stop ok!\n"
	.zero	4
.LC9:
	.string	"%s, msg queue not empty, flush it!\n"
	.zero	4
.LC10:
	.string	"%s, Invalid Param : queue = %pK, pQueue_data = %pK\n"
	.zero	4
.LC11:
	.string	"%s, msg queue stoped\n"
	.zero	2
.LC12:
	.string	"%s, no free msg dequeue!\n"
	.zero	6
.LC13:
	.string	"%s, msg queue stopped!\n"
.LC14:
	.string	"%s, no free msg left!\n"
	.zero	1
.LC15:
	.string	"%s, invalid param of parm : pQueue_data = %pK!\n"
	.bss
	.align	3
.LANCHOR1 = . + 0
	.type	__key.35160, %object
	.size	__key.35160, 0
__key.35160:
	.type	__key.35161, %object
	.size	__key.35161, 0
__key.35161:
	.text
.Letext0:
	.file 5 "/mnt/disk/jenkins/ci/workspace/chipset_release_960_xloader/opensource/component_code/vendor/huawei/extra/build/build_script/kirin_kernel_release/kernel/include/uapi/asm-generic/int-ll64.h"
	.file 6 "/mnt/disk/jenkins/ci/workspace/chipset_release_960_xloader/opensource/component_code/vendor/huawei/extra/build/build_script/kirin_kernel_release/kernel/include/asm-generic/int-ll64.h"
	.file 7 "/mnt/disk/jenkins/ci/workspace/chipset_release_960_xloader/opensource/component_code/vendor/huawei/extra/build/build_script/kirin_kernel_release/kernel/include/uapi/asm-generic/posix_types.h"
	.file 8 "/mnt/disk/jenkins/ci/workspace/chipset_release_960_xloader/opensource/component_code/vendor/huawei/extra/build/build_script/kirin_kernel_release/kernel/include/linux/export.h"
	.file 9 "/mnt/disk/jenkins/ci/workspace/chipset_release_960_xloader/opensource/component_code/vendor/huawei/extra/build/build_script/kirin_kernel_release/kernel/include/linux/types.h"
	.file 10 "/mnt/disk/jenkins/ci/workspace/chipset_release_960_xloader/opensource/component_code/vendor/huawei/extra/build/build_script/kirin_kernel_release/kernel/include/asm-generic/bug.h"
	.file 11 "/mnt/disk/jenkins/ci/workspace/chipset_release_960_xloader/opensource/component_code/vendor/huawei/extra/build/build_script/kirin_kernel_release/kernel/include/linux/restart_block.h"
	.file 12 "/mnt/disk/jenkins/ci/workspace/chipset_release_960_xloader/opensource/component_code/vendor/huawei/extra/build/build_script/kirin_kernel_release/kernel/include/uapi/linux/time.h"
	.file 13 "/mnt/disk/jenkins/ci/workspace/chipset_release_960_xloader/opensource/component_code/vendor/huawei/extra/build/build_script/kirin_kernel_release/kernel/arch/arm64/include/asm/compat.h"
	.file 14 "/mnt/disk/jenkins/ci/workspace/chipset_release_960_xloader/opensource/component_code/vendor/huawei/extra/build/build_script/kirin_kernel_release/kernel/arch/arm64/include/asm/thread_info.h"
	.file 15 "/mnt/disk/jenkins/ci/workspace/chipset_release_960_xloader/opensource/component_code/vendor/huawei/extra/build/build_script/kirin_kernel_release/kernel/arch/arm64/include/uapi/asm/ptrace.h"
	.file 16 "/mnt/disk/jenkins/ci/workspace/chipset_release_960_xloader/opensource/component_code/vendor/huawei/extra/build/build_script/kirin_kernel_release/kernel/arch/arm64/include/asm/spinlock_types.h"
	.file 17 "/mnt/disk/jenkins/ci/workspace/chipset_release_960_xloader/opensource/component_code/vendor/huawei/extra/build/build_script/kirin_kernel_release/kernel/include/linux/spinlock_types.h"
	.file 18 "/mnt/disk/jenkins/ci/workspace/chipset_release_960_xloader/opensource/component_code/vendor/huawei/extra/build/build_script/kirin_kernel_release/kernel/include/linux/rwlock_types.h"
	.file 19 "/mnt/disk/jenkins/ci/workspace/chipset_release_960_xloader/opensource/component_code/vendor/huawei/extra/build/build_script/kirin_kernel_release/kernel/arch/arm64/include/asm/fpsimd.h"
	.file 20 "/mnt/disk/jenkins/ci/workspace/chipset_release_960_xloader/opensource/component_code/vendor/huawei/extra/build/build_script/kirin_kernel_release/kernel/include/linux/jump_label.h"
	.file 21 "/mnt/disk/jenkins/ci/workspace/chipset_release_960_xloader/opensource/component_code/vendor/huawei/extra/build/build_script/kirin_kernel_release/kernel/include/asm-generic/atomic-long.h"
	.file 22 "/mnt/disk/jenkins/ci/workspace/chipset_release_960_xloader/opensource/component_code/vendor/huawei/extra/build/build_script/kirin_kernel_release/kernel/arch/arm64/include/asm/processor.h"
	.file 23 "/mnt/disk/jenkins/ci/workspace/chipset_release_960_xloader/opensource/component_code/vendor/huawei/extra/build/build_script/kirin_kernel_release/kernel/include/linux/wait.h"
	.file 24 "/mnt/disk/jenkins/ci/workspace/chipset_release_960_xloader/opensource/component_code/vendor/huawei/extra/build/build_script/kirin_kernel_release/kernel/include/linux/seqlock.h"
	.file 25 "/mnt/disk/jenkins/ci/workspace/chipset_release_960_xloader/opensource/component_code/vendor/huawei/extra/build/build_script/kirin_kernel_release/kernel/include/linux/nodemask.h"
	.file 26 "/mnt/disk/jenkins/ci/workspace/chipset_release_960_xloader/opensource/component_code/vendor/huawei/extra/build/build_script/kirin_kernel_release/kernel/include/linux/cpumask.h"
	.file 27 "/mnt/disk/jenkins/ci/workspace/chipset_release_960_xloader/opensource/component_code/vendor/huawei/extra/build/build_script/kirin_kernel_release/kernel/include/linux/completion.h"
	.file 28 "/mnt/disk/jenkins/ci/workspace/chipset_release_960_xloader/opensource/component_code/vendor/huawei/extra/build/build_script/kirin_kernel_release/kernel/include/linux/time64.h"
	.file 29 "/mnt/disk/jenkins/ci/workspace/chipset_release_960_xloader/opensource/component_code/vendor/huawei/extra/build/build_script/kirin_kernel_release/kernel/include/linux/ktime.h"
	.file 30 "/mnt/disk/jenkins/ci/workspace/chipset_release_960_xloader/opensource/component_code/vendor/huawei/extra/build/build_script/kirin_kernel_release/kernel/include/linux/rbtree.h"
	.file 31 "/mnt/disk/jenkins/ci/workspace/chipset_release_960_xloader/opensource/component_code/vendor/huawei/extra/build/build_script/kirin_kernel_release/kernel/include/linux/osq_lock.h"
	.file 32 "/mnt/disk/jenkins/ci/workspace/chipset_release_960_xloader/opensource/component_code/vendor/huawei/extra/build/build_script/kirin_kernel_release/kernel/include/linux/rwsem.h"
	.file 33 "/mnt/disk/jenkins/ci/workspace/chipset_release_960_xloader/opensource/component_code/vendor/huawei/extra/build/build_script/kirin_kernel_release/kernel/include/linux/sched.h"
	.file 34 "/mnt/disk/jenkins/ci/workspace/chipset_release_960_xloader/opensource/component_code/vendor/huawei/extra/build/build_script/kirin_kernel_release/kernel/include/linux/mm_types.h"
	.file 35 "/mnt/disk/jenkins/ci/workspace/chipset_release_960_xloader/opensource/component_code/vendor/huawei/extra/build/build_script/kirin_kernel_release/kernel/include/linux/lockdep.h"
	.file 36 "/mnt/disk/jenkins/ci/workspace/chipset_release_960_xloader/opensource/component_code/vendor/huawei/extra/build/build_script/kirin_kernel_release/kernel/include/linux/uprobes.h"
	.file 37 "/mnt/disk/jenkins/ci/workspace/chipset_release_960_xloader/opensource/component_code/vendor/huawei/extra/build/build_script/kirin_kernel_release/kernel/include/linux/timer.h"
	.file 38 "/mnt/disk/jenkins/ci/workspace/chipset_release_960_xloader/opensource/component_code/vendor/huawei/extra/build/build_script/kirin_kernel_release/kernel/include/linux/uidgid.h"
	.file 39 "/mnt/disk/jenkins/ci/workspace/chipset_release_960_xloader/opensource/component_code/vendor/huawei/extra/build/build_script/kirin_kernel_release/kernel/include/linux/workqueue.h"
	.file 40 "/mnt/disk/jenkins/ci/workspace/chipset_release_960_xloader/opensource/component_code/vendor/huawei/extra/build/build_script/kirin_kernel_release/kernel/arch/arm64/include/asm/pgtable-types.h"
	.file 41 "/mnt/disk/jenkins/ci/workspace/chipset_release_960_xloader/opensource/component_code/vendor/huawei/extra/build/build_script/kirin_kernel_release/kernel/arch/arm64/include/asm/page.h"
	.file 42 "/mnt/disk/jenkins/ci/workspace/chipset_release_960_xloader/opensource/component_code/vendor/huawei/extra/build/build_script/kirin_kernel_release/kernel/include/linux/llist.h"
	.file 43 "/mnt/disk/jenkins/ci/workspace/chipset_release_960_xloader/opensource/component_code/vendor/huawei/extra/build/build_script/kirin_kernel_release/kernel/arch/arm64/include/asm/smp.h"
	.file 44 "/mnt/disk/jenkins/ci/workspace/chipset_release_960_xloader/opensource/component_code/vendor/huawei/extra/build/build_script/kirin_kernel_release/kernel/arch/arm64/include/asm/mmu.h"
	.file 45 "/mnt/disk/jenkins/ci/workspace/chipset_release_960_xloader/opensource/component_code/vendor/huawei/extra/build/build_script/kirin_kernel_release/kernel/include/linux/fs.h"
	.file 46 "/mnt/disk/jenkins/ci/workspace/chipset_release_960_xloader/opensource/component_code/vendor/huawei/extra/build/build_script/kirin_kernel_release/kernel/include/linux/mm.h"
	.file 47 "/mnt/disk/jenkins/ci/workspace/chipset_release_960_xloader/opensource/component_code/vendor/huawei/extra/build/build_script/kirin_kernel_release/kernel/include/linux/mmzone.h"
	.file 48 "/mnt/disk/jenkins/ci/workspace/chipset_release_960_xloader/opensource/component_code/vendor/huawei/extra/build/build_script/kirin_kernel_release/kernel/include/linux/mutex.h"
	.file 49 "/mnt/disk/jenkins/ci/workspace/chipset_release_960_xloader/opensource/component_code/vendor/huawei/extra/build/build_script/kirin_kernel_release/kernel/include/linux/capability.h"
	.file 50 "/mnt/disk/jenkins/ci/workspace/chipset_release_960_xloader/opensource/component_code/vendor/huawei/extra/build/build_script/kirin_kernel_release/kernel/include/linux/plist.h"
	.file 51 "/mnt/disk/jenkins/ci/workspace/chipset_release_960_xloader/opensource/component_code/vendor/huawei/extra/build/build_script/kirin_kernel_release/kernel/include/asm-generic/cputime_jiffies.h"
	.file 52 "/mnt/disk/jenkins/ci/workspace/chipset_release_960_xloader/opensource/component_code/vendor/huawei/extra/build/build_script/kirin_kernel_release/kernel/include/uapi/asm-generic/signal.h"
	.file 53 "/mnt/disk/jenkins/ci/workspace/chipset_release_960_xloader/opensource/component_code/vendor/huawei/extra/build/build_script/kirin_kernel_release/kernel/include/uapi/asm-generic/signal-defs.h"
	.file 54 "/mnt/disk/jenkins/ci/workspace/chipset_release_960_xloader/opensource/component_code/vendor/huawei/extra/build/build_script/kirin_kernel_release/kernel/include/uapi/asm-generic/siginfo.h"
	.file 55 "/mnt/disk/jenkins/ci/workspace/chipset_release_960_xloader/opensource/component_code/vendor/huawei/extra/build/build_script/kirin_kernel_release/kernel/include/linux/signal.h"
	.file 56 "/mnt/disk/jenkins/ci/workspace/chipset_release_960_xloader/opensource/component_code/vendor/huawei/extra/build/build_script/kirin_kernel_release/kernel/include/linux/pid.h"
	.file 57 "/mnt/disk/jenkins/ci/workspace/chipset_release_960_xloader/opensource/component_code/vendor/huawei/extra/build/build_script/kirin_kernel_release/kernel/include/linux/seccomp.h"
	.file 58 "/mnt/disk/jenkins/ci/workspace/chipset_release_960_xloader/opensource/component_code/vendor/huawei/extra/build/build_script/kirin_kernel_release/kernel/include/uapi/linux/resource.h"
	.file 59 "/mnt/disk/jenkins/ci/workspace/chipset_release_960_xloader/opensource/component_code/vendor/huawei/extra/build/build_script/kirin_kernel_release/kernel/include/linux/timerqueue.h"
	.file 60 "/mnt/disk/jenkins/ci/workspace/chipset_release_960_xloader/opensource/component_code/vendor/huawei/extra/build/build_script/kirin_kernel_release/kernel/include/linux/hrtimer.h"
	.file 61 "/mnt/disk/jenkins/ci/workspace/chipset_release_960_xloader/opensource/component_code/vendor/huawei/extra/build/build_script/kirin_kernel_release/kernel/include/linux/task_io_accounting.h"
	.file 62 "/mnt/disk/jenkins/ci/workspace/chipset_release_960_xloader/opensource/component_code/vendor/huawei/extra/build/build_script/kirin_kernel_release/kernel/include/linux/assoc_array.h"
	.file 63 "/mnt/disk/jenkins/ci/workspace/chipset_release_960_xloader/opensource/component_code/vendor/huawei/extra/build/build_script/kirin_kernel_release/kernel/include/linux/key.h"
	.file 64 "/mnt/disk/jenkins/ci/workspace/chipset_release_960_xloader/opensource/component_code/vendor/huawei/extra/build/build_script/kirin_kernel_release/kernel/include/linux/cred.h"
	.file 65 "/mnt/disk/jenkins/ci/workspace/chipset_release_960_xloader/opensource/component_code/vendor/huawei/extra/build/build_script/kirin_kernel_release/kernel/include/linux/idr.h"
	.file 66 "/mnt/disk/jenkins/ci/workspace/chipset_release_960_xloader/opensource/component_code/vendor/huawei/extra/build/build_script/kirin_kernel_release/kernel/include/linux/percpu-refcount.h"
	.file 67 "/mnt/disk/jenkins/ci/workspace/chipset_release_960_xloader/opensource/component_code/vendor/huawei/extra/build/build_script/kirin_kernel_release/kernel/include/linux/rcu_sync.h"
	.file 68 "/mnt/disk/jenkins/ci/workspace/chipset_release_960_xloader/opensource/component_code/vendor/huawei/extra/build/build_script/kirin_kernel_release/kernel/include/linux/percpu-rwsem.h"
	.file 69 "/mnt/disk/jenkins/ci/workspace/chipset_release_960_xloader/opensource/component_code/vendor/huawei/extra/build/build_script/kirin_kernel_release/kernel/include/linux/bpf-cgroup.h"
	.file 70 "/mnt/disk/jenkins/ci/workspace/chipset_release_960_xloader/opensource/component_code/vendor/huawei/extra/build/build_script/kirin_kernel_release/kernel/include/linux/cgroup-defs.h"
	.file 71 "/mnt/disk/jenkins/ci/workspace/chipset_release_960_xloader/opensource/component_code/vendor/huawei/extra/build/build_script/kirin_kernel_release/kernel/include/linux/kernfs.h"
	.file 72 "/mnt/disk/jenkins/ci/workspace/chipset_release_960_xloader/opensource/component_code/vendor/huawei/extra/build/build_script/kirin_kernel_release/kernel/include/linux/seq_file.h"
	.file 73 "/mnt/disk/jenkins/ci/workspace/chipset_release_960_xloader/opensource/component_code/vendor/huawei/extra/build/build_script/kirin_kernel_release/kernel/include/linux/stat.h"
	.file 74 "/mnt/disk/jenkins/ci/workspace/chipset_release_960_xloader/opensource/component_code/vendor/huawei/extra/build/build_script/kirin_kernel_release/kernel/include/uapi/linux/elf.h"
	.file 75 "/mnt/disk/jenkins/ci/workspace/chipset_release_960_xloader/opensource/component_code/vendor/huawei/extra/build/build_script/kirin_kernel_release/kernel/include/linux/kobject_ns.h"
	.file 76 "/mnt/disk/jenkins/ci/workspace/chipset_release_960_xloader/opensource/component_code/vendor/huawei/extra/build/build_script/kirin_kernel_release/kernel/include/linux/sysfs.h"
	.file 77 "/mnt/disk/jenkins/ci/workspace/chipset_release_960_xloader/opensource/component_code/vendor/huawei/extra/build/build_script/kirin_kernel_release/kernel/include/linux/kobject.h"
	.file 78 "/mnt/disk/jenkins/ci/workspace/chipset_release_960_xloader/opensource/component_code/vendor/huawei/extra/build/build_script/kirin_kernel_release/kernel/include/linux/kref.h"
	.file 79 "/mnt/disk/jenkins/ci/workspace/chipset_release_960_xloader/opensource/component_code/vendor/huawei/extra/build/build_script/kirin_kernel_release/kernel/include/linux/moduleparam.h"
	.file 80 "/mnt/disk/jenkins/ci/workspace/chipset_release_960_xloader/opensource/component_code/vendor/huawei/extra/build/build_script/kirin_kernel_release/kernel/include/linux/module.h"
	.file 81 "/mnt/disk/jenkins/ci/workspace/chipset_release_960_xloader/opensource/component_code/vendor/huawei/extra/build/build_script/kirin_kernel_release/kernel/include/linux/rbtree_latch.h"
	.file 82 "/mnt/disk/jenkins/ci/workspace/chipset_release_960_xloader/opensource/component_code/vendor/huawei/extra/build/build_script/kirin_kernel_release/kernel/arch/arm64/include/asm/module.h"
	.file 83 "/mnt/disk/jenkins/ci/workspace/chipset_release_960_xloader/opensource/component_code/vendor/huawei/extra/build/build_script/kirin_kernel_release/kernel/arch/arm64/include/asm/uaccess.h"
	.file 84 "/mnt/disk/jenkins/ci/workspace/chipset_release_960_xloader/opensource/component_code/vendor/huawei/extra/build/build_script/kirin_kernel_release/kernel/include/linux/tracepoint-defs.h"
	.file 85 "/mnt/disk/jenkins/ci/workspace/chipset_release_960_xloader/opensource/component_code/vendor/huawei/extra/build/build_script/kirin_kernel_release/kernel/include/linux/tracepoint.h"
	.file 86 "/mnt/disk/jenkins/ci/workspace/chipset_release_960_xloader/opensource/component_code/vendor/huawei/extra/build/build_script/kirin_kernel_release/kernel/include/linux/shrinker.h"
	.file 87 "/mnt/disk/jenkins/ci/workspace/chipset_release_960_xloader/opensource/component_code/vendor/huawei/extra/build/build_script/kirin_kernel_release/kernel/include/linux/vmstat.h"
	.file 88 "/mnt/disk/jenkins/ci/workspace/chipset_release_960_xloader/opensource/component_code/vendor/huawei/extra/build/build_script/kirin_kernel_release/kernel/include/linux/klist.h"
	.file 89 "/mnt/disk/jenkins/ci/workspace/chipset_release_960_xloader/opensource/component_code/vendor/huawei/extra/build/build_script/kirin_kernel_release/kernel/include/linux/list_bl.h"
	.file 90 "/mnt/disk/jenkins/ci/workspace/chipset_release_960_xloader/opensource/component_code/vendor/huawei/extra/build/build_script/kirin_kernel_release/kernel/include/linux/lockref.h"
	.file 91 "/mnt/disk/jenkins/ci/workspace/chipset_release_960_xloader/opensource/component_code/vendor/huawei/extra/build/build_script/kirin_kernel_release/kernel/include/linux/dcache.h"
	.file 92 "/mnt/disk/jenkins/ci/workspace/chipset_release_960_xloader/opensource/component_code/vendor/huawei/extra/build/build_script/kirin_kernel_release/kernel/include/linux/path.h"
	.file 93 "/mnt/disk/jenkins/ci/workspace/chipset_release_960_xloader/opensource/component_code/vendor/huawei/extra/build/build_script/kirin_kernel_release/kernel/include/linux/list_lru.h"
	.file 94 "/mnt/disk/jenkins/ci/workspace/chipset_release_960_xloader/opensource/component_code/vendor/huawei/extra/build/build_script/kirin_kernel_release/kernel/include/linux/radix-tree.h"
	.file 95 "/mnt/disk/jenkins/ci/workspace/chipset_release_960_xloader/opensource/component_code/vendor/huawei/extra/build/build_script/kirin_kernel_release/kernel/include/uapi/linux/fiemap.h"
	.file 96 "/mnt/disk/jenkins/ci/workspace/chipset_release_960_xloader/opensource/component_code/vendor/huawei/extra/build/build_script/kirin_kernel_release/kernel/include/linux/migrate_mode.h"
	.file 97 "/mnt/disk/jenkins/ci/workspace/chipset_release_960_xloader/opensource/component_code/vendor/huawei/extra/build/build_script/kirin_kernel_release/kernel/include/linux/delayed_call.h"
	.file 98 "/mnt/disk/jenkins/ci/workspace/chipset_release_960_xloader/opensource/component_code/vendor/huawei/extra/build/build_script/kirin_kernel_release/kernel/include/linux/percpu_counter.h"
	.file 99 "/mnt/disk/jenkins/ci/workspace/chipset_release_960_xloader/opensource/component_code/vendor/huawei/extra/build/build_script/kirin_kernel_release/kernel/include/linux/quota.h"
	.file 100 "/mnt/disk/jenkins/ci/workspace/chipset_release_960_xloader/opensource/component_code/vendor/huawei/extra/build/build_script/kirin_kernel_release/kernel/include/linux/projid.h"
	.file 101 "/mnt/disk/jenkins/ci/workspace/chipset_release_960_xloader/opensource/component_code/vendor/huawei/extra/build/build_script/kirin_kernel_release/kernel/include/linux/nfs_fs_i.h"
	.file 102 "/mnt/disk/jenkins/ci/workspace/chipset_release_960_xloader/opensource/component_code/vendor/huawei/extra/build/build_script/kirin_kernel_release/kernel/include/linux/pinctrl/devinfo.h"
	.file 103 "/mnt/disk/jenkins/ci/workspace/chipset_release_960_xloader/opensource/component_code/vendor/huawei/extra/build/build_script/kirin_kernel_release/kernel/include/linux/pm.h"
	.file 104 "/mnt/disk/jenkins/ci/workspace/chipset_release_960_xloader/opensource/component_code/vendor/huawei/extra/build/build_script/kirin_kernel_release/kernel/include/linux/device.h"
	.file 105 "/mnt/disk/jenkins/ci/workspace/chipset_release_960_xloader/opensource/component_code/vendor/huawei/extra/build/build_script/kirin_kernel_release/kernel/include/linux/pm_wakeup.h"
	.file 106 "/mnt/disk/jenkins/ci/workspace/chipset_release_960_xloader/opensource/component_code/vendor/huawei/extra/build/build_script/kirin_kernel_release/kernel/arch/arm64/include/asm/device.h"
	.file 107 "/mnt/disk/jenkins/ci/workspace/chipset_release_960_xloader/opensource/component_code/vendor/huawei/extra/build/build_script/kirin_kernel_release/kernel/include/linux/dma-mapping.h"
	.file 108 "/mnt/disk/jenkins/ci/workspace/chipset_release_960_xloader/opensource/component_code/vendor/huawei/extra/build/build_script/kirin_kernel_release/kernel/include/linux/iommu.h"
	.file 109 "/mnt/disk/jenkins/ci/workspace/chipset_release_960_xloader/opensource/component_code/vendor/huawei/extra/build/build_script/kirin_kernel_release/kernel/include/linux/mod_devicetable.h"
	.file 110 "/mnt/disk/jenkins/ci/workspace/chipset_release_960_xloader/opensource/component_code/vendor/huawei/extra/build/build_script/kirin_kernel_release/kernel/include/linux/of.h"
	.file 111 "/mnt/disk/jenkins/ci/workspace/chipset_release_960_xloader/opensource/component_code/vendor/huawei/extra/build/build_script/kirin_kernel_release/kernel/include/linux/fwnode.h"
	.file 112 "/mnt/disk/jenkins/ci/workspace/chipset_release_960_xloader/opensource/component_code/vendor/huawei/extra/build/build_script/kirin_kernel_release/kernel/drivers/vcodec/hi_vcodec/venc/include/hi_type.h"
	.file 113 "/mnt/disk/jenkins/ci/workspace/chipset_release_960_xloader/opensource/component_code/vendor/huawei/extra/build/build_script/kirin_kernel_release/kernel/drivers/vcodec/hi_vcodec/venc/drv/include/hi_drv_venc.h"
	.file 114 "/mnt/disk/jenkins/ci/workspace/chipset_release_960_xloader/opensource/component_code/vendor/huawei/extra/build/build_script/kirin_kernel_release/kernel/drivers/vcodec/hi_vcodec/venc/drv/include/hi_drv_video.h"
	.file 115 "/mnt/disk/jenkins/ci/workspace/chipset_release_960_xloader/opensource/component_code/vendor/huawei/extra/build/build_script/kirin_kernel_release/kernel/drivers/vcodec/hi_vcodec/venc/drv/venc/drv_venc_queue_mng.h"
	.file 116 "/mnt/disk/jenkins/ci/workspace/chipset_release_960_xloader/opensource/component_code/vendor/huawei/extra/build/build_script/kirin_kernel_release/kernel/include/linux/scatterlist.h"
	.file 117 "/mnt/disk/jenkins/ci/workspace/chipset_release_960_xloader/opensource/component_code/vendor/huawei/extra/build/build_script/kirin_kernel_release/kernel/include/linux/dma-direction.h"
	.file 118 "/mnt/disk/jenkins/ci/workspace/chipset_release_960_xloader/opensource/component_code/vendor/huawei/extra/build/build_script/kirin_kernel_release/kernel/drivers/vcodec/hi_vcodec/venc/drv/include/hi_drv_mem.h"
	.file 119 "/mnt/disk/jenkins/ci/workspace/chipset_release_960_xloader/opensource/component_code/vendor/huawei/extra/build/build_script/kirin_kernel_release/kernel/include/linux/jiffies.h"
	.file 120 "/mnt/disk/jenkins/ci/workspace/chipset_release_960_xloader/opensource/component_code/vendor/huawei/extra/build/build_script/kirin_kernel_release/kernel/arch/arm64/include/asm/cachetype.h"
	.file 121 "/mnt/disk/jenkins/ci/workspace/chipset_release_960_xloader/opensource/component_code/vendor/huawei/extra/build/build_script/kirin_kernel_release/kernel/include/linux/printk.h"
	.file 122 "/mnt/disk/jenkins/ci/workspace/chipset_release_960_xloader/opensource/component_code/vendor/huawei/extra/build/build_script/kirin_kernel_release/kernel/include/linux/kernel.h"
	.file 123 "/mnt/disk/jenkins/ci/workspace/chipset_release_960_xloader/opensource/component_code/vendor/huawei/extra/build/build_script/kirin_kernel_release/kernel/arch/arm64/include/asm/stack_pointer.h"
	.file 124 "/mnt/disk/jenkins/ci/workspace/chipset_release_960_xloader/opensource/component_code/vendor/huawei/extra/build/build_script/kirin_kernel_release/kernel/arch/arm64/include/asm/hwcap.h"
	.file 125 "/mnt/disk/jenkins/ci/workspace/chipset_release_960_xloader/opensource/component_code/vendor/huawei/extra/build/build_script/kirin_kernel_release/kernel/arch/arm64/include/asm/cpufeature.h"
	.file 126 "/mnt/disk/jenkins/ci/workspace/chipset_release_960_xloader/opensource/component_code/vendor/huawei/extra/build/build_script/kirin_kernel_release/kernel/arch/arm64/include/asm/virt.h"
	.file 127 "/mnt/disk/jenkins/ci/workspace/chipset_release_960_xloader/opensource/component_code/vendor/huawei/extra/build/build_script/kirin_kernel_release/kernel/include/linux/highuid.h"
	.file 128 "/mnt/disk/jenkins/ci/workspace/chipset_release_960_xloader/opensource/component_code/vendor/huawei/extra/build/build_script/kirin_kernel_release/kernel/arch/arm64/include/asm/memory.h"
	.file 129 "/mnt/disk/jenkins/ci/workspace/chipset_release_960_xloader/opensource/component_code/vendor/huawei/extra/build/build_script/kirin_kernel_release/kernel/include/asm-generic/percpu.h"
	.file 130 "/mnt/disk/jenkins/ci/workspace/chipset_release_960_xloader/opensource/component_code/vendor/huawei/extra/build/build_script/kirin_kernel_release/kernel/include/linux/slab.h"
	.file 131 "/mnt/disk/jenkins/ci/workspace/chipset_release_960_xloader/opensource/component_code/vendor/huawei/extra/build/build_script/kirin_kernel_release/kernel/include/linux/debug_locks.h"
	.file 132 "/mnt/disk/jenkins/ci/workspace/chipset_release_960_xloader/opensource/component_code/vendor/huawei/extra/build/build_script/kirin_kernel_release/kernel/include/asm-generic/pgtable.h"
	.file 133 "/mnt/disk/jenkins/ci/workspace/chipset_release_960_xloader/opensource/component_code/vendor/huawei/extra/build/build_script/kirin_kernel_release/kernel/arch/arm64/include/asm/irq.h"
	.file 134 "/mnt/disk/jenkins/ci/workspace/chipset_release_960_xloader/opensource/component_code/vendor/huawei/extra/build/build_script/kirin_kernel_release/kernel/arch/arm64/include/asm/hardirq.h"
	.file 135 "/mnt/disk/jenkins/ci/workspace/chipset_release_960_xloader/opensource/component_code/vendor/huawei/extra/build/build_script/kirin_kernel_release/kernel/include/linux/interrupt.h"
	.file 136 "/mnt/disk/jenkins/ci/workspace/chipset_release_960_xloader/opensource/component_code/vendor/huawei/extra/build/build_script/kirin_kernel_release/kernel/include/linux/pci.h"
	.file 137 "/mnt/disk/jenkins/ci/workspace/chipset_release_960_xloader/opensource/component_code/vendor/huawei/extra/build/build_script/kirin_kernel_release/kernel/arch/arm64/include/../../arm/include/asm/xen/hypervisor.h"
	.file 138 "/mnt/disk/jenkins/ci/workspace/chipset_release_960_xloader/opensource/component_code/vendor/huawei/extra/build/build_script/kirin_kernel_release/kernel/arch/arm64/include/asm/dma-mapping.h"
	.file 139 "/mnt/disk/jenkins/ci/workspace/chipset_release_960_xloader/opensource/component_code/vendor/huawei/extra/build/build_script/kirin_kernel_release/kernel/include/trace/events/iommu.h"
	.file 140 "/mnt/disk/jenkins/ci/workspace/chipset_release_960_xloader/opensource/component_code/vendor/huawei/extra/build/build_script/kirin_kernel_release/kernel/include/linux/vmalloc.h"
	.file 141 "/mnt/disk/jenkins/ci/workspace/chipset_release_960_xloader/opensource/component_code/vendor/huawei/extra/build/build_script/kirin_kernel_release/kernel/include/linux/spinlock_api_smp.h"
	.file 142 "/mnt/disk/jenkins/ci/workspace/chipset_release_960_xloader/opensource/component_code/vendor/huawei/extra/build/build_script/kirin_kernel_release/kernel/include/linux/delay.h"
	.section	.note.GNU-stack,"",%progbits
