	.cpu generic+fp+simd
	.file	"drv_venc_efl.c"
	.text
.Ltext0:
	.cfi_sections	.debug_frame
	.align	2
	.type	venc_drv_EflsetRGBtoYUVcoeff, %function
venc_drv_EflsetRGBtoYUVcoeff:
.LFB2753:
	.file 1 "/mnt/disk/jenkins/ci/workspace/chipset_release_960_xloader/opensource/component_code/vendor/huawei/extra/build/build_script/kirin_kernel_release/kernel/drivers/vcodec/hi_vcodec/venc/drv/venc/drv_venc_efl.c"
	.loc 1 331 0
	.cfi_startproc
.LVL0:
	stp	x29, x30, [sp, -16]!
	.cfi_def_cfa_offset 16
	.cfi_offset 29, -16
	.cfi_offset 30, -8
	mov	w6, w1
	add	x29, sp, 0
	.cfi_def_cfa_register 29
	.loc 1 332 0
	cbz	x0, .L2
	.loc 1 333 0
	ldr	x1, [x0]
	cbz	x1, .L2
	.loc 1 339 0
	cbz	w6, .L14
	.loc 1 359 0
	cmp	w6, 1
	beq	.L15
	.loc 1 379 0
	cmp	w6, 2
	beq	.L16
	.loc 1 399 0
	cmp	w6, 3
	beq	.L17
	.loc 1 421 0
	adrp	x3, .LANCHOR0
	adrp	x1, .LC0
	add	x3, x3, :lo12:.LANCHOR0
	adrp	x4, .LC2
	mov	w0, 1
.LVL1:
	add	x1, x1, :lo12:.LC0
	mov	w2, 421
	add	x4, x4, :lo12:.LC2
	add	x5, x3, 32
	bl	HI_PRINT
.LVL2:
	.loc 1 424 0
	ldp	x29, x30, [sp], 16
	.cfi_remember_state
	.cfi_restore 30
	.cfi_restore 29
	.cfi_def_cfa 31, 0
	ret
.LVL3:
.L14:
	.cfi_restore_state
	.loc 1 342 0
	mov	w2, 264
	str	w2, [x1,3080]
	.loc 1 343 0
	mov	w4, 516
	.loc 1 349 0
	mov	w2, 448
	.loc 1 343 0
	ldr	x3, [x0]
	.loc 1 350 0
	mov	w1, 128
	.loc 1 343 0
	str	w4, [x3,3084]
	.loc 1 344 0
	mov	w4, 100
	ldr	x3, [x0]
	str	w4, [x3,3088]
	.loc 1 345 0
	mov	w4, 16
	ldr	x3, [x0]
	str	w4, [x3,3120]
	.loc 1 347 0
	mov	w4, -148
	ldr	x3, [x0]
	str	w4, [x3,3092]
	.loc 1 348 0
	mov	w4, -292
	ldr	x3, [x0]
	str	w4, [x3,3096]
	.loc 1 349 0
	ldr	x3, [x0]
	str	w2, [x3,3100]
	.loc 1 350 0
	ldr	x3, [x0]
	str	w1, [x3,3124]
	.loc 1 352 0
	ldr	x3, [x0]
	str	w2, [x3,3104]
	.loc 1 353 0
	mov	w3, -372
	ldr	x2, [x0]
	str	w3, [x2,3108]
	.loc 1 354 0
	mov	w3, -68
	ldr	x2, [x0]
.L12:
	.loc 1 414 0
	str	w3, [x2,3112]
	.loc 1 415 0
	ldr	x2, [x0]
	str	w1, [x2,3128]
	.loc 1 417 0
	mov	w1, 10
	ldr	x0, [x0]
.LVL4:
	str	w1, [x0,3116]
	.loc 1 424 0
	ldp	x29, x30, [sp], 16
	.cfi_remember_state
	.cfi_restore 29
	.cfi_restore 30
	.cfi_def_cfa 31, 0
	ret
.LVL5:
.L15:
	.cfi_restore_state
	.loc 1 362 0
	mov	w2, 188
	str	w2, [x1,3080]
	.loc 1 363 0
	mov	w4, 628
	.loc 1 369 0
	mov	w2, 448
	.loc 1 363 0
	ldr	x3, [x0]
	.loc 1 370 0
	mov	w1, 128
	.loc 1 363 0
	str	w4, [x3,3084]
	.loc 1 364 0
	mov	w4, 64
	ldr	x3, [x0]
	str	w4, [x3,3088]
	.loc 1 365 0
	mov	w4, 16
	ldr	x3, [x0]
	str	w4, [x3,3120]
	.loc 1 367 0
	mov	w4, -100
	ldr	x3, [x0]
	str	w4, [x3,3092]
	.loc 1 368 0
	mov	w4, -344
	ldr	x3, [x0]
	str	w4, [x3,3096]
	.loc 1 369 0
	ldr	x3, [x0]
	str	w2, [x3,3100]
	.loc 1 370 0
	ldr	x3, [x0]
	str	w1, [x3,3124]
	.loc 1 372 0
	ldr	x3, [x0]
	str	w2, [x3,3104]
	.loc 1 373 0
	mov	w3, -404
	ldr	x2, [x0]
	str	w3, [x2,3108]
	.loc 1 374 0
	mov	w3, -36
	ldr	x2, [x0]
	b	.L12
.L2:
	.loc 1 335 0
	adrp	x3, .LANCHOR0
	adrp	x1, .LC0
	add	x3, x3, :lo12:.LANCHOR0
	adrp	x4, .LC1
	mov	w0, 1
.LVL6:
	add	x1, x1, :lo12:.LC0
	mov	w2, 335
	add	x4, x4, :lo12:.LC1
	add	x5, x3, 32
	bl	HI_PRINT
.LVL7:
	.loc 1 424 0
	ldp	x29, x30, [sp], 16
	.cfi_remember_state
	.cfi_restore 29
	.cfi_restore 30
	.cfi_def_cfa 31, 0
	ret
.LVL8:
.L17:
	.cfi_restore_state
	.loc 1 402 0
	mov	w2, 220
	str	w2, [x1,3080]
	.loc 1 403 0
	mov	w4, 732
	.loc 1 409 0
	mov	w2, 524
	.loc 1 403 0
	ldr	x3, [x0]
	.loc 1 410 0
	mov	w1, 128
	.loc 1 403 0
	str	w4, [x3,3084]
	.loc 1 404 0
	mov	w4, 72
	ldr	x3, [x0]
	str	w4, [x3,3088]
	.loc 1 407 0
	mov	w4, -116
	.loc 1 405 0
	ldr	x3, [x0]
	str	wzr, [x3,3120]
	.loc 1 407 0
	ldr	x3, [x0]
	str	w4, [x3,3092]
	.loc 1 408 0
	mov	w4, -400
	ldr	x3, [x0]
	str	w4, [x3,3096]
	.loc 1 409 0
	ldr	x3, [x0]
	str	w2, [x3,3100]
	.loc 1 410 0
	ldr	x3, [x0]
	str	w1, [x3,3124]
	.loc 1 412 0
	ldr	x3, [x0]
	str	w2, [x3,3104]
	.loc 1 413 0
	mov	w3, -472
	ldr	x2, [x0]
	str	w3, [x2,3108]
	.loc 1 414 0
	mov	w3, -44
	ldr	x2, [x0]
	b	.L12
.L16:
	.loc 1 382 0
	mov	w2, 308
	str	w2, [x1,3080]
	.loc 1 383 0
	mov	w4, 600
	.loc 1 389 0
	mov	w2, 524
	.loc 1 383 0
	ldr	x3, [x0]
	.loc 1 390 0
	mov	w1, 128
	.loc 1 383 0
	str	w4, [x3,3084]
	.loc 1 384 0
	mov	w4, 116
	ldr	x3, [x0]
	str	w4, [x3,3088]
	.loc 1 387 0
	mov	w4, -172
	.loc 1 385 0
	ldr	x3, [x0]
	str	wzr, [x3,3120]
	.loc 1 387 0
	ldr	x3, [x0]
	str	w4, [x3,3092]
	.loc 1 388 0
	mov	w4, -404
	ldr	x3, [x0]
	str	w4, [x3,3096]
	.loc 1 389 0
	ldr	x3, [x0]
	str	w2, [x3,3100]
	.loc 1 390 0
	ldr	x3, [x0]
	str	w1, [x3,3124]
	.loc 1 392 0
	ldr	x3, [x0]
	str	w2, [x3,3104]
	.loc 1 393 0
	mov	w3, -436
	ldr	x2, [x0]
	str	w3, [x2,3108]
	.loc 1 394 0
	mov	w3, -80
	ldr	x2, [x0]
	b	.L12
	.cfi_endproc
.LFE2753:
	.size	venc_drv_EflsetRGBtoYUVcoeff, .-venc_drv_EflsetRGBtoYUVcoeff
	.align	2
	.type	H265e_MakeSlcHdr, %function
H265e_MakeSlcHdr:
.LFB2758:
	.loc 1 837 0
	.cfi_startproc
.LVL9:
	stp	x29, x30, [sp, -144]!
	.cfi_def_cfa_offset 144
	.cfi_offset 29, -144
	.cfi_offset 30, -136
	add	x29, sp, 0
	.cfi_def_cfa_register 29
	stp	x19, x20, [sp,16]
	.cfi_offset 19, -128
	.cfi_offset 20, -120
	adrp	x20, __stack_chk_guard
	mov	x19, x0
	stp	x21, x22, [sp,32]
	.cfi_offset 21, -112
	.cfi_offset 22, -104
	.loc 1 843 0
	add	x21, x29, 72
	.loc 1 837 0
	mov	x22, x1
	ldr	x2, [x20,#:lo12:__stack_chk_guard]
	.loc 1 843 0
	add	x0, x29, 104
.LVL10:
	mov	x1, x21
.LVL11:
	.loc 1 837 0
	str	x23, [sp,48]
	.cfi_offset 23, -96
	.loc 1 837 0
	str	x2, [x29,136]
	.loc 1 843 0
	bl	VENC_DRV_BsOpenBitStream
.LVL12:
	.loc 1 847 0
	ldr	w0, [x22,4]
	cmp	w0, 2
	beq	.L86
.L19:
	.loc 1 853 0
	mov	w1, 1
	add	x0, x29, 104
	mov	w2, w1
	bl	VENC_DRV_BsPutBits32
.LVL13:
	.loc 1 855 0
	ldr	x1, [x29,112]
	add	x0, x1, 4
	str	x0, [x29,112]
	ldr	w0, [x29,128]
	cbz	w0, .L20
	.loc 1 855 0 is_stmt 0 discriminator 1
	ldr	w0, [x29,108]
.L21:
	.loc 1 855 0 discriminator 4
	str	w0, [x1]
	.loc 1 857 0 is_stmt 1
	ldr	w7, [x29,124]
	.loc 1 859 0 discriminator 1
	cmp	w7, wzr
	.loc 1 857 0
	mov	w2, w7
	.loc 1 859 0 discriminator 1
	ble	.L29
	mov	w3, 32
	ldr	w6, [x29,128]
	sub	w3, w3, w7
	mov	x4, 0
.L28:
	.loc 1 861 0
	cbz	w6, .L25
	.loc 1 861 0 is_stmt 0 discriminator 1
	ldr	w0, [x21,x4]
.L26:
	.loc 1 862 0 is_stmt 1 discriminator 1
	cmp	w2, 31
	lsr	w1, w0, w3
	.loc 1 859 0 discriminator 2
	sub	w2, w2, #32
	.loc 1 862 0 discriminator 1
	csel	w0, w1, w0, le
	.loc 1 859 0 discriminator 1
	cmp	w2, wzr
	add	w3, w3, 32
	add	x4, x4, 4
	bgt	.L28
	str	w0, [x19,1788]
.L29:
	.loc 1 866 0
	mov	x1, x21
	.loc 1 865 0
	str	w7, [x19,1824]
	.loc 1 866 0
	add	x0, x29, 104
.LBB90:
.LBB91:
	.loc 1 871 0
	adrp	x23, .LANCHOR0
.LBE91:
.LBE90:
	.loc 1 866 0
	bl	VENC_DRV_BsOpenBitStream
.LVL14:
	.loc 1 868 0
	ldr	w1, [x22,8]
	cbz	w1, .L24
.LBB94:
	.loc 1 871 0
	add	w1, w1, 1
.LVL15:
.LBB92:
	add	x0, x23, :lo12:.LANCHOR0
	ubfx	x2, x1, 24, 8
	add	x0, x0, 64
	ldrb	w2, [x0,x2]
.LVL16:
	cmp	w2, 8
	beq	.L87
.L30:
.LBE92:
.LBE94:
	.loc 1 872 0
	mov	w3, 63
	add	x0, x29, 104
	sub	w2, w3, w2, lsl 1
.LVL17:
	bl	VENC_DRV_BsPutBits32
.LVL18:
.L24:
	.loc 1 877 0
	ldr	w0, [x22,4]
	cmp	w0, 2
	beq	.L88
	.loc 1 885 0
	add	x0, x29, 104
	mov	w1, 2
	mov	w2, 3
	bl	VENC_DRV_BsPutBits32
.LVL19:
.L32:
	.loc 1 887 0
	ldr	w0, [x22,4]
	cmp	w0, 2
	beq	.L33
	.loc 1 891 0
	ldr	w1, [x22,12]
	mov	w2, 16
	add	x0, x29, 104
	bl	VENC_DRV_BsPutBits32
.LVL20:
	.loc 1 893 0
	mov	w1, 1
	add	x0, x29, 104
	mov	w2, w1
	bl	VENC_DRV_BsPutBits32
.LVL21:
	.loc 1 896 0
	ldr	w0, [x22,4]
	cmp	w0, 2
	beq	.L33
	.loc 1 898 0
	ldr	w0, [x22,16]
	cbnz	w0, .L89
	.loc 1 904 0
	ldr	w0, [x22,20]
	cmp	w0, 1
	beq	.L63
.L37:
	.loc 1 914 0
	add	x0, x29, 104
	mov	w1, 0
	mov	w2, 1
	bl	VENC_DRV_BsPutBits32
.LVL22:
.LBB95:
	.loc 1 918 0
	ldr	w1, [x22,36]
.LBB96:
	add	x0, x23, :lo12:.LANCHOR0
	add	x0, x0, 64
.LBE96:
	add	w1, w1, 1
.LVL23:
.LBB97:
	ubfx	x2, x1, 24, 8
	ldrb	w2, [x0,x2]
.LVL24:
	cmp	w2, 8
	beq	.L90
.L39:
.LBE97:
.LBE95:
	.loc 1 919 0
	mov	w3, 63
	add	x0, x29, 104
	sub	w2, w3, w2, lsl 1
.LVL25:
	bl	VENC_DRV_BsPutBits32
.LVL26:
.L38:
.LBB99:
	.loc 1 922 0
	ldr	w1, [x22,40]
.LBB100:
	add	x0, x23, :lo12:.LANCHOR0
	add	x0, x0, 64
.LBE100:
	cmp	w1, wzr
	sxtw	x1, w1
	cset	w2, le
	eor	x3, x1, x1, asr 63
	sub	x1, x3, x1, asr 63
	orr	w1, w2, w1, lsl 1
.LVL27:
.LBB101:
	ubfx	x2, x1, 24, 8
	ldrb	w2, [x0,x2]
.LVL28:
	cmp	w2, 8
	beq	.L91
.L40:
.LBE101:
.LBE99:
	.loc 1 923 0
	mov	w3, 63
	add	x0, x29, 104
	sub	w2, w3, w2, lsl 1
.LVL29:
	bl	VENC_DRV_BsPutBits32
.LVL30:
	.loc 1 924 0
	ldr	w0, [x22,44]
	cmp	w0, 1
	beq	.L92
.L42:
	.loc 1 946 0
	ldr	w0, [x22,20]
	cbz	w0, .L53
.L48:
	.loc 1 946 0 is_stmt 0 discriminator 1
	ldr	w0, [x22,24]
	cbz	w0, .L93
.L52:
	.loc 1 949 0 is_stmt 1
	ldr	w0, [x19,2592]
	cmp	w0, 1
	beq	.L49
.L54:
	.loc 1 964 0
	ldr	x1, [x29,112]
	add	x0, x1, 4
	str	x0, [x29,112]
	ldr	w0, [x29,128]
	cbz	w0, .L55
.L96:
	.loc 1 964 0 is_stmt 0 discriminator 1
	ldr	w0, [x29,108]
.L56:
	.loc 1 964 0 discriminator 4
	str	w0, [x1]
	.loc 1 966 0 is_stmt 1
	ldr	w8, [x29,124]
	.loc 1 968 0 discriminator 1
	cmp	w8, wzr
	.loc 1 966 0
	mov	w1, w8
	.loc 1 968 0 discriminator 1
	ble	.L62
	mov	w5, 32
	ldr	w7, [x29,128]
	add	x2, x19, 1792
	sub	w5, w5, w8
	mov	x3, 0
.L61:
	.loc 1 970 0 discriminator 1
	ldr	w0, [x21,x3]
	.loc 1 970 0 is_stmt 0
	cbnz	w7, .L59
	.loc 1 970 0 discriminator 2
	lsr	w6, w0, 24
	lsr	w4, w0, 8
	add	w6, w6, w0, lsl 24
	and	w4, w4, 65280
	lsl	w0, w0, 8
	add	w4, w6, w4
	and	w0, w0, 16711680
	add	w0, w4, w0
.L59:
	.loc 1 970 0 discriminator 4
	str	w0, [x2]
	.loc 1 971 0 is_stmt 1
	cmp	w1, 31
	ble	.L94
.L60:
	.loc 1 968 0 discriminator 2
	sub	w1, w1, #32
	add	x2, x2, 4
	.loc 1 968 0 is_stmt 0 discriminator 1
	cmp	w1, wzr
	add	x3, x3, 4
	add	w5, w5, 32
	bgt	.L61
.L62:
	.loc 1 978 0 is_stmt 1
	ldr	x2, [x29,136]
	mov	w0, w8
	ldr	x1, [x20,#:lo12:__stack_chk_guard]
	.loc 1 975 0
	str	w8, [x19,1828]
	.loc 1 978 0
	cmp	x2, x1
	bne	.L95
	ldp	x19, x20, [sp,16]
	.cfi_remember_state
	.cfi_restore 20
	.cfi_restore 19
.LVL31:
	ldp	x21, x22, [sp,32]
	.cfi_restore 22
	.cfi_restore 21
.LVL32:
	ldr	x23, [sp,48]
	.cfi_restore 23
	ldp	x29, x30, [sp], 144
	.cfi_restore 30
	.cfi_restore 29
	.cfi_def_cfa 31, 0
	ret
.LVL33:
.L25:
	.cfi_restore_state
	.loc 1 861 0 discriminator 2
	ldr	w1, [x21,x4]
	lsr	w5, w1, 24
	lsr	w0, w1, 8
	add	w5, w5, w1, lsl 24
	and	w0, w0, 65280
	lsl	w1, w1, 8
	add	w0, w5, w0
	and	w1, w1, 16711680
	add	w0, w0, w1
	b	.L26
.L89:
	.loc 1 901 0
	mov	w1, 1
	add	x0, x29, 104
	mov	w2, w1
	bl	VENC_DRV_BsPutBits32
.LVL34:
	.loc 1 904 0
	ldr	w0, [x22,20]
	cmp	w0, 1
	beq	.L63
.L36:
	.loc 1 911 0
	ldr	w0, [x22,4]
	cmp	w0, 2
	bne	.L37
	b	.L38
.L93:
	.loc 1 946 0 discriminator 4
	ldr	w0, [x22,28]
	cbnz	w0, .L52
.L53:
	.loc 1 949 0
	ldr	w0, [x19,2592]
	.loc 1 949 0 is_stmt 0 discriminator 1
	cmp	w0, 1
	bne	.L54
	ldr	w0, [x22,56]
	cbnz	w0, .L54
.L49:
	.loc 1 953 0 is_stmt 1
	ldr	w1, [x22,68]
	add	x0, x29, 104
	mov	w2, 1
	bl	VENC_DRV_BsPutBits32
.LVL35:
	.loc 1 964 0
	ldr	x1, [x29,112]
	add	x0, x1, 4
	str	x0, [x29,112]
	ldr	w0, [x29,128]
	cbnz	w0, .L96
.L55:
	.loc 1 964 0 is_stmt 0 discriminator 2
	ldr	w0, [x29,108]
	lsr	w3, w0, 24
	lsr	w2, w0, 8
	add	w3, w3, w0, lsl 24
	and	w2, w2, 65280
	lsl	w0, w0, 8
	add	w2, w3, w2
	and	w0, w0, 16711680
	add	w0, w2, w0
	b	.L56
.L20:
	.loc 1 855 0 is_stmt 1 discriminator 2
	ldr	w0, [x29,108]
	lsr	w3, w0, 24
	lsr	w2, w0, 8
	add	w3, w3, w0, lsl 24
	and	w2, w2, 65280
	lsl	w0, w0, 8
	add	w2, w3, w2
	and	w0, w0, 16711680
	add	w0, w2, w0
	b	.L21
.L33:
	.loc 1 904 0
	ldr	w0, [x22,20]
	cmp	w0, 1
	bne	.L38
.L63:
	.loc 1 907 0
	ldr	w1, [x22,24]
	add	x0, x29, 104
	mov	w2, 1
	bl	VENC_DRV_BsPutBits32
.LVL36:
	.loc 1 909 0
	ldr	w1, [x22,28]
	add	x0, x29, 104
	mov	w2, 1
	bl	VENC_DRV_BsPutBits32
.LVL37:
	b	.L36
.L88:
	.loc 1 880 0
	mov	w1, 3
	add	x0, x29, 104
	mov	w2, w1
	bl	VENC_DRV_BsPutBits32
.LVL38:
	b	.L32
.L92:
	.loc 1 926 0
	ldr	w2, [x22,48]
	cmp	w2, 1
	beq	.L97
.L43:
	.loc 1 931 0
	ldr	w2, [x22,52]
	cmp	w2, 1
	bne	.L42
	.loc 1 934 0
	ldr	w1, [x22,56]
	add	x0, x29, 104
	bl	VENC_DRV_BsPutBits32
.LVL39:
	.loc 1 935 0
	ldr	w0, [x22,56]
	cbnz	w0, .L45
.LBB103:
	.loc 1 938 0
	ldr	w2, [x22,60]
.LBB104:
	add	x0, x23, :lo12:.LANCHOR0
	add	x0, x0, 64
.LBE104:
	cmp	w2, wzr
	sxtw	x2, w2
	cset	w1, le
	eor	x3, x2, x2, asr 63
	sub	x2, x3, x2, asr 63
	orr	w1, w1, w2, lsl 1
.LVL40:
.LBB105:
	ubfx	x2, x1, 24, 8
	ldrb	w2, [x0,x2]
.LVL41:
	cmp	w2, 8
	beq	.L98
.L46:
.LBE105:
.LBE103:
	.loc 1 939 0
	mov	w3, 63
	add	x0, x29, 104
	sub	w2, w3, w2, lsl 1
.LVL42:
.LBB107:
.LBB108:
	.loc 1 941 0
	add	x23, x23, :lo12:.LANCHOR0
	add	x23, x23, 64
.LBE108:
.LBE107:
	.loc 1 939 0
	bl	VENC_DRV_BsPutBits32
.LVL43:
.LBB111:
	.loc 1 941 0
	ldr	w1, [x22,64]
	cmp	w1, wzr
	sxtw	x2, w1
	cset	w1, le
	eor	x3, x2, x2, asr 63
	sub	x0, x3, x2, asr 63
	orr	w1, w1, w0, lsl 1
.LVL44:
.LBB109:
	ubfx	x0, x1, 24, 8
	ldrb	w2, [x23,x0]
.LVL45:
	cmp	w2, 8
	beq	.L99
.L47:
.LBE109:
.LBE111:
	.loc 1 942 0
	mov	w3, 63
	add	x0, x29, 104
	sub	w2, w3, w2, lsl 1
.LVL46:
	bl	VENC_DRV_BsPutBits32
.LVL47:
	b	.L42
.LVL48:
.L91:
.LBB112:
.LBB102:
	.loc 1 922 0 discriminator 1
	ubfx	x2, x1, 16, 8
.LVL49:
	ldrb	w2, [x0,x2]
	add	w2, w2, 8
.LVL50:
	cmp	w2, 16
	bne	.L40
	.loc 1 922 0 is_stmt 0 discriminator 3
	ubfx	x2, x1, 8, 8
.LVL51:
	ldrb	w2, [x0,x2]
	add	w2, w2, 16
.LVL52:
	cmp	w2, 24
	bne	.L40
	.loc 1 922 0 discriminator 5
	uxtb	x2, w1
.LVL53:
	ldrb	w2, [x0,x2]
	add	w2, w2, 24
.LVL54:
	b	.L40
.LVL55:
.L87:
.LBE102:
.LBE112:
.LBB113:
.LBB93:
	.loc 1 871 0 is_stmt 1 discriminator 1
	ubfx	x2, x1, 16, 8
.LVL56:
	ldrb	w2, [x0,x2]
	add	w2, w2, 8
.LVL57:
	cmp	w2, 16
	bne	.L30
	.loc 1 871 0 is_stmt 0 discriminator 3
	ubfx	x2, x1, 8, 8
.LVL58:
	ldrb	w2, [x0,x2]
	add	w2, w2, 16
.LVL59:
	cmp	w2, 24
	bne	.L30
	.loc 1 871 0 discriminator 5
	uxtb	x2, w1
.LVL60:
	ldrb	w2, [x0,x2]
	add	w2, w2, 24
.LVL61:
	b	.L30
.LVL62:
.L90:
.LBE93:
.LBE113:
.LBB114:
.LBB98:
	.loc 1 918 0 is_stmt 1 discriminator 1
	ubfx	x2, x1, 16, 8
.LVL63:
	ldrb	w2, [x0,x2]
	add	w2, w2, 8
.LVL64:
	cmp	w2, 16
	bne	.L39
	.loc 1 918 0 is_stmt 0 discriminator 3
	ubfx	x2, x1, 8, 8
.LVL65:
	ldrb	w2, [x0,x2]
	add	w2, w2, 16
.LVL66:
	cmp	w2, 24
	bne	.L39
	.loc 1 918 0 discriminator 5
	uxtb	x2, w1
.LVL67:
	ldrb	w2, [x0,x2]
	add	w2, w2, 24
.LVL68:
	b	.L39
.LVL69:
.L86:
.LBE98:
.LBE114:
	.loc 1 850 0 is_stmt 1
	add	x0, x29, 104
	mov	w1, 0
	mov	w2, 1
	bl	VENC_DRV_BsPutBits32
.LVL70:
	b	.L19
.L97:
	.loc 1 929 0
	ldr	w1, [x22,52]
	add	x0, x29, 104
	bl	VENC_DRV_BsPutBits32
.LVL71:
	b	.L43
.L45:
	.loc 1 946 0
	ldr	w0, [x22,20]
	cbnz	w0, .L48
	b	.L54
.LVL72:
.L98:
.LBB115:
.LBB106:
	.loc 1 938 0 discriminator 1
	ubfx	x2, x1, 16, 8
.LVL73:
	ldrb	w2, [x0,x2]
	add	w2, w2, 8
.LVL74:
	cmp	w2, 16
	bne	.L46
	.loc 1 938 0 is_stmt 0 discriminator 3
	ubfx	x2, x1, 8, 8
.LVL75:
	ldrb	w2, [x0,x2]
	add	w2, w2, 16
.LVL76:
	cmp	w2, 24
	bne	.L46
	.loc 1 938 0 discriminator 5
	uxtb	x2, w1
.LVL77:
	ldrb	w2, [x0,x2]
	add	w2, w2, 24
.LVL78:
	b	.L46
.LVL79:
.L99:
.LBE106:
.LBE115:
.LBB116:
.LBB110:
	.loc 1 941 0 is_stmt 1 discriminator 1
	ubfx	x0, x1, 16, 8
	ldrb	w2, [x23,x0]
.LVL80:
	add	w2, w2, 8
.LVL81:
	cmp	w2, 16
	bne	.L47
	.loc 1 941 0 is_stmt 0 discriminator 3
	ubfx	x0, x1, 8, 8
	ldrb	w2, [x23,x0]
.LVL82:
	add	w2, w2, 16
.LVL83:
	cmp	w2, 24
	bne	.L47
	.loc 1 941 0 discriminator 5
	uxtb	x0, w1
	ldrb	w2, [x23,x0]
.LVL84:
	add	w2, w2, 24
.LVL85:
	b	.L47
.LVL86:
.L94:
.LBE110:
.LBE116:
	.loc 1 971 0 is_stmt 1 discriminator 1
	lsr	w0, w0, w5
	str	w0, [x2]
	b	.L60
.L95:
	.loc 1 978 0
	bl	__stack_chk_fail
.LVL87:
	.cfi_endproc
.LFE2758:
	.size	H265e_MakeSlcHdr, .-H265e_MakeSlcHdr
	.align	2
	.type	H264e_PutTrailingBits, %function
H264e_PutTrailingBits:
.LFB2754:
	.loc 1 427 0
	.cfi_startproc
.LVL88:
	stp	x29, x30, [sp, -32]!
	.cfi_def_cfa_offset 32
	.cfi_offset 29, -32
	.cfi_offset 30, -24
	.loc 1 428 0
	mov	w1, 1
	.loc 1 427 0
	add	x29, sp, 0
	.cfi_def_cfa_register 29
	str	x19, [sp,16]
	.cfi_offset 19, -16
	.loc 1 428 0
	mov	w2, w1
	.loc 1 427 0
	mov	x19, x0
	.loc 1 428 0
	bl	VENC_DRV_BsPutBits31
.LVL89:
	.loc 1 430 0
	ldr	w2, [x19,20]
	ands	w2, w2, 7
	bne	.L107
.L101:
	.loc 1 435 0
	ldr	x2, [x19,8]
	ldr	w0, [x19,24]
	add	x1, x2, 4
	str	x1, [x19,8]
	cbnz	w0, .L108
	.loc 1 435 0 is_stmt 0 discriminator 2
	ldr	w0, [x19,4]
	lsr	w3, w0, 24
	lsr	w1, w0, 8
	add	w3, w3, w0, lsl 24
	and	w1, w1, 65280
	lsl	w0, w0, 8
	add	w1, w3, w1
	and	w0, w0, 16711680
	add	w0, w1, w0
	.loc 1 435 0 discriminator 4
	str	w0, [x2]
	.loc 1 436 0 is_stmt 1
	ldr	x19, [sp,16]
	.cfi_remember_state
	.cfi_restore 19
.LVL90:
	ldp	x29, x30, [sp], 32
	.cfi_restore 30
	.cfi_restore 29
	.cfi_def_cfa 31, 0
	ret
.LVL91:
.L108:
	.cfi_restore_state
	.loc 1 435 0 discriminator 1
	ldr	w0, [x19,4]
	.loc 1 435 0 is_stmt 0 discriminator 4
	str	w0, [x2]
	.loc 1 436 0 is_stmt 1
	ldr	x19, [sp,16]
	.cfi_remember_state
	.cfi_restore 19
.LVL92:
	ldp	x29, x30, [sp], 32
	.cfi_restore 29
	.cfi_restore 30
	.cfi_def_cfa 31, 0
	ret
.LVL93:
.L107:
	.cfi_restore_state
	.loc 1 432 0
	mov	w3, 8
	mov	x0, x19
	mov	w1, 0
	sub	w2, w3, w2
	bl	VENC_DRV_BsPutBits31
.LVL94:
	b	.L101
	.cfi_endproc
.LFE2754:
	.size	H264e_PutTrailingBits, .-H264e_PutTrailingBits
	.align	2
	.global	CheckPreventionThreeByte
	.type	CheckPreventionThreeByte, %function
CheckPreventionThreeByte:
.LFB2759:
	.loc 1 981 0
	.cfi_startproc
.LVL95:
	.loc 1 984 0
	lsr	w1, w1, 3
.LVL96:
	.loc 1 981 0
	mov	x4, x0
	.loc 1 986 0
	cmp	w1, 4
	.loc 1 988 0
	mov	w0, 0
.LVL97:
	.loc 1 986 0
	bls	.L110
	.loc 1 993 0
	ldrb	w3, [x4]
	.loc 1 996 0 discriminator 1
	sub	w13, w1, #3
	.loc 1 993 0
	strb	w3, [x2]
	.loc 1 996 0 discriminator 1
	cmp	w13, 5
	.loc 1 993 0
	ldrb	w3, [x4,1]
	strb	w3, [x2,1]
	ldrb	w3, [x4,2]
	strb	w3, [x2,2]
	ldrb	w3, [x4,3]
	strb	w3, [x2,3]
	ldrb	w3, [x4,4]
	strb	w3, [x2,4]
	ldrb	w3, [x4,5]
	strb	w3, [x2,5]
	.loc 1 996 0 discriminator 1
	bls	.L110
	mov	w6, 6
	.loc 1 1005 0
	mov	w14, 3
	.loc 1 996 0 discriminator 1
	mov	w3, w6
	.loc 1 1009 0 discriminator 1
	sub	w1, w1, #4
.LVL98:
.L117:
	.loc 1 998 0
	uxtw	x5, w3
	.loc 1 999 0
	add	w9, w3, 1
	add	w7, w6, 1
	mov	x8, x9
	.loc 1 1029 0
	add	w12, w3, 2
	add	w11, w6, 2
	.loc 1 998 0
	ldrb	w10, [x4,x5]
	strb	w10, [x2,w6,uxtw]
	.loc 1 999 0
	ldrb	w10, [x4,x9]
	strb	w10, [x2,w7,uxtw]
	.loc 1 1001 0
	ldrb	w5, [x4,x5]
	cbnz	w5, .L112
	.loc 1 1001 0 is_stmt 0 discriminator 1
	ldrb	w10, [x4,x9]
	.loc 1 1003 0 is_stmt 1
	add	w5, w3, 2
	mov	x9, x12
	.loc 1 1001 0 discriminator 1
	cbnz	w10, .L112
	.loc 1 1003 0
	ldrb	w10, [x4,x9]
	cmp	w10, 3
	bhi	.L113
	.loc 1 1005 0
	strb	w14, [x2,x11]
	.loc 1 1009 0
	cmp	w13, w3
	.loc 1 1011 0
	add	w10, w6, 3
	.loc 1 1012 0
	add	w8, w3, 3
	add	w7, w6, 4
	.loc 1 1006 0
	add	w0, w0, 1
	.loc 1 1009 0
	beq	.L114
	.loc 1 1009 0 is_stmt 0 discriminator 1
	cmp	w1, w3
	beq	.L114
	.loc 1 1018 0 is_stmt 1
	mov	w3, w5
	add	w6, w6, 3
	.loc 1 996 0 discriminator 1
	cmp	w13, w3
	bcs	.L117
.LVL99:
.L110:
.LVL100:
	.loc 1 1035 0
	ret
.LVL101:
.L112:
	.loc 1 1029 0
	ldrb	w5, [x4,x12]
	mov	w3, w8
	strb	w5, [x2,x11]
	.loc 1 1030 0
	mov	w6, w7
.L116:
	.loc 1 996 0 discriminator 1
	cmp	w13, w3
	bcs	.L117
.LVL102:
	.loc 1 1035 0
	ret
.LVL103:
.L113:
	.loc 1 1023 0
	strb	w10, [x2,x11]
	mov	w3, w8
	.loc 1 1024 0
	mov	w6, w7
	b	.L116
.L114:
	mov	w3, w5
	.loc 1 1011 0
	ldrb	w5, [x4,x9]
	strb	w5, [x2,x10]
	.loc 1 1012 0
	ldrb	w5, [x4,x8]
	strb	w5, [x2,x7]
	.loc 1 1013 0
	b	.L116
	.cfi_endproc
.LFE2759:
	.size	CheckPreventionThreeByte, .-CheckPreventionThreeByte
	.align	2
	.global	VENC_SetDtsConfig
	.type	VENC_SetDtsConfig, %function
VENC_SetDtsConfig:
.LFB2764:
	.loc 1 1527 0
	.cfi_startproc
.LVL104:
	sub	sp, sp, #64
	.cfi_def_cfa_offset 64
	stp	x29, x30, [sp,48]
	.cfi_offset 29, -16
	.cfi_offset 30, -8
	add	x29, sp, 48
	.cfi_def_cfa 29, 16
	.loc 1 1528 0
	cbz	x0, .L130
	.loc 1 1534 0
	ldr	w6, [x0,4]
	ldr	w7, [x0,8]
	ldr	w2, [x0,20]
	ldr	w3, [x0,24]
	ldr	x4, [x0,40]
	cbz	w6, .L125
	.loc 1 1534 0 is_stmt 0 discriminator 1
	cbz	w7, .L125
	.loc 1 1536 0 is_stmt 1
	cbz	w2, .L125
	.loc 1 1536 0 is_stmt 0 discriminator 1
	cbz	w3, .L125
	.loc 1 1537 0 is_stmt 1
	cbz	x4, .L125
	.loc 1 1543 0
	adrp	x5, .LANCHOR1
	ldr	w10, [x0]
	add	x1, x5, :lo12:.LANCHOR1
	.loc 1 1546 0
	ldr	w9, [x0,12]
	.loc 1 1547 0
	ldr	w8, [x0,16]
	.loc 1 1553 0
	mov	w0, 0
.LVL105:
	.loc 1 1543 0
	str	w10, [x5,#:lo12:.LANCHOR1]
	.loc 1 1544 0
	str	w6, [x1,4]
	.loc 1 1545 0
	str	w7, [x1,8]
	.loc 1 1546 0
	str	w9, [x1,12]
	.loc 1 1547 0
	str	w8, [x1,16]
	.loc 1 1549 0
	str	w2, [x1,20]
	.loc 1 1550 0
	str	w3, [x1,24]
	.loc 1 1551 0
	str	x4, [x1,32]
.L123:
	.loc 1 1554 0
	sub	sp, x29, #48
	.cfi_remember_state
	.cfi_def_cfa 31, 64
	ldp	x29, x30, [sp,48]
	.cfi_restore 30
	.cfi_restore 29
	add	sp, sp, 64
	.cfi_def_cfa_offset 0
	ret
.LVL106:
.L125:
	.cfi_restore_state
	.loc 1 1539 0
	ldr	w1, [x0,16]
	adrp	x5, .LANCHOR0
	ldr	w8, [x0,12]
	add	x5, x5, :lo12:.LANCHOR0
	str	w1, [sp,8]
	adrp	x1, .LC0
	str	x4, [sp,32]
	adrp	x4, .LC4
	str	w8, [sp]
	mov	w0, 1
.LVL107:
	add	x1, x1, :lo12:.LC0
	str	w2, [sp,16]
	str	w3, [sp,24]
	mov	w2, 1540
	add	x3, x5, 320
	add	x4, x4, :lo12:.LC4
	add	x5, x5, 344
	bl	HI_PRINT
.LVL108:
	.loc 1 1554 0
	sub	sp, x29, #48
	.cfi_remember_state
	.cfi_def_cfa 31, 64
	.loc 1 1541 0
	mov	w0, -1
	.loc 1 1554 0
	ldp	x29, x30, [sp,48]
	.cfi_restore 29
	.cfi_restore 30
	add	sp, sp, 64
	.cfi_def_cfa_offset 0
	ret
.LVL109:
.L130:
	.cfi_restore_state
	.loc 1 1530 0
	adrp	x5, .LANCHOR0
	adrp	x1, .LC0
	add	x5, x5, :lo12:.LANCHOR0
	adrp	x4, .LC3
	mov	w0, 1
.LVL110:
	add	x3, x5, 320
	add	x1, x1, :lo12:.LC0
	mov	w2, 1530
	add	x4, x4, :lo12:.LC3
	add	x5, x5, 344
	bl	HI_PRINT
.LVL111:
	.loc 1 1531 0
	mov	w0, -1
	b	.L123
	.cfi_endproc
.LFE2764:
	.size	VENC_SetDtsConfig, .-VENC_SetDtsConfig
	.align	2
	.global	VENC_DRV_EflInitEncParaCfgHevc_LowPwr0
	.type	VENC_DRV_EflInitEncParaCfgHevc_LowPwr0, %function
VENC_DRV_EflInitEncParaCfgHevc_LowPwr0:
.LFB2765:
	.loc 1 1557 0
	.cfi_startproc
.LVL112:
	stp	x29, x30, [sp, -96]!
	.cfi_def_cfa_offset 96
	.cfi_offset 29, -96
	.cfi_offset 30, -88
	add	x29, sp, 0
	.cfi_def_cfa_register 29
	stp	x25, x26, [sp,64]
	.cfi_offset 25, -32
	.cfi_offset 26, -24
	mov	x25, x0
	.loc 1 1558 0
	mov	x0, 6808
.LVL113:
	.loc 1 1557 0
	stp	x19, x20, [sp,16]
	stp	x21, x22, [sp,32]
	stp	x23, x24, [sp,48]
	stp	x27, x28, [sp,80]
	.cfi_offset 19, -80
	.cfi_offset 20, -72
	.cfi_offset 21, -64
	.cfi_offset 22, -56
	.cfi_offset 23, -48
	.cfi_offset 24, -40
	.cfi_offset 27, -16
	.cfi_offset 28, -8
	.loc 1 1558 0
	bl	vmalloc
.LVL114:
	mov	x19, x0
.LVL115:
	.loc 1 1559 0
	cbz	x0, .L134
	.loc 1 1563 0
	mov	w1, 0
	mov	x2, 6808
	.loc 1 1570 0
	mov	w20, 1
	.loc 1 1592 0
	mov	w22, 2
	.loc 1 1563 0
	bl	memset
.LVL116:
	.loc 1 1564 0
	str	x19, [x25]
	.loc 1 1616 0
	mov	w0, 26
	.loc 1 1604 0
	str	w20, [x19,184]
	.loc 1 1601 0
	str	w20, [x19,148]
	.loc 1 1620 0
	mov	w4, -1
	.loc 1 1603 0
	str	w20, [x19,180]
	.loc 1 1637 0
	mov	w7, 7
	.loc 1 1598 0
	str	w20, [x19,172]
	.loc 1 1633 0
	mov	w9, 640
	.loc 1 1600 0
	str	w20, [x19,176]
	.loc 1 1615 0
	mov	w11, 12
	.loc 1 1596 0
	str	wzr, [x19,160]
	.loc 1 1639 0
	mov	w12, 32
	.loc 1 1597 0
	str	wzr, [x19,164]
	.loc 1 1632 0
	mov	w28, 480
	.loc 1 1594 0
	str	wzr, [x19,152]
	.loc 1 1641 0
	mov	w6, 3
	.loc 1 1595 0
	str	w20, [x19,156]
	.loc 1 1741 0
	mov	w30, 256
	.loc 1 1592 0
	str	w22, [x19,140]
	.loc 1 1717 0
	mov	w2, 4096
	.loc 1 1593 0
	str	wzr, [x19,144]
	.loc 1 1741 0
	movk	w30, 0xa600, lsl 16
	.loc 1 1590 0
	str	wzr, [x19,132]
	.loc 1 1739 0
	mov	w1, -1577058304
	.loc 1 1591 0
	str	wzr, [x19,136]
	.loc 1 1756 0
	mov	w21, 15
	.loc 1 1588 0
	str	w20, [x19,124]
	.loc 1 1774 0
	mov	w3, 8
	.loc 1 1589 0
	str	wzr, [x19,128]
	.loc 1 1768 0
	mov	w10, 100
	.loc 1 1586 0
	str	wzr, [x19,116]
	.loc 1 1770 0
	mov	w27, 5
	.loc 1 1587 0
	str	wzr, [x19,120]
	.loc 1 1778 0
	mov	w23, 16
	.loc 1 1584 0
	str	wzr, [x19,108]
	.loc 1 1780 0
	mov	w18, 24
	.loc 1 1585 0
	str	wzr, [x19,112]
	.loc 1 1854 0
	mov	w24, 255
	.loc 1 1582 0
	str	wzr, [x19,100]
	.loc 1 1853 0
	mov	w5, 4
	.loc 1 1583 0
	str	wzr, [x19,104]
	.loc 1 1859 0
	mov	w8, 6
	.loc 1 1580 0
	str	wzr, [x19,92]
	.loc 1 1953 0
	mov	w17, 18
	.loc 1 1581 0
	str	wzr, [x19,96]
	.loc 1 2005 0
	mov	w16, 9175
	.loc 1 1577 0
	str	w20, [x19,84]
	.loc 1 2006 0
	mov	w15, 28594
	.loc 1 1579 0
	str	wzr, [x19,88]
	.loc 1 2007 0
	mov	w14, 53060
	.loc 1 1572 0
	str	wzr, [x19,76]
	.loc 1 2005 0
	bfi	w16, w20, 16, 16
	.loc 1 1573 0
	str	w20, [x19,80]
	.loc 1 2006 0
	bfi	w15, w20, 16, 16
	.loc 1 1569 0
	str	wzr, [x19,68]
	.loc 1 2007 0
	bfi	w14, w20, 16, 16
	.loc 1 1570 0
	str	w20, [x19,72]
	.loc 1 2083 0
	mov	w13, 38528
	.loc 1 1567 0
	str	wzr, [x19,60]
	.loc 1 2083 0
	movk	w13, 0x98, lsl 16
	.loc 1 1568 0
	str	wzr, [x19,64]
	.loc 1 2145 0
	mov	w26, 235
	.loc 1 1566 0
	str	wzr, [x19,56]
	.loc 1 1606 0
	str	w20, [x19,188]
	.loc 1 1620 0
	str	w4, [x19,244]
	.loc 1 1636 0
	str	w4, [x19,312]
	.loc 1 1637 0
	str	w7, [x19,316]
	.loc 1 1633 0
	str	w9, [x19,300]
	.loc 1 1615 0
	str	w11, [x19,224]
	.loc 1 1639 0
	str	w12, [x19,324]
	.loc 1 1616 0
	str	w0, [x19,228]
	.loc 1 1638 0
	mov	w0, 31
	.loc 1 1607 0
	str	wzr, [x19,192]
	.loc 1 1638 0
	str	w0, [x19,320]
	.loc 1 1640 0
	mov	w0, 72
	.loc 1 1608 0
	str	wzr, [x19,196]
	.loc 1 1609 0
	str	w20, [x19,200]
	.loc 1 1610 0
	str	wzr, [x19,204]
	.loc 1 1611 0
	str	wzr, [x19,208]
	.loc 1 1612 0
	str	wzr, [x19,212]
	.loc 1 1613 0
	str	wzr, [x19,216]
	.loc 1 1614 0
	str	w20, [x19,220]
	.loc 1 1617 0
	str	wzr, [x19,232]
	.loc 1 1618 0
	str	wzr, [x19,236]
	.loc 1 1619 0
	str	wzr, [x19,240]
	.loc 1 1621 0
	str	wzr, [x19,248]
	.loc 1 1622 0
	str	wzr, [x19,252]
	.loc 1 1623 0
	str	wzr, [x19,256]
	.loc 1 1624 0
	str	w20, [x19,264]
	.loc 1 1625 0
	str	w22, [x19,268]
	.loc 1 1626 0
	str	w20, [x19,272]
	.loc 1 1627 0
	str	w20, [x19,276]
	.loc 1 1628 0
	str	w20, [x19,280]
	.loc 1 1629 0
	str	w20, [x19,284]
	.loc 1 1630 0
	str	w20, [x19,288]
	.loc 1 1631 0
	str	w20, [x19,292]
	.loc 1 1634 0
	str	wzr, [x19,304]
	.loc 1 1635 0
	str	wzr, [x19,308]
	.loc 1 1632 0
	str	w28, [x19,296]
	.loc 1 1640 0
	str	w0, [x19,328]
	.loc 1 1710 0
	mov	w0, -1879048192
	.loc 1 1641 0
	str	w6, [x19,332]
	.loc 1 1642 0
	str	w20, [x19,336]
	.loc 1 1643 0
	str	w20, [x19,340]
	.loc 1 1644 0
	str	wzr, [x19,412]
	.loc 1 1645 0
	str	wzr, [x19,348]
	.loc 1 1646 0
	str	wzr, [x19,352]
	.loc 1 1647 0
	str	wzr, [x19,356]
	.loc 1 1648 0
	str	wzr, [x19,360]
	.loc 1 1649 0
	str	wzr, [x19,364]
	.loc 1 1650 0
	str	wzr, [x19,368]
	.loc 1 1651 0
	str	wzr, [x19,372]
	.loc 1 1652 0
	str	wzr, [x19,376]
	.loc 1 1653 0
	str	wzr, [x19,380]
	.loc 1 1654 0
	str	wzr, [x19,384]
	.loc 1 1655 0
	str	wzr, [x19,388]
	.loc 1 1656 0
	str	wzr, [x19,392]
	.loc 1 1657 0
	str	wzr, [x19,396]
	.loc 1 1658 0
	str	wzr, [x19,400]
	.loc 1 1659 0
	str	wzr, [x19,404]
	.loc 1 1660 0
	str	wzr, [x19,408]
	.loc 1 1661 0
	str	wzr, [x19,416]
	.loc 1 1662 0
	str	wzr, [x19,420]
	.loc 1 1663 0
	str	wzr, [x19,424]
	.loc 1 1664 0
	str	wzr, [x19,428]
	.loc 1 1665 0
	str	wzr, [x19,432]
	.loc 1 1666 0
	str	wzr, [x19,436]
	.loc 1 1667 0
	str	wzr, [x19,440]
	.loc 1 1668 0
	str	wzr, [x19,444]
	.loc 1 1669 0
	str	wzr, [x19,448]
	.loc 1 1670 0
	str	wzr, [x19,452]
	.loc 1 1671 0
	str	wzr, [x19,456]
	.loc 1 1672 0
	str	wzr, [x19,460]
	.loc 1 1673 0
	str	wzr, [x19,464]
	.loc 1 1674 0
	str	wzr, [x19,468]
	.loc 1 1675 0
	str	wzr, [x19,472]
	.loc 1 1676 0
	str	wzr, [x19,476]
	.loc 1 1677 0
	str	wzr, [x19,480]
	.loc 1 1678 0
	str	wzr, [x19,484]
	.loc 1 1679 0
	str	wzr, [x19,488]
	.loc 1 1680 0
	str	wzr, [x19,492]
	.loc 1 1681 0
	str	wzr, [x19,496]
	.loc 1 1682 0
	str	wzr, [x19,500]
	.loc 1 1683 0
	str	wzr, [x19,504]
	.loc 1 1684 0
	str	wzr, [x19,508]
	.loc 1 1685 0
	str	wzr, [x19,512]
	.loc 1 1686 0
	str	wzr, [x19,516]
	.loc 1 1687 0
	str	wzr, [x19,520]
	.loc 1 1688 0
	str	wzr, [x19,524]
	.loc 1 1689 0
	str	wzr, [x19,528]
	.loc 1 1690 0
	str	wzr, [x19,532]
	.loc 1 1691 0
	str	wzr, [x19,536]
	.loc 1 1692 0
	str	wzr, [x19,540]
	.loc 1 1693 0
	str	wzr, [x19,544]
	.loc 1 1694 0
	str	wzr, [x19,548]
	.loc 1 1695 0
	str	wzr, [x19,552]
	.loc 1 1696 0
	str	wzr, [x19,556]
	.loc 1 1697 0
	str	wzr, [x19,560]
	.loc 1 1698 0
	str	wzr, [x19,564]
	.loc 1 1699 0
	str	wzr, [x19,568]
	.loc 1 1700 0
	str	wzr, [x19,572]
	.loc 1 1701 0
	str	wzr, [x19,576]
	.loc 1 1702 0
	str	wzr, [x19,580]
	.loc 1 1703 0
	str	wzr, [x19,584]
	.loc 1 1704 0
	str	wzr, [x19,588]
	.loc 1 1705 0
	str	wzr, [x19,592]
	.loc 1 1706 0
	str	wzr, [x19,596]
	.loc 1 1707 0
	str	wzr, [x19,600]
	.loc 1 1708 0
	str	wzr, [x19,604]
	.loc 1 1710 0
	str	w0, [x19,612]
	.loc 1 1711 0
	mov	w0, -1811939328
	str	w0, [x19,616]
	.loc 1 1712 0
	mov	w0, -1795162112
	str	w0, [x19,620]
	.loc 1 1713 0
	mov	w0, -1473249280
	str	w0, [x19,624]
	.loc 1 1714 0
	add	w0, w0, 131072
	str	w0, [x19,628]
	.loc 1 1719 0
	mov	w0, -1778384896
	str	w0, [x19,648]
	.loc 1 1720 0
	mov	w0, -1711276032
	str	w0, [x19,652]
	.loc 1 1723 0
	mov	w0, -1472987136
	str	w0, [x19,664]
	.loc 1 1724 0
	add	w0, w0, 1048576
	str	w0, [x19,668]
	.loc 1 1726 0
	mov	w0, -1677721600
	str	w0, [x19,676]
	.loc 1 1727 0
	mov	w0, -1610612736
	str	w0, [x19,680]
	.loc 1 1730 0
	mov	w0, -1470889984
	str	w0, [x19,692]
	.loc 1 1731 0
	add	w0, w0, 1048576
	str	w0, [x19,696]
	.loc 1 1734 0
	mov	w0, -1490026496
	str	w0, [x19,708]
	.loc 1 1735 0
	mov	w0, -1506803712
	str	w0, [x19,712]
	.loc 1 1736 0
	add	w0, w0, 1048576
	str	w0, [x19,716]
	.loc 1 1737 0
	mov	w0, -1508900864
	str	w0, [x19,720]
	.loc 1 1738 0
	add	w0, w0, 1048576
	.loc 1 1715 0
	str	w9, [x19,632]
	.loc 1 1716 0
	str	w9, [x19,636]
	.loc 1 1717 0
	str	w2, [x19,640]
	.loc 1 1718 0
	str	w2, [x19,644]
	.loc 1 1721 0
	str	w2, [x19,656]
	.loc 1 1722 0
	str	w2, [x19,660]
	.loc 1 1725 0
	str	w2, [x19,672]
	.loc 1 1728 0
	str	w2, [x19,684]
	.loc 1 1729 0
	str	w2, [x19,688]
	.loc 1 1732 0
	str	w2, [x19,700]
	.loc 1 1733 0
	str	w2, [x19,704]
	.loc 1 1738 0
	str	w0, [x19,724]
	.loc 1 2149 0
	mov	x0, x25
	.loc 1 1739 0
	str	w1, [x19,728]
	.loc 1 1740 0
	mov	w25, -1509949440
.LVL117:
	.loc 1 1741 0
	str	w30, [x19,736]
	.loc 1 2149 0
	mov	w1, 0
	.loc 1 1740 0
	str	w25, [x19,732]
	.loc 1 1709 0
	str	wzr, [x19,608]
	.loc 1 1742 0
	str	wzr, [x19,748]
	.loc 1 1755 0
	str	w9, [x19,800]
	.loc 1 1769 0
	mov	w9, 500
	.loc 1 1768 0
	str	w10, [x19,852]
	.loc 1 1769 0
	str	w9, [x19,856]
	.loc 1 1856 0
	mov	w9, 64
	.loc 1 1774 0
	str	w3, [x19,876]
	.loc 1 1775 0
	str	w3, [x19,880]
	.loc 1 1754 0
	str	w28, [x19,796]
	.loc 1 1770 0
	str	w27, [x19,860]
	.loc 1 1771 0
	str	w27, [x19,864]
	.loc 1 1743 0
	str	wzr, [x19,752]
	.loc 1 1744 0
	str	wzr, [x19,756]
	.loc 1 1745 0
	str	wzr, [x19,760]
	.loc 1 1746 0
	str	wzr, [x19,764]
	.loc 1 1747 0
	str	wzr, [x19,768]
	.loc 1 1748 0
	str	wzr, [x19,772]
	.loc 1 1749 0
	str	wzr, [x19,776]
	.loc 1 1750 0
	str	wzr, [x19,780]
	.loc 1 1751 0
	str	wzr, [x19,784]
	.loc 1 1752 0
	str	wzr, [x19,788]
	.loc 1 1753 0
	str	wzr, [x19,792]
	.loc 1 1756 0
	str	w21, [x19,804]
	.loc 1 1757 0
	str	w21, [x19,808]
	.loc 1 1758 0
	str	w20, [x19,812]
	.loc 1 1759 0
	str	w21, [x19,816]
	.loc 1 1760 0
	str	wzr, [x19,820]
	.loc 1 1761 0
	str	wzr, [x19,824]
	.loc 1 1762 0
	str	wzr, [x19,828]
	.loc 1 1763 0
	str	wzr, [x19,832]
	.loc 1 1764 0
	str	w20, [x19,836]
	.loc 1 1765 0
	str	wzr, [x19,840]
	.loc 1 1766 0
	str	w20, [x19,844]
	.loc 1 1767 0
	str	w20, [x19,848]
	.loc 1 1772 0
	str	w21, [x19,868]
	.loc 1 1773 0
	str	w21, [x19,872]
	.loc 1 1776 0
	str	w3, [x19,884]
	.loc 1 1777 0
	str	w3, [x19,888]
	.loc 1 1780 0
	str	w18, [x19,900]
	.loc 1 1781 0
	str	w18, [x19,904]
	.loc 1 1778 0
	str	w23, [x19,892]
	.loc 1 1779 0
	str	w23, [x19,896]
	.loc 1 1782 0
	str	w20, [x19,908]
	.loc 1 1783 0
	str	w20, [x19,912]
	.loc 1 1784 0
	str	w20, [x19,916]
	.loc 1 1785 0
	str	wzr, [x19,344]
	.loc 1 1786 0
	str	wzr, [x19,932]
	.loc 1 1787 0
	str	wzr, [x19,936]
	.loc 1 1788 0
	str	wzr, [x19,940]
	.loc 1 1789 0
	str	wzr, [x19,944]
	.loc 1 1790 0
	str	wzr, [x19,948]
	.loc 1 1791 0
	str	wzr, [x19,952]
	.loc 1 1792 0
	str	wzr, [x19,956]
	.loc 1 1793 0
	str	w20, [x19,960]
	.loc 1 1794 0
	str	wzr, [x19,964]
	.loc 1 1795 0
	str	wzr, [x19,968]
	.loc 1 1796 0
	str	wzr, [x19,972]
	.loc 1 1797 0
	str	wzr, [x19,976]
	.loc 1 1798 0
	str	wzr, [x19,980]
	.loc 1 1799 0
	str	wzr, [x19,984]
	.loc 1 1800 0
	str	wzr, [x19,988]
	.loc 1 1801 0
	str	wzr, [x19,992]
	.loc 1 1802 0
	str	wzr, [x19,996]
	.loc 1 1803 0
	str	wzr, [x19,1000]
	.loc 1 1804 0
	str	wzr, [x19,1004]
	.loc 1 1805 0
	str	wzr, [x19,1008]
	.loc 1 1806 0
	str	wzr, [x19,1012]
	.loc 1 1807 0
	str	wzr, [x19,1016]
	.loc 1 1808 0
	str	wzr, [x19,1020]
	.loc 1 1809 0
	str	wzr, [x19,1024]
	.loc 1 1810 0
	str	wzr, [x19,1028]
	.loc 1 1811 0
	str	wzr, [x19,1032]
	.loc 1 1812 0
	str	wzr, [x19,1036]
	.loc 1 1813 0
	str	wzr, [x19,1040]
	.loc 1 1814 0
	str	wzr, [x19,1044]
	.loc 1 1815 0
	str	wzr, [x19,1048]
	.loc 1 1816 0
	str	wzr, [x19,1052]
	.loc 1 1817 0
	str	wzr, [x19,1056]
	.loc 1 1818 0
	str	wzr, [x19,1060]
	.loc 1 1819 0
	str	wzr, [x19,1064]
	.loc 1 1820 0
	str	wzr, [x19,1068]
	.loc 1 1821 0
	str	wzr, [x19,1072]
	.loc 1 1822 0
	str	wzr, [x19,1076]
	.loc 1 1823 0
	str	wzr, [x19,1080]
	.loc 1 1824 0
	str	wzr, [x19,1084]
	.loc 1 1825 0
	str	wzr, [x19,1088]
	.loc 1 1826 0
	str	wzr, [x19,1092]
	.loc 1 1827 0
	str	wzr, [x19,1096]
	.loc 1 1828 0
	str	wzr, [x19,1100]
	.loc 1 1829 0
	str	wzr, [x19,1104]
	.loc 1 1830 0
	str	wzr, [x19,1108]
	.loc 1 1831 0
	str	wzr, [x19,1112]
	.loc 1 1832 0
	str	wzr, [x19,1116]
	.loc 1 1833 0
	str	wzr, [x19,1120]
	.loc 1 1834 0
	str	wzr, [x19,1124]
	.loc 1 1835 0
	str	wzr, [x19,1128]
	.loc 1 1836 0
	str	wzr, [x19,1132]
	.loc 1 1837 0
	str	wzr, [x19,1136]
	.loc 1 1838 0
	str	wzr, [x19,1140]
	.loc 1 1839 0
	str	wzr, [x19,1144]
	.loc 1 1840 0
	str	wzr, [x19,1148]
	.loc 1 1841 0
	str	wzr, [x19,1152]
	.loc 1 1842 0
	str	wzr, [x19,1156]
	.loc 1 1843 0
	str	wzr, [x19,1160]
	.loc 1 1844 0
	str	wzr, [x19,1164]
	.loc 1 1853 0
	str	w5, [x19,1200]
	.loc 1 1855 0
	str	w6, [x19,1208]
	.loc 1 1856 0
	str	w9, [x19,1212]
	.loc 1 1907 0
	mov	w9, 20
	.loc 1 1857 0
	str	w3, [x19,1216]
	.loc 1 1858 0
	str	w12, [x19,1220]
	.loc 1 1859 0
	str	w8, [x19,1224]
	.loc 1 1861 0
	str	w3, [x19,1232]
	.loc 1 1863 0
	str	w8, [x19,1240]
	.loc 1 1864 0
	str	w3, [x19,1244]
	.loc 1 1865 0
	str	w3, [x19,1248]
	.loc 1 1866 0
	str	w12, [x19,1252]
	.loc 1 1867 0
	str	w8, [x19,1256]
	.loc 1 1845 0
	str	wzr, [x19,1168]
	.loc 1 1846 0
	str	wzr, [x19,1172]
	.loc 1 1847 0
	str	wzr, [x19,1176]
	.loc 1 1848 0
	str	wzr, [x19,1180]
	.loc 1 1849 0
	str	wzr, [x19,1184]
	.loc 1 1850 0
	str	wzr, [x19,1188]
	.loc 1 1851 0
	str	wzr, [x19,1192]
	.loc 1 1852 0
	str	wzr, [x19,1196]
	.loc 1 1854 0
	str	w24, [x19,1204]
	.loc 1 1860 0
	str	w23, [x19,1228]
	.loc 1 1862 0
	str	w23, [x19,1236]
	.loc 1 1868 0
	str	w23, [x19,1260]
	.loc 1 1869 0
	str	wzr, [x19,1264]
	.loc 1 1870 0
	str	wzr, [x19,1268]
	.loc 1 1871 0
	str	wzr, [x19,1272]
	.loc 1 1872 0
	str	wzr, [x19,1276]
	.loc 1 1873 0
	str	wzr, [x19,1280]
	.loc 1 1874 0
	str	wzr, [x19,1284]
	.loc 1 1875 0
	str	wzr, [x19,1288]
	.loc 1 1876 0
	str	wzr, [x19,1292]
	.loc 1 1877 0
	str	wzr, [x19,1296]
	.loc 1 1878 0
	str	wzr, [x19,1300]
	.loc 1 1907 0
	str	w9, [x19,1416]
	.loc 1 1908 0
	mov	w9, 50
	.loc 1 1910 0
	str	w11, [x19,1428]
	.loc 1 1908 0
	str	w9, [x19,1420]
	.loc 1 1909 0
	mov	w9, 150
	.loc 1 1911 0
	str	w3, [x19,1432]
	.loc 1 1909 0
	str	w9, [x19,1424]
	.loc 1 1879 0
	str	wzr, [x19,1304]
	.loc 1 1880 0
	str	wzr, [x19,1308]
	.loc 1 1881 0
	str	wzr, [x19,1312]
	.loc 1 1882 0
	str	wzr, [x19,1316]
	.loc 1 1883 0
	str	wzr, [x19,1320]
	.loc 1 1884 0
	str	wzr, [x19,1324]
	.loc 1 1885 0
	str	wzr, [x19,1328]
	.loc 1 1886 0
	str	wzr, [x19,1332]
	.loc 1 1887 0
	str	wzr, [x19,1336]
	.loc 1 1888 0
	str	wzr, [x19,1340]
	.loc 1 1889 0
	str	wzr, [x19,1344]
	.loc 1 1890 0
	str	wzr, [x19,1348]
	.loc 1 1891 0
	str	wzr, [x19,1352]
	.loc 1 1892 0
	str	wzr, [x19,1356]
	.loc 1 1893 0
	str	wzr, [x19,1360]
	.loc 1 1894 0
	str	wzr, [x19,1364]
	.loc 1 1895 0
	str	wzr, [x19,1368]
	.loc 1 1896 0
	str	wzr, [x19,1372]
	.loc 1 1897 0
	str	wzr, [x19,1376]
	.loc 1 1898 0
	str	wzr, [x19,1380]
	.loc 1 1899 0
	str	wzr, [x19,1384]
	.loc 1 1900 0
	str	wzr, [x19,1388]
	.loc 1 1901 0
	str	wzr, [x19,1392]
	.loc 1 1902 0
	str	wzr, [x19,1396]
	.loc 1 1903 0
	str	wzr, [x19,1400]
	.loc 1 1904 0
	str	wzr, [x19,1404]
	.loc 1 1905 0
	str	w20, [x19,1408]
	.loc 1 1906 0
	str	w20, [x19,1412]
	.loc 1 1912 0
	str	w5, [x19,1436]
	.loc 1 1914 0
	str	w3, [x19,1444]
	.loc 1 1919 0
	mov	w3, 135
	str	w3, [x19,1464]
	.loc 1 1920 0
	mov	w3, 160
	str	w3, [x19,1468]
	.loc 1 1922 0
	mov	w3, 127
	str	w3, [x19,1476]
	.loc 1 1925 0
	mov	w3, 40
	str	w3, [x19,1488]
	.loc 1 1926 0
	mov	w3, 200
	.loc 1 1913 0
	str	w11, [x19,1440]
	.loc 1 1915 0
	str	w5, [x19,1448]
	.loc 1 1917 0
	str	w5, [x19,1456]
	.loc 1 1918 0
	str	w8, [x19,1460]
	.loc 1 1921 0
	str	w10, [x19,1472]
	.loc 1 1924 0
	str	w8, [x19,1484]
	.loc 1 1926 0
	str	w3, [x19,1492]
	.loc 1 1942 0
	mov	w3, 1500
	.loc 1 1943 0
	str	w2, [x19,1560]
	.loc 1 1947 0
	mov	w2, 10
	.loc 1 1942 0
	str	w3, [x19,1556]
	.loc 1 1916 0
	str	w22, [x19,1452]
	.loc 1 1923 0
	str	wzr, [x19,1480]
	.loc 1 1927 0
	str	w20, [x19,1496]
	.loc 1 1928 0
	str	wzr, [x19,1504]
	.loc 1 1929 0
	str	w20, [x19,1508]
	.loc 1 1930 0
	str	w20, [x19,1512]
	.loc 1 1931 0
	str	w20, [x19,1516]
	.loc 1 1933 0
	str	w20, [x19,1520]
	.loc 1 1934 0
	str	wzr, [x19,1524]
	.loc 1 1935 0
	str	wzr, [x19,1528]
	.loc 1 1936 0
	str	wzr, [x19,1532]
	.loc 1 1937 0
	str	wzr, [x19,1536]
	.loc 1 1938 0
	str	w20, [x19,1540]
	.loc 1 1939 0
	str	w20, [x19,1544]
	.loc 1 1940 0
	str	wzr, [x19,1548]
	.loc 1 1941 0
	str	wzr, [x19,1552]
	.loc 1 1944 0
	str	wzr, [x19,1564]
	.loc 1 1945 0
	str	wzr, [x19,1568]
	.loc 1 1946 0
	str	w23, [x19,1572]
	.loc 1 1947 0
	str	w2, [x19,1576]
	.loc 1 1948 0
	mov	w2, 51
	str	w2, [x19,1580]
	.loc 1 1957 0
	mov	w2, 44
	str	w2, [x19,1612]
	.loc 1 1958 0
	mov	w2, 34
	str	w2, [x19,1616]
	.loc 1 1959 0
	mov	w2, 27
	str	w2, [x19,1620]
	.loc 1 1960 0
	mov	w2, 22
	str	w2, [x19,1624]
	.loc 1 1969 0
	str	w2, [x19,1656]
	.loc 1 1970 0
	mov	w2, 28
	str	w2, [x19,1660]
	.loc 1 1971 0
	mov	w2, 36
	str	w2, [x19,1664]
	.loc 1 1972 0
	mov	w2, 45
	str	w2, [x19,1668]
	.loc 1 1973 0
	mov	w2, 57
	str	w2, [x19,1672]
	.loc 1 1974 0
	mov	w2, 72
	str	w2, [x19,1676]
	.loc 1 1975 0
	mov	w2, 91
	str	w2, [x19,1680]
	.loc 1 1976 0
	mov	w2, 115
	str	w2, [x19,1684]
	.loc 1 1977 0
	mov	w2, 145
	str	w2, [x19,1688]
	.loc 1 1978 0
	mov	w2, 183
	str	w2, [x19,1692]
	.loc 1 1979 0
	mov	w2, 231
	str	w2, [x19,1696]
	.loc 1 1980 0
	mov	w2, 291
	str	w2, [x19,1700]
	.loc 1 1981 0
	mov	w2, 367
	str	w2, [x19,1704]
	.loc 1 1982 0
	mov	w2, 463
	.loc 1 1950 0
	str	w10, [x19,1588]
	.loc 1 1952 0
	str	w5, [x19,1592]
	.loc 1 1953 0
	str	w17, [x19,1596]
	.loc 1 1955 0
	str	w5, [x19,1604]
	.loc 1 1967 0
	str	w6, [x19,1648]
	.loc 1 1968 0
	str	w17, [x19,1652]
	.loc 1 1982 0
	str	w2, [x19,1708]
	.loc 1 1983 0
	mov	w2, 583
	.loc 1 1949 0
	str	wzr, [x19,1584]
	.loc 1 1954 0
	str	w21, [x19,1600]
	.loc 1 1956 0
	str	w20, [x19,1608]
	.loc 1 1961 0
	str	w24, [x19,1628]
	.loc 1 1962 0
	str	w24, [x19,1632]
	.loc 1 1963 0
	str	w24, [x19,1636]
	.loc 1 1964 0
	str	w24, [x19,1640]
	.loc 1 1966 0
	str	w22, [x19,1644]
	.loc 1 1983 0
	str	w2, [x19,1712]
	.loc 1 1984 0
	mov	w2, 735
	str	w2, [x19,1716]
	.loc 1 1985 0
	mov	w2, 926
	str	w2, [x19,1720]
	.loc 1 1986 0
	mov	w2, 1167
	str	w2, [x19,1724]
	.loc 1 1987 0
	mov	w2, 1470
	str	w2, [x19,1728]
	.loc 1 1988 0
	mov	w2, 1853
	str	w2, [x19,1732]
	.loc 1 1989 0
	mov	w2, 2334
	str	w2, [x19,1736]
	.loc 1 1990 0
	mov	w2, 2941
	str	w2, [x19,1740]
	.loc 1 1991 0
	mov	w2, 3706
	str	w2, [x19,1744]
	.loc 1 1992 0
	mov	w2, 4666
	str	w2, [x19,1748]
	.loc 1 1994 0
	mov	w2, 5883
	str	w2, [x19,1752]
	.loc 1 1995 0
	mov	w2, 7412
	str	w2, [x19,1756]
	.loc 1 1996 0
	mov	w2, 9338
	str	w2, [x19,1760]
	.loc 1 1997 0
	mov	w2, 11766
	str	w2, [x19,1764]
	.loc 1 1998 0
	mov	w2, 14824
	str	w2, [x19,1768]
	.loc 1 1999 0
	mov	w2, 18677
	str	w2, [x19,1772]
	.loc 1 2000 0
	mov	w2, 23532
	str	w2, [x19,1776]
	.loc 1 2001 0
	mov	w2, 29649
	str	w2, [x19,1780]
	.loc 1 2002 0
	mov	w2, 37355
	str	w2, [x19,1784]
	.loc 1 2003 0
	mov	w2, 47065
	str	w2, [x19,1788]
	.loc 1 2004 0
	mov	w2, 59298
	str	w2, [x19,1792]
	.loc 1 2008 0
	mov	w2, 131071
	str	w2, [x19,1808]
	.loc 1 2009 0
	mov	w2, 193
	str	w2, [x19,1812]
	.loc 1 2010 0
	mov	w2, 216
	str	w2, [x19,1816]
	.loc 1 2011 0
	mov	w2, 243
	str	w2, [x19,1820]
	.loc 1 2012 0
	mov	w2, 273
	str	w2, [x19,1824]
	.loc 1 2013 0
	mov	w2, 306
	str	w2, [x19,1828]
	.loc 1 2014 0
	mov	w2, 344
	str	w2, [x19,1832]
	.loc 1 2015 0
	mov	w2, 386
	str	w2, [x19,1836]
	.loc 1 2016 0
	mov	w2, 433
	str	w2, [x19,1840]
	.loc 1 2017 0
	mov	w2, 487
	.loc 1 2005 0
	str	w16, [x19,1796]
	.loc 1 2006 0
	str	w15, [x19,1800]
	.loc 1 2007 0
	str	w14, [x19,1804]
	.loc 1 2017 0
	str	w2, [x19,1844]
	.loc 1 2018 0
	mov	w2, 546
	str	w2, [x19,1848]
	.loc 1 2019 0
	mov	w2, 613
	str	w2, [x19,1852]
	.loc 1 2020 0
	mov	w2, 688
	str	w2, [x19,1856]
	.loc 1 2021 0
	mov	w2, 773
	str	w2, [x19,1860]
	.loc 1 2022 0
	mov	w2, 867
	str	w2, [x19,1864]
	.loc 1 2023 0
	mov	w2, 974
	str	w2, [x19,1868]
	.loc 1 2024 0
	mov	w2, 1093
	str	w2, [x19,1872]
	.loc 1 2025 0
	mov	w2, 1227
	str	w2, [x19,1876]
	.loc 1 2026 0
	mov	w2, 1377
	str	w2, [x19,1880]
	.loc 1 2027 0
	mov	w2, 1546
	str	w2, [x19,1884]
	.loc 1 2028 0
	mov	w2, 1735
	str	w2, [x19,1888]
	.loc 1 2029 0
	mov	w2, 1948
	str	w2, [x19,1892]
	.loc 1 2030 0
	mov	w2, 2186
	str	w2, [x19,1896]
	.loc 1 2031 0
	mov	w2, 2454
	str	w2, [x19,1900]
	.loc 1 2032 0
	mov	w2, 2755
	str	w2, [x19,1904]
	.loc 1 2033 0
	mov	w2, 3092
	str	w2, [x19,1908]
	.loc 1 2034 0
	mov	w2, 3471
	str	w2, [x19,1912]
	.loc 1 2035 0
	mov	w2, 3896
	str	w2, [x19,1916]
	.loc 1 2036 0
	mov	w2, 4373
	str	w2, [x19,1920]
	.loc 1 2037 0
	mov	w2, 4908
	str	w2, [x19,1924]
	.loc 1 2038 0
	mov	w2, 5510
	str	w2, [x19,1928]
	.loc 1 2039 0
	mov	w2, 6184
	str	w2, [x19,1932]
	.loc 1 2040 0
	mov	w2, 6942
	str	w2, [x19,1936]
	.loc 1 2041 0
	mov	w2, 7792
	str	w2, [x19,1940]
	.loc 1 2042 0
	mov	w2, 8746
	str	w2, [x19,1944]
	.loc 1 2043 0
	mov	w2, 9817
	str	w2, [x19,1948]
	.loc 1 2044 0
	mov	w2, 11020
	str	w2, [x19,1952]
	.loc 1 2045 0
	mov	w2, 12369
	str	w2, [x19,1956]
	.loc 1 2046 0
	mov	w2, 13884
	str	w2, [x19,1960]
	.loc 1 2047 0
	mov	w2, 15584
	str	w2, [x19,1964]
	.loc 1 2048 0
	mov	w2, 17493
	.loc 1 2049 0
	str	wzr, [x19,1972]
	.loc 1 2048 0
	str	w2, [x19,1968]
	.loc 1 2051 0
	mov	w2, 13
	.loc 1 2050 0
	str	w20, [x19,1976]
	.loc 1 2051 0
	str	w2, [x19,1980]
	.loc 1 2112 0
	mov	w2, 4783
	.loc 1 2052 0
	str	w7, [x19,2124]
	.loc 1 2053 0
	str	w4, [x19,2128]
	.loc 1 2054 0
	str	w7, [x19,2272]
	.loc 1 2055 0
	str	w4, [x19,2276]
	.loc 1 2056 0
	str	w7, [x19,2420]
	.loc 1 2057 0
	str	w4, [x19,2424]
	.loc 1 2058 0
	str	w7, [x19,2568]
	.loc 1 2059 0
	str	w4, [x19,2572]
	.loc 1 2066 0
	str	w6, [x19,2600]
	.loc 1 2067 0
	str	w6, [x19,2604]
	.loc 1 2083 0
	str	w13, [x19,2668]
	.loc 1 2060 0
	str	w20, [x19,2576]
	.loc 1 2062 0
	str	wzr, [x19,2580]
	.loc 1 2063 0
	str	wzr, [x19,2584]
	.loc 1 2064 0
	str	w22, [x19,2592]
	.loc 1 2065 0
	str	wzr, [x19,2596]
	.loc 1 2068 0
	str	wzr, [x19,2608]
	.loc 1 2070 0
	str	wzr, [x19,2612]
	.loc 1 2071 0
	str	w22, [x19,2616]
	.loc 1 2072 0
	str	wzr, [x19,2620]
	.loc 1 2073 0
	str	wzr, [x19,2624]
	.loc 1 2074 0
	str	wzr, [x19,2628]
	.loc 1 2075 0
	str	wzr, [x19,2632]
	.loc 1 2076 0
	str	wzr, [x19,2636]
	.loc 1 2077 0
	str	wzr, [x19,2640]
	.loc 1 2078 0
	str	wzr, [x19,2644]
	.loc 1 2079 0
	str	wzr, [x19,2648]
	.loc 1 2080 0
	str	wzr, [x19,2652]
	.loc 1 2081 0
	str	wzr, [x19,2656]
	.loc 1 2082 0
	str	wzr, [x19,2660]
	.loc 1 2084 0
	str	wzr, [x19,2672]
	.loc 1 2085 0
	str	wzr, [x19,2676]
	.loc 1 2087 0
	str	wzr, [x19,2704]
	.loc 1 2088 0
	str	wzr, [x19,2708]
	.loc 1 2089 0
	str	wzr, [x19,2712]
	.loc 1 2112 0
	str	w2, [x19,2804]
	.loc 1 2113 0
	mov	w2, 15743
	str	w2, [x19,2808]
	.loc 1 2114 0
	mov	w2, 16358
	str	w2, [x19,2812]
	.loc 1 2115 0
	mov	w2, 16364
	str	w2, [x19,2816]
	.loc 1 2116 0
	mov	w2, 4265
	str	w2, [x19,2820]
	.loc 1 2117 0
	mov	w2, 15573
	str	w2, [x19,2824]
	.loc 1 2118 0
	mov	w2, 16259
	str	w2, [x19,2828]
	.loc 1 2119 0
	mov	w2, 568
	str	w2, [x19,2832]
	.loc 1 2120 0
	mov	w2, 3855
	str	w2, [x19,2836]
	.loc 1 2121 0
	mov	w2, 15584
	str	w2, [x19,2840]
	.loc 1 2122 0
	mov	w2, 16101
	.loc 1 2090 0
	str	wzr, [x19,2716]
	.loc 1 2122 0
	str	w2, [x19,2844]
	.loc 1 2123 0
	mov	w2, 1324
	.loc 1 2091 0
	str	wzr, [x19,2720]
	.loc 1 2092 0
	str	wzr, [x19,2724]
	.loc 1 2093 0
	str	wzr, [x19,2728]
	.loc 1 2094 0
	str	wzr, [x19,2732]
	.loc 1 2095 0
	str	wzr, [x19,2736]
	.loc 1 2096 0
	str	wzr, [x19,2740]
	.loc 1 2097 0
	str	wzr, [x19,2744]
	.loc 1 2098 0
	str	wzr, [x19,2748]
	.loc 1 2099 0
	str	wzr, [x19,2752]
	.loc 1 2100 0
	str	w22, [x19,2756]
	.loc 1 2101 0
	str	w22, [x19,2760]
	.loc 1 2102 0
	str	w20, [x19,2764]
	.loc 1 2103 0
	str	w20, [x19,2768]
	.loc 1 2104 0
	str	w20, [x19,2772]
	.loc 1 2105 0
	str	w20, [x19,2776]
	.loc 1 2106 0
	str	w22, [x19,2780]
	.loc 1 2107 0
	str	w22, [x19,2784]
	.loc 1 2108 0
	str	w20, [x19,2788]
	.loc 1 2109 0
	str	w20, [x19,2792]
	.loc 1 2110 0
	str	w20, [x19,2796]
	.loc 1 2111 0
	str	w20, [x19,2800]
	.loc 1 2123 0
	str	w2, [x19,2848]
	.loc 1 2124 0
	mov	w2, 3058
	str	w2, [x19,2852]
	.loc 1 2125 0
	mov	w2, 15716
	str	w2, [x19,2856]
	.loc 1 2126 0
	mov	w2, 15937
	str	w2, [x19,2860]
	.loc 1 2127 0
	mov	w2, 2182
	str	w2, [x19,2864]
	.loc 1 2128 0
	mov	w2, 4059
	str	w2, [x19,2868]
	.loc 1 2129 0
	mov	w2, 16242
	str	w2, [x19,2872]
	.loc 1 2130 0
	mov	w2, 16380
	str	w2, [x19,2876]
	.loc 1 2131 0
	mov	w2, 183
	str	w2, [x19,2880]
	.loc 1 2132 0
	mov	w2, 3783
	str	w2, [x19,2884]
	.loc 1 2133 0
	mov	w2, 16074
	str	w2, [x19,2888]
	.loc 1 2134 0
	mov	w2, 16344
	str	w2, [x19,2892]
	.loc 1 2135 0
	mov	w2, 664
	str	w2, [x19,2896]
	.loc 1 2136 0
	mov	w2, 3286
	str	w2, [x19,2900]
	.loc 1 2137 0
	mov	w2, 16036
	str	w2, [x19,2904]
	.loc 1 2138 0
	mov	w2, 16262
	str	w2, [x19,2908]
	.loc 1 2139 0
	mov	w2, 1270
	str	w2, [x19,2912]
	.loc 1 2140 0
	mov	w2, 2649
	str	w2, [x19,2916]
	.loc 1 2141 0
	mov	w2, 16085
	str	w2, [x19,2920]
	.loc 1 2142 0
	mov	w2, 16177
	str	w2, [x19,2924]
	.loc 1 2143 0
	mov	w2, 1953
	.loc 1 2144 0
	str	wzr, [x19,3060]
	.loc 1 2143 0
	str	w2, [x19,2928]
	.loc 1 2147 0
	mov	w2, 240
	.loc 1 2145 0
	str	w26, [x19,3064]
	.loc 1 2146 0
	str	w23, [x19,3068]
	.loc 1 2147 0
	str	w2, [x19,3072]
	.loc 1 2148 0
	str	w23, [x19,3076]
	.loc 1 2149 0
	bl	venc_drv_EflsetRGBtoYUVcoeff
.LVL118:
	.loc 1 2150 0
	str	wzr, [x19,3132]
	.loc 1 2159 0
	mov	w0, 148
	.loc 1 2151 0
	str	w26, [x19,3136]
	.loc 1 2159 0
	str	w0, [x19,1500]
	.loc 1 2160 0
	str	w0, [x19,2664]
	.loc 1 2152 0
	str	w23, [x19,3140]
	.loc 1 2154 0
	str	w20, [x19,260]
	.loc 1 2155 0
	str	wzr, [x19,740]
	.loc 1 2156 0
	str	wzr, [x19,744]
	.loc 1 2157 0
	str	w22, [x19,920]
	.loc 1 2158 0
	str	w22, [x19,924]
	.loc 1 2161 0
	str	wzr, [x19,3144]
	.loc 1 2162 0
	str	w24, [x19,3148]
	.loc 1 2163 0
	str	w24, [x19,3152]
	.loc 1 2164 0
	str	w21, [x19,3156]
	.loc 1 2165 0
	str	w21, [x19,3160]
	.loc 1 2166 0
	str	w21, [x19,3164]
	.loc 1 2167 0
	str	w21, [x19,3168]
	.loc 1 2168 0
	str	w21, [x19,3172]
	.loc 1 2169 0
	str	w21, [x19,3176]
	.loc 1 2170 0
	str	w21, [x19,3180]
	.loc 1 2171 0
	str	w21, [x19,3184]
	.loc 1 2172 0
	str	w21, [x19,3188]
	.loc 1 2173 0
	str	w21, [x19,3192]
	.loc 1 2174 0
	str	w21, [x19,3196]
	.loc 1 2175 0
	str	w21, [x19,3200]
	.loc 1 2176 0
	str	w21, [x19,3204]
	.loc 1 2177 0
	str	w21, [x19,3208]
	.loc 1 2178 0
	str	w21, [x19,3212]
	.loc 1 2179 0
	str	w21, [x19,3216]
	.loc 1 2180 0
	str	w21, [x19,3220]
	.loc 1 2181 0
	str	w21, [x19,3224]
	.loc 1 2182 0
	str	w21, [x19,3228]
	.loc 1 2183 0
	str	w21, [x19,3232]
	.loc 1 2184 0
	str	w21, [x19,3236]
	.loc 1 2193 0
	ldr	w1, [x19,176]
	ldr	w0, [x19,148]
	.loc 1 2185 0
	str	w21, [x19,3240]
	.loc 1 2186 0
	str	w21, [x19,3244]
	.loc 1 2193 0
	cmp	w1, w0
	.loc 1 2187 0
	str	w21, [x19,3248]
	.loc 1 2188 0
	str	w21, [x19,3252]
	.loc 1 2189 0
	str	w21, [x19,3256]
	.loc 1 2190 0
	str	w21, [x19,3260]
	.loc 1 2191 0
	str	w21, [x19,3264]
	.loc 1 2193 0
	beq	.L133
	.loc 1 2195 0
	str	wzr, [x19,176]
	.loc 1 2196 0
	str	wzr, [x19,148]
.L133:
	.loc 1 2200 0
	str	wzr, [x19,2932]
	.loc 1 2234 0
	mov	w2, 3
	.loc 1 2201 0
	str	wzr, [x19,2936]
	.loc 1 2238 0
	mov	w1, 1
	.loc 1 2202 0
	str	wzr, [x19,2940]
	.loc 1 2322 0
	mov	w0, 0
	.loc 1 2203 0
	str	wzr, [x19,2944]
	.loc 1 2204 0
	str	wzr, [x19,2948]
	.loc 1 2205 0
	str	wzr, [x19,2952]
	.loc 1 2206 0
	str	wzr, [x19,2956]
	.loc 1 2207 0
	str	wzr, [x19,2960]
	.loc 1 2208 0
	str	wzr, [x19,2964]
	.loc 1 2209 0
	str	wzr, [x19,2968]
	.loc 1 2210 0
	str	wzr, [x19,2972]
	.loc 1 2211 0
	str	wzr, [x19,2976]
	.loc 1 2212 0
	str	wzr, [x19,2980]
	.loc 1 2213 0
	str	wzr, [x19,2984]
	.loc 1 2214 0
	str	wzr, [x19,2988]
	.loc 1 2215 0
	str	wzr, [x19,2992]
	.loc 1 2216 0
	str	wzr, [x19,2996]
	.loc 1 2217 0
	str	wzr, [x19,3000]
	.loc 1 2218 0
	str	wzr, [x19,3004]
	.loc 1 2219 0
	str	wzr, [x19,3008]
	.loc 1 2220 0
	str	wzr, [x19,3012]
	.loc 1 2221 0
	str	wzr, [x19,3016]
	.loc 1 2222 0
	str	wzr, [x19,3020]
	.loc 1 2223 0
	str	wzr, [x19,3024]
	.loc 1 2224 0
	str	wzr, [x19,3028]
	.loc 1 2225 0
	str	wzr, [x19,3032]
	.loc 1 2226 0
	str	wzr, [x19,3036]
	.loc 1 2227 0
	str	wzr, [x19,3040]
	.loc 1 2228 0
	str	wzr, [x19,3044]
	.loc 1 2229 0
	str	wzr, [x19,3048]
	.loc 1 2230 0
	str	wzr, [x19,3052]
	.loc 1 2231 0
	str	wzr, [x19,3056]
	.loc 1 2234 0
	str	w2, [x19,3272]
	.loc 1 2235 0
	str	wzr, [x19,3276]
	.loc 1 2236 0
	str	wzr, [x19,3280]
	.loc 1 2237 0
	str	wzr, [x19,3284]
	.loc 1 2238 0
	str	w1, [x19,3288]
	.loc 1 2239 0
	str	w1, [x19,3292]
	.loc 1 2240 0
	str	w1, [x19,3296]
	.loc 1 2241 0
	str	w1, [x19,3300]
	.loc 1 2242 0
	str	w1, [x19,3304]
	.loc 1 2244 0
	str	wzr, [x19,3308]
	.loc 1 2245 0
	str	wzr, [x19,3388]
	.loc 1 2246 0
	str	wzr, [x19,3392]
	.loc 1 2247 0
	str	wzr, [x19,3396]
	.loc 1 2248 0
	str	wzr, [x19,3400]
	.loc 1 2249 0
	str	wzr, [x19,3404]
	.loc 1 2250 0
	str	wzr, [x19,3408]
	.loc 1 2251 0
	str	wzr, [x19,3440]
	.loc 1 2254 0
	str	w1, [x19,4908]
	.loc 1 2255 0
	str	w1, [x19,4920]
	.loc 1 2256 0
	str	w1, [x19,4932]
	.loc 1 2257 0
	str	w1, [x19,4944]
	.loc 1 2258 0
	str	w1, [x19,4956]
	.loc 1 2259 0
	str	w1, [x19,4968]
	.loc 1 2260 0
	str	w1, [x19,4980]
	.loc 1 2261 0
	str	w1, [x19,4992]
	.loc 1 2262 0
	str	w1, [x19,5004]
	.loc 1 2263 0
	str	w1, [x19,5016]
	.loc 1 2264 0
	str	w1, [x19,5028]
	.loc 1 2265 0
	str	w1, [x19,5040]
	.loc 1 2266 0
	str	w1, [x19,5052]
	.loc 1 2267 0
	str	w1, [x19,5064]
	.loc 1 2268 0
	str	w1, [x19,5076]
	.loc 1 2269 0
	str	w1, [x19,5088]
	.loc 1 2270 0
	str	w1, [x19,5100]
	.loc 1 2271 0
	str	w1, [x19,5112]
	.loc 1 2272 0
	str	wzr, [x19,5872]
	.loc 1 2273 0
	str	wzr, [x19,5876]
	.loc 1 2274 0
	str	wzr, [x19,5880]
	.loc 1 2275 0
	str	wzr, [x19,5884]
	.loc 1 2276 0
	str	wzr, [x19,5888]
	.loc 1 2277 0
	str	wzr, [x19,5892]
	.loc 1 2280 0
	str	wzr, [x19,5972]
	.loc 1 2282 0
	str	wzr, [x19,3736]
	.loc 1 2283 0
	str	wzr, [x19,3752]
	.loc 1 2284 0
	str	wzr, [x19,3768]
	.loc 1 2285 0
	str	wzr, [x19,3784]
	.loc 1 2286 0
	str	wzr, [x19,3800]
	.loc 1 2287 0
	str	wzr, [x19,3816]
	.loc 1 2288 0
	str	wzr, [x19,3832]
	.loc 1 2289 0
	str	wzr, [x19,3848]
	.loc 1 2290 0
	str	wzr, [x19,3864]
	.loc 1 2291 0
	str	wzr, [x19,3880]
	.loc 1 2292 0
	str	wzr, [x19,3896]
	.loc 1 2293 0
	str	wzr, [x19,3912]
	.loc 1 2294 0
	str	wzr, [x19,3928]
	.loc 1 2295 0
	str	wzr, [x19,3944]
	.loc 1 2296 0
	str	wzr, [x19,3960]
	.loc 1 2297 0
	str	wzr, [x19,3976]
	.loc 1 2298 0
	str	wzr, [x19,3992]
	.loc 1 2299 0
	str	wzr, [x19,4008]
	.loc 1 2300 0
	str	wzr, [x19,6028]
	.loc 1 2301 0
	str	wzr, [x19,6024]
	.loc 1 2302 0
	str	wzr, [x19,6020]
	.loc 1 2303 0
	str	wzr, [x19,6016]
	.loc 1 2304 0
	str	wzr, [x19,6012]
	.loc 1 2305 0
	str	wzr, [x19,6008]
	.loc 1 2306 0
	str	wzr, [x19,6004]
	.loc 1 2307 0
	str	wzr, [x19,6000]
	.loc 1 2308 0
	str	wzr, [x19,5996]
	.loc 1 2309 0
	str	wzr, [x19,5992]
	.loc 1 2310 0
	str	wzr, [x19,5988]
	.loc 1 2311 0
	str	wzr, [x19,5984]
	.loc 1 2312 0
	str	wzr, [x19,5980]
	.loc 1 2313 0
	str	wzr, [x19,5976]
	.loc 1 2314 0
	str	wzr, [x19,6228]
	.loc 1 2315 0
	str	wzr, [x19,6224]
	.loc 1 2316 0
	str	wzr, [x19,6220]
	.loc 1 2317 0
	str	wzr, [x19,6216]
	.loc 1 2319 0
	str	w1, [x19,5968]
	.loc 1 2321 0
	str	w1, [x19,928]
.LVL119:
.L132:
	.loc 1 2323 0
	ldp	x19, x20, [sp,16]
	.cfi_remember_state
	.cfi_restore 20
	.cfi_restore 19
.LVL120:
	ldp	x21, x22, [sp,32]
	.cfi_restore 22
	.cfi_restore 21
	ldp	x23, x24, [sp,48]
	.cfi_restore 24
	.cfi_restore 23
	ldp	x25, x26, [sp,64]
	.cfi_restore 26
	.cfi_restore 25
.LVL121:
	ldp	x27, x28, [sp,80]
	.cfi_restore 28
	.cfi_restore 27
	ldp	x29, x30, [sp], 96
	.cfi_restore 30
	.cfi_restore 29
	.cfi_def_cfa 31, 0
	ret
.LVL122:
.L134:
	.cfi_restore_state
	.loc 1 1561 0
	mov	w0, -1
.LVL123:
	b	.L132
	.cfi_endproc
.LFE2765:
	.size	VENC_DRV_EflInitEncParaCfgHevc_LowPwr0, .-VENC_DRV_EflInitEncParaCfgHevc_LowPwr0
	.align	2
	.global	VENC_DRV_EflInitEncParaCfgHevc_LowPwr1
	.type	VENC_DRV_EflInitEncParaCfgHevc_LowPwr1, %function
VENC_DRV_EflInitEncParaCfgHevc_LowPwr1:
.LFB2766:
	.loc 1 2326 0
	.cfi_startproc
.LVL124:
	stp	x29, x30, [sp, -96]!
	.cfi_def_cfa_offset 96
	.cfi_offset 29, -96
	.cfi_offset 30, -88
	add	x29, sp, 0
	.cfi_def_cfa_register 29
	stp	x23, x24, [sp,48]
	.cfi_offset 23, -48
	.cfi_offset 24, -40
	mov	x24, x0
	.loc 1 2327 0
	mov	x0, 6808
.LVL125:
	.loc 1 2326 0
	stp	x19, x20, [sp,16]
	stp	x21, x22, [sp,32]
	stp	x25, x26, [sp,64]
	stp	x27, x28, [sp,80]
	.cfi_offset 19, -80
	.cfi_offset 20, -72
	.cfi_offset 21, -64
	.cfi_offset 22, -56
	.cfi_offset 25, -32
	.cfi_offset 26, -24
	.cfi_offset 27, -16
	.cfi_offset 28, -8
	.loc 1 2327 0
	bl	vmalloc
.LVL126:
	mov	x19, x0
.LVL127:
	.loc 1 2328 0
	cbz	x0, .L138
	.loc 1 2332 0
	mov	w1, 0
	mov	x2, 6808
	.loc 1 2339 0
	mov	w20, 1
	.loc 1 2401 0
	mov	w28, 480
	.loc 1 2332 0
	bl	memset
.LVL128:
	.loc 1 2333 0
	str	x19, [x24]
	.loc 1 2361 0
	mov	w2, 2
	.loc 1 2385 0
	mov	w0, 26
	.loc 1 2361 0
	str	w2, [x19,140]
	.loc 1 2389 0
	mov	w6, -1
	.loc 1 2373 0
	str	w20, [x19,184]
	.loc 1 2406 0
	mov	w8, 7
	.loc 1 2370 0
	str	w20, [x19,148]
	.loc 1 2402 0
	mov	w10, 640
	.loc 1 2372 0
	str	w20, [x19,180]
	.loc 1 2384 0
	mov	w11, 12
	.loc 1 2367 0
	str	w20, [x19,172]
	.loc 1 2408 0
	mov	w12, 32
	.loc 1 2369 0
	str	w20, [x19,176]
	.loc 1 2410 0
	mov	w7, 3
	.loc 1 2365 0
	str	wzr, [x19,160]
	.loc 1 2510 0
	mov	w30, 256
	.loc 1 2366 0
	str	wzr, [x19,164]
	.loc 1 2486 0
	mov	w4, 4096
	.loc 1 2363 0
	str	wzr, [x19,152]
	.loc 1 2510 0
	movk	w30, 0xa600, lsl 16
	.loc 1 2364 0
	str	w20, [x19,156]
	.loc 1 2507 0
	mov	w1, -1507852288
	.loc 1 2360 0
	str	wzr, [x19,136]
	.loc 1 2525 0
	mov	w21, 15
	.loc 1 2362 0
	str	wzr, [x19,144]
	.loc 1 2543 0
	mov	w3, 8
	.loc 1 2358 0
	str	wzr, [x19,128]
	.loc 1 2541 0
	mov	w5, 4
	.loc 1 2359 0
	str	wzr, [x19,132]
	.loc 1 2547 0
	mov	w22, 16
	.loc 1 2356 0
	str	wzr, [x19,120]
	.loc 1 2549 0
	mov	w27, 24
	.loc 1 2357 0
	str	wzr, [x19,124]
	.loc 1 2623 0
	mov	w23, 255
	.loc 1 2354 0
	str	wzr, [x19,112]
	.loc 1 2628 0
	mov	w9, 6
	.loc 1 2355 0
	str	wzr, [x19,116]
	.loc 1 2678 0
	mov	w26, 1500
	.loc 1 2352 0
	str	wzr, [x19,104]
	.loc 1 2690 0
	mov	w18, 100
	.loc 1 2353 0
	str	wzr, [x19,108]
	.loc 1 2722 0
	mov	w17, 18
	.loc 1 2350 0
	str	wzr, [x19,96]
	.loc 1 2773 0
	mov	w16, 9175
	.loc 1 2351 0
	str	wzr, [x19,100]
	.loc 1 2774 0
	mov	w15, 28594
	.loc 1 2348 0
	str	wzr, [x19,88]
	.loc 1 2775 0
	mov	w14, 53060
	.loc 1 2349 0
	str	wzr, [x19,92]
	.loc 1 2773 0
	bfi	w16, w20, 16, 16
	.loc 1 2342 0
	str	wzr, [x19,80]
	.loc 1 2774 0
	bfi	w15, w20, 16, 16
	.loc 1 2346 0
	str	w20, [x19,84]
	.loc 1 2775 0
	bfi	w14, w20, 16, 16
	.loc 1 2339 0
	str	w20, [x19,72]
	.loc 1 2849 0
	mov	w13, 38528
	.loc 1 2341 0
	str	wzr, [x19,76]
	.loc 1 2849 0
	movk	w13, 0x98, lsl 16
	.loc 1 2337 0
	str	wzr, [x19,64]
	.loc 1 2910 0
	mov	w25, 235
	.loc 1 2338 0
	str	wzr, [x19,68]
	.loc 1 2335 0
	str	wzr, [x19,56]
	.loc 1 2336 0
	str	wzr, [x19,60]
	.loc 1 2374 0
	str	w20, [x19,188]
	.loc 1 2389 0
	str	w6, [x19,244]
	.loc 1 2405 0
	str	w6, [x19,312]
	.loc 1 2394 0
	str	w2, [x19,268]
	.loc 1 2406 0
	str	w8, [x19,316]
	.loc 1 2402 0
	str	w10, [x19,300]
	.loc 1 2384 0
	str	w11, [x19,224]
	.loc 1 2408 0
	str	w12, [x19,324]
	.loc 1 2385 0
	str	w0, [x19,228]
	.loc 1 2407 0
	mov	w0, 31
	.loc 1 2376 0
	str	wzr, [x19,192]
	.loc 1 2407 0
	str	w0, [x19,320]
	.loc 1 2409 0
	mov	w0, 72
	.loc 1 2377 0
	str	wzr, [x19,196]
	.loc 1 2378 0
	str	w20, [x19,200]
	.loc 1 2379 0
	str	wzr, [x19,204]
	.loc 1 2380 0
	str	wzr, [x19,208]
	.loc 1 2381 0
	str	wzr, [x19,212]
	.loc 1 2382 0
	str	wzr, [x19,216]
	.loc 1 2383 0
	str	w20, [x19,220]
	.loc 1 2386 0
	str	wzr, [x19,232]
	.loc 1 2387 0
	str	wzr, [x19,236]
	.loc 1 2388 0
	str	wzr, [x19,240]
	.loc 1 2390 0
	str	wzr, [x19,248]
	.loc 1 2391 0
	str	wzr, [x19,252]
	.loc 1 2392 0
	str	wzr, [x19,256]
	.loc 1 2393 0
	str	w20, [x19,264]
	.loc 1 2395 0
	str	w20, [x19,272]
	.loc 1 2396 0
	str	w20, [x19,276]
	.loc 1 2397 0
	str	w20, [x19,280]
	.loc 1 2398 0
	str	w20, [x19,284]
	.loc 1 2399 0
	str	w20, [x19,288]
	.loc 1 2400 0
	str	w20, [x19,292]
	.loc 1 2403 0
	str	wzr, [x19,304]
	.loc 1 2404 0
	str	wzr, [x19,308]
	.loc 1 2401 0
	str	w28, [x19,296]
	.loc 1 2409 0
	str	w0, [x19,328]
	.loc 1 2479 0
	mov	w0, -1879048192
	.loc 1 2410 0
	str	w7, [x19,332]
	.loc 1 2411 0
	str	w20, [x19,336]
	.loc 1 2412 0
	str	w20, [x19,340]
	.loc 1 2413 0
	str	wzr, [x19,412]
	.loc 1 2414 0
	str	wzr, [x19,348]
	.loc 1 2415 0
	str	wzr, [x19,352]
	.loc 1 2416 0
	str	wzr, [x19,356]
	.loc 1 2417 0
	str	wzr, [x19,360]
	.loc 1 2418 0
	str	wzr, [x19,364]
	.loc 1 2419 0
	str	wzr, [x19,368]
	.loc 1 2420 0
	str	wzr, [x19,372]
	.loc 1 2421 0
	str	wzr, [x19,376]
	.loc 1 2422 0
	str	wzr, [x19,380]
	.loc 1 2423 0
	str	wzr, [x19,384]
	.loc 1 2424 0
	str	wzr, [x19,388]
	.loc 1 2425 0
	str	wzr, [x19,392]
	.loc 1 2426 0
	str	wzr, [x19,396]
	.loc 1 2427 0
	str	wzr, [x19,400]
	.loc 1 2428 0
	str	wzr, [x19,404]
	.loc 1 2429 0
	str	wzr, [x19,408]
	.loc 1 2430 0
	str	wzr, [x19,416]
	.loc 1 2431 0
	str	wzr, [x19,420]
	.loc 1 2432 0
	str	wzr, [x19,424]
	.loc 1 2433 0
	str	wzr, [x19,428]
	.loc 1 2434 0
	str	wzr, [x19,432]
	.loc 1 2435 0
	str	wzr, [x19,436]
	.loc 1 2436 0
	str	wzr, [x19,440]
	.loc 1 2437 0
	str	wzr, [x19,444]
	.loc 1 2438 0
	str	wzr, [x19,448]
	.loc 1 2439 0
	str	wzr, [x19,452]
	.loc 1 2440 0
	str	wzr, [x19,456]
	.loc 1 2441 0
	str	wzr, [x19,460]
	.loc 1 2442 0
	str	wzr, [x19,464]
	.loc 1 2443 0
	str	wzr, [x19,468]
	.loc 1 2444 0
	str	wzr, [x19,472]
	.loc 1 2445 0
	str	wzr, [x19,476]
	.loc 1 2446 0
	str	wzr, [x19,480]
	.loc 1 2447 0
	str	wzr, [x19,484]
	.loc 1 2448 0
	str	wzr, [x19,488]
	.loc 1 2449 0
	str	wzr, [x19,492]
	.loc 1 2450 0
	str	wzr, [x19,496]
	.loc 1 2451 0
	str	wzr, [x19,500]
	.loc 1 2452 0
	str	wzr, [x19,504]
	.loc 1 2453 0
	str	wzr, [x19,508]
	.loc 1 2454 0
	str	wzr, [x19,512]
	.loc 1 2455 0
	str	wzr, [x19,516]
	.loc 1 2456 0
	str	wzr, [x19,520]
	.loc 1 2457 0
	str	wzr, [x19,524]
	.loc 1 2458 0
	str	wzr, [x19,528]
	.loc 1 2459 0
	str	wzr, [x19,532]
	.loc 1 2460 0
	str	wzr, [x19,536]
	.loc 1 2461 0
	str	wzr, [x19,540]
	.loc 1 2462 0
	str	wzr, [x19,544]
	.loc 1 2463 0
	str	wzr, [x19,548]
	.loc 1 2464 0
	str	wzr, [x19,552]
	.loc 1 2465 0
	str	wzr, [x19,556]
	.loc 1 2466 0
	str	wzr, [x19,560]
	.loc 1 2467 0
	str	wzr, [x19,564]
	.loc 1 2468 0
	str	wzr, [x19,568]
	.loc 1 2469 0
	str	wzr, [x19,572]
	.loc 1 2470 0
	str	wzr, [x19,576]
	.loc 1 2471 0
	str	wzr, [x19,580]
	.loc 1 2472 0
	str	wzr, [x19,584]
	.loc 1 2473 0
	str	wzr, [x19,588]
	.loc 1 2474 0
	str	wzr, [x19,592]
	.loc 1 2475 0
	str	wzr, [x19,596]
	.loc 1 2476 0
	str	wzr, [x19,600]
	.loc 1 2477 0
	str	wzr, [x19,604]
	.loc 1 2479 0
	str	w0, [x19,612]
	.loc 1 2480 0
	mov	w0, -1811939328
	str	w0, [x19,616]
	.loc 1 2481 0
	mov	w0, -1795162112
	str	w0, [x19,620]
	.loc 1 2482 0
	mov	w0, -1473249280
	str	w0, [x19,624]
	.loc 1 2483 0
	add	w0, w0, 131072
	str	w0, [x19,628]
	.loc 1 2488 0
	mov	w0, -1778384896
	str	w0, [x19,648]
	.loc 1 2489 0
	mov	w0, -1711276032
	str	w0, [x19,652]
	.loc 1 2492 0
	mov	w0, -1472987136
	str	w0, [x19,664]
	.loc 1 2493 0
	add	w0, w0, 1048576
	str	w0, [x19,668]
	.loc 1 2495 0
	mov	w0, -1677721600
	str	w0, [x19,676]
	.loc 1 2496 0
	mov	w0, -1610612736
	str	w0, [x19,680]
	.loc 1 2499 0
	mov	w0, -1470889984
	str	w0, [x19,692]
	.loc 1 2500 0
	add	w0, w0, 1048576
	str	w0, [x19,696]
	.loc 1 2503 0
	mov	w0, -1490026496
	str	w0, [x19,708]
	.loc 1 2504 0
	mov	w0, -1506803712
	str	w0, [x19,712]
	.loc 1 2505 0
	add	w0, w0, 1048576
	str	w0, [x19,716]
	.loc 1 2506 0
	mov	w0, -1508900864
	str	w0, [x19,720]
	.loc 1 2914 0
	mov	x0, x24
	.loc 1 2508 0
	mov	w24, -1577058304
.LVL129:
	.loc 1 2484 0
	str	w10, [x19,632]
	.loc 1 2485 0
	str	w10, [x19,636]
	.loc 1 2486 0
	str	w4, [x19,640]
	.loc 1 2487 0
	str	w4, [x19,644]
	.loc 1 2490 0
	str	w4, [x19,656]
	.loc 1 2491 0
	str	w4, [x19,660]
	.loc 1 2494 0
	str	w4, [x19,672]
	.loc 1 2497 0
	str	w4, [x19,684]
	.loc 1 2498 0
	str	w4, [x19,688]
	.loc 1 2501 0
	str	w4, [x19,700]
	.loc 1 2502 0
	str	w4, [x19,704]
	.loc 1 2507 0
	str	w1, [x19,724]
	.loc 1 2914 0
	mov	w1, 0
	.loc 1 2508 0
	str	w24, [x19,728]
	.loc 1 2509 0
	mov	w24, -1509949440
	.loc 1 2510 0
	str	w30, [x19,736]
	.loc 1 2509 0
	str	w24, [x19,732]
	.loc 1 2478 0
	str	wzr, [x19,608]
	.loc 1 2511 0
	str	wzr, [x19,748]
	.loc 1 2524 0
	str	w10, [x19,800]
	.loc 1 2537 0
	mov	w10, 400
	.loc 1 2539 0
	str	w2, [x19,860]
	.loc 1 2537 0
	str	w10, [x19,852]
	.loc 1 2538 0
	mov	w10, 300
	.loc 1 2540 0
	str	w2, [x19,864]
	.loc 1 2538 0
	str	w10, [x19,856]
	.loc 1 2625 0
	mov	w10, 64
	.loc 1 2541 0
	str	w5, [x19,868]
	.loc 1 2542 0
	str	w5, [x19,872]
	.loc 1 2543 0
	str	w3, [x19,876]
	.loc 1 2544 0
	str	w3, [x19,880]
	.loc 1 2523 0
	str	w28, [x19,796]
	.loc 1 2512 0
	str	wzr, [x19,752]
	.loc 1 2513 0
	str	wzr, [x19,756]
	.loc 1 2514 0
	str	wzr, [x19,760]
	.loc 1 2515 0
	str	wzr, [x19,764]
	.loc 1 2516 0
	str	wzr, [x19,768]
	.loc 1 2517 0
	str	wzr, [x19,772]
	.loc 1 2518 0
	str	wzr, [x19,776]
	.loc 1 2519 0
	str	wzr, [x19,780]
	.loc 1 2520 0
	str	wzr, [x19,784]
	.loc 1 2521 0
	str	wzr, [x19,788]
	.loc 1 2522 0
	str	wzr, [x19,792]
	.loc 1 2525 0
	str	w21, [x19,804]
	.loc 1 2526 0
	str	w21, [x19,808]
	.loc 1 2527 0
	str	w20, [x19,812]
	.loc 1 2528 0
	str	w21, [x19,816]
	.loc 1 2529 0
	str	wzr, [x19,820]
	.loc 1 2530 0
	str	wzr, [x19,824]
	.loc 1 2531 0
	str	wzr, [x19,828]
	.loc 1 2532 0
	str	wzr, [x19,832]
	.loc 1 2533 0
	str	w20, [x19,836]
	.loc 1 2534 0
	str	wzr, [x19,840]
	.loc 1 2535 0
	str	w20, [x19,844]
	.loc 1 2536 0
	str	w20, [x19,848]
	.loc 1 2545 0
	str	w3, [x19,884]
	.loc 1 2546 0
	str	w3, [x19,888]
	.loc 1 2549 0
	str	w27, [x19,900]
	.loc 1 2550 0
	str	w27, [x19,904]
	.loc 1 2547 0
	str	w22, [x19,892]
	.loc 1 2548 0
	str	w22, [x19,896]
	.loc 1 2551 0
	str	w20, [x19,908]
	.loc 1 2552 0
	str	w20, [x19,912]
	.loc 1 2553 0
	str	w20, [x19,916]
	.loc 1 2554 0
	str	wzr, [x19,344]
	.loc 1 2555 0
	str	wzr, [x19,932]
	.loc 1 2556 0
	str	wzr, [x19,936]
	.loc 1 2557 0
	str	wzr, [x19,940]
	.loc 1 2558 0
	str	wzr, [x19,944]
	.loc 1 2559 0
	str	wzr, [x19,948]
	.loc 1 2560 0
	str	wzr, [x19,952]
	.loc 1 2561 0
	str	wzr, [x19,956]
	.loc 1 2562 0
	str	w20, [x19,960]
	.loc 1 2563 0
	str	wzr, [x19,964]
	.loc 1 2564 0
	str	wzr, [x19,968]
	.loc 1 2565 0
	str	wzr, [x19,972]
	.loc 1 2566 0
	str	wzr, [x19,976]
	.loc 1 2567 0
	str	wzr, [x19,980]
	.loc 1 2568 0
	str	wzr, [x19,984]
	.loc 1 2569 0
	str	wzr, [x19,988]
	.loc 1 2570 0
	str	wzr, [x19,992]
	.loc 1 2571 0
	str	wzr, [x19,996]
	.loc 1 2572 0
	str	wzr, [x19,1000]
	.loc 1 2573 0
	str	wzr, [x19,1004]
	.loc 1 2574 0
	str	wzr, [x19,1008]
	.loc 1 2575 0
	str	wzr, [x19,1012]
	.loc 1 2576 0
	str	wzr, [x19,1016]
	.loc 1 2577 0
	str	wzr, [x19,1020]
	.loc 1 2578 0
	str	wzr, [x19,1024]
	.loc 1 2579 0
	str	wzr, [x19,1028]
	.loc 1 2580 0
	str	wzr, [x19,1032]
	.loc 1 2581 0
	str	wzr, [x19,1036]
	.loc 1 2582 0
	str	wzr, [x19,1040]
	.loc 1 2583 0
	str	wzr, [x19,1044]
	.loc 1 2584 0
	str	wzr, [x19,1048]
	.loc 1 2585 0
	str	wzr, [x19,1052]
	.loc 1 2586 0
	str	wzr, [x19,1056]
	.loc 1 2587 0
	str	wzr, [x19,1060]
	.loc 1 2588 0
	str	wzr, [x19,1064]
	.loc 1 2589 0
	str	wzr, [x19,1068]
	.loc 1 2590 0
	str	wzr, [x19,1072]
	.loc 1 2591 0
	str	wzr, [x19,1076]
	.loc 1 2592 0
	str	wzr, [x19,1080]
	.loc 1 2593 0
	str	wzr, [x19,1084]
	.loc 1 2594 0
	str	wzr, [x19,1088]
	.loc 1 2595 0
	str	wzr, [x19,1092]
	.loc 1 2596 0
	str	wzr, [x19,1096]
	.loc 1 2597 0
	str	wzr, [x19,1100]
	.loc 1 2598 0
	str	wzr, [x19,1104]
	.loc 1 2599 0
	str	wzr, [x19,1108]
	.loc 1 2600 0
	str	wzr, [x19,1112]
	.loc 1 2601 0
	str	wzr, [x19,1116]
	.loc 1 2602 0
	str	wzr, [x19,1120]
	.loc 1 2603 0
	str	wzr, [x19,1124]
	.loc 1 2604 0
	str	wzr, [x19,1128]
	.loc 1 2605 0
	str	wzr, [x19,1132]
	.loc 1 2606 0
	str	wzr, [x19,1136]
	.loc 1 2607 0
	str	wzr, [x19,1140]
	.loc 1 2608 0
	str	wzr, [x19,1144]
	.loc 1 2609 0
	str	wzr, [x19,1148]
	.loc 1 2610 0
	str	wzr, [x19,1152]
	.loc 1 2611 0
	str	wzr, [x19,1156]
	.loc 1 2612 0
	str	wzr, [x19,1160]
	.loc 1 2613 0
	str	wzr, [x19,1164]
	.loc 1 2622 0
	str	w5, [x19,1200]
	.loc 1 2624 0
	str	w7, [x19,1208]
	.loc 1 2625 0
	str	w10, [x19,1212]
	.loc 1 2676 0
	mov	w10, 20
	.loc 1 2626 0
	str	w3, [x19,1216]
	.loc 1 2627 0
	str	w12, [x19,1220]
	.loc 1 2628 0
	str	w9, [x19,1224]
	.loc 1 2630 0
	str	w3, [x19,1232]
	.loc 1 2632 0
	str	w9, [x19,1240]
	.loc 1 2633 0
	str	w3, [x19,1244]
	.loc 1 2634 0
	str	w3, [x19,1248]
	.loc 1 2635 0
	str	w12, [x19,1252]
	.loc 1 2636 0
	str	w9, [x19,1256]
	.loc 1 2614 0
	str	wzr, [x19,1168]
	.loc 1 2615 0
	str	wzr, [x19,1172]
	.loc 1 2616 0
	str	wzr, [x19,1176]
	.loc 1 2617 0
	str	wzr, [x19,1180]
	.loc 1 2618 0
	str	wzr, [x19,1184]
	.loc 1 2619 0
	str	wzr, [x19,1188]
	.loc 1 2620 0
	str	wzr, [x19,1192]
	.loc 1 2621 0
	str	wzr, [x19,1196]
	.loc 1 2623 0
	str	w23, [x19,1204]
	.loc 1 2629 0
	str	w22, [x19,1228]
	.loc 1 2631 0
	str	w22, [x19,1236]
	.loc 1 2637 0
	str	w22, [x19,1260]
	.loc 1 2638 0
	str	wzr, [x19,1264]
	.loc 1 2639 0
	str	wzr, [x19,1268]
	.loc 1 2640 0
	str	wzr, [x19,1272]
	.loc 1 2641 0
	str	wzr, [x19,1276]
	.loc 1 2642 0
	str	wzr, [x19,1280]
	.loc 1 2643 0
	str	wzr, [x19,1284]
	.loc 1 2644 0
	str	wzr, [x19,1288]
	.loc 1 2645 0
	str	wzr, [x19,1292]
	.loc 1 2646 0
	str	wzr, [x19,1296]
	.loc 1 2647 0
	str	wzr, [x19,1300]
	.loc 1 2676 0
	str	w10, [x19,1416]
	.loc 1 2677 0
	mov	w10, 1200
	.loc 1 2679 0
	str	w11, [x19,1428]
	.loc 1 2677 0
	str	w10, [x19,1420]
	.loc 1 2680 0
	str	w3, [x19,1432]
	.loc 1 2678 0
	str	w26, [x19,1424]
	.loc 1 2648 0
	str	wzr, [x19,1304]
	.loc 1 2649 0
	str	wzr, [x19,1308]
	.loc 1 2650 0
	str	wzr, [x19,1312]
	.loc 1 2651 0
	str	wzr, [x19,1316]
	.loc 1 2652 0
	str	wzr, [x19,1320]
	.loc 1 2653 0
	str	wzr, [x19,1324]
	.loc 1 2654 0
	str	wzr, [x19,1328]
	.loc 1 2655 0
	str	wzr, [x19,1332]
	.loc 1 2656 0
	str	wzr, [x19,1336]
	.loc 1 2657 0
	str	wzr, [x19,1340]
	.loc 1 2658 0
	str	wzr, [x19,1344]
	.loc 1 2659 0
	str	wzr, [x19,1348]
	.loc 1 2660 0
	str	wzr, [x19,1352]
	.loc 1 2661 0
	str	wzr, [x19,1356]
	.loc 1 2662 0
	str	wzr, [x19,1360]
	.loc 1 2663 0
	str	wzr, [x19,1364]
	.loc 1 2664 0
	str	wzr, [x19,1368]
	.loc 1 2665 0
	str	wzr, [x19,1372]
	.loc 1 2666 0
	str	wzr, [x19,1376]
	.loc 1 2667 0
	str	wzr, [x19,1380]
	.loc 1 2668 0
	str	wzr, [x19,1384]
	.loc 1 2669 0
	str	wzr, [x19,1388]
	.loc 1 2670 0
	str	wzr, [x19,1392]
	.loc 1 2671 0
	str	wzr, [x19,1396]
	.loc 1 2672 0
	str	wzr, [x19,1400]
	.loc 1 2673 0
	str	wzr, [x19,1404]
	.loc 1 2674 0
	str	w20, [x19,1408]
	.loc 1 2675 0
	str	w20, [x19,1412]
	.loc 1 2681 0
	str	w5, [x19,1436]
	.loc 1 2683 0
	str	w3, [x19,1444]
	.loc 1 2687 0
	str	w3, [x19,1460]
	.loc 1 2688 0
	mov	w3, 135
	str	w3, [x19,1464]
	.loc 1 2689 0
	mov	w3, 160
	str	w3, [x19,1468]
	.loc 1 2691 0
	mov	w3, 127
	str	w3, [x19,1476]
	.loc 1 2694 0
	mov	w3, 40
	str	w3, [x19,1488]
	.loc 1 2695 0
	mov	w3, 200
	str	w3, [x19,1492]
	.loc 1 2715 0
	mov	w3, 25
	.loc 1 2682 0
	str	w11, [x19,1440]
	.loc 1 2684 0
	str	w5, [x19,1448]
	.loc 1 2685 0
	str	w5, [x19,1452]
	.loc 1 2686 0
	str	w9, [x19,1456]
	.loc 1 2690 0
	str	w18, [x19,1472]
	.loc 1 2693 0
	str	w9, [x19,1484]
	.loc 1 2712 0
	str	w4, [x19,1560]
	.loc 1 2715 0
	str	w3, [x19,1572]
	.loc 1 2717 0
	mov	w3, 51
	.loc 1 2711 0
	str	w26, [x19,1556]
	.loc 1 2692 0
	str	wzr, [x19,1480]
	.loc 1 2696 0
	str	w20, [x19,1496]
	.loc 1 2697 0
	str	wzr, [x19,1504]
	.loc 1 2698 0
	str	w20, [x19,1508]
	.loc 1 2699 0
	str	w20, [x19,1512]
	.loc 1 2700 0
	str	w20, [x19,1516]
	.loc 1 2702 0
	str	w20, [x19,1520]
	.loc 1 2703 0
	str	wzr, [x19,1524]
	.loc 1 2704 0
	str	wzr, [x19,1528]
	.loc 1 2705 0
	str	wzr, [x19,1532]
	.loc 1 2706 0
	str	wzr, [x19,1536]
	.loc 1 2707 0
	str	w20, [x19,1540]
	.loc 1 2708 0
	str	w20, [x19,1544]
	.loc 1 2709 0
	str	wzr, [x19,1548]
	.loc 1 2710 0
	str	wzr, [x19,1552]
	.loc 1 2713 0
	str	wzr, [x19,1564]
	.loc 1 2714 0
	str	wzr, [x19,1568]
	.loc 1 2716 0
	str	w21, [x19,1576]
	.loc 1 2717 0
	str	w3, [x19,1580]
	.loc 1 2726 0
	mov	w3, 44
	str	w3, [x19,1612]
	.loc 1 2727 0
	mov	w3, 34
	str	w3, [x19,1616]
	.loc 1 2728 0
	mov	w3, 27
	str	w3, [x19,1620]
	.loc 1 2729 0
	mov	w3, 22
	str	w3, [x19,1624]
	.loc 1 2738 0
	str	w3, [x19,1656]
	.loc 1 2739 0
	mov	w3, 28
	str	w3, [x19,1660]
	.loc 1 2740 0
	mov	w3, 36
	str	w3, [x19,1664]
	.loc 1 2741 0
	mov	w3, 45
	str	w3, [x19,1668]
	.loc 1 2742 0
	mov	w3, 57
	str	w3, [x19,1672]
	.loc 1 2743 0
	mov	w3, 72
	str	w3, [x19,1676]
	.loc 1 2744 0
	mov	w3, 91
	str	w3, [x19,1680]
	.loc 1 2745 0
	mov	w3, 115
	str	w3, [x19,1684]
	.loc 1 2746 0
	mov	w3, 145
	str	w3, [x19,1688]
	.loc 1 2747 0
	mov	w3, 183
	str	w3, [x19,1692]
	.loc 1 2748 0
	mov	w3, 231
	str	w3, [x19,1696]
	.loc 1 2749 0
	mov	w3, 291
	str	w3, [x19,1700]
	.loc 1 2750 0
	mov	w3, 367
	str	w3, [x19,1704]
	.loc 1 2751 0
	mov	w3, 463
	.loc 1 2719 0
	str	w18, [x19,1588]
	.loc 1 2721 0
	str	w5, [x19,1592]
	.loc 1 2722 0
	str	w17, [x19,1596]
	.loc 1 2724 0
	str	w5, [x19,1604]
	.loc 1 2735 0
	str	w2, [x19,1644]
	.loc 1 2736 0
	str	w7, [x19,1648]
	.loc 1 2737 0
	str	w17, [x19,1652]
	.loc 1 2751 0
	str	w3, [x19,1708]
	.loc 1 2752 0
	mov	w3, 583
	.loc 1 2718 0
	str	wzr, [x19,1584]
	.loc 1 2723 0
	str	w21, [x19,1600]
	.loc 1 2725 0
	str	w20, [x19,1608]
	.loc 1 2730 0
	str	w23, [x19,1628]
	.loc 1 2731 0
	str	w23, [x19,1632]
	.loc 1 2732 0
	str	w23, [x19,1636]
	.loc 1 2733 0
	str	w23, [x19,1640]
	.loc 1 2752 0
	str	w3, [x19,1712]
	.loc 1 2753 0
	mov	w3, 735
	str	w3, [x19,1716]
	.loc 1 2754 0
	mov	w3, 926
	str	w3, [x19,1720]
	.loc 1 2755 0
	mov	w3, 1167
	str	w3, [x19,1724]
	.loc 1 2756 0
	mov	w3, 1470
	str	w3, [x19,1728]
	.loc 1 2757 0
	mov	w3, 1853
	str	w3, [x19,1732]
	.loc 1 2758 0
	mov	w3, 2334
	str	w3, [x19,1736]
	.loc 1 2759 0
	mov	w3, 2941
	str	w3, [x19,1740]
	.loc 1 2760 0
	mov	w3, 3706
	str	w3, [x19,1744]
	.loc 1 2761 0
	mov	w3, 4666
	str	w3, [x19,1748]
	.loc 1 2762 0
	mov	w3, 5883
	str	w3, [x19,1752]
	.loc 1 2763 0
	mov	w3, 7412
	str	w3, [x19,1756]
	.loc 1 2764 0
	mov	w3, 9338
	str	w3, [x19,1760]
	.loc 1 2765 0
	mov	w3, 11766
	str	w3, [x19,1764]
	.loc 1 2766 0
	mov	w3, 14824
	str	w3, [x19,1768]
	.loc 1 2767 0
	mov	w3, 18677
	str	w3, [x19,1772]
	.loc 1 2768 0
	mov	w3, 23532
	str	w3, [x19,1776]
	.loc 1 2769 0
	mov	w3, 29649
	str	w3, [x19,1780]
	.loc 1 2770 0
	mov	w3, 37355
	str	w3, [x19,1784]
	.loc 1 2771 0
	mov	w3, 47065
	str	w3, [x19,1788]
	.loc 1 2772 0
	mov	w3, 59298
	str	w3, [x19,1792]
	.loc 1 2776 0
	mov	w3, 131071
	str	w3, [x19,1808]
	.loc 1 2777 0
	mov	w3, 193
	str	w3, [x19,1812]
	.loc 1 2778 0
	mov	w3, 216
	str	w3, [x19,1816]
	.loc 1 2779 0
	mov	w3, 243
	str	w3, [x19,1820]
	.loc 1 2780 0
	mov	w3, 273
	str	w3, [x19,1824]
	.loc 1 2781 0
	mov	w3, 306
	str	w3, [x19,1828]
	.loc 1 2782 0
	mov	w3, 344
	str	w3, [x19,1832]
	.loc 1 2783 0
	mov	w3, 386
	str	w3, [x19,1836]
	.loc 1 2784 0
	mov	w3, 433
	str	w3, [x19,1840]
	.loc 1 2785 0
	mov	w3, 487
	.loc 1 2773 0
	str	w16, [x19,1796]
	.loc 1 2774 0
	str	w15, [x19,1800]
	.loc 1 2775 0
	str	w14, [x19,1804]
	.loc 1 2785 0
	str	w3, [x19,1844]
	.loc 1 2786 0
	mov	w3, 546
	str	w3, [x19,1848]
	.loc 1 2787 0
	mov	w3, 613
	str	w3, [x19,1852]
	.loc 1 2788 0
	mov	w3, 688
	str	w3, [x19,1856]
	.loc 1 2789 0
	mov	w3, 773
	str	w3, [x19,1860]
	.loc 1 2790 0
	mov	w3, 867
	str	w3, [x19,1864]
	.loc 1 2791 0
	mov	w3, 974
	str	w3, [x19,1868]
	.loc 1 2792 0
	mov	w3, 1093
	str	w3, [x19,1872]
	.loc 1 2793 0
	mov	w3, 1227
	str	w3, [x19,1876]
	.loc 1 2794 0
	mov	w3, 1377
	str	w3, [x19,1880]
	.loc 1 2795 0
	mov	w3, 1546
	str	w3, [x19,1884]
	.loc 1 2796 0
	mov	w3, 1735
	str	w3, [x19,1888]
	.loc 1 2797 0
	mov	w3, 1948
	str	w3, [x19,1892]
	.loc 1 2798 0
	mov	w3, 2186
	str	w3, [x19,1896]
	.loc 1 2799 0
	mov	w3, 2454
	str	w3, [x19,1900]
	.loc 1 2800 0
	mov	w3, 2755
	str	w3, [x19,1904]
	.loc 1 2801 0
	mov	w3, 3092
	str	w3, [x19,1908]
	.loc 1 2802 0
	mov	w3, 3471
	str	w3, [x19,1912]
	.loc 1 2803 0
	mov	w3, 3896
	str	w3, [x19,1916]
	.loc 1 2804 0
	mov	w3, 4373
	str	w3, [x19,1920]
	.loc 1 2805 0
	mov	w3, 4908
	str	w3, [x19,1924]
	.loc 1 2806 0
	mov	w3, 5510
	str	w3, [x19,1928]
	.loc 1 2807 0
	mov	w3, 6184
	str	w3, [x19,1932]
	.loc 1 2808 0
	mov	w3, 6942
	str	w3, [x19,1936]
	.loc 1 2809 0
	mov	w3, 7792
	str	w3, [x19,1940]
	.loc 1 2810 0
	mov	w3, 8746
	str	w3, [x19,1944]
	.loc 1 2811 0
	mov	w3, 9817
	str	w3, [x19,1948]
	.loc 1 2812 0
	mov	w3, 11020
	str	w3, [x19,1952]
	.loc 1 2813 0
	mov	w3, 12369
	str	w3, [x19,1956]
	.loc 1 2814 0
	mov	w3, 13884
	str	w3, [x19,1960]
	.loc 1 2815 0
	mov	w3, 15584
	str	w3, [x19,1964]
	.loc 1 2816 0
	mov	w3, 17493
	.loc 1 2817 0
	str	wzr, [x19,1972]
	.loc 1 2816 0
	str	w3, [x19,1968]
	.loc 1 2819 0
	mov	w3, 13
	.loc 1 2818 0
	str	w20, [x19,1976]
	.loc 1 2819 0
	str	w3, [x19,1980]
	.loc 1 2820 0
	str	w8, [x19,2124]
	.loc 1 2821 0
	str	w6, [x19,2128]
	.loc 1 2822 0
	str	w8, [x19,2272]
	.loc 1 2823 0
	str	w6, [x19,2276]
	.loc 1 2824 0
	str	w8, [x19,2420]
	.loc 1 2825 0
	str	w6, [x19,2424]
	.loc 1 2826 0
	str	w8, [x19,2568]
	.loc 1 2827 0
	str	w6, [x19,2572]
	.loc 1 2831 0
	str	w2, [x19,2592]
	.loc 1 2833 0
	str	w7, [x19,2600]
	.loc 1 2834 0
	str	w7, [x19,2604]
	.loc 1 2837 0
	str	w2, [x19,2616]
	.loc 1 2849 0
	str	w13, [x19,2668]
	.loc 1 2828 0
	str	w20, [x19,2576]
	.loc 1 2829 0
	str	wzr, [x19,2580]
	.loc 1 2830 0
	str	wzr, [x19,2584]
	.loc 1 2832 0
	str	wzr, [x19,2596]
	.loc 1 2835 0
	str	wzr, [x19,2608]
	.loc 1 2836 0
	str	wzr, [x19,2612]
	.loc 1 2838 0
	str	wzr, [x19,2620]
	.loc 1 2839 0
	str	wzr, [x19,2624]
	.loc 1 2840 0
	str	wzr, [x19,2628]
	.loc 1 2841 0
	str	wzr, [x19,2632]
	.loc 1 2842 0
	str	wzr, [x19,2636]
	.loc 1 2843 0
	str	wzr, [x19,2640]
	.loc 1 2844 0
	str	wzr, [x19,2644]
	.loc 1 2845 0
	str	wzr, [x19,2648]
	.loc 1 2846 0
	str	wzr, [x19,2652]
	.loc 1 2847 0
	str	wzr, [x19,2656]
	.loc 1 2848 0
	str	wzr, [x19,2660]
	.loc 1 2850 0
	str	wzr, [x19,2672]
	.loc 1 2851 0
	str	wzr, [x19,2676]
	.loc 1 2852 0
	str	wzr, [x19,2704]
	.loc 1 2853 0
	str	wzr, [x19,2708]
	.loc 1 2854 0
	str	wzr, [x19,2712]
	.loc 1 2865 0
	str	w2, [x19,2756]
	.loc 1 2866 0
	str	w2, [x19,2760]
	.loc 1 2871 0
	str	w2, [x19,2780]
	.loc 1 2872 0
	str	w2, [x19,2784]
	.loc 1 2877 0
	mov	w2, 4783
	str	w2, [x19,2804]
	.loc 1 2878 0
	mov	w2, 15743
	str	w2, [x19,2808]
	.loc 1 2879 0
	mov	w2, 16358
	str	w2, [x19,2812]
	.loc 1 2880 0
	mov	w2, 16364
	str	w2, [x19,2816]
	.loc 1 2881 0
	mov	w2, 4265
	str	w2, [x19,2820]
	.loc 1 2882 0
	mov	w2, 15573
	str	w2, [x19,2824]
	.loc 1 2883 0
	mov	w2, 16259
	str	w2, [x19,2828]
	.loc 1 2884 0
	mov	w2, 568
	str	w2, [x19,2832]
	.loc 1 2885 0
	mov	w2, 3855
	str	w2, [x19,2836]
	.loc 1 2886 0
	mov	w2, 15584
	str	w2, [x19,2840]
	.loc 1 2887 0
	mov	w2, 16101
	.loc 1 2855 0
	str	wzr, [x19,2716]
	.loc 1 2887 0
	str	w2, [x19,2844]
	.loc 1 2888 0
	mov	w2, 1324
	.loc 1 2856 0
	str	wzr, [x19,2720]
	.loc 1 2857 0
	str	wzr, [x19,2724]
	.loc 1 2858 0
	str	wzr, [x19,2728]
	.loc 1 2859 0
	str	wzr, [x19,2732]
	.loc 1 2860 0
	str	wzr, [x19,2736]
	.loc 1 2861 0
	str	wzr, [x19,2740]
	.loc 1 2862 0
	str	wzr, [x19,2744]
	.loc 1 2863 0
	str	wzr, [x19,2748]
	.loc 1 2864 0
	str	wzr, [x19,2752]
	.loc 1 2867 0
	str	w20, [x19,2764]
	.loc 1 2868 0
	str	w20, [x19,2768]
	.loc 1 2869 0
	str	w20, [x19,2772]
	.loc 1 2870 0
	str	w20, [x19,2776]
	.loc 1 2873 0
	str	w20, [x19,2788]
	.loc 1 2874 0
	str	w20, [x19,2792]
	.loc 1 2875 0
	str	w20, [x19,2796]
	.loc 1 2876 0
	str	w20, [x19,2800]
	.loc 1 2888 0
	str	w2, [x19,2848]
	.loc 1 2889 0
	mov	w2, 3058
	str	w2, [x19,2852]
	.loc 1 2890 0
	mov	w2, 15716
	str	w2, [x19,2856]
	.loc 1 2891 0
	mov	w2, 15937
	str	w2, [x19,2860]
	.loc 1 2892 0
	mov	w2, 2182
	str	w2, [x19,2864]
	.loc 1 2893 0
	mov	w2, 4059
	str	w2, [x19,2868]
	.loc 1 2894 0
	mov	w2, 16242
	str	w2, [x19,2872]
	.loc 1 2895 0
	mov	w2, 16380
	str	w2, [x19,2876]
	.loc 1 2896 0
	mov	w2, 183
	str	w2, [x19,2880]
	.loc 1 2897 0
	mov	w2, 3783
	str	w2, [x19,2884]
	.loc 1 2898 0
	mov	w2, 16074
	str	w2, [x19,2888]
	.loc 1 2899 0
	mov	w2, 16344
	str	w2, [x19,2892]
	.loc 1 2900 0
	mov	w2, 664
	str	w2, [x19,2896]
	.loc 1 2901 0
	mov	w2, 3286
	str	w2, [x19,2900]
	.loc 1 2902 0
	mov	w2, 16036
	str	w2, [x19,2904]
	.loc 1 2903 0
	mov	w2, 16262
	str	w2, [x19,2908]
	.loc 1 2904 0
	mov	w2, 1270
	str	w2, [x19,2912]
	.loc 1 2905 0
	mov	w2, 2649
	str	w2, [x19,2916]
	.loc 1 2906 0
	mov	w2, 16085
	str	w2, [x19,2920]
	.loc 1 2907 0
	mov	w2, 16177
	str	w2, [x19,2924]
	.loc 1 2908 0
	mov	w2, 1953
	.loc 1 2909 0
	str	wzr, [x19,3060]
	.loc 1 2908 0
	str	w2, [x19,2928]
	.loc 1 2912 0
	mov	w2, 240
	.loc 1 2910 0
	str	w25, [x19,3064]
	.loc 1 2911 0
	str	w22, [x19,3068]
	.loc 1 2912 0
	str	w2, [x19,3072]
	.loc 1 2913 0
	str	w22, [x19,3076]
	.loc 1 2914 0
	bl	venc_drv_EflsetRGBtoYUVcoeff
.LVL130:
	.loc 1 2915 0
	str	wzr, [x19,3132]
	.loc 1 2924 0
	mov	w0, 148
	.loc 1 2916 0
	str	w25, [x19,3136]
	.loc 1 2924 0
	str	w0, [x19,1500]
	.loc 1 2925 0
	str	w0, [x19,2664]
	.loc 1 2917 0
	str	w22, [x19,3140]
	.loc 1 2919 0
	str	w20, [x19,260]
	.loc 1 2920 0
	str	wzr, [x19,740]
	.loc 1 2921 0
	str	wzr, [x19,744]
	.loc 1 2922 0
	str	w20, [x19,920]
	.loc 1 2923 0
	str	w20, [x19,924]
	.loc 1 2926 0
	str	wzr, [x19,3144]
	.loc 1 2927 0
	str	w23, [x19,3148]
	.loc 1 2928 0
	str	w23, [x19,3152]
	.loc 1 2929 0
	str	w21, [x19,3156]
	.loc 1 2930 0
	str	w21, [x19,3160]
	.loc 1 2931 0
	str	w21, [x19,3164]
	.loc 1 2932 0
	str	w21, [x19,3168]
	.loc 1 2933 0
	str	w21, [x19,3172]
	.loc 1 2934 0
	str	w21, [x19,3176]
	.loc 1 2935 0
	str	w21, [x19,3180]
	.loc 1 2936 0
	str	w21, [x19,3184]
	.loc 1 2937 0
	str	w21, [x19,3188]
	.loc 1 2938 0
	str	w21, [x19,3192]
	.loc 1 2939 0
	str	w21, [x19,3196]
	.loc 1 2940 0
	str	w21, [x19,3200]
	.loc 1 2941 0
	str	w21, [x19,3204]
	.loc 1 2942 0
	str	w21, [x19,3208]
	.loc 1 2943 0
	str	w21, [x19,3212]
	.loc 1 2944 0
	str	w21, [x19,3216]
	.loc 1 2945 0
	str	w21, [x19,3220]
	.loc 1 2946 0
	str	w21, [x19,3224]
	.loc 1 2947 0
	str	w21, [x19,3228]
	.loc 1 2948 0
	str	w21, [x19,3232]
	.loc 1 2949 0
	str	w21, [x19,3236]
	.loc 1 2959 0
	ldr	w1, [x19,176]
	ldr	w0, [x19,148]
	.loc 1 2950 0
	str	w21, [x19,3240]
	.loc 1 2951 0
	str	w21, [x19,3244]
	.loc 1 2959 0
	cmp	w1, w0
	.loc 1 2952 0
	str	w21, [x19,3248]
	.loc 1 2953 0
	str	w21, [x19,3252]
	.loc 1 2954 0
	str	w21, [x19,3256]
	.loc 1 2955 0
	str	w21, [x19,3260]
	.loc 1 2956 0
	str	w21, [x19,3264]
	.loc 1 2959 0
	beq	.L137
	.loc 1 2961 0
	str	wzr, [x19,176]
	.loc 1 2962 0
	str	wzr, [x19,148]
.L137:
	.loc 1 2965 0
	str	wzr, [x19,2932]
	.loc 1 2998 0
	mov	w2, 3
	.loc 1 2966 0
	str	wzr, [x19,2936]
	.loc 1 3002 0
	mov	w1, 1
	.loc 1 2967 0
	str	wzr, [x19,2940]
	.loc 1 3087 0
	mov	w0, 0
	.loc 1 2968 0
	str	wzr, [x19,2944]
	.loc 1 2969 0
	str	wzr, [x19,2948]
	.loc 1 2970 0
	str	wzr, [x19,2952]
	.loc 1 2971 0
	str	wzr, [x19,2956]
	.loc 1 2972 0
	str	wzr, [x19,2960]
	.loc 1 2973 0
	str	wzr, [x19,2964]
	.loc 1 2974 0
	str	wzr, [x19,2968]
	.loc 1 2975 0
	str	wzr, [x19,2972]
	.loc 1 2976 0
	str	wzr, [x19,2976]
	.loc 1 2977 0
	str	wzr, [x19,2980]
	.loc 1 2978 0
	str	wzr, [x19,2984]
	.loc 1 2979 0
	str	wzr, [x19,2988]
	.loc 1 2980 0
	str	wzr, [x19,2992]
	.loc 1 2981 0
	str	wzr, [x19,2996]
	.loc 1 2982 0
	str	wzr, [x19,3000]
	.loc 1 2983 0
	str	wzr, [x19,3004]
	.loc 1 2984 0
	str	wzr, [x19,3008]
	.loc 1 2985 0
	str	wzr, [x19,3012]
	.loc 1 2986 0
	str	wzr, [x19,3016]
	.loc 1 2987 0
	str	wzr, [x19,3020]
	.loc 1 2988 0
	str	wzr, [x19,3024]
	.loc 1 2989 0
	str	wzr, [x19,3028]
	.loc 1 2990 0
	str	wzr, [x19,3032]
	.loc 1 2991 0
	str	wzr, [x19,3036]
	.loc 1 2992 0
	str	wzr, [x19,3040]
	.loc 1 2993 0
	str	wzr, [x19,3044]
	.loc 1 2994 0
	str	wzr, [x19,3048]
	.loc 1 2995 0
	str	wzr, [x19,3052]
	.loc 1 2996 0
	str	wzr, [x19,3056]
	.loc 1 2998 0
	str	w2, [x19,3272]
	.loc 1 2999 0
	str	wzr, [x19,3276]
	.loc 1 3000 0
	str	wzr, [x19,3280]
	.loc 1 3001 0
	str	wzr, [x19,3284]
	.loc 1 3002 0
	str	w1, [x19,3288]
	.loc 1 3003 0
	str	w1, [x19,3292]
	.loc 1 3004 0
	str	w1, [x19,3296]
	.loc 1 3005 0
	str	w1, [x19,3300]
	.loc 1 3006 0
	str	w1, [x19,3304]
	.loc 1 3008 0
	str	wzr, [x19,3308]
	.loc 1 3009 0
	str	wzr, [x19,3388]
	.loc 1 3010 0
	str	wzr, [x19,3392]
	.loc 1 3011 0
	str	wzr, [x19,3396]
	.loc 1 3012 0
	str	wzr, [x19,3400]
	.loc 1 3013 0
	str	wzr, [x19,3404]
	.loc 1 3014 0
	str	wzr, [x19,3408]
	.loc 1 3015 0
	str	wzr, [x19,3440]
	.loc 1 3018 0
	str	w1, [x19,4908]
	.loc 1 3019 0
	str	w1, [x19,4920]
	.loc 1 3020 0
	str	w1, [x19,4932]
	.loc 1 3021 0
	str	w1, [x19,4944]
	.loc 1 3022 0
	str	w1, [x19,4956]
	.loc 1 3023 0
	str	w1, [x19,4968]
	.loc 1 3024 0
	str	w1, [x19,4980]
	.loc 1 3025 0
	str	w1, [x19,4992]
	.loc 1 3026 0
	str	w1, [x19,5004]
	.loc 1 3027 0
	str	w1, [x19,5016]
	.loc 1 3028 0
	str	w1, [x19,5028]
	.loc 1 3029 0
	str	w1, [x19,5040]
	.loc 1 3030 0
	str	w1, [x19,5052]
	.loc 1 3031 0
	str	w1, [x19,5064]
	.loc 1 3032 0
	str	w1, [x19,5076]
	.loc 1 3033 0
	str	w1, [x19,5088]
	.loc 1 3034 0
	str	w1, [x19,5100]
	.loc 1 3035 0
	str	w1, [x19,5112]
	.loc 1 3036 0
	str	wzr, [x19,5872]
	.loc 1 3037 0
	str	wzr, [x19,5876]
	.loc 1 3038 0
	str	wzr, [x19,5880]
	.loc 1 3039 0
	str	wzr, [x19,5884]
	.loc 1 3040 0
	str	wzr, [x19,5888]
	.loc 1 3041 0
	str	wzr, [x19,5892]
	.loc 1 3044 0
	str	wzr, [x19,5972]
	.loc 1 3046 0
	str	wzr, [x19,3736]
	.loc 1 3047 0
	str	wzr, [x19,3752]
	.loc 1 3048 0
	str	wzr, [x19,3768]
	.loc 1 3049 0
	str	wzr, [x19,3784]
	.loc 1 3050 0
	str	wzr, [x19,3800]
	.loc 1 3051 0
	str	wzr, [x19,3816]
	.loc 1 3052 0
	str	wzr, [x19,3832]
	.loc 1 3053 0
	str	wzr, [x19,3848]
	.loc 1 3054 0
	str	wzr, [x19,3864]
	.loc 1 3055 0
	str	wzr, [x19,3880]
	.loc 1 3056 0
	str	wzr, [x19,3896]
	.loc 1 3057 0
	str	wzr, [x19,3912]
	.loc 1 3058 0
	str	wzr, [x19,3928]
	.loc 1 3059 0
	str	wzr, [x19,3944]
	.loc 1 3060 0
	str	wzr, [x19,3960]
	.loc 1 3061 0
	str	wzr, [x19,3976]
	.loc 1 3062 0
	str	wzr, [x19,3992]
	.loc 1 3063 0
	str	wzr, [x19,4008]
	.loc 1 3064 0
	str	wzr, [x19,6028]
	.loc 1 3065 0
	str	wzr, [x19,6024]
	.loc 1 3066 0
	str	wzr, [x19,6020]
	.loc 1 3067 0
	str	wzr, [x19,6016]
	.loc 1 3068 0
	str	wzr, [x19,6012]
	.loc 1 3069 0
	str	wzr, [x19,6008]
	.loc 1 3070 0
	str	wzr, [x19,6004]
	.loc 1 3071 0
	str	wzr, [x19,6000]
	.loc 1 3072 0
	str	wzr, [x19,5996]
	.loc 1 3073 0
	str	wzr, [x19,5992]
	.loc 1 3074 0
	str	wzr, [x19,5988]
	.loc 1 3075 0
	str	wzr, [x19,5984]
	.loc 1 3076 0
	str	wzr, [x19,5980]
	.loc 1 3077 0
	str	wzr, [x19,5976]
	.loc 1 3078 0
	str	wzr, [x19,6228]
	.loc 1 3079 0
	str	wzr, [x19,6224]
	.loc 1 3080 0
	str	wzr, [x19,6220]
	.loc 1 3081 0
	str	wzr, [x19,6216]
	.loc 1 3083 0
	str	w1, [x19,5968]
	.loc 1 3085 0
	str	w1, [x19,928]
.LVL131:
.L136:
	.loc 1 3088 0
	ldp	x19, x20, [sp,16]
	.cfi_remember_state
	.cfi_restore 20
	.cfi_restore 19
.LVL132:
	ldp	x21, x22, [sp,32]
	.cfi_restore 22
	.cfi_restore 21
	ldp	x23, x24, [sp,48]
	.cfi_restore 24
	.cfi_restore 23
.LVL133:
	ldp	x25, x26, [sp,64]
	.cfi_restore 26
	.cfi_restore 25
	ldp	x27, x28, [sp,80]
	.cfi_restore 28
	.cfi_restore 27
	ldp	x29, x30, [sp], 96
	.cfi_restore 30
	.cfi_restore 29
	.cfi_def_cfa 31, 0
	ret
.LVL134:
.L138:
	.cfi_restore_state
	.loc 1 2330 0
	mov	w0, -1
.LVL135:
	b	.L136
	.cfi_endproc
.LFE2766:
	.size	VENC_DRV_EflInitEncParaCfgHevc_LowPwr1, .-VENC_DRV_EflInitEncParaCfgHevc_LowPwr1
	.align	2
	.global	VENC_DRV_EflInitEncParaCfgH264_LowPwr0
	.type	VENC_DRV_EflInitEncParaCfgH264_LowPwr0, %function
VENC_DRV_EflInitEncParaCfgH264_LowPwr0:
.LFB2767:
	.loc 1 3091 0
	.cfi_startproc
.LVL136:
	stp	x29, x30, [sp, -96]!
	.cfi_def_cfa_offset 96
	.cfi_offset 29, -96
	.cfi_offset 30, -88
	add	x29, sp, 0
	.cfi_def_cfa_register 29
	stp	x21, x22, [sp,32]
	.cfi_offset 21, -64
	.cfi_offset 22, -56
	mov	x22, x0
	.loc 1 3092 0
	mov	x0, 6808
.LVL137:
	.loc 1 3091 0
	stp	x19, x20, [sp,16]
	stp	x23, x24, [sp,48]
	stp	x25, x26, [sp,64]
	stp	x27, x28, [sp,80]
	.cfi_offset 19, -80
	.cfi_offset 20, -72
	.cfi_offset 23, -48
	.cfi_offset 24, -40
	.cfi_offset 25, -32
	.cfi_offset 26, -24
	.cfi_offset 27, -16
	.cfi_offset 28, -8
	.loc 1 3092 0
	bl	vmalloc
.LVL138:
	mov	x19, x0
.LVL139:
	.loc 1 3093 0
	cbz	x0, .L142
	.loc 1 3098 0
	mov	w1, 0
	mov	x2, 6808
	.loc 1 3160 0
	mov	w20, 2
	.loc 1 3151 0
	mov	w23, 22
	.loc 1 3098 0
	bl	memset
.LVL140:
	.loc 1 3099 0
	str	x19, [x22]
	.loc 1 3103 0
	mov	w2, 1
	.loc 1 3104 0
	mov	w14, 15
	.loc 1 3101 0
	mov	w1, 720
	.loc 1 3102 0
	mov	w0, 1280
	.loc 1 3104 0
	str	w14, [x19,816]
	.loc 1 3172 0
	mov	w8, 7
	.loc 1 3101 0
	str	w1, [x19,796]
	.loc 1 3155 0
	mov	w9, -1
	.loc 1 3102 0
	str	w0, [x19,800]
	.loc 1 3150 0
	mov	w15, 23
	.loc 1 3106 0
	str	w14, [x19,808]
	.loc 1 3176 0
	mov	w6, 3
	.loc 1 3103 0
	str	w2, [x19,812]
	.loc 1 3276 0
	mov	w30, 256
	.loc 1 3105 0
	str	w2, [x19,156]
	.loc 1 3250 0
	mov	w3, 4096
	.loc 1 3107 0
	str	w14, [x19,804]
	.loc 1 3276 0
	movk	w30, 0xa600, lsl 16
	.loc 1 3109 0
	str	w2, [x19,172]
	.loc 1 3307 0
	mov	w4, 4
	.loc 1 3110 0
	str	w2, [x19,180]
	.loc 1 3303 0
	mov	w5, 8
	.loc 1 3111 0
	str	w2, [x19,184]
	.loc 1 3297 0
	mov	w11, 10
	.loc 1 3112 0
	str	w2, [x19,188]
	.loc 1 3299 0
	mov	w13, 5
	.loc 1 3113 0
	str	w2, [x19,192]
	.loc 1 3305 0
	mov	w12, 13
	.loc 1 3121 0
	str	w2, [x19,72]
	.loc 1 3385 0
	mov	w7, 6
	.loc 1 3123 0
	str	w2, [x19,80]
	.loc 1 3386 0
	mov	w21, 16
	.loc 1 3127 0
	str	w2, [x19,84]
	.loc 1 3380 0
	mov	w10, 255
	.loc 1 3136 0
	str	w2, [x19,176]
	.loc 1 3382 0
	mov	w16, 64
	.loc 1 3137 0
	str	w2, [x19,148]
	.loc 1 3384 0
	mov	w17, 32
	.loc 1 3134 0
	str	wzr, [x19,152]
	.loc 1 3441 0
	mov	w27, 34
	.loc 1 3139 0
	str	wzr, [x19,824]
	.loc 1 3442 0
	mov	w28, 27
	.loc 1 3132 0
	str	wzr, [x19,132]
	.loc 1 3488 0
	mov	w18, 4095
	.loc 1 3133 0
	str	wzr, [x19,136]
	.loc 1 3523 0
	mov	w25, 40
	.loc 1 3130 0
	str	wzr, [x19,124]
	.loc 1 3547 0
	mov	w26, 12
	.loc 1 3131 0
	str	wzr, [x19,128]
	.loc 1 3631 0
	mov	w24, 235
	.loc 1 3122 0
	str	wzr, [x19,76]
	.loc 1 3129 0
	str	wzr, [x19,120]
	.loc 1 3119 0
	str	wzr, [x19,64]
	.loc 1 3120 0
	str	wzr, [x19,68]
	.loc 1 3117 0
	str	wzr, [x19,56]
	.loc 1 3118 0
	str	wzr, [x19,60]
	.loc 1 3115 0
	str	wzr, [x19,144]
	.loc 1 3108 0
	str	wzr, [x19,164]
	.loc 1 3114 0
	str	wzr, [x19,140]
	.loc 1 3140 0
	str	wzr, [x19,832]
	.loc 1 3144 0
	str	w2, [x19,200]
	.loc 1 3149 0
	str	w2, [x19,220]
	.loc 1 3150 0
	str	w15, [x19,224]
	.loc 1 3517 0
	mov	w15, 20
	.loc 1 3155 0
	str	w9, [x19,244]
	.loc 1 3159 0
	str	w2, [x19,264]
	.loc 1 3161 0
	str	w2, [x19,272]
	.loc 1 3162 0
	str	w2, [x19,276]
	.loc 1 3163 0
	str	w2, [x19,280]
	.loc 1 3164 0
	str	w2, [x19,284]
	.loc 1 3165 0
	str	w2, [x19,288]
	.loc 1 3166 0
	str	w2, [x19,292]
	.loc 1 3167 0
	str	w1, [x19,296]
	.loc 1 3635 0
	mov	w1, 0
	.loc 1 3168 0
	str	w0, [x19,300]
	.loc 1 3173 0
	mov	w0, 31
	.loc 1 3171 0
	str	w9, [x19,312]
	.loc 1 3172 0
	str	w8, [x19,316]
	.loc 1 3173 0
	str	w0, [x19,320]
	.loc 1 3635 0
	mov	x0, x22
	.loc 1 3174 0
	str	w2, [x19,324]
	.loc 1 3245 0
	mov	w22, -1879048192
.LVL141:
	.loc 1 3151 0
	str	w23, [x19,228]
	.loc 1 3141 0
	str	wzr, [x19,1196]
	.loc 1 3143 0
	str	wzr, [x19,196]
	.loc 1 3145 0
	str	wzr, [x19,204]
	.loc 1 3146 0
	str	wzr, [x19,208]
	.loc 1 3147 0
	str	wzr, [x19,212]
	.loc 1 3148 0
	str	wzr, [x19,216]
	.loc 1 3152 0
	str	wzr, [x19,232]
	.loc 1 3153 0
	str	wzr, [x19,236]
	.loc 1 3154 0
	str	wzr, [x19,240]
	.loc 1 3156 0
	str	wzr, [x19,248]
	.loc 1 3157 0
	str	wzr, [x19,252]
	.loc 1 3158 0
	str	wzr, [x19,256]
	.loc 1 3160 0
	str	w20, [x19,268]
	.loc 1 3169 0
	str	wzr, [x19,304]
	.loc 1 3170 0
	str	wzr, [x19,308]
	.loc 1 3175 0
	str	w20, [x19,328]
	.loc 1 3176 0
	str	w6, [x19,332]
	.loc 1 3177 0
	str	w2, [x19,336]
	.loc 1 3178 0
	str	w2, [x19,340]
	.loc 1 3179 0
	str	wzr, [x19,348]
	.loc 1 3180 0
	str	wzr, [x19,352]
	.loc 1 3181 0
	str	wzr, [x19,356]
	.loc 1 3182 0
	str	wzr, [x19,360]
	.loc 1 3183 0
	str	wzr, [x19,364]
	.loc 1 3184 0
	str	wzr, [x19,368]
	.loc 1 3185 0
	str	wzr, [x19,372]
	.loc 1 3186 0
	str	wzr, [x19,376]
	.loc 1 3187 0
	str	wzr, [x19,380]
	.loc 1 3188 0
	str	wzr, [x19,384]
	.loc 1 3189 0
	str	wzr, [x19,388]
	.loc 1 3190 0
	str	wzr, [x19,392]
	.loc 1 3191 0
	str	wzr, [x19,396]
	.loc 1 3192 0
	str	wzr, [x19,400]
	.loc 1 3193 0
	str	wzr, [x19,404]
	.loc 1 3194 0
	str	wzr, [x19,408]
	.loc 1 3195 0
	str	wzr, [x19,412]
	.loc 1 3196 0
	str	wzr, [x19,420]
	.loc 1 3197 0
	str	wzr, [x19,416]
	.loc 1 3198 0
	str	wzr, [x19,424]
	.loc 1 3199 0
	str	wzr, [x19,428]
	.loc 1 3200 0
	str	wzr, [x19,432]
	.loc 1 3201 0
	str	wzr, [x19,436]
	.loc 1 3202 0
	str	wzr, [x19,440]
	.loc 1 3203 0
	str	wzr, [x19,444]
	.loc 1 3204 0
	str	wzr, [x19,448]
	.loc 1 3205 0
	str	wzr, [x19,452]
	.loc 1 3206 0
	str	wzr, [x19,456]
	.loc 1 3207 0
	str	wzr, [x19,460]
	.loc 1 3208 0
	str	wzr, [x19,464]
	.loc 1 3209 0
	str	wzr, [x19,468]
	.loc 1 3210 0
	str	wzr, [x19,472]
	.loc 1 3211 0
	str	wzr, [x19,476]
	.loc 1 3212 0
	str	wzr, [x19,480]
	.loc 1 3213 0
	str	wzr, [x19,484]
	.loc 1 3214 0
	str	wzr, [x19,488]
	.loc 1 3215 0
	str	wzr, [x19,492]
	.loc 1 3216 0
	str	wzr, [x19,496]
	.loc 1 3217 0
	str	wzr, [x19,500]
	.loc 1 3218 0
	str	wzr, [x19,504]
	.loc 1 3219 0
	str	wzr, [x19,508]
	.loc 1 3220 0
	str	wzr, [x19,512]
	.loc 1 3221 0
	str	wzr, [x19,516]
	.loc 1 3222 0
	str	wzr, [x19,520]
	.loc 1 3223 0
	str	wzr, [x19,524]
	.loc 1 3224 0
	str	wzr, [x19,528]
	.loc 1 3225 0
	str	wzr, [x19,532]
	.loc 1 3226 0
	str	wzr, [x19,536]
	.loc 1 3227 0
	str	wzr, [x19,540]
	.loc 1 3228 0
	str	wzr, [x19,544]
	.loc 1 3229 0
	str	wzr, [x19,548]
	.loc 1 3230 0
	str	wzr, [x19,552]
	.loc 1 3231 0
	str	wzr, [x19,556]
	.loc 1 3232 0
	str	wzr, [x19,560]
	.loc 1 3233 0
	str	wzr, [x19,564]
	.loc 1 3234 0
	str	wzr, [x19,568]
	.loc 1 3235 0
	str	wzr, [x19,572]
	.loc 1 3236 0
	str	wzr, [x19,576]
	.loc 1 3237 0
	str	wzr, [x19,580]
	.loc 1 3238 0
	str	wzr, [x19,584]
	.loc 1 3239 0
	str	wzr, [x19,588]
	.loc 1 3240 0
	str	wzr, [x19,592]
	.loc 1 3241 0
	str	wzr, [x19,596]
	.loc 1 3242 0
	str	wzr, [x19,600]
	.loc 1 3243 0
	str	wzr, [x19,604]
	.loc 1 3245 0
	str	w22, [x19,612]
	.loc 1 3246 0
	mov	w22, -1811939328
	str	w22, [x19,616]
	.loc 1 3247 0
	mov	w22, -1795162112
	str	w22, [x19,620]
	.loc 1 3248 0
	mov	w22, -1473249280
	str	w22, [x19,624]
	.loc 1 3249 0
	add	w22, w22, 131072
	str	w22, [x19,628]
	.loc 1 3254 0
	mov	w22, -1778384896
	str	w22, [x19,648]
	.loc 1 3255 0
	mov	w22, -1711276032
	str	w22, [x19,652]
	.loc 1 3258 0
	mov	w22, -1472987136
	str	w22, [x19,664]
	.loc 1 3259 0
	add	w22, w22, 1048576
	str	w22, [x19,668]
	.loc 1 3261 0
	mov	w22, -1677721600
	str	w22, [x19,676]
	.loc 1 3262 0
	mov	w22, -1610612736
	str	w22, [x19,680]
	.loc 1 3265 0
	mov	w22, -1470889984
	str	w22, [x19,692]
	.loc 1 3266 0
	add	w22, w22, 1048576
	str	w22, [x19,696]
	.loc 1 3269 0
	mov	w22, -1490026496
	str	w22, [x19,708]
	.loc 1 3270 0
	mov	w22, -1506803712
	str	w22, [x19,712]
	.loc 1 3271 0
	add	w22, w22, 1048576
	str	w22, [x19,716]
	.loc 1 3272 0
	mov	w22, -1508900864
	str	w22, [x19,720]
	.loc 1 3273 0
	add	w22, w22, 1048576
	str	w22, [x19,724]
	.loc 1 3274 0
	mov	w22, -1577058304
	str	w22, [x19,728]
	.loc 1 3275 0
	mov	w22, -1509949440
	.loc 1 3250 0
	str	w3, [x19,632]
	.loc 1 3251 0
	str	w3, [x19,636]
	.loc 1 3252 0
	str	w3, [x19,640]
	.loc 1 3253 0
	str	w3, [x19,644]
	.loc 1 3256 0
	str	w3, [x19,656]
	.loc 1 3257 0
	str	w3, [x19,660]
	.loc 1 3260 0
	str	w3, [x19,672]
	.loc 1 3263 0
	str	w3, [x19,684]
	.loc 1 3264 0
	str	w3, [x19,688]
	.loc 1 3267 0
	str	w3, [x19,700]
	.loc 1 3268 0
	str	w3, [x19,704]
	.loc 1 3275 0
	str	w22, [x19,732]
	.loc 1 3295 0
	mov	w22, 2000
	.loc 1 3276 0
	str	w30, [x19,736]
	.loc 1 3244 0
	str	wzr, [x19,608]
	.loc 1 3277 0
	str	wzr, [x19,748]
	.loc 1 3291 0
	str	w2, [x19,836]
	.loc 1 3292 0
	str	w2, [x19,848]
	.loc 1 3295 0
	str	w22, [x19,856]
	.loc 1 3296 0
	mov	w22, 1800
	.loc 1 3297 0
	str	w11, [x19,872]
	.loc 1 3296 0
	str	w22, [x19,852]
	.loc 1 3431 0
	mov	w22, 51
	.loc 1 3298 0
	str	w11, [x19,868]
	.loc 1 3299 0
	str	w13, [x19,864]
	.loc 1 3300 0
	str	w13, [x19,860]
	.loc 1 3303 0
	str	w5, [x19,888]
	.loc 1 3304 0
	str	w5, [x19,884]
	.loc 1 3305 0
	str	w12, [x19,896]
	.loc 1 3306 0
	str	w12, [x19,892]
	.loc 1 3307 0
	str	w4, [x19,904]
	.loc 1 3308 0
	str	w4, [x19,900]
	.loc 1 3309 0
	str	w2, [x19,916]
	.loc 1 3310 0
	str	w2, [x19,912]
	.loc 1 3278 0
	str	wzr, [x19,752]
	.loc 1 3279 0
	str	wzr, [x19,756]
	.loc 1 3280 0
	str	wzr, [x19,760]
	.loc 1 3281 0
	str	wzr, [x19,764]
	.loc 1 3282 0
	str	wzr, [x19,768]
	.loc 1 3283 0
	str	wzr, [x19,772]
	.loc 1 3284 0
	str	wzr, [x19,776]
	.loc 1 3285 0
	str	wzr, [x19,780]
	.loc 1 3286 0
	str	wzr, [x19,784]
	.loc 1 3287 0
	str	wzr, [x19,788]
	.loc 1 3288 0
	str	wzr, [x19,792]
	.loc 1 3289 0
	str	wzr, [x19,820]
	.loc 1 3290 0
	str	wzr, [x19,828]
	.loc 1 3293 0
	str	wzr, [x19,844]
	.loc 1 3294 0
	str	wzr, [x19,840]
	.loc 1 3301 0
	str	w20, [x19,880]
	.loc 1 3302 0
	str	w20, [x19,876]
	.loc 1 3311 0
	str	w2, [x19,908]
	.loc 1 3320 0
	str	w2, [x19,960]
	.loc 1 3312 0
	str	wzr, [x19,344]
	.loc 1 3313 0
	str	wzr, [x19,932]
	.loc 1 3314 0
	str	wzr, [x19,936]
	.loc 1 3315 0
	str	wzr, [x19,940]
	.loc 1 3316 0
	str	wzr, [x19,944]
	.loc 1 3317 0
	str	wzr, [x19,948]
	.loc 1 3318 0
	str	wzr, [x19,952]
	.loc 1 3319 0
	str	wzr, [x19,956]
	.loc 1 3321 0
	str	wzr, [x19,964]
	.loc 1 3322 0
	str	wzr, [x19,968]
	.loc 1 3323 0
	str	wzr, [x19,972]
	.loc 1 3324 0
	str	wzr, [x19,976]
	.loc 1 3325 0
	str	wzr, [x19,980]
	.loc 1 3326 0
	str	wzr, [x19,984]
	.loc 1 3327 0
	str	wzr, [x19,988]
	.loc 1 3328 0
	str	wzr, [x19,992]
	.loc 1 3329 0
	str	wzr, [x19,996]
	.loc 1 3330 0
	str	wzr, [x19,1000]
	.loc 1 3331 0
	str	wzr, [x19,1004]
	.loc 1 3332 0
	str	wzr, [x19,1008]
	.loc 1 3333 0
	str	wzr, [x19,1012]
	.loc 1 3334 0
	str	wzr, [x19,1016]
	.loc 1 3335 0
	str	wzr, [x19,1020]
	.loc 1 3336 0
	str	wzr, [x19,1024]
	.loc 1 3337 0
	str	wzr, [x19,1040]
	.loc 1 3338 0
	str	wzr, [x19,1036]
	.loc 1 3339 0
	str	wzr, [x19,1032]
	.loc 1 3340 0
	str	wzr, [x19,1028]
	.loc 1 3341 0
	str	wzr, [x19,1056]
	.loc 1 3342 0
	str	wzr, [x19,1052]
	.loc 1 3343 0
	str	wzr, [x19,1048]
	.loc 1 3344 0
	str	wzr, [x19,1044]
	.loc 1 3345 0
	str	wzr, [x19,1060]
	.loc 1 3346 0
	str	wzr, [x19,1064]
	.loc 1 3347 0
	str	wzr, [x19,1068]
	.loc 1 3348 0
	str	wzr, [x19,1072]
	.loc 1 3349 0
	str	wzr, [x19,1076]
	.loc 1 3350 0
	str	wzr, [x19,1080]
	.loc 1 3351 0
	str	wzr, [x19,1084]
	.loc 1 3352 0
	str	wzr, [x19,1088]
	.loc 1 3353 0
	str	wzr, [x19,1092]
	.loc 1 3354 0
	str	wzr, [x19,1096]
	.loc 1 3355 0
	str	wzr, [x19,1100]
	.loc 1 3356 0
	str	wzr, [x19,1104]
	.loc 1 3357 0
	str	wzr, [x19,1108]
	.loc 1 3358 0
	str	wzr, [x19,1112]
	.loc 1 3359 0
	str	wzr, [x19,1116]
	.loc 1 3360 0
	str	wzr, [x19,1120]
	.loc 1 3361 0
	str	wzr, [x19,1124]
	.loc 1 3362 0
	str	wzr, [x19,1128]
	.loc 1 3363 0
	str	wzr, [x19,1132]
	.loc 1 3364 0
	str	wzr, [x19,1136]
	.loc 1 3365 0
	str	wzr, [x19,1140]
	.loc 1 3366 0
	str	wzr, [x19,1144]
	.loc 1 3367 0
	str	wzr, [x19,1148]
	.loc 1 3368 0
	str	wzr, [x19,1152]
	.loc 1 3369 0
	str	wzr, [x19,1156]
	.loc 1 3370 0
	str	wzr, [x19,1160]
	.loc 1 3371 0
	str	wzr, [x19,1164]
	.loc 1 3372 0
	str	wzr, [x19,1168]
	.loc 1 3373 0
	str	wzr, [x19,1172]
	.loc 1 3374 0
	str	wzr, [x19,1176]
	.loc 1 3375 0
	str	wzr, [x19,1180]
	.loc 1 3376 0
	str	wzr, [x19,1184]
	.loc 1 3377 0
	str	wzr, [x19,1188]
	.loc 1 3378 0
	str	wzr, [x19,1192]
	.loc 1 3379 0
	str	w4, [x19,1200]
	.loc 1 3380 0
	str	w10, [x19,1204]
	.loc 1 3381 0
	str	w6, [x19,1208]
	.loc 1 3382 0
	str	w16, [x19,1212]
	.loc 1 3383 0
	str	w5, [x19,1216]
	.loc 1 3384 0
	str	w17, [x19,1220]
	.loc 1 3385 0
	str	w7, [x19,1224]
	.loc 1 3387 0
	str	w5, [x19,1232]
	.loc 1 3389 0
	str	w7, [x19,1240]
	.loc 1 3390 0
	str	w5, [x19,1244]
	.loc 1 3391 0
	str	w5, [x19,1248]
	.loc 1 3392 0
	str	w17, [x19,1252]
	.loc 1 3393 0
	str	w7, [x19,1256]
	.loc 1 3386 0
	str	w21, [x19,1228]
	.loc 1 3388 0
	str	w21, [x19,1236]
	.loc 1 3394 0
	str	w21, [x19,1260]
	.loc 1 3395 0
	str	wzr, [x19,1264]
	.loc 1 3396 0
	str	wzr, [x19,1268]
	.loc 1 3397 0
	str	wzr, [x19,1272]
	.loc 1 3398 0
	str	wzr, [x19,1276]
	.loc 1 3399 0
	str	wzr, [x19,1280]
	.loc 1 3400 0
	str	wzr, [x19,1284]
	.loc 1 3401 0
	str	wzr, [x19,1288]
	.loc 1 3402 0
	str	wzr, [x19,1292]
	.loc 1 3403 0
	str	wzr, [x19,1296]
	.loc 1 3404 0
	str	wzr, [x19,1300]
	.loc 1 3405 0
	str	wzr, [x19,1304]
	.loc 1 3406 0
	str	wzr, [x19,1308]
	.loc 1 3407 0
	str	wzr, [x19,1312]
	.loc 1 3408 0
	str	wzr, [x19,1316]
	.loc 1 3409 0
	str	wzr, [x19,1320]
	.loc 1 3410 0
	str	wzr, [x19,1324]
	.loc 1 3411 0
	str	wzr, [x19,1328]
	.loc 1 3412 0
	str	wzr, [x19,1332]
	.loc 1 3413 0
	str	wzr, [x19,1336]
	.loc 1 3431 0
	str	w22, [x19,1580]
	.loc 1 3433 0
	mov	w22, 100
	.loc 1 3435 0
	str	w4, [x19,1592]
	.loc 1 3433 0
	str	w22, [x19,1588]
	.loc 1 3436 0
	mov	w22, 18
	.loc 1 3437 0
	str	w14, [x19,1600]
	.loc 1 3440 0
	mov	w14, 44
	.loc 1 3438 0
	str	w4, [x19,1604]
	.loc 1 3439 0
	str	w2, [x19,1608]
	.loc 1 3440 0
	str	w14, [x19,1612]
	.loc 1 3444 0
	str	w10, [x19,1628]
	.loc 1 3445 0
	str	w10, [x19,1632]
	.loc 1 3446 0
	str	w10, [x19,1636]
	.loc 1 3447 0
	str	w10, [x19,1640]
	.loc 1 3461 0
	mov	w10, 9
	.loc 1 3436 0
	str	w22, [x19,1596]
	.loc 1 3441 0
	str	w27, [x19,1616]
	.loc 1 3442 0
	str	w28, [x19,1620]
	.loc 1 3443 0
	str	w23, [x19,1624]
	.loc 1 3414 0
	str	wzr, [x19,1340]
	.loc 1 3415 0
	str	wzr, [x19,1344]
	.loc 1 3416 0
	str	wzr, [x19,1348]
	.loc 1 3417 0
	str	wzr, [x19,1352]
	.loc 1 3418 0
	str	wzr, [x19,1356]
	.loc 1 3419 0
	str	wzr, [x19,1360]
	.loc 1 3420 0
	str	wzr, [x19,1364]
	.loc 1 3421 0
	str	wzr, [x19,1368]
	.loc 1 3422 0
	str	wzr, [x19,1372]
	.loc 1 3423 0
	str	wzr, [x19,1376]
	.loc 1 3424 0
	str	wzr, [x19,1380]
	.loc 1 3425 0
	str	wzr, [x19,1384]
	.loc 1 3426 0
	str	wzr, [x19,1388]
	.loc 1 3427 0
	str	wzr, [x19,1392]
	.loc 1 3428 0
	str	wzr, [x19,1396]
	.loc 1 3429 0
	str	wzr, [x19,1400]
	.loc 1 3430 0
	str	wzr, [x19,1404]
	.loc 1 3432 0
	str	wzr, [x19,1584]
	.loc 1 3449 0
	str	w20, [x19,1644]
	.loc 1 3461 0
	str	w10, [x19,1692]
	.loc 1 3462 0
	mov	w10, 11
	str	w10, [x19,1696]
	.loc 1 3463 0
	mov	w10, 14
	str	w10, [x19,1700]
	.loc 1 3464 0
	mov	w10, 17
	str	w10, [x19,1704]
	.loc 1 3468 0
	mov	w10, 43
	str	w10, [x19,1720]
	.loc 1 3469 0
	mov	w10, 54
	str	w10, [x19,1724]
	.loc 1 3470 0
	mov	w10, 69
	str	w10, [x19,1728]
	.loc 1 3471 0
	mov	w10, 86
	str	w10, [x19,1732]
	.loc 1 3472 0
	mov	w10, 109
	str	w10, [x19,1736]
	.loc 1 3473 0
	mov	w10, 137
	str	w10, [x19,1740]
	.loc 1 3474 0
	mov	w10, 173
	str	w10, [x19,1744]
	.loc 1 3475 0
	mov	w10, 218
	str	w10, [x19,1748]
	.loc 1 3476 0
	mov	w10, 274
	str	w10, [x19,1752]
	.loc 1 3477 0
	mov	w10, 345
	str	w10, [x19,1756]
	.loc 1 3478 0
	mov	w10, 435
	str	w10, [x19,1760]
	.loc 1 3479 0
	mov	w10, 548
	str	w10, [x19,1764]
	.loc 1 3480 0
	mov	w10, 691
	str	w10, [x19,1768]
	.loc 1 3481 0
	mov	w10, 870
	str	w10, [x19,1772]
	.loc 1 3482 0
	mov	w10, 1097
	.loc 1 3450 0
	str	w6, [x19,1648]
	.loc 1 3451 0
	str	w2, [x19,1652]
	.loc 1 3452 0
	str	w2, [x19,1656]
	.loc 1 3453 0
	str	w2, [x19,1660]
	.loc 1 3456 0
	str	w6, [x19,1672]
	.loc 1 3457 0
	str	w6, [x19,1676]
	.loc 1 3458 0
	str	w4, [x19,1680]
	.loc 1 3459 0
	str	w13, [x19,1684]
	.loc 1 3460 0
	str	w8, [x19,1688]
	.loc 1 3482 0
	str	w10, [x19,1776]
	.loc 1 3483 0
	mov	w10, 1382
	.loc 1 3465 0
	str	w23, [x19,1708]
	.loc 1 3466 0
	str	w28, [x19,1712]
	.loc 1 3467 0
	str	w27, [x19,1716]
	.loc 1 3454 0
	str	w20, [x19,1664]
	.loc 1 3455 0
	str	w20, [x19,1668]
	.loc 1 3483 0
	str	w10, [x19,1780]
	.loc 1 3484 0
	mov	w10, 1741
	.loc 1 3499 0
	str	w6, [x19,1844]
	.loc 1 3500 0
	str	w6, [x19,1848]
	.loc 1 3501 0
	str	w6, [x19,1852]
	.loc 1 3510 0
	mov	w6, 9
	.loc 1 3484 0
	str	w10, [x19,1784]
	.loc 1 3485 0
	mov	w10, 2193
	.loc 1 3510 0
	str	w6, [x19,1888]
	.loc 1 3512 0
	mov	w6, 11
	.loc 1 3485 0
	str	w10, [x19,1788]
	.loc 1 3486 0
	mov	w10, 2763
	.loc 1 3512 0
	str	w6, [x19,1896]
	.loc 1 3514 0
	mov	w6, 14
	.loc 1 3486 0
	str	w10, [x19,1792]
	.loc 1 3487 0
	mov	w10, 3482
	.loc 1 3488 0
	str	w18, [x19,1800]
	.loc 1 3487 0
	str	w10, [x19,1796]
	.loc 1 3489 0
	str	w18, [x19,1804]
	.loc 1 3490 0
	str	w18, [x19,1808]
	.loc 1 3491 0
	str	w2, [x19,1812]
	.loc 1 3492 0
	str	w2, [x19,1816]
	.loc 1 3493 0
	str	w2, [x19,1820]
	.loc 1 3494 0
	str	w2, [x19,1824]
	.loc 1 3502 0
	str	w4, [x19,1856]
	.loc 1 3503 0
	str	w4, [x19,1860]
	.loc 1 3504 0
	str	w4, [x19,1864]
	.loc 1 3505 0
	str	w13, [x19,1868]
	.loc 1 3506 0
	str	w7, [x19,1872]
	.loc 1 3507 0
	str	w7, [x19,1876]
	.loc 1 3508 0
	str	w8, [x19,1880]
	.loc 1 3509 0
	str	w5, [x19,1884]
	.loc 1 3511 0
	str	w11, [x19,1892]
	.loc 1 3513 0
	str	w12, [x19,1900]
	.loc 1 3514 0
	str	w6, [x19,1904]
	.loc 1 3518 0
	mov	w6, 23
	.loc 1 3516 0
	str	w22, [x19,1912]
	.loc 1 3495 0
	str	w20, [x19,1828]
	.loc 1 3496 0
	str	w20, [x19,1832]
	.loc 1 3497 0
	str	w20, [x19,1836]
	.loc 1 3498 0
	str	w20, [x19,1840]
	.loc 1 3515 0
	str	w21, [x19,1908]
	.loc 1 3517 0
	str	w15, [x19,1916]
	.loc 1 3518 0
	str	w6, [x19,1920]
	.loc 1 3519 0
	mov	w6, 25
	str	w6, [x19,1924]
	.loc 1 3520 0
	mov	w6, 29
	str	w6, [x19,1928]
	.loc 1 3522 0
	mov	w6, 36
	str	w6, [x19,1936]
	.loc 1 3524 0
	mov	w6, 45
	str	w6, [x19,1944]
	.loc 1 3525 0
	mov	w6, 51
	str	w6, [x19,1948]
	.loc 1 3526 0
	mov	w6, 57
	str	w6, [x19,1952]
	.loc 1 3528 0
	mov	w6, 72
	str	w6, [x19,1960]
	.loc 1 3529 0
	mov	w6, 81
	str	w6, [x19,1964]
	.loc 1 3530 0
	mov	w6, 91
	str	w6, [x19,1968]
	.loc 1 3545 0
	mov	w6, 50
	.loc 1 3521 0
	str	w17, [x19,1932]
	.loc 1 3527 0
	str	w16, [x19,1956]
	.loc 1 3532 0
	str	w2, [x19,1976]
	.loc 1 3533 0
	str	w12, [x19,1980]
	.loc 1 3534 0
	str	w9, [x19,2128]
	.loc 1 3535 0
	str	w8, [x19,2124]
	.loc 1 3536 0
	str	w9, [x19,2276]
	.loc 1 3537 0
	str	w8, [x19,2272]
	.loc 1 3538 0
	str	w9, [x19,2424]
	.loc 1 3539 0
	str	w8, [x19,2420]
	.loc 1 3540 0
	str	w9, [x19,2572]
	.loc 1 3541 0
	str	w8, [x19,2568]
	.loc 1 3542 0
	str	w2, [x19,1408]
	.loc 1 3543 0
	str	w2, [x19,1412]
	.loc 1 3544 0
	str	w15, [x19,1416]
	.loc 1 3545 0
	str	w6, [x19,1420]
	.loc 1 3546 0
	mov	w6, 150
	.loc 1 3548 0
	str	w5, [x19,1432]
	.loc 1 3546 0
	str	w6, [x19,1424]
	.loc 1 3549 0
	str	w4, [x19,1436]
	.loc 1 3523 0
	str	w25, [x19,1940]
	.loc 1 3547 0
	str	w26, [x19,1428]
	.loc 1 3550 0
	str	w26, [x19,1440]
	.loc 1 3531 0
	str	wzr, [x19,1972]
	.loc 1 3551 0
	str	w5, [x19,1444]
	.loc 1 3552 0
	str	w4, [x19,1448]
	.loc 1 3554 0
	str	w4, [x19,1456]
	.loc 1 3556 0
	mov	w4, 135
	str	w4, [x19,1464]
	.loc 1 3557 0
	mov	w4, 160
	str	w4, [x19,1468]
	.loc 1 3558 0
	mov	w4, 100
	str	w4, [x19,1472]
	.loc 1 3559 0
	mov	w4, 127
	.loc 1 3555 0
	str	w7, [x19,1460]
	.loc 1 3559 0
	str	w4, [x19,1476]
	.loc 1 3580 0
	mov	w4, 1500
	.loc 1 3561 0
	str	w7, [x19,1484]
	.loc 1 3563 0
	str	w16, [x19,1492]
	.loc 1 3564 0
	str	w2, [x19,1496]
	.loc 1 3565 0
	str	w2, [x19,2576]
	.loc 1 3567 0
	str	w2, [x19,1508]
	.loc 1 3568 0
	str	w2, [x19,1512]
	.loc 1 3569 0
	str	w2, [x19,1516]
	.loc 1 3571 0
	str	w2, [x19,1520]
	.loc 1 3576 0
	str	w2, [x19,1540]
	.loc 1 3577 0
	str	w2, [x19,1544]
	.loc 1 3580 0
	str	w4, [x19,1556]
	.loc 1 3581 0
	str	w3, [x19,1560]
	.loc 1 3584 0
	str	w15, [x19,1572]
	.loc 1 3585 0
	str	w11, [x19,1576]
	.loc 1 3562 0
	str	w25, [x19,1488]
	.loc 1 3553 0
	str	w20, [x19,1452]
	.loc 1 3560 0
	str	wzr, [x19,1480]
	.loc 1 3566 0
	str	wzr, [x19,1504]
	.loc 1 3572 0
	str	wzr, [x19,1524]
	.loc 1 3573 0
	str	wzr, [x19,1528]
	.loc 1 3574 0
	str	wzr, [x19,1532]
	.loc 1 3575 0
	str	wzr, [x19,1536]
	.loc 1 3578 0
	str	wzr, [x19,1548]
	.loc 1 3579 0
	str	wzr, [x19,1552]
	.loc 1 3582 0
	str	wzr, [x19,1564]
	.loc 1 3583 0
	str	wzr, [x19,1568]
	.loc 1 3586 0
	str	w20, [x19,2756]
	.loc 1 3588 0
	str	w2, [x19,2764]
	.loc 1 3589 0
	str	w2, [x19,2768]
	.loc 1 3590 0
	str	w2, [x19,2772]
	.loc 1 3591 0
	str	w2, [x19,2776]
	.loc 1 3594 0
	str	w2, [x19,2788]
	.loc 1 3595 0
	str	w2, [x19,2792]
	.loc 1 3596 0
	str	w2, [x19,2796]
	.loc 1 3597 0
	str	w2, [x19,2800]
	.loc 1 3598 0
	mov	w2, 15743
	str	w2, [x19,2808]
	.loc 1 3599 0
	mov	w2, 4783
	str	w2, [x19,2804]
	.loc 1 3600 0
	mov	w2, 16364
	str	w2, [x19,2816]
	.loc 1 3601 0
	mov	w2, 16358
	str	w2, [x19,2812]
	.loc 1 3602 0
	mov	w2, 15573
	str	w2, [x19,2824]
	.loc 1 3603 0
	mov	w2, 4265
	str	w2, [x19,2820]
	.loc 1 3604 0
	mov	w2, 568
	str	w2, [x19,2832]
	.loc 1 3605 0
	mov	w2, 16259
	str	w2, [x19,2828]
	.loc 1 3606 0
	mov	w2, 15584
	str	w2, [x19,2840]
	.loc 1 3607 0
	mov	w2, 3855
	str	w2, [x19,2836]
	.loc 1 3608 0
	mov	w2, 1324
	str	w2, [x19,2848]
	.loc 1 3609 0
	mov	w2, 16101
	str	w2, [x19,2844]
	.loc 1 3610 0
	mov	w2, 15716
	str	w2, [x19,2856]
	.loc 1 3611 0
	mov	w2, 3058
	str	w2, [x19,2852]
	.loc 1 3612 0
	mov	w2, 2182
	str	w2, [x19,2864]
	.loc 1 3613 0
	mov	w2, 15937
	str	w2, [x19,2860]
	.loc 1 3614 0
	mov	w2, 16242
	str	w2, [x19,2872]
	.loc 1 3615 0
	mov	w2, 4059
	str	w2, [x19,2868]
	.loc 1 3616 0
	mov	w2, 183
	str	w2, [x19,2880]
	.loc 1 3617 0
	mov	w2, 16380
	str	w2, [x19,2876]
	.loc 1 3618 0
	mov	w2, 16074
	str	w2, [x19,2888]
	.loc 1 3619 0
	mov	w2, 3783
	.loc 1 3587 0
	str	w20, [x19,2760]
	.loc 1 3619 0
	str	w2, [x19,2884]
	.loc 1 3620 0
	mov	w2, 664
	.loc 1 3592 0
	str	w20, [x19,2780]
	.loc 1 3593 0
	str	w20, [x19,2784]
	.loc 1 3620 0
	str	w2, [x19,2896]
	.loc 1 3621 0
	mov	w2, 16344
	str	w2, [x19,2892]
	.loc 1 3622 0
	mov	w2, 16036
	str	w2, [x19,2904]
	.loc 1 3623 0
	mov	w2, 3286
	str	w2, [x19,2900]
	.loc 1 3624 0
	mov	w2, 1270
	str	w2, [x19,2912]
	.loc 1 3625 0
	mov	w2, 16262
	str	w2, [x19,2908]
	.loc 1 3626 0
	mov	w2, 16085
	str	w2, [x19,2920]
	.loc 1 3627 0
	mov	w2, 2649
	str	w2, [x19,2916]
	.loc 1 3628 0
	mov	w2, 1953
	str	w2, [x19,2928]
	.loc 1 3629 0
	mov	w2, 16177
	.loc 1 3630 0
	str	wzr, [x19,3060]
	.loc 1 3629 0
	str	w2, [x19,2924]
	.loc 1 3633 0
	mov	w2, 240
	.loc 1 3631 0
	str	w24, [x19,3064]
	.loc 1 3633 0
	str	w2, [x19,3072]
	.loc 1 3632 0
	str	w21, [x19,3068]
	.loc 1 3634 0
	str	w21, [x19,3076]
	.loc 1 3635 0
	bl	venc_drv_EflsetRGBtoYUVcoeff
.LVL142:
	.loc 1 3636 0
	str	w21, [x19,3140]
	.loc 1 3642 0
	ldr	w2, [x19,176]
	.loc 1 3640 0
	mov	w0, 38528
	.loc 1 3642 0
	ldr	w1, [x19,148]
	.loc 1 3640 0
	movk	w0, 0x98, lsl 16
	.loc 1 3637 0
	str	w24, [x19,3136]
	.loc 1 3642 0
	cmp	w2, w1
	.loc 1 3638 0
	str	wzr, [x19,3132]
	.loc 1 3639 0
	str	w20, [x19,2616]
	.loc 1 3640 0
	str	w0, [x19,2668]
	.loc 1 3642 0
	beq	.L141
	.loc 1 3644 0
	str	wzr, [x19,176]
	.loc 1 3645 0
	str	wzr, [x19,148]
.L141:
	.loc 1 3660 0
	mov	w2, 15
	.loc 1 3650 0
	mov	w1, 1
	.loc 1 3655 0
	mov	w5, 148
	.loc 1 3658 0
	mov	w4, 255
	.loc 1 3660 0
	str	w2, [x19,3156]
	.loc 1 3703 0
	mov	w3, 3
	.loc 1 3661 0
	str	w2, [x19,3160]
	.loc 1 3858 0
	mov	w0, 0
	.loc 1 3662 0
	str	w2, [x19,3164]
	.loc 1 3663 0
	str	w2, [x19,3168]
	.loc 1 3664 0
	str	w2, [x19,3172]
	.loc 1 3665 0
	str	w2, [x19,3176]
	.loc 1 3666 0
	str	w2, [x19,3180]
	.loc 1 3667 0
	str	w2, [x19,3184]
	.loc 1 3668 0
	str	w2, [x19,3188]
	.loc 1 3669 0
	str	w2, [x19,3192]
	.loc 1 3670 0
	str	w2, [x19,3196]
	.loc 1 3671 0
	str	w2, [x19,3200]
	.loc 1 3672 0
	str	w2, [x19,3204]
	.loc 1 3673 0
	str	w2, [x19,3208]
	.loc 1 3674 0
	str	w2, [x19,3212]
	.loc 1 3675 0
	str	w2, [x19,3216]
	.loc 1 3676 0
	str	w2, [x19,3220]
	.loc 1 3677 0
	str	w2, [x19,3224]
	.loc 1 3678 0
	str	w2, [x19,3228]
	.loc 1 3679 0
	str	w2, [x19,3232]
	.loc 1 3680 0
	str	w2, [x19,3236]
	.loc 1 3681 0
	str	w2, [x19,3240]
	.loc 1 3682 0
	str	w2, [x19,3244]
	.loc 1 3650 0
	str	w1, [x19,260]
	.loc 1 3651 0
	str	wzr, [x19,740]
	.loc 1 3652 0
	str	wzr, [x19,744]
	.loc 1 3653 0
	str	w1, [x19,920]
	.loc 1 3654 0
	str	w1, [x19,924]
	.loc 1 3655 0
	str	w5, [x19,1500]
	.loc 1 3656 0
	str	w5, [x19,2664]
	.loc 1 3657 0
	str	wzr, [x19,3144]
	.loc 1 3658 0
	str	w4, [x19,3148]
	.loc 1 3659 0
	str	w4, [x19,3152]
	.loc 1 3683 0
	str	w2, [x19,3248]
	.loc 1 3684 0
	str	w2, [x19,3252]
	.loc 1 3685 0
	str	w2, [x19,3256]
	.loc 1 3686 0
	str	w2, [x19,3260]
	.loc 1 3687 0
	str	w2, [x19,3264]
	.loc 1 3701 0
	mov	w2, 2
	.loc 1 3689 0
	str	wzr, [x19,2748]
	.loc 1 3690 0
	str	wzr, [x19,2752]
	.loc 1 3692 0
	str	wzr, [x19,96]
	.loc 1 3693 0
	str	wzr, [x19,100]
	.loc 1 3694 0
	str	wzr, [x19,104]
	.loc 1 3695 0
	str	wzr, [x19,108]
	.loc 1 3696 0
	str	wzr, [x19,112]
	.loc 1 3697 0
	str	wzr, [x19,116]
	.loc 1 3699 0
	str	wzr, [x19,2580]
	.loc 1 3700 0
	str	wzr, [x19,2584]
	.loc 1 3701 0
	str	w2, [x19,2592]
	.loc 1 3702 0
	str	wzr, [x19,2596]
	.loc 1 3703 0
	str	w3, [x19,2600]
	.loc 1 3704 0
	str	w3, [x19,2604]
	.loc 1 3705 0
	str	wzr, [x19,2608]
	.loc 1 3707 0
	str	wzr, [x19,2612]
	.loc 1 3708 0
	str	wzr, [x19,2620]
	.loc 1 3709 0
	str	wzr, [x19,2624]
	.loc 1 3710 0
	str	wzr, [x19,2628]
	.loc 1 3711 0
	str	wzr, [x19,2632]
	.loc 1 3712 0
	str	wzr, [x19,2636]
	.loc 1 3713 0
	str	wzr, [x19,2640]
	.loc 1 3714 0
	str	wzr, [x19,2644]
	.loc 1 3715 0
	str	wzr, [x19,2648]
	.loc 1 3716 0
	str	wzr, [x19,2652]
	.loc 1 3717 0
	str	wzr, [x19,2656]
	.loc 1 3718 0
	str	wzr, [x19,2660]
	.loc 1 3720 0
	str	wzr, [x19,2672]
	.loc 1 3721 0
	str	wzr, [x19,2676]
	.loc 1 3723 0
	str	wzr, [x19,2704]
	.loc 1 3724 0
	str	wzr, [x19,2708]
	.loc 1 3725 0
	str	wzr, [x19,2712]
	.loc 1 3726 0
	str	wzr, [x19,2716]
	.loc 1 3727 0
	str	wzr, [x19,2720]
	.loc 1 3728 0
	str	wzr, [x19,2724]
	.loc 1 3729 0
	str	wzr, [x19,2728]
	.loc 1 3730 0
	str	wzr, [x19,2732]
	.loc 1 3731 0
	str	wzr, [x19,2736]
	.loc 1 3732 0
	str	wzr, [x19,2740]
	.loc 1 3733 0
	str	wzr, [x19,2744]
	.loc 1 3735 0
	str	wzr, [x19,2932]
	.loc 1 3736 0
	str	wzr, [x19,2936]
	.loc 1 3737 0
	str	wzr, [x19,2940]
	.loc 1 3738 0
	str	wzr, [x19,2944]
	.loc 1 3739 0
	str	wzr, [x19,2948]
	.loc 1 3740 0
	str	wzr, [x19,2952]
	.loc 1 3741 0
	str	wzr, [x19,2956]
	.loc 1 3742 0
	str	wzr, [x19,2960]
	.loc 1 3743 0
	str	wzr, [x19,2964]
	.loc 1 3744 0
	str	wzr, [x19,2968]
	.loc 1 3745 0
	str	wzr, [x19,2972]
	.loc 1 3746 0
	str	wzr, [x19,2976]
	.loc 1 3747 0
	str	wzr, [x19,2980]
	.loc 1 3748 0
	str	wzr, [x19,2984]
	.loc 1 3749 0
	str	wzr, [x19,2988]
	.loc 1 3750 0
	str	wzr, [x19,2992]
	.loc 1 3751 0
	str	wzr, [x19,2996]
	.loc 1 3752 0
	str	wzr, [x19,3000]
	.loc 1 3753 0
	str	wzr, [x19,3004]
	.loc 1 3754 0
	str	wzr, [x19,3008]
	.loc 1 3755 0
	str	wzr, [x19,3012]
	.loc 1 3756 0
	str	wzr, [x19,3016]
	.loc 1 3757 0
	str	wzr, [x19,3020]
	.loc 1 3758 0
	str	wzr, [x19,3024]
	.loc 1 3759 0
	str	wzr, [x19,3028]
	.loc 1 3760 0
	str	wzr, [x19,3032]
	.loc 1 3761 0
	str	wzr, [x19,3036]
	.loc 1 3762 0
	str	wzr, [x19,3040]
	.loc 1 3763 0
	str	wzr, [x19,3044]
	.loc 1 3764 0
	str	wzr, [x19,3048]
	.loc 1 3765 0
	str	wzr, [x19,3052]
	.loc 1 3766 0
	str	wzr, [x19,3056]
	.loc 1 3769 0
	str	w3, [x19,3272]
	.loc 1 3770 0
	str	wzr, [x19,3276]
	.loc 1 3771 0
	str	wzr, [x19,3280]
	.loc 1 3772 0
	str	wzr, [x19,3284]
	.loc 1 3773 0
	str	w1, [x19,3288]
	.loc 1 3774 0
	str	w1, [x19,3292]
	.loc 1 3775 0
	str	w1, [x19,3296]
	.loc 1 3776 0
	str	w1, [x19,3300]
	.loc 1 3777 0
	str	w1, [x19,3304]
	.loc 1 3779 0
	str	wzr, [x19,3308]
	.loc 1 3780 0
	str	wzr, [x19,3388]
	.loc 1 3781 0
	str	wzr, [x19,3392]
	.loc 1 3782 0
	str	wzr, [x19,3396]
	.loc 1 3783 0
	str	wzr, [x19,3400]
	.loc 1 3784 0
	str	wzr, [x19,3404]
	.loc 1 3785 0
	str	wzr, [x19,3408]
	.loc 1 3786 0
	str	wzr, [x19,3440]
	.loc 1 3789 0
	str	w1, [x19,4908]
	.loc 1 3790 0
	str	w1, [x19,4920]
	.loc 1 3791 0
	str	w1, [x19,4932]
	.loc 1 3792 0
	str	w1, [x19,4944]
	.loc 1 3793 0
	str	w1, [x19,4956]
	.loc 1 3794 0
	str	w1, [x19,4968]
	.loc 1 3795 0
	str	w1, [x19,4980]
	.loc 1 3796 0
	str	w1, [x19,4992]
	.loc 1 3797 0
	str	w1, [x19,5004]
	.loc 1 3798 0
	str	w1, [x19,5016]
	.loc 1 3799 0
	str	w1, [x19,5028]
	.loc 1 3800 0
	str	w1, [x19,5040]
	.loc 1 3801 0
	str	w1, [x19,5052]
	.loc 1 3802 0
	str	w1, [x19,5064]
	.loc 1 3803 0
	str	w1, [x19,5076]
	.loc 1 3804 0
	str	w1, [x19,5088]
	.loc 1 3805 0
	str	w1, [x19,5100]
	.loc 1 3806 0
	str	w1, [x19,5112]
	.loc 1 3807 0
	str	wzr, [x19,5872]
	.loc 1 3808 0
	str	wzr, [x19,5876]
	.loc 1 3809 0
	str	wzr, [x19,5880]
	.loc 1 3810 0
	str	wzr, [x19,5884]
	.loc 1 3811 0
	str	wzr, [x19,5888]
	.loc 1 3812 0
	str	wzr, [x19,5892]
	.loc 1 3815 0
	str	wzr, [x19,5972]
	.loc 1 3817 0
	str	wzr, [x19,3736]
	.loc 1 3818 0
	str	wzr, [x19,3752]
	.loc 1 3819 0
	str	wzr, [x19,3768]
	.loc 1 3820 0
	str	wzr, [x19,3784]
	.loc 1 3821 0
	str	wzr, [x19,3800]
	.loc 1 3822 0
	str	wzr, [x19,3816]
	.loc 1 3823 0
	str	wzr, [x19,3832]
	.loc 1 3824 0
	str	wzr, [x19,3848]
	.loc 1 3825 0
	str	wzr, [x19,3864]
	.loc 1 3826 0
	str	wzr, [x19,3880]
	.loc 1 3827 0
	str	wzr, [x19,3896]
	.loc 1 3828 0
	str	wzr, [x19,3912]
	.loc 1 3829 0
	str	wzr, [x19,3928]
	.loc 1 3830 0
	str	wzr, [x19,3944]
	.loc 1 3831 0
	str	wzr, [x19,3960]
	.loc 1 3832 0
	str	wzr, [x19,3976]
	.loc 1 3833 0
	str	wzr, [x19,3992]
	.loc 1 3834 0
	str	wzr, [x19,4008]
	.loc 1 3835 0
	str	wzr, [x19,6028]
	.loc 1 3836 0
	str	wzr, [x19,6024]
	.loc 1 3837 0
	str	wzr, [x19,6020]
	.loc 1 3838 0
	str	wzr, [x19,6016]
	.loc 1 3839 0
	str	wzr, [x19,6012]
	.loc 1 3840 0
	str	wzr, [x19,6008]
	.loc 1 3841 0
	str	wzr, [x19,6004]
	.loc 1 3842 0
	str	wzr, [x19,6000]
	.loc 1 3843 0
	str	wzr, [x19,5996]
	.loc 1 3844 0
	str	wzr, [x19,5992]
	.loc 1 3845 0
	str	wzr, [x19,5988]
	.loc 1 3846 0
	str	wzr, [x19,5984]
	.loc 1 3847 0
	str	wzr, [x19,5980]
	.loc 1 3848 0
	str	wzr, [x19,5976]
	.loc 1 3849 0
	str	wzr, [x19,6228]
	.loc 1 3850 0
	str	wzr, [x19,6224]
	.loc 1 3851 0
	str	wzr, [x19,6220]
	.loc 1 3852 0
	str	wzr, [x19,6216]
	.loc 1 3854 0
	str	w1, [x19,5968]
	.loc 1 3856 0
	str	w1, [x19,928]
.LVL143:
.L140:
	.loc 1 3859 0
	ldp	x19, x20, [sp,16]
	.cfi_remember_state
	.cfi_restore 20
	.cfi_restore 19
.LVL144:
	ldp	x21, x22, [sp,32]
	.cfi_restore 22
	.cfi_restore 21
.LVL145:
	ldp	x23, x24, [sp,48]
	.cfi_restore 24
	.cfi_restore 23
	ldp	x25, x26, [sp,64]
	.cfi_restore 26
	.cfi_restore 25
	ldp	x27, x28, [sp,80]
	.cfi_restore 28
	.cfi_restore 27
	ldp	x29, x30, [sp], 96
	.cfi_restore 30
	.cfi_restore 29
	.cfi_def_cfa 31, 0
	ret
.LVL146:
.L142:
	.cfi_restore_state
	.loc 1 3095 0
	mov	w0, -1
.LVL147:
	b	.L140
	.cfi_endproc
.LFE2767:
	.size	VENC_DRV_EflInitEncParaCfgH264_LowPwr0, .-VENC_DRV_EflInitEncParaCfgH264_LowPwr0
	.align	2
	.global	VENC_DRV_EflInitEncParaCfgH264_LowPwr1
	.type	VENC_DRV_EflInitEncParaCfgH264_LowPwr1, %function
VENC_DRV_EflInitEncParaCfgH264_LowPwr1:
.LFB2768:
	.loc 1 3862 0
	.cfi_startproc
.LVL148:
	stp	x29, x30, [sp, -96]!
	.cfi_def_cfa_offset 96
	.cfi_offset 29, -96
	.cfi_offset 30, -88
	add	x29, sp, 0
	.cfi_def_cfa_register 29
	stp	x21, x22, [sp,32]
	.cfi_offset 21, -64
	.cfi_offset 22, -56
	mov	x22, x0
	.loc 1 3863 0
	mov	x0, 6808
.LVL149:
	.loc 1 3862 0
	stp	x19, x20, [sp,16]
	stp	x23, x24, [sp,48]
	stp	x25, x26, [sp,64]
	stp	x27, x28, [sp,80]
	.cfi_offset 19, -80
	.cfi_offset 20, -72
	.cfi_offset 23, -48
	.cfi_offset 24, -40
	.cfi_offset 25, -32
	.cfi_offset 26, -24
	.cfi_offset 27, -16
	.cfi_offset 28, -8
	.loc 1 3863 0
	bl	vmalloc
.LVL150:
	mov	x19, x0
.LVL151:
	.loc 1 3864 0
	cbz	x0, .L146
	.loc 1 3868 0
	mov	w1, 0
	mov	x2, 6808
	.loc 1 3930 0
	mov	w20, 2
	.loc 1 4156 0
	mov	w21, 16
	.loc 1 3868 0
	bl	memset
.LVL152:
	.loc 1 3869 0
	str	x19, [x22]
	.loc 1 3873 0
	mov	w2, 1
	.loc 1 3874 0
	mov	w13, 15
	.loc 1 3871 0
	mov	w1, 720
	.loc 1 3872 0
	mov	w0, 1280
	.loc 1 3906 0
	str	w2, [x19,176]
	.loc 1 3942 0
	mov	w8, 7
	.loc 1 3876 0
	str	w13, [x19,808]
	.loc 1 3925 0
	mov	w9, -1
	.loc 1 3871 0
	str	w1, [x19,796]
	.loc 1 3921 0
	mov	w18, 22
	.loc 1 3874 0
	str	w13, [x19,816]
	.loc 1 3920 0
	mov	w17, 23
	.loc 1 3872 0
	str	w0, [x19,800]
	.loc 1 3946 0
	mov	w6, 3
	.loc 1 3873 0
	str	w2, [x19,812]
	.loc 1 4046 0
	mov	w30, 256
	.loc 1 3875 0
	str	w2, [x19,156]
	.loc 1 4020 0
	mov	w4, 4096
	.loc 1 3877 0
	str	w13, [x19,804]
	.loc 1 4046 0
	movk	w30, 0xa600, lsl 16
	.loc 1 3879 0
	str	w2, [x19,172]
	.loc 1 4069 0
	mov	w3, 4
	.loc 1 3880 0
	str	w2, [x19,180]
	.loc 1 4073 0
	mov	w5, 8
	.loc 1 3881 0
	str	w2, [x19,184]
	.loc 1 4067 0
	mov	w12, 9
	.loc 1 3882 0
	str	w2, [x19,188]
	.loc 1 4075 0
	mov	w11, 13
	.loc 1 3883 0
	str	w2, [x19,192]
	.loc 1 4155 0
	mov	w7, 6
	.loc 1 3891 0
	str	w2, [x19,72]
	.loc 1 4150 0
	mov	w10, 255
	.loc 1 3897 0
	str	w2, [x19,84]
	.loc 1 4152 0
	mov	w15, 64
	.loc 1 3907 0
	str	w2, [x19,148]
	.loc 1 4154 0
	mov	w16, 32
	.loc 1 3904 0
	str	wzr, [x19,152]
	.loc 1 4211 0
	mov	w14, 27
	.loc 1 3909 0
	str	wzr, [x19,824]
	.loc 1 4210 0
	mov	w28, 34
	.loc 1 3902 0
	str	wzr, [x19,132]
	.loc 1 4227 0
	mov	w27, 5
	.loc 1 3903 0
	str	wzr, [x19,136]
	.loc 1 4285 0
	mov	w26, 20
	.loc 1 3900 0
	str	wzr, [x19,124]
	.loc 1 4291 0
	mov	w24, 40
	.loc 1 3901 0
	str	wzr, [x19,128]
	.loc 1 4315 0
	mov	w25, 12
	.loc 1 3893 0
	str	wzr, [x19,80]
	.loc 1 4399 0
	mov	w23, 235
	.loc 1 3899 0
	str	wzr, [x19,120]
	.loc 1 3890 0
	str	wzr, [x19,68]
	.loc 1 3892 0
	str	wzr, [x19,76]
	.loc 1 3888 0
	str	wzr, [x19,60]
	.loc 1 3889 0
	str	wzr, [x19,64]
	.loc 1 3887 0
	str	wzr, [x19,56]
	.loc 1 3884 0
	str	wzr, [x19,140]
	.loc 1 3885 0
	str	wzr, [x19,144]
	.loc 1 3878 0
	str	wzr, [x19,164]
	.loc 1 3910 0
	str	wzr, [x19,832]
	.loc 1 3914 0
	str	w2, [x19,200]
	.loc 1 3919 0
	str	w2, [x19,220]
	.loc 1 3920 0
	str	w17, [x19,224]
	.loc 1 4256 0
	mov	w17, 4095
	.loc 1 3921 0
	str	w18, [x19,228]
	.loc 1 3925 0
	str	w9, [x19,244]
	.loc 1 3929 0
	str	w2, [x19,264]
	.loc 1 3931 0
	str	w2, [x19,272]
	.loc 1 3932 0
	str	w2, [x19,276]
	.loc 1 3933 0
	str	w2, [x19,280]
	.loc 1 3934 0
	str	w2, [x19,284]
	.loc 1 3935 0
	str	w2, [x19,288]
	.loc 1 3936 0
	str	w2, [x19,292]
	.loc 1 3937 0
	str	w1, [x19,296]
	.loc 1 4403 0
	mov	w1, 0
	.loc 1 3938 0
	str	w0, [x19,300]
	.loc 1 3943 0
	mov	w0, 31
	.loc 1 3941 0
	str	w9, [x19,312]
	.loc 1 3942 0
	str	w8, [x19,316]
	.loc 1 3943 0
	str	w0, [x19,320]
	.loc 1 4403 0
	mov	x0, x22
	.loc 1 3944 0
	str	w2, [x19,324]
	.loc 1 4015 0
	mov	w22, -1879048192
.LVL153:
	.loc 1 3911 0
	str	wzr, [x19,1196]
	.loc 1 3913 0
	str	wzr, [x19,196]
	.loc 1 3915 0
	str	wzr, [x19,204]
	.loc 1 3916 0
	str	wzr, [x19,208]
	.loc 1 3917 0
	str	wzr, [x19,212]
	.loc 1 3918 0
	str	wzr, [x19,216]
	.loc 1 3922 0
	str	wzr, [x19,232]
	.loc 1 3923 0
	str	wzr, [x19,236]
	.loc 1 3924 0
	str	wzr, [x19,240]
	.loc 1 3926 0
	str	wzr, [x19,248]
	.loc 1 3927 0
	str	wzr, [x19,252]
	.loc 1 3928 0
	str	wzr, [x19,256]
	.loc 1 3930 0
	str	w20, [x19,268]
	.loc 1 3939 0
	str	wzr, [x19,304]
	.loc 1 3940 0
	str	wzr, [x19,308]
	.loc 1 3945 0
	str	w20, [x19,328]
	.loc 1 3946 0
	str	w6, [x19,332]
	.loc 1 3947 0
	str	w2, [x19,336]
	.loc 1 3948 0
	str	w2, [x19,340]
	.loc 1 3949 0
	str	wzr, [x19,348]
	.loc 1 3950 0
	str	wzr, [x19,352]
	.loc 1 3951 0
	str	wzr, [x19,356]
	.loc 1 3952 0
	str	wzr, [x19,360]
	.loc 1 3953 0
	str	wzr, [x19,364]
	.loc 1 3954 0
	str	wzr, [x19,368]
	.loc 1 3955 0
	str	wzr, [x19,372]
	.loc 1 3956 0
	str	wzr, [x19,376]
	.loc 1 3957 0
	str	wzr, [x19,380]
	.loc 1 3958 0
	str	wzr, [x19,384]
	.loc 1 3959 0
	str	wzr, [x19,388]
	.loc 1 3960 0
	str	wzr, [x19,392]
	.loc 1 3961 0
	str	wzr, [x19,396]
	.loc 1 3962 0
	str	wzr, [x19,400]
	.loc 1 3963 0
	str	wzr, [x19,404]
	.loc 1 3964 0
	str	wzr, [x19,408]
	.loc 1 3965 0
	str	wzr, [x19,412]
	.loc 1 3966 0
	str	wzr, [x19,420]
	.loc 1 3967 0
	str	wzr, [x19,416]
	.loc 1 3968 0
	str	wzr, [x19,424]
	.loc 1 3969 0
	str	wzr, [x19,428]
	.loc 1 3970 0
	str	wzr, [x19,432]
	.loc 1 3971 0
	str	wzr, [x19,436]
	.loc 1 3972 0
	str	wzr, [x19,440]
	.loc 1 3973 0
	str	wzr, [x19,444]
	.loc 1 3974 0
	str	wzr, [x19,448]
	.loc 1 3975 0
	str	wzr, [x19,452]
	.loc 1 3976 0
	str	wzr, [x19,456]
	.loc 1 3977 0
	str	wzr, [x19,460]
	.loc 1 3978 0
	str	wzr, [x19,464]
	.loc 1 3979 0
	str	wzr, [x19,468]
	.loc 1 3980 0
	str	wzr, [x19,472]
	.loc 1 3981 0
	str	wzr, [x19,476]
	.loc 1 3982 0
	str	wzr, [x19,480]
	.loc 1 3983 0
	str	wzr, [x19,484]
	.loc 1 3984 0
	str	wzr, [x19,488]
	.loc 1 3985 0
	str	wzr, [x19,492]
	.loc 1 3986 0
	str	wzr, [x19,496]
	.loc 1 3987 0
	str	wzr, [x19,500]
	.loc 1 3988 0
	str	wzr, [x19,504]
	.loc 1 3989 0
	str	wzr, [x19,508]
	.loc 1 3990 0
	str	wzr, [x19,512]
	.loc 1 3991 0
	str	wzr, [x19,516]
	.loc 1 3992 0
	str	wzr, [x19,520]
	.loc 1 3993 0
	str	wzr, [x19,524]
	.loc 1 3994 0
	str	wzr, [x19,528]
	.loc 1 3995 0
	str	wzr, [x19,532]
	.loc 1 3996 0
	str	wzr, [x19,536]
	.loc 1 3997 0
	str	wzr, [x19,540]
	.loc 1 3998 0
	str	wzr, [x19,544]
	.loc 1 3999 0
	str	wzr, [x19,548]
	.loc 1 4000 0
	str	wzr, [x19,552]
	.loc 1 4001 0
	str	wzr, [x19,556]
	.loc 1 4002 0
	str	wzr, [x19,560]
	.loc 1 4003 0
	str	wzr, [x19,564]
	.loc 1 4004 0
	str	wzr, [x19,568]
	.loc 1 4005 0
	str	wzr, [x19,572]
	.loc 1 4006 0
	str	wzr, [x19,576]
	.loc 1 4007 0
	str	wzr, [x19,580]
	.loc 1 4008 0
	str	wzr, [x19,584]
	.loc 1 4009 0
	str	wzr, [x19,588]
	.loc 1 4010 0
	str	wzr, [x19,592]
	.loc 1 4011 0
	str	wzr, [x19,596]
	.loc 1 4012 0
	str	wzr, [x19,600]
	.loc 1 4013 0
	str	wzr, [x19,604]
	.loc 1 4015 0
	str	w22, [x19,612]
	.loc 1 4016 0
	mov	w22, -1811939328
	str	w22, [x19,616]
	.loc 1 4017 0
	mov	w22, -1795162112
	str	w22, [x19,620]
	.loc 1 4018 0
	mov	w22, -1473249280
	str	w22, [x19,624]
	.loc 1 4019 0
	add	w22, w22, 131072
	str	w22, [x19,628]
	.loc 1 4024 0
	mov	w22, -1778384896
	str	w22, [x19,648]
	.loc 1 4025 0
	mov	w22, -1711276032
	str	w22, [x19,652]
	.loc 1 4028 0
	mov	w22, -1472987136
	str	w22, [x19,664]
	.loc 1 4029 0
	add	w22, w22, 1048576
	str	w22, [x19,668]
	.loc 1 4031 0
	mov	w22, -1677721600
	str	w22, [x19,676]
	.loc 1 4032 0
	mov	w22, -1610612736
	str	w22, [x19,680]
	.loc 1 4035 0
	mov	w22, -1470889984
	str	w22, [x19,692]
	.loc 1 4036 0
	add	w22, w22, 1048576
	str	w22, [x19,696]
	.loc 1 4039 0
	mov	w22, -1490026496
	str	w22, [x19,708]
	.loc 1 4040 0
	mov	w22, -1506803712
	str	w22, [x19,712]
	.loc 1 4041 0
	add	w22, w22, 1048576
	str	w22, [x19,716]
	.loc 1 4042 0
	mov	w22, -1508900864
	str	w22, [x19,720]
	.loc 1 4043 0
	add	w22, w22, 1048576
	str	w22, [x19,724]
	.loc 1 4044 0
	mov	w22, -1577058304
	str	w22, [x19,728]
	.loc 1 4045 0
	mov	w22, -1509949440
	.loc 1 4020 0
	str	w4, [x19,632]
	.loc 1 4021 0
	str	w4, [x19,636]
	.loc 1 4022 0
	str	w4, [x19,640]
	.loc 1 4023 0
	str	w4, [x19,644]
	.loc 1 4026 0
	str	w4, [x19,656]
	.loc 1 4027 0
	str	w4, [x19,660]
	.loc 1 4030 0
	str	w4, [x19,672]
	.loc 1 4033 0
	str	w4, [x19,684]
	.loc 1 4034 0
	str	w4, [x19,688]
	.loc 1 4037 0
	str	w4, [x19,700]
	.loc 1 4038 0
	str	w4, [x19,704]
	.loc 1 4045 0
	str	w22, [x19,732]
	.loc 1 4065 0
	mov	w22, 1800
	.loc 1 4046 0
	str	w30, [x19,736]
	.loc 1 4014 0
	str	wzr, [x19,608]
	.loc 1 4047 0
	str	wzr, [x19,748]
	.loc 1 4061 0
	str	w2, [x19,836]
	.loc 1 4062 0
	str	w2, [x19,848]
	.loc 1 4065 0
	str	w22, [x19,856]
	.loc 1 4066 0
	mov	w22, 2500
	.loc 1 4067 0
	str	w12, [x19,872]
	.loc 1 4066 0
	str	w22, [x19,852]
	.loc 1 4201 0
	mov	w22, 51
	.loc 1 4068 0
	str	w12, [x19,868]
	.loc 1 4069 0
	str	w3, [x19,864]
	.loc 1 4070 0
	str	w3, [x19,860]
	.loc 1 4073 0
	str	w5, [x19,888]
	.loc 1 4074 0
	str	w5, [x19,884]
	.loc 1 4075 0
	str	w11, [x19,896]
	.loc 1 4076 0
	str	w11, [x19,892]
	.loc 1 4077 0
	str	w3, [x19,904]
	.loc 1 4078 0
	str	w3, [x19,900]
	.loc 1 4079 0
	str	w2, [x19,916]
	.loc 1 4080 0
	str	w2, [x19,912]
	.loc 1 4048 0
	str	wzr, [x19,752]
	.loc 1 4049 0
	str	wzr, [x19,756]
	.loc 1 4050 0
	str	wzr, [x19,760]
	.loc 1 4051 0
	str	wzr, [x19,764]
	.loc 1 4052 0
	str	wzr, [x19,768]
	.loc 1 4053 0
	str	wzr, [x19,772]
	.loc 1 4054 0
	str	wzr, [x19,776]
	.loc 1 4055 0
	str	wzr, [x19,780]
	.loc 1 4056 0
	str	wzr, [x19,784]
	.loc 1 4057 0
	str	wzr, [x19,788]
	.loc 1 4058 0
	str	wzr, [x19,792]
	.loc 1 4059 0
	str	wzr, [x19,820]
	.loc 1 4060 0
	str	wzr, [x19,828]
	.loc 1 4063 0
	str	wzr, [x19,844]
	.loc 1 4064 0
	str	wzr, [x19,840]
	.loc 1 4071 0
	str	w20, [x19,880]
	.loc 1 4072 0
	str	w20, [x19,876]
	.loc 1 4081 0
	str	w2, [x19,908]
	.loc 1 4090 0
	str	w2, [x19,960]
	.loc 1 4082 0
	str	wzr, [x19,344]
	.loc 1 4083 0
	str	wzr, [x19,932]
	.loc 1 4084 0
	str	wzr, [x19,936]
	.loc 1 4085 0
	str	wzr, [x19,940]
	.loc 1 4086 0
	str	wzr, [x19,944]
	.loc 1 4087 0
	str	wzr, [x19,948]
	.loc 1 4088 0
	str	wzr, [x19,952]
	.loc 1 4089 0
	str	wzr, [x19,956]
	.loc 1 4091 0
	str	wzr, [x19,964]
	.loc 1 4092 0
	str	wzr, [x19,968]
	.loc 1 4093 0
	str	wzr, [x19,972]
	.loc 1 4094 0
	str	wzr, [x19,976]
	.loc 1 4095 0
	str	wzr, [x19,980]
	.loc 1 4096 0
	str	wzr, [x19,984]
	.loc 1 4097 0
	str	wzr, [x19,988]
	.loc 1 4098 0
	str	wzr, [x19,992]
	.loc 1 4099 0
	str	wzr, [x19,996]
	.loc 1 4100 0
	str	wzr, [x19,1000]
	.loc 1 4101 0
	str	wzr, [x19,1004]
	.loc 1 4102 0
	str	wzr, [x19,1008]
	.loc 1 4103 0
	str	wzr, [x19,1012]
	.loc 1 4104 0
	str	wzr, [x19,1016]
	.loc 1 4105 0
	str	wzr, [x19,1020]
	.loc 1 4106 0
	str	wzr, [x19,1024]
	.loc 1 4107 0
	str	wzr, [x19,1040]
	.loc 1 4108 0
	str	wzr, [x19,1036]
	.loc 1 4109 0
	str	wzr, [x19,1032]
	.loc 1 4110 0
	str	wzr, [x19,1028]
	.loc 1 4111 0
	str	wzr, [x19,1056]
	.loc 1 4112 0
	str	wzr, [x19,1052]
	.loc 1 4113 0
	str	wzr, [x19,1048]
	.loc 1 4114 0
	str	wzr, [x19,1044]
	.loc 1 4115 0
	str	wzr, [x19,1060]
	.loc 1 4116 0
	str	wzr, [x19,1064]
	.loc 1 4117 0
	str	wzr, [x19,1068]
	.loc 1 4118 0
	str	wzr, [x19,1072]
	.loc 1 4119 0
	str	wzr, [x19,1076]
	.loc 1 4120 0
	str	wzr, [x19,1080]
	.loc 1 4121 0
	str	wzr, [x19,1084]
	.loc 1 4122 0
	str	wzr, [x19,1088]
	.loc 1 4123 0
	str	wzr, [x19,1092]
	.loc 1 4124 0
	str	wzr, [x19,1096]
	.loc 1 4125 0
	str	wzr, [x19,1100]
	.loc 1 4126 0
	str	wzr, [x19,1104]
	.loc 1 4127 0
	str	wzr, [x19,1108]
	.loc 1 4128 0
	str	wzr, [x19,1112]
	.loc 1 4129 0
	str	wzr, [x19,1116]
	.loc 1 4130 0
	str	wzr, [x19,1120]
	.loc 1 4131 0
	str	wzr, [x19,1124]
	.loc 1 4132 0
	str	wzr, [x19,1128]
	.loc 1 4133 0
	str	wzr, [x19,1132]
	.loc 1 4134 0
	str	wzr, [x19,1136]
	.loc 1 4135 0
	str	wzr, [x19,1140]
	.loc 1 4136 0
	str	wzr, [x19,1144]
	.loc 1 4137 0
	str	wzr, [x19,1148]
	.loc 1 4138 0
	str	wzr, [x19,1152]
	.loc 1 4139 0
	str	wzr, [x19,1156]
	.loc 1 4140 0
	str	wzr, [x19,1160]
	.loc 1 4141 0
	str	wzr, [x19,1164]
	.loc 1 4142 0
	str	wzr, [x19,1168]
	.loc 1 4143 0
	str	wzr, [x19,1172]
	.loc 1 4144 0
	str	wzr, [x19,1176]
	.loc 1 4145 0
	str	wzr, [x19,1180]
	.loc 1 4146 0
	str	wzr, [x19,1184]
	.loc 1 4147 0
	str	wzr, [x19,1188]
	.loc 1 4148 0
	str	wzr, [x19,1192]
	.loc 1 4149 0
	str	w3, [x19,1200]
	.loc 1 4150 0
	str	w10, [x19,1204]
	.loc 1 4151 0
	str	w6, [x19,1208]
	.loc 1 4152 0
	str	w15, [x19,1212]
	.loc 1 4153 0
	str	w5, [x19,1216]
	.loc 1 4154 0
	str	w16, [x19,1220]
	.loc 1 4155 0
	str	w7, [x19,1224]
	.loc 1 4157 0
	str	w5, [x19,1232]
	.loc 1 4159 0
	str	w7, [x19,1240]
	.loc 1 4160 0
	str	w5, [x19,1244]
	.loc 1 4161 0
	str	w5, [x19,1248]
	.loc 1 4162 0
	str	w16, [x19,1252]
	.loc 1 4163 0
	str	w7, [x19,1256]
	.loc 1 4156 0
	str	w21, [x19,1228]
	.loc 1 4158 0
	str	w21, [x19,1236]
	.loc 1 4164 0
	str	w21, [x19,1260]
	.loc 1 4165 0
	str	wzr, [x19,1264]
	.loc 1 4166 0
	str	wzr, [x19,1268]
	.loc 1 4167 0
	str	wzr, [x19,1272]
	.loc 1 4168 0
	str	wzr, [x19,1276]
	.loc 1 4169 0
	str	wzr, [x19,1280]
	.loc 1 4170 0
	str	wzr, [x19,1284]
	.loc 1 4171 0
	str	wzr, [x19,1288]
	.loc 1 4172 0
	str	wzr, [x19,1292]
	.loc 1 4173 0
	str	wzr, [x19,1296]
	.loc 1 4174 0
	str	wzr, [x19,1300]
	.loc 1 4175 0
	str	wzr, [x19,1304]
	.loc 1 4176 0
	str	wzr, [x19,1308]
	.loc 1 4177 0
	str	wzr, [x19,1312]
	.loc 1 4178 0
	str	wzr, [x19,1316]
	.loc 1 4179 0
	str	wzr, [x19,1320]
	.loc 1 4180 0
	str	wzr, [x19,1324]
	.loc 1 4181 0
	str	wzr, [x19,1328]
	.loc 1 4182 0
	str	wzr, [x19,1332]
	.loc 1 4183 0
	str	wzr, [x19,1336]
	.loc 1 4201 0
	str	w22, [x19,1580]
	.loc 1 4203 0
	mov	w22, 100
	.loc 1 4204 0
	str	w3, [x19,1592]
	.loc 1 4203 0
	str	w22, [x19,1588]
	.loc 1 4205 0
	mov	w22, 18
	.loc 1 4206 0
	str	w13, [x19,1600]
	.loc 1 4209 0
	mov	w13, 44
	.loc 1 4207 0
	str	w3, [x19,1604]
	.loc 1 4208 0
	str	w2, [x19,1608]
	.loc 1 4209 0
	str	w13, [x19,1612]
	.loc 1 4211 0
	str	w14, [x19,1620]
	.loc 1 4212 0
	str	w18, [x19,1624]
	.loc 1 4213 0
	str	w10, [x19,1628]
	.loc 1 4214 0
	str	w10, [x19,1632]
	.loc 1 4215 0
	str	w10, [x19,1636]
	.loc 1 4216 0
	str	w10, [x19,1640]
	.loc 1 4230 0
	mov	w10, 11
	.loc 1 4205 0
	str	w22, [x19,1596]
	.loc 1 4210 0
	str	w28, [x19,1616]
	.loc 1 4184 0
	str	wzr, [x19,1340]
	.loc 1 4185 0
	str	wzr, [x19,1344]
	.loc 1 4186 0
	str	wzr, [x19,1348]
	.loc 1 4187 0
	str	wzr, [x19,1352]
	.loc 1 4188 0
	str	wzr, [x19,1356]
	.loc 1 4189 0
	str	wzr, [x19,1360]
	.loc 1 4190 0
	str	wzr, [x19,1364]
	.loc 1 4191 0
	str	wzr, [x19,1368]
	.loc 1 4192 0
	str	wzr, [x19,1372]
	.loc 1 4193 0
	str	wzr, [x19,1376]
	.loc 1 4194 0
	str	wzr, [x19,1380]
	.loc 1 4195 0
	str	wzr, [x19,1384]
	.loc 1 4196 0
	str	wzr, [x19,1388]
	.loc 1 4197 0
	str	wzr, [x19,1392]
	.loc 1 4198 0
	str	wzr, [x19,1396]
	.loc 1 4199 0
	str	wzr, [x19,1400]
	.loc 1 4200 0
	str	wzr, [x19,1404]
	.loc 1 4202 0
	str	wzr, [x19,1584]
	.loc 1 4217 0
	str	w20, [x19,1644]
	.loc 1 4230 0
	str	w10, [x19,1696]
	.loc 1 4231 0
	mov	w10, 14
	str	w10, [x19,1700]
	.loc 1 4232 0
	mov	w10, 17
	str	w10, [x19,1704]
	.loc 1 4236 0
	mov	w10, 43
	str	w10, [x19,1720]
	.loc 1 4237 0
	mov	w10, 54
	str	w10, [x19,1724]
	.loc 1 4238 0
	mov	w10, 69
	str	w10, [x19,1728]
	.loc 1 4239 0
	mov	w10, 86
	str	w10, [x19,1732]
	.loc 1 4240 0
	mov	w10, 109
	str	w10, [x19,1736]
	.loc 1 4241 0
	mov	w10, 137
	str	w10, [x19,1740]
	.loc 1 4242 0
	mov	w10, 173
	str	w10, [x19,1744]
	.loc 1 4243 0
	mov	w10, 218
	str	w10, [x19,1748]
	.loc 1 4244 0
	mov	w10, 274
	str	w10, [x19,1752]
	.loc 1 4245 0
	mov	w10, 345
	str	w10, [x19,1756]
	.loc 1 4246 0
	mov	w10, 435
	str	w10, [x19,1760]
	.loc 1 4247 0
	mov	w10, 548
	str	w10, [x19,1764]
	.loc 1 4248 0
	mov	w10, 691
	str	w10, [x19,1768]
	.loc 1 4249 0
	mov	w10, 870
	str	w10, [x19,1772]
	.loc 1 4250 0
	mov	w10, 1097
	.loc 1 4218 0
	str	w6, [x19,1648]
	.loc 1 4219 0
	str	w2, [x19,1652]
	.loc 1 4220 0
	str	w2, [x19,1656]
	.loc 1 4221 0
	str	w2, [x19,1660]
	.loc 1 4224 0
	str	w6, [x19,1672]
	.loc 1 4225 0
	str	w6, [x19,1676]
	.loc 1 4226 0
	str	w3, [x19,1680]
	.loc 1 4228 0
	str	w8, [x19,1688]
	.loc 1 4229 0
	str	w12, [x19,1692]
	.loc 1 4233 0
	str	w18, [x19,1708]
	.loc 1 4234 0
	str	w14, [x19,1712]
	.loc 1 4250 0
	str	w10, [x19,1776]
	.loc 1 4251 0
	mov	w10, 1382
	.loc 1 4227 0
	str	w27, [x19,1684]
	.loc 1 4235 0
	str	w28, [x19,1716]
	.loc 1 4222 0
	str	w20, [x19,1664]
	.loc 1 4223 0
	str	w20, [x19,1668]
	.loc 1 4251 0
	str	w10, [x19,1780]
	.loc 1 4252 0
	mov	w10, 1741
	.loc 1 4267 0
	str	w6, [x19,1844]
	.loc 1 4268 0
	str	w6, [x19,1848]
	.loc 1 4269 0
	str	w6, [x19,1852]
	.loc 1 4279 0
	mov	w6, 10
	.loc 1 4252 0
	str	w10, [x19,1784]
	.loc 1 4253 0
	mov	w10, 2193
	.loc 1 4279 0
	str	w6, [x19,1892]
	.loc 1 4280 0
	mov	w6, 11
	.loc 1 4253 0
	str	w10, [x19,1788]
	.loc 1 4254 0
	mov	w10, 2763
	.loc 1 4280 0
	str	w6, [x19,1896]
	.loc 1 4282 0
	mov	w6, 14
	.loc 1 4254 0
	str	w10, [x19,1792]
	.loc 1 4255 0
	mov	w10, 3482
	.loc 1 4256 0
	str	w17, [x19,1800]
	.loc 1 4255 0
	str	w10, [x19,1796]
	.loc 1 4257 0
	str	w17, [x19,1804]
	.loc 1 4258 0
	str	w17, [x19,1808]
	.loc 1 4259 0
	str	w2, [x19,1812]
	.loc 1 4260 0
	str	w2, [x19,1816]
	.loc 1 4261 0
	str	w2, [x19,1820]
	.loc 1 4262 0
	str	w2, [x19,1824]
	.loc 1 4270 0
	str	w3, [x19,1856]
	.loc 1 4271 0
	str	w3, [x19,1860]
	.loc 1 4272 0
	str	w3, [x19,1864]
	.loc 1 4274 0
	str	w7, [x19,1872]
	.loc 1 4275 0
	str	w7, [x19,1876]
	.loc 1 4276 0
	str	w8, [x19,1880]
	.loc 1 4277 0
	str	w5, [x19,1884]
	.loc 1 4278 0
	str	w12, [x19,1888]
	.loc 1 4281 0
	str	w11, [x19,1900]
	.loc 1 4282 0
	str	w6, [x19,1904]
	.loc 1 4286 0
	mov	w6, 23
	.loc 1 4273 0
	str	w27, [x19,1868]
	.loc 1 4284 0
	str	w22, [x19,1912]
	.loc 1 4263 0
	str	w20, [x19,1828]
	.loc 1 4264 0
	str	w20, [x19,1832]
	.loc 1 4265 0
	str	w20, [x19,1836]
	.loc 1 4266 0
	str	w20, [x19,1840]
	.loc 1 4283 0
	str	w21, [x19,1908]
	.loc 1 4285 0
	str	w26, [x19,1916]
	.loc 1 4286 0
	str	w6, [x19,1920]
	.loc 1 4287 0
	mov	w6, 25
	str	w6, [x19,1924]
	.loc 1 4288 0
	mov	w6, 29
	str	w6, [x19,1928]
	.loc 1 4290 0
	mov	w6, 36
	str	w6, [x19,1936]
	.loc 1 4292 0
	mov	w6, 45
	str	w6, [x19,1944]
	.loc 1 4293 0
	mov	w6, 51
	str	w6, [x19,1948]
	.loc 1 4294 0
	mov	w6, 57
	str	w6, [x19,1952]
	.loc 1 4296 0
	mov	w6, 72
	str	w6, [x19,1960]
	.loc 1 4297 0
	mov	w6, 81
	str	w6, [x19,1964]
	.loc 1 4298 0
	mov	w6, 91
	str	w6, [x19,1968]
	.loc 1 4313 0
	mov	w6, 50
	.loc 1 4289 0
	str	w16, [x19,1932]
	.loc 1 4295 0
	str	w15, [x19,1956]
	.loc 1 4300 0
	str	w2, [x19,1976]
	.loc 1 4301 0
	str	w11, [x19,1980]
	.loc 1 4302 0
	str	w9, [x19,2128]
	.loc 1 4303 0
	str	w8, [x19,2124]
	.loc 1 4304 0
	str	w9, [x19,2276]
	.loc 1 4305 0
	str	w8, [x19,2272]
	.loc 1 4306 0
	str	w9, [x19,2424]
	.loc 1 4307 0
	str	w8, [x19,2420]
	.loc 1 4308 0
	str	w9, [x19,2572]
	.loc 1 4309 0
	str	w8, [x19,2568]
	.loc 1 4310 0
	str	w2, [x19,1408]
	.loc 1 4311 0
	str	w2, [x19,1412]
	.loc 1 4313 0
	str	w6, [x19,1420]
	.loc 1 4314 0
	mov	w6, 150
	.loc 1 4316 0
	str	w5, [x19,1432]
	.loc 1 4314 0
	str	w6, [x19,1424]
	.loc 1 4317 0
	str	w3, [x19,1436]
	.loc 1 4291 0
	str	w24, [x19,1940]
	.loc 1 4312 0
	str	w26, [x19,1416]
	.loc 1 4315 0
	str	w25, [x19,1428]
	.loc 1 4318 0
	str	w25, [x19,1440]
	.loc 1 4299 0
	str	wzr, [x19,1972]
	.loc 1 4319 0
	str	w5, [x19,1444]
	.loc 1 4320 0
	str	w3, [x19,1448]
	.loc 1 4322 0
	str	w3, [x19,1456]
	.loc 1 4324 0
	mov	w3, 135
	str	w3, [x19,1464]
	.loc 1 4325 0
	mov	w3, 160
	str	w3, [x19,1468]
	.loc 1 4326 0
	mov	w3, 100
	str	w3, [x19,1472]
	.loc 1 4327 0
	mov	w3, 127
	str	w3, [x19,1476]
	.loc 1 4348 0
	mov	w3, 1500
	.loc 1 4323 0
	str	w7, [x19,1460]
	.loc 1 4329 0
	str	w7, [x19,1484]
	.loc 1 4331 0
	str	w15, [x19,1492]
	.loc 1 4332 0
	str	w2, [x19,1496]
	.loc 1 4333 0
	str	w2, [x19,2576]
	.loc 1 4335 0
	str	w2, [x19,1508]
	.loc 1 4336 0
	str	w2, [x19,1512]
	.loc 1 4337 0
	str	w2, [x19,1516]
	.loc 1 4339 0
	str	w2, [x19,1520]
	.loc 1 4344 0
	str	w2, [x19,1540]
	.loc 1 4345 0
	str	w2, [x19,1544]
	.loc 1 4348 0
	str	w3, [x19,1556]
	.loc 1 4353 0
	mov	w3, 17
	.loc 1 4349 0
	str	w4, [x19,1560]
	.loc 1 4352 0
	str	w14, [x19,1572]
	.loc 1 4353 0
	str	w3, [x19,1576]
	.loc 1 4330 0
	str	w24, [x19,1488]
	.loc 1 4321 0
	str	w20, [x19,1452]
	.loc 1 4328 0
	str	wzr, [x19,1480]
	.loc 1 4334 0
	str	wzr, [x19,1504]
	.loc 1 4340 0
	str	wzr, [x19,1524]
	.loc 1 4341 0
	str	wzr, [x19,1528]
	.loc 1 4342 0
	str	wzr, [x19,1532]
	.loc 1 4343 0
	str	wzr, [x19,1536]
	.loc 1 4346 0
	str	wzr, [x19,1548]
	.loc 1 4347 0
	str	wzr, [x19,1552]
	.loc 1 4350 0
	str	wzr, [x19,1564]
	.loc 1 4351 0
	str	wzr, [x19,1568]
	.loc 1 4354 0
	str	w20, [x19,2756]
	.loc 1 4356 0
	str	w2, [x19,2764]
	.loc 1 4357 0
	str	w2, [x19,2768]
	.loc 1 4358 0
	str	w2, [x19,2772]
	.loc 1 4359 0
	str	w2, [x19,2776]
	.loc 1 4362 0
	str	w2, [x19,2788]
	.loc 1 4363 0
	str	w2, [x19,2792]
	.loc 1 4364 0
	str	w2, [x19,2796]
	.loc 1 4365 0
	str	w2, [x19,2800]
	.loc 1 4366 0
	mov	w2, 15743
	str	w2, [x19,2808]
	.loc 1 4367 0
	mov	w2, 4783
	str	w2, [x19,2804]
	.loc 1 4368 0
	mov	w2, 16364
	str	w2, [x19,2816]
	.loc 1 4369 0
	mov	w2, 16358
	str	w2, [x19,2812]
	.loc 1 4370 0
	mov	w2, 15573
	str	w2, [x19,2824]
	.loc 1 4371 0
	mov	w2, 4265
	str	w2, [x19,2820]
	.loc 1 4372 0
	mov	w2, 568
	str	w2, [x19,2832]
	.loc 1 4373 0
	mov	w2, 16259
	str	w2, [x19,2828]
	.loc 1 4374 0
	mov	w2, 15584
	str	w2, [x19,2840]
	.loc 1 4375 0
	mov	w2, 3855
	str	w2, [x19,2836]
	.loc 1 4376 0
	mov	w2, 1324
	str	w2, [x19,2848]
	.loc 1 4377 0
	mov	w2, 16101
	str	w2, [x19,2844]
	.loc 1 4378 0
	mov	w2, 15716
	str	w2, [x19,2856]
	.loc 1 4379 0
	mov	w2, 3058
	str	w2, [x19,2852]
	.loc 1 4380 0
	mov	w2, 2182
	str	w2, [x19,2864]
	.loc 1 4381 0
	mov	w2, 15937
	str	w2, [x19,2860]
	.loc 1 4382 0
	mov	w2, 16242
	str	w2, [x19,2872]
	.loc 1 4383 0
	mov	w2, 4059
	str	w2, [x19,2868]
	.loc 1 4384 0
	mov	w2, 183
	str	w2, [x19,2880]
	.loc 1 4385 0
	mov	w2, 16380
	str	w2, [x19,2876]
	.loc 1 4386 0
	mov	w2, 16074
	str	w2, [x19,2888]
	.loc 1 4387 0
	mov	w2, 3783
	.loc 1 4355 0
	str	w20, [x19,2760]
	.loc 1 4387 0
	str	w2, [x19,2884]
	.loc 1 4388 0
	mov	w2, 664
	.loc 1 4360 0
	str	w20, [x19,2780]
	.loc 1 4361 0
	str	w20, [x19,2784]
	.loc 1 4388 0
	str	w2, [x19,2896]
	.loc 1 4389 0
	mov	w2, 16344
	str	w2, [x19,2892]
	.loc 1 4390 0
	mov	w2, 16036
	str	w2, [x19,2904]
	.loc 1 4391 0
	mov	w2, 3286
	str	w2, [x19,2900]
	.loc 1 4392 0
	mov	w2, 1270
	str	w2, [x19,2912]
	.loc 1 4393 0
	mov	w2, 16262
	str	w2, [x19,2908]
	.loc 1 4394 0
	mov	w2, 16085
	str	w2, [x19,2920]
	.loc 1 4395 0
	mov	w2, 2649
	str	w2, [x19,2916]
	.loc 1 4396 0
	mov	w2, 1953
	str	w2, [x19,2928]
	.loc 1 4397 0
	mov	w2, 16177
	.loc 1 4398 0
	str	wzr, [x19,3060]
	.loc 1 4397 0
	str	w2, [x19,2924]
	.loc 1 4401 0
	mov	w2, 240
	.loc 1 4399 0
	str	w23, [x19,3064]
	.loc 1 4401 0
	str	w2, [x19,3072]
	.loc 1 4400 0
	str	w21, [x19,3068]
	.loc 1 4402 0
	str	w21, [x19,3076]
	.loc 1 4403 0
	bl	venc_drv_EflsetRGBtoYUVcoeff
.LVL154:
	.loc 1 4404 0
	str	w21, [x19,3140]
	.loc 1 4410 0
	ldr	w2, [x19,176]
	.loc 1 4408 0
	mov	w0, 38528
	.loc 1 4410 0
	ldr	w1, [x19,148]
	.loc 1 4408 0
	movk	w0, 0x98, lsl 16
	.loc 1 4405 0
	str	w23, [x19,3136]
	.loc 1 4410 0
	cmp	w2, w1
	.loc 1 4406 0
	str	wzr, [x19,3132]
	.loc 1 4407 0
	str	w20, [x19,2616]
	.loc 1 4408 0
	str	w0, [x19,2668]
	.loc 1 4410 0
	beq	.L145
	.loc 1 4412 0
	str	wzr, [x19,176]
	.loc 1 4413 0
	str	wzr, [x19,148]
.L145:
	.loc 1 4426 0
	mov	w1, 15
	.loc 1 4416 0
	mov	w2, 1
	.loc 1 4419 0
	mov	w6, 4
	.loc 1 4421 0
	mov	w5, 148
	.loc 1 4424 0
	mov	w4, 255
	.loc 1 4426 0
	str	w1, [x19,3156]
	.loc 1 4427 0
	str	w1, [x19,3160]
	.loc 1 4469 0
	mov	w3, 3
	.loc 1 4428 0
	str	w1, [x19,3164]
	.loc 1 4594 0
	mov	w0, 0
	.loc 1 4429 0
	str	w1, [x19,3168]
	.loc 1 4430 0
	str	w1, [x19,3172]
	.loc 1 4431 0
	str	w1, [x19,3176]
	.loc 1 4432 0
	str	w1, [x19,3180]
	.loc 1 4433 0
	str	w1, [x19,3184]
	.loc 1 4434 0
	str	w1, [x19,3188]
	.loc 1 4435 0
	str	w1, [x19,3192]
	.loc 1 4436 0
	str	w1, [x19,3196]
	.loc 1 4437 0
	str	w1, [x19,3200]
	.loc 1 4438 0
	str	w1, [x19,3204]
	.loc 1 4439 0
	str	w1, [x19,3208]
	.loc 1 4440 0
	str	w1, [x19,3212]
	.loc 1 4441 0
	str	w1, [x19,3216]
	.loc 1 4442 0
	str	w1, [x19,3220]
	.loc 1 4443 0
	str	w1, [x19,3224]
	.loc 1 4444 0
	str	w1, [x19,3228]
	.loc 1 4445 0
	str	w1, [x19,3232]
	.loc 1 4446 0
	str	w1, [x19,3236]
	.loc 1 4447 0
	str	w1, [x19,3240]
	.loc 1 4448 0
	str	w1, [x19,3244]
	.loc 1 4416 0
	str	w2, [x19,260]
	.loc 1 4417 0
	str	wzr, [x19,740]
	.loc 1 4418 0
	str	wzr, [x19,744]
	.loc 1 4419 0
	str	w6, [x19,920]
	.loc 1 4420 0
	str	w6, [x19,924]
	.loc 1 4421 0
	str	w5, [x19,1500]
	.loc 1 4422 0
	str	w5, [x19,2664]
	.loc 1 4423 0
	str	wzr, [x19,3144]
	.loc 1 4424 0
	str	w4, [x19,3148]
	.loc 1 4425 0
	str	w4, [x19,3152]
	.loc 1 4449 0
	str	w1, [x19,3248]
	.loc 1 4450 0
	str	w1, [x19,3252]
	.loc 1 4451 0
	str	w1, [x19,3256]
	.loc 1 4452 0
	str	w1, [x19,3260]
	.loc 1 4453 0
	str	w1, [x19,3264]
	.loc 1 4467 0
	mov	w1, 2
	.loc 1 4455 0
	str	wzr, [x19,2748]
	.loc 1 4456 0
	str	wzr, [x19,2752]
	.loc 1 4458 0
	str	wzr, [x19,96]
	.loc 1 4459 0
	str	wzr, [x19,100]
	.loc 1 4460 0
	str	wzr, [x19,104]
	.loc 1 4461 0
	str	wzr, [x19,108]
	.loc 1 4462 0
	str	wzr, [x19,112]
	.loc 1 4463 0
	str	wzr, [x19,116]
	.loc 1 4465 0
	str	wzr, [x19,2580]
	.loc 1 4466 0
	str	wzr, [x19,2584]
	.loc 1 4467 0
	str	w1, [x19,2592]
	.loc 1 4468 0
	str	wzr, [x19,2596]
	.loc 1 4469 0
	str	w3, [x19,2600]
	.loc 1 4470 0
	str	w3, [x19,2604]
	.loc 1 4471 0
	str	wzr, [x19,2608]
	.loc 1 4473 0
	str	wzr, [x19,2932]
	.loc 1 4474 0
	str	wzr, [x19,2936]
	.loc 1 4475 0
	str	wzr, [x19,2940]
	.loc 1 4476 0
	str	wzr, [x19,2944]
	.loc 1 4477 0
	str	wzr, [x19,2948]
	.loc 1 4478 0
	str	wzr, [x19,2952]
	.loc 1 4479 0
	str	wzr, [x19,2956]
	.loc 1 4480 0
	str	wzr, [x19,2960]
	.loc 1 4481 0
	str	wzr, [x19,2964]
	.loc 1 4482 0
	str	wzr, [x19,2968]
	.loc 1 4483 0
	str	wzr, [x19,2972]
	.loc 1 4484 0
	str	wzr, [x19,2976]
	.loc 1 4485 0
	str	wzr, [x19,2980]
	.loc 1 4486 0
	str	wzr, [x19,2984]
	.loc 1 4487 0
	str	wzr, [x19,2988]
	.loc 1 4488 0
	str	wzr, [x19,2992]
	.loc 1 4489 0
	str	wzr, [x19,2996]
	.loc 1 4490 0
	str	wzr, [x19,3000]
	.loc 1 4491 0
	str	wzr, [x19,3004]
	.loc 1 4492 0
	str	wzr, [x19,3008]
	.loc 1 4493 0
	str	wzr, [x19,3012]
	.loc 1 4494 0
	str	wzr, [x19,3016]
	.loc 1 4495 0
	str	wzr, [x19,3020]
	.loc 1 4496 0
	str	wzr, [x19,3024]
	.loc 1 4497 0
	str	wzr, [x19,3028]
	.loc 1 4498 0
	str	wzr, [x19,3032]
	.loc 1 4499 0
	str	wzr, [x19,3036]
	.loc 1 4500 0
	str	wzr, [x19,3040]
	.loc 1 4501 0
	str	wzr, [x19,3044]
	.loc 1 4502 0
	str	wzr, [x19,3048]
	.loc 1 4503 0
	str	wzr, [x19,3052]
	.loc 1 4504 0
	str	wzr, [x19,3056]
	.loc 1 4506 0
	str	w3, [x19,3272]
	.loc 1 4508 0
	str	wzr, [x19,3276]
	.loc 1 4509 0
	str	wzr, [x19,3280]
	.loc 1 4510 0
	str	wzr, [x19,3284]
	.loc 1 4511 0
	str	w2, [x19,3288]
	.loc 1 4512 0
	str	w2, [x19,3292]
	.loc 1 4513 0
	str	w2, [x19,3296]
	.loc 1 4514 0
	str	w2, [x19,3300]
	.loc 1 4515 0
	str	w2, [x19,3304]
	.loc 1 4517 0
	str	wzr, [x19,3308]
	.loc 1 4518 0
	str	wzr, [x19,3388]
	.loc 1 4519 0
	str	wzr, [x19,3392]
	.loc 1 4520 0
	str	wzr, [x19,3396]
	.loc 1 4521 0
	str	wzr, [x19,3400]
	.loc 1 4522 0
	str	wzr, [x19,3404]
	.loc 1 4523 0
	str	wzr, [x19,3408]
	.loc 1 4524 0
	str	wzr, [x19,3440]
	.loc 1 4527 0
	str	w2, [x19,4908]
	.loc 1 4528 0
	str	w2, [x19,4920]
	.loc 1 4529 0
	str	w2, [x19,4932]
	.loc 1 4530 0
	str	w2, [x19,4944]
	.loc 1 4531 0
	str	w2, [x19,4956]
	.loc 1 4532 0
	str	w2, [x19,4968]
	.loc 1 4533 0
	str	w2, [x19,4980]
	.loc 1 4534 0
	str	w2, [x19,4992]
	.loc 1 4535 0
	str	w2, [x19,5004]
	.loc 1 4536 0
	str	w2, [x19,5016]
	.loc 1 4537 0
	str	w2, [x19,5028]
	.loc 1 4538 0
	str	w2, [x19,5040]
	.loc 1 4539 0
	str	w2, [x19,5052]
	.loc 1 4540 0
	str	w2, [x19,5064]
	.loc 1 4541 0
	str	w2, [x19,5076]
	.loc 1 4542 0
	str	w2, [x19,5088]
	.loc 1 4543 0
	str	w2, [x19,5100]
	.loc 1 4544 0
	str	w2, [x19,5112]
	.loc 1 4545 0
	str	wzr, [x19,5872]
	.loc 1 4546 0
	str	wzr, [x19,5876]
	.loc 1 4547 0
	str	wzr, [x19,5880]
	.loc 1 4548 0
	str	wzr, [x19,5884]
	.loc 1 4549 0
	str	wzr, [x19,5888]
	.loc 1 4550 0
	str	wzr, [x19,5892]
	.loc 1 4553 0
	str	wzr, [x19,5972]
	.loc 1 4555 0
	str	wzr, [x19,3736]
	.loc 1 4556 0
	str	wzr, [x19,3752]
	.loc 1 4557 0
	str	wzr, [x19,3768]
	.loc 1 4558 0
	str	wzr, [x19,3784]
	.loc 1 4559 0
	str	wzr, [x19,3800]
	.loc 1 4560 0
	str	wzr, [x19,3816]
	.loc 1 4561 0
	str	wzr, [x19,3832]
	.loc 1 4562 0
	str	wzr, [x19,3848]
	.loc 1 4563 0
	str	wzr, [x19,3864]
	.loc 1 4564 0
	str	wzr, [x19,3880]
	.loc 1 4565 0
	str	wzr, [x19,3896]
	.loc 1 4566 0
	str	wzr, [x19,3912]
	.loc 1 4567 0
	str	wzr, [x19,3928]
	.loc 1 4568 0
	str	wzr, [x19,3944]
	.loc 1 4569 0
	str	wzr, [x19,3960]
	.loc 1 4570 0
	str	wzr, [x19,3976]
	.loc 1 4571 0
	str	wzr, [x19,3992]
	.loc 1 4572 0
	str	wzr, [x19,4008]
	.loc 1 4573 0
	str	wzr, [x19,6028]
	.loc 1 4574 0
	str	wzr, [x19,6024]
	.loc 1 4575 0
	str	wzr, [x19,6020]
	.loc 1 4576 0
	str	wzr, [x19,6016]
	.loc 1 4577 0
	str	wzr, [x19,6012]
	.loc 1 4578 0
	str	wzr, [x19,6008]
	.loc 1 4579 0
	str	wzr, [x19,6004]
	.loc 1 4580 0
	str	wzr, [x19,6000]
	.loc 1 4581 0
	str	wzr, [x19,5996]
	.loc 1 4582 0
	str	wzr, [x19,5992]
	.loc 1 4583 0
	str	wzr, [x19,5988]
	.loc 1 4584 0
	str	wzr, [x19,5984]
	.loc 1 4585 0
	str	wzr, [x19,5980]
	.loc 1 4586 0
	str	wzr, [x19,5976]
	.loc 1 4587 0
	str	wzr, [x19,6228]
	.loc 1 4588 0
	str	wzr, [x19,6224]
	.loc 1 4589 0
	str	wzr, [x19,6220]
	.loc 1 4590 0
	str	wzr, [x19,6216]
	.loc 1 4592 0
	str	w2, [x19,5968]
	.loc 1 4593 0
	str	w2, [x19,928]
.LVL155:
.L144:
	.loc 1 4595 0
	ldp	x19, x20, [sp,16]
	.cfi_remember_state
	.cfi_restore 20
	.cfi_restore 19
.LVL156:
	ldp	x21, x22, [sp,32]
	.cfi_restore 22
	.cfi_restore 21
.LVL157:
	ldp	x23, x24, [sp,48]
	.cfi_restore 24
	.cfi_restore 23
	ldp	x25, x26, [sp,64]
	.cfi_restore 26
	.cfi_restore 25
	ldp	x27, x28, [sp,80]
	.cfi_restore 28
	.cfi_restore 27
	ldp	x29, x30, [sp], 96
	.cfi_restore 30
	.cfi_restore 29
	.cfi_def_cfa 31, 0
	ret
.LVL158:
.L146:
	.cfi_restore_state
	.loc 1 3866 0
	mov	w0, -1
.LVL159:
	b	.L144
	.cfi_endproc
.LFE2768:
	.size	VENC_DRV_EflInitEncParaCfgH264_LowPwr1, .-VENC_DRV_EflInitEncParaCfgH264_LowPwr1
	.align	2
	.global	VENC_DRV_EflWakeUpThread
	.type	VENC_DRV_EflWakeUpThread, %function
VENC_DRV_EflWakeUpThread:
.LFB2769:
	.loc 1 4598 0
	.cfi_startproc
	stp	x29, x30, [sp, -16]!
	.cfi_def_cfa_offset 16
	.cfi_offset 29, -16
	.cfi_offset 30, -8
	.loc 1 4599 0
	adrp	x0, .LANCHOR1
	add	x0, x0, :lo12:.LANCHOR1
	.loc 1 4598 0
	add	x29, sp, 0
	.cfi_def_cfa_register 29
	.loc 1 4599 0
	add	x0, x0, 40
	.loc 1 4598 0
	.loc 1 4599 0
	bl	VENC_DRV_OsalGiveEvent
.LVL160:
	.loc 1 4601 0
	ldp	x29, x30, [sp], 16
	.cfi_restore 30
	.cfi_restore 29
	.cfi_def_cfa 31, 0
	ret
	.cfi_endproc
.LFE2769:
	.size	VENC_DRV_EflWakeUpThread, .-VENC_DRV_EflWakeUpThread
	.align	2
	.global	VENC_DRV_EflSortPriority
	.type	VENC_DRV_EflSortPriority, %function
VENC_DRV_EflSortPriority:
.LFB2770:
	.loc 1 4604 0
	.cfi_startproc
	sub	sp, sp, #112
	.cfi_def_cfa_offset 112
	adrp	x0, PriorityTab
	add	x0, x0, :lo12:PriorityTab
	adrp	x1, PriorityTab
	.loc 1 4609 0 discriminator 1
	mov	w4, 0
	mov	w12, 0
	.loc 1 4604 0
	stp	x23, x24, [sp,32]
	stp	x27, x28, [sp,64]
	stp	x25, x26, [sp,48]
	stp	x19, x20, [sp]
	stp	x21, x22, [sp,16]
	.cfi_offset 23, -80
	.cfi_offset 24, -72
	.cfi_offset 27, -48
	.cfi_offset 28, -40
	.cfi_offset 25, -64
	.cfi_offset 26, -56
	.cfi_offset 19, -112
	.cfi_offset 20, -104
	.cfi_offset 21, -96
	.cfi_offset 22, -88
	ldrsb	w11, [x1,#:lo12:PriorityTab]
	.loc 1 4609 0 discriminator 1
	mov	w13, 0
	ldrsb	w22, [x0,15]
	mov	w14, 0
	ldrsb	w26, [x0,7]
	mov	w25, 0
	ldrsb	w21, [x0,6]
	mov	w15, 0
	ldrsb	w10, [x0,14]
	mov	w27, 0
	ldrsb	w20, [x0,5]
	mov	w23, 0
	ldrsb	w9, [x0,13]
	mov	w28, 0
	ldrsb	w19, [x0,4]
	mov	w24, 0
	ldrsb	w8, [x0,12]
	.loc 1 4607 0
	mov	w1, 0
.LVL161:
	ldrsb	w18, [x0,3]
	ldrsb	w7, [x0,11]
	ldrsb	w17, [x0,2]
	ldrsb	w6, [x0,10]
	ldrsb	w3, [x0,8]
	ldrsb	w16, [x0,1]
	ldrsb	w5, [x0,9]
	.loc 1 4609 0 discriminator 1
	str	wzr, [sp,96]
	str	wzr, [sp,92]
	str	wzr, [sp,88]
	str	wzr, [sp,108]
	str	wzr, [sp,104]
	str	wzr, [sp,100]
.L149:
	.loc 1 4611 0
	cmp	w22, w10
	bgt	.L177
	.loc 1 4609 0 discriminator 1
	cmp	w1, 6
	.loc 1 4611 0
	mov	w2, w21
	mov	w0, w10
	.loc 1 4609 0 discriminator 1
	beq	.L178
.L242:
	.loc 1 4611 0
	cmp	w0, w9
	bgt	.L179
	.loc 1 4609 0 discriminator 1
	cmp	w1, 5
	.loc 1 4611 0
	mov	w21, w2
	mov	w10, w0
	mov	w2, w20
	mov	w0, w9
	.loc 1 4609 0 discriminator 1
	beq	.L180
.L241:
	.loc 1 4611 0
	cmp	w0, w8
	bgt	.L181
	.loc 1 4609 0 discriminator 1
	cmp	w1, 4
	.loc 1 4611 0
	mov	w20, w2
	mov	w9, w0
	mov	w2, w19
	mov	w0, w8
	.loc 1 4609 0 discriminator 1
	beq	.L182
.L240:
	.loc 1 4611 0
	cmp	w0, w7
	bgt	.L183
	.loc 1 4609 0 discriminator 1
	cmp	w1, 3
	.loc 1 4611 0
	mov	w19, w2
	mov	w8, w0
	mov	w2, w18
	mov	w0, w7
	.loc 1 4609 0 discriminator 1
	beq	.L184
.L239:
	.loc 1 4611 0
	cmp	w0, w6
	bgt	.L185
	.loc 1 4609 0 discriminator 1
	cmp	w1, 2
	.loc 1 4611 0
	mov	w18, w2
	mov	w7, w0
	mov	w2, w17
	mov	w0, w6
	.loc 1 4609 0 discriminator 1
	beq	.L186
.L238:
	.loc 1 4611 0
	cmp	w5, w0
	blt	.L187
	mov	w17, w2
	mov	w6, w0
	mov	w2, w16
	mov	w0, w5
	.loc 1 4609 0 discriminator 1
	cbnz	w1, .L236
.L159:
	.loc 1 4611 0
	cmp	w0, w3
	bgt	.L176
	mov	w16, w11
	mov	w5, w3
	mov	w11, w2
	mov	w3, w0
	mov	w2, w16
	mov	w0, w5
.L150:
	mov	w16, w11
	mov	w5, w3
	mov	w11, w2
	mov	w3, w0
.L153:
	.loc 1 4607 0 discriminator 2
	add	w1, w1, 1
	.loc 1 4607 0 is_stmt 0 discriminator 1
	cmp	w1, 7
	bne	.L149
	cbnz	w24, .L237
.L160:
	ldr	w0, [sp,100]
	cbz	w0, .L161
	adrp	x0, PriorityTab
	add	x0, x0, :lo12:PriorityTab
	strb	w3, [x0,8]
.L161:
	cbz	w28, .L162
	adrp	x0, PriorityTab
	add	x0, x0, :lo12:PriorityTab
	strb	w16, [x0,1]
.L162:
	cbz	w23, .L163
	adrp	x0, PriorityTab
	strb	w11, [x0,#:lo12:PriorityTab]
.L163:
	ldr	w0, [sp,104]
	cbz	w0, .L164
	adrp	x0, PriorityTab
	add	x0, x0, :lo12:PriorityTab
	strb	w22, [x0,15]
.L164:
	cbz	w27, .L165
	adrp	x0, PriorityTab
	add	x0, x0, :lo12:PriorityTab
	strb	w10, [x0,14]
.L165:
	ldr	w0, [sp,108]
	cbz	w0, .L166
	adrp	x0, PriorityTab
	add	x0, x0, :lo12:PriorityTab
	strb	w26, [x0,7]
.L166:
	cbz	w15, .L167
	adrp	x0, PriorityTab
	add	x0, x0, :lo12:PriorityTab
	strb	w21, [x0,6]
.L167:
	cbz	w25, .L168
	adrp	x0, PriorityTab
	add	x0, x0, :lo12:PriorityTab
	strb	w9, [x0,13]
.L168:
	cbz	w14, .L169
	adrp	x0, PriorityTab
	add	x0, x0, :lo12:PriorityTab
	strb	w20, [x0,5]
.L169:
	ldr	w0, [sp,88]
	cbz	w0, .L170
	adrp	x0, PriorityTab
	add	x0, x0, :lo12:PriorityTab
	strb	w8, [x0,12]
.L170:
	cbz	w13, .L171
	adrp	x0, PriorityTab
	add	x0, x0, :lo12:PriorityTab
	strb	w19, [x0,4]
.L171:
	ldr	w0, [sp,92]
	cbz	w0, .L172
	adrp	x0, PriorityTab
	add	x0, x0, :lo12:PriorityTab
	strb	w7, [x0,11]
.L172:
	cbz	w12, .L173
	adrp	x0, PriorityTab
	add	x0, x0, :lo12:PriorityTab
	strb	w18, [x0,3]
.L173:
	ldr	w0, [sp,96]
	cbz	w0, .L174
	adrp	x0, PriorityTab
	add	x0, x0, :lo12:PriorityTab
	strb	w6, [x0,10]
.L174:
	cbz	w4, .L148
	adrp	x0, PriorityTab
	add	x1, x0, :lo12:PriorityTab
.LVL162:
	strb	w17, [x1,2]
.LVL163:
.L148:
	.loc 1 4622 0 is_stmt 1
	ldp	x19, x20, [sp]
	.cfi_remember_state
	.cfi_restore 20
	.cfi_restore 19
	ldp	x21, x22, [sp,16]
	.cfi_restore 22
	.cfi_restore 21
	ldp	x23, x24, [sp,32]
	.cfi_restore 24
	.cfi_restore 23
	ldp	x25, x26, [sp,48]
	.cfi_restore 26
	.cfi_restore 25
	ldp	x27, x28, [sp,64]
	.cfi_restore 28
	.cfi_restore 27
	add	sp, sp, 112
	.cfi_def_cfa_offset 0
	ret
.L176:
	.cfi_restore_state
	mov	w23, 1
	str	w23, [sp,100]
	mov	w28, w23
	mov	w24, w23
	b	.L150
.L187:
	.loc 1 4611 0
	mov	w4, 1
	str	w4, [sp,96]
.LBB117:
	.loc 1 4615 0
	mov	w17, w16
.LBE117:
	.loc 1 4611 0
	mov	w6, w5
	mov	w28, w4
	mov	w24, w4
	.loc 1 4609 0 discriminator 1
	cbz	w1, .L159
.L236:
	mov	w16, w2
	mov	w5, w0
	b	.L153
.L185:
	.loc 1 4611 0
	mov	w4, 1
	.loc 1 4609 0 discriminator 1
	cmp	w1, 2
	.loc 1 4611 0
	str	w4, [sp,96]
.LBB118:
	.loc 1 4615 0
	mov	w18, w17
.LBE118:
	.loc 1 4611 0
	str	w4, [sp,92]
	mov	w7, w6
	mov	w12, w4
	.loc 1 4609 0 discriminator 1
	bne	.L238
.L186:
	mov	w17, w2
	mov	w6, w0
	b	.L153
.L183:
	.loc 1 4611 0
	mov	w12, 1
	.loc 1 4609 0 discriminator 1
	cmp	w1, 3
	.loc 1 4611 0
	str	w12, [sp,92]
.LBB119:
	.loc 1 4615 0
	mov	w19, w18
.LBE119:
	.loc 1 4611 0
	str	w12, [sp,88]
	mov	w8, w7
	mov	w13, w12
	.loc 1 4609 0 discriminator 1
	bne	.L239
.L184:
	mov	w18, w2
	mov	w7, w0
	b	.L153
.L181:
	.loc 1 4611 0
	mov	w13, 1
	.loc 1 4609 0 discriminator 1
	cmp	w1, 4
	.loc 1 4611 0
	str	w13, [sp,88]
.LBB120:
	.loc 1 4615 0
	mov	w20, w19
.LBE120:
	.loc 1 4611 0
	mov	w9, w8
	mov	w14, w13
	mov	w25, w13
	.loc 1 4609 0 discriminator 1
	bne	.L240
.L182:
	mov	w19, w2
	mov	w8, w0
	b	.L153
.L179:
	cmp	w1, 5
	.loc 1 4611 0
	mov	w14, 1
.LBB121:
	.loc 1 4615 0
	mov	w21, w20
.LBE121:
	.loc 1 4611 0
	mov	w10, w9
	mov	w25, w14
	mov	w15, w14
	mov	w27, w14
	.loc 1 4609 0 discriminator 1
	bne	.L241
.L180:
	mov	w20, w2
	mov	w9, w0
	b	.L153
.L177:
	.loc 1 4611 0
	mov	w15, 1
	.loc 1 4609 0 discriminator 1
	cmp	w1, 6
	.loc 1 4611 0
	str	w15, [sp,108]
.LBB122:
	.loc 1 4617 0
	mov	w2, w26
.LBE122:
	.loc 1 4611 0
	str	w15, [sp,104]
	mov	w0, w22
.LBB123:
	.loc 1 4615 0
	mov	w26, w21
.LBE123:
	.loc 1 4611 0
	mov	w22, w10
	mov	w27, w15
	.loc 1 4609 0 discriminator 1
	bne	.L242
.L178:
	mov	w21, w2
	mov	w10, w0
	b	.L153
.L237:
	adrp	x0, PriorityTab
	add	x0, x0, :lo12:PriorityTab
	strb	w5, [x0,9]
	b	.L160
	.cfi_endproc
.LFE2770:
	.size	VENC_DRV_EflSortPriority, .-VENC_DRV_EflSortPriority
	.align	2
	.global	VENC_DRV_EflSortPriority_2
	.type	VENC_DRV_EflSortPriority_2, %function
VENC_DRV_EflSortPriority_2:
.LFB2771:
	.loc 1 4625 0
	.cfi_startproc
.LVL164:
	.loc 1 4635 0
	adrp	x1, PriorityTab
	.loc 1 4625 0
	sxtb	w5, w0
.LVL165:
	.loc 1 4635 0
	add	x0, x1, :lo12:PriorityTab
	.loc 1 4625 0
	stp	x29, x30, [sp, -16]!
	.cfi_def_cfa_offset 16
	.cfi_offset 29, -16
	.cfi_offset 30, -8
	add	x29, sp, 0
	.cfi_def_cfa_register 29
	.loc 1 4635 0
	ldrsb	w0, [x0,8]
	cmp	w0, w5
	beq	.L330
	.loc 1 4628 0
	mov	w3, 7
	.loc 1 4627 0
	mov	w2, 0
.LVL166:
.L244:
	.loc 1 4635 0
	add	x4, x1, :lo12:PriorityTab
	mov	w0, w2
.LVL167:
	ldrsb	w6, [x4,9]
	cmp	w6, w5
	beq	.L331
.L245:
	add	x4, x1, :lo12:PriorityTab
	ldrsb	w6, [x4,10]
	cmp	w6, w5
	beq	.L332
.L247:
	add	x4, x1, :lo12:PriorityTab
	ldrsb	w6, [x4,11]
	cmp	w6, w5
	beq	.L333
.L249:
	add	x4, x1, :lo12:PriorityTab
	ldrsb	w6, [x4,12]
	cmp	w6, w5
	beq	.L334
.L251:
	add	x4, x1, :lo12:PriorityTab
	ldrsb	w6, [x4,13]
	cmp	w6, w5
	beq	.L335
.L253:
	add	x4, x1, :lo12:PriorityTab
	ldrsb	w6, [x4,14]
	cmp	w6, w5
	beq	.L336
.L255:
	add	x4, x1, :lo12:PriorityTab
	ldrsb	w6, [x4,15]
	cmp	w6, w5
	beq	.L337
.L259:
	.loc 1 4646 0
	cbz	w0, .L338
.L258:
	.loc 1 4652 0
	cmp	w3, 6
	bhi	.L264
	cmp	w2, 1
	beq	.L264
	.loc 1 4657 0 discriminator 3
	subs	w2, w2, #1
.LVL168:
	beq	.L264
	.loc 1 4659 0
	add	x0, x1, :lo12:PriorityTab
.LVL169:
	uxtw	x4, w3
	.loc 1 4661 0
	add	w5, w3, 1
.LVL170:
	.loc 1 4660 0
	add	x7, x0, x4
	.loc 1 4662 0
	add	x6, x0, x5
	.loc 1 4657 0 discriminator 3
	cmp	w2, 1
	.loc 1 4659 0
	ldrsb	w10, [x0,x4]
	.loc 1 4661 0
	ldrsb	w11, [x0,x5]
	.loc 1 4660 0
	ldrsb	w9, [x7,8]
	.loc 1 4661 0
	strb	w11, [x0,x4]
	.loc 1 4662 0
	ldrsb	w4, [x6,8]
	strb	w4, [x7,8]
	.loc 1 4663 0
	strb	w10, [x0,x5]
	.loc 1 4664 0
	strb	w9, [x6,8]
	.loc 1 4657 0 discriminator 3
	bls	.L264
	cmp	w5, 7
	beq	.L264
	.loc 1 4661 0
	add	w4, w3, 2
	.loc 1 4659 0
	ldrsb	w10, [x0,x5]
	.loc 1 4662 0
	add	x7, x0, x4
	.loc 1 4660 0
	sxtb	w9, w9
	.loc 1 4657 0 discriminator 3
	cmp	w2, 2
	.loc 1 4661 0
	ldrsb	w11, [x0,x4]
	strb	w11, [x0,x5]
	.loc 1 4662 0
	ldrsb	w5, [x7,8]
	strb	w5, [x6,8]
	.loc 1 4663 0
	strb	w10, [x0,x4]
	.loc 1 4664 0
	strb	w9, [x7,8]
	.loc 1 4657 0 discriminator 3
	bls	.L264
	cmp	w4, 7
	beq	.L264
	.loc 1 4661 0
	add	w5, w3, 3
	.loc 1 4659 0
	ldrsb	w10, [x0,x4]
	.loc 1 4662 0
	add	x6, x0, x5
	.loc 1 4660 0
	sxtb	w9, w9
	.loc 1 4657 0 discriminator 3
	cmp	w2, 3
	.loc 1 4661 0
	ldrsb	w11, [x0,x5]
	strb	w11, [x0,x4]
	.loc 1 4662 0
	ldrsb	w4, [x6,8]
	strb	w4, [x7,8]
	.loc 1 4663 0
	strb	w10, [x0,x5]
	.loc 1 4664 0
	strb	w9, [x6,8]
	.loc 1 4657 0 discriminator 3
	bls	.L264
	cmp	w5, 7
	beq	.L264
	.loc 1 4661 0
	add	w4, w3, 4
	.loc 1 4659 0
	ldrsb	w10, [x0,x5]
	.loc 1 4662 0
	add	x7, x0, x4
	.loc 1 4660 0
	sxtb	w9, w9
	.loc 1 4657 0 discriminator 3
	cmp	w2, 4
	.loc 1 4661 0
	ldrsb	w11, [x0,x4]
	strb	w11, [x0,x5]
	.loc 1 4662 0
	ldrsb	w5, [x7,8]
	strb	w5, [x6,8]
	.loc 1 4663 0
	strb	w10, [x0,x4]
	.loc 1 4664 0
	strb	w9, [x7,8]
	.loc 1 4657 0 discriminator 3
	bls	.L264
	cmp	w4, 7
	beq	.L264
	.loc 1 4661 0
	add	w1, w3, 5
	.loc 1 4660 0
	add	x6, x0, x4
	.loc 1 4662 0
	add	x5, x0, x1
	.loc 1 4659 0
	ldrsb	w9, [x0,x4]
	.loc 1 4657 0 discriminator 3
	cmp	w2, 5
	.loc 1 4661 0
	ldrsb	w10, [x0,x1]
	.loc 1 4660 0
	ldrsb	w8, [x6,8]
	.loc 1 4661 0
	strb	w10, [x0,x4]
	.loc 1 4662 0
	ldrsb	w4, [x5,8]
	strb	w4, [x6,8]
	.loc 1 4663 0
	strb	w9, [x0,x1]
	.loc 1 4664 0
	strb	w8, [x5,8]
	.loc 1 4657 0 discriminator 3
	bls	.L264
	cmp	w1, 7
	beq	.L264
	.loc 1 4661 0
	add	w3, w3, 6
	.loc 1 4657 0 discriminator 3
	cmp	w2, 6
	.loc 1 4660 0
	sxtb	w6, w8
	.loc 1 4659 0
	ldrsb	w7, [x0,x1]
	.loc 1 4661 0
	uxtw	x2, w3
	.loc 1 4662 0
	add	x4, x0, x2
	.loc 1 4661 0
	ldrsb	w8, [x0,x2]
	strb	w8, [x0,x1]
	.loc 1 4662 0
	ldrsb	w1, [x4,8]
	strb	w1, [x5,8]
	.loc 1 4663 0
	strb	w7, [x0,x2]
	.loc 1 4664 0
	strb	w6, [x4,8]
	.loc 1 4657 0 discriminator 3
	bls	.L264
	cmp	w3, 7
	beq	.L264
	.loc 1 4659 0
	ldrsb	w2, [x0,6]
	.loc 1 4660 0
	ldrsb	w1, [x0,14]
	.loc 1 4661 0
	ldrb	w4, [x0,7]
	.loc 1 4662 0
	ldrb	w3, [x0,15]
	.loc 1 4661 0
	strb	w4, [x0,6]
	.loc 1 4662 0
	strb	w3, [x0,14]
	.loc 1 4663 0
	strb	w2, [x0,7]
	.loc 1 4664 0
	strb	w1, [x0,15]
.LVL171:
.L264:
	.loc 1 4654 0
	mov	w0, 0
.LVL172:
.L327:
	.loc 1 4668 0
	ldp	x29, x30, [sp], 16
	.cfi_remember_state
	.cfi_restore 30
	.cfi_restore 29
	.cfi_def_cfa 31, 0
	ret
.LVL173:
.L337:
	.cfi_restore_state
	.loc 1 4635 0 discriminator 1
	ldrsb	w4, [x4,7]
	cmn	w4, #1
	beq	.L259
	.loc 1 4633 0 discriminator 2
	cmp	w0, wzr
	mov	w0, 7
.LVL174:
	csel	w3, w3, w0, ne
	.loc 1 4642 0
	add	w2, w2, 1
	b	.L258
.LVL175:
.L336:
	.loc 1 4635 0 discriminator 1
	ldrsb	w6, [x4,6]
	cmn	w6, #1
	beq	.L255
	.loc 1 4635 0 is_stmt 0
	ldrsb	w6, [x4,15]
	.loc 1 4633 0 is_stmt 1 discriminator 2
	cmp	w0, wzr
	mov	w0, 6
.LVL176:
	.loc 1 4642 0
	add	w2, w2, 1
	.loc 1 4633 0 discriminator 2
	csel	w3, w3, w0, ne
	.loc 1 4635 0
	cmp	w6, w5
	bne	.L258
	.loc 1 4635 0 is_stmt 0 discriminator 1
	ldrsb	w0, [x4,7]
	cmn	w0, #1
	beq	.L258
	.loc 1 4642 0 is_stmt 1
	add	w2, w2, 1
	b	.L258
.LVL177:
.L335:
	.loc 1 4635 0 discriminator 1
	ldrsb	w4, [x4,5]
	cmn	w4, #1
	beq	.L253
	.loc 1 4633 0 discriminator 2
	cmp	w0, wzr
	mov	w0, 5
.LVL178:
	csel	w3, w3, w0, ne
	.loc 1 4642 0
	add	w2, w2, 1
	mov	w0, 1
.LVL179:
	b	.L253
.L334:
	.loc 1 4635 0 discriminator 1
	ldrsb	w4, [x4,4]
	cmn	w4, #1
	beq	.L251
	.loc 1 4633 0 discriminator 2
	cmp	w0, wzr
	mov	w0, 4
.LVL180:
	csel	w3, w3, w0, ne
	.loc 1 4642 0
	add	w2, w2, 1
	mov	w0, 1
.LVL181:
	b	.L251
.L333:
	.loc 1 4635 0 discriminator 1
	ldrsb	w4, [x4,3]
	cmn	w4, #1
	beq	.L249
	.loc 1 4633 0 discriminator 2
	cmp	w0, wzr
	mov	w0, 3
.LVL182:
	csel	w3, w3, w0, ne
	.loc 1 4642 0
	add	w2, w2, 1
	mov	w0, 1
.LVL183:
	b	.L249
.L332:
	.loc 1 4635 0 discriminator 1
	ldrsb	w4, [x4,2]
	cmn	w4, #1
	beq	.L247
	.loc 1 4633 0 discriminator 2
	cmp	w0, wzr
	mov	w0, 2
.LVL184:
	csel	w3, w3, w0, ne
	.loc 1 4642 0
	add	w2, w2, 1
	mov	w0, 1
.LVL185:
	b	.L247
.L331:
	.loc 1 4635 0 discriminator 1
	ldrsb	w0, [x4,1]
.LVL186:
	cmn	w0, #1
	beq	.L268
	.loc 1 4633 0 discriminator 2
	cmp	w2, wzr
	.loc 1 4642 0
	mov	w0, 1
.LVL187:
	.loc 1 4633 0 discriminator 2
	csel	w3, w3, w0, ne
.LVL188:
	.loc 1 4642 0
	add	w2, w2, w0
	b	.L245
.LVL189:
.L330:
	.loc 1 4635 0 discriminator 1
	ldrsb	w0, [x1,#:lo12:PriorityTab]
	.loc 1 4628 0
	mov	w3, 7
	cmn	w0, #1
	csel	w3, wzr, w3, ne
	cmn	w0, #1
	cset	w2, ne
.LVL190:
	b	.L244
.L268:
	.loc 1 4635 0 discriminator 1
	mov	w0, w2
.LVL191:
	b	.L245
.L338:
.LBB126:
.LBB127:
	.loc 1 4648 0
	adrp	x3, .LANCHOR0
	adrp	x1, .LC0
	add	x3, x3, :lo12:.LANCHOR0
	adrp	x4, .LC5
	mov	w0, 2
.LVL192:
	add	x1, x1, :lo12:.LC0
	mov	w2, 4648
.LVL193:
	add	x3, x3, 368
	add	x4, x4, :lo12:.LC5
	bl	HI_PRINT
.LVL194:
	mov	w0, -1
	b	.L327
.LBE127:
.LBE126:
	.cfi_endproc
.LFE2771:
	.size	VENC_DRV_EflSortPriority_2, .-VENC_DRV_EflSortPriority_2
	.align	2
	.global	VENC_DRV_EflCfgRegVenc
	.type	VENC_DRV_EflCfgRegVenc, %function
VENC_DRV_EflCfgRegVenc:
.LFB2772:
	.loc 1 4672 0
	.cfi_startproc
.LVL195:
	stp	x29, x30, [sp, -48]!
	.cfi_def_cfa_offset 48
	.cfi_offset 29, -48
	.cfi_offset 30, -40
	.loc 1 4673 0
	adrp	x4, .LC6
	mov	w2, 4673
	.loc 1 4672 0
	add	x29, sp, 0
	.cfi_def_cfa_register 29
	stp	x19, x20, [sp,16]
	.cfi_offset 19, -32
	.cfi_offset 20, -24
	.loc 1 4673 0
	adrp	x19, .LANCHOR0
	adrp	x20, .LC0
	add	x19, x19, :lo12:.LANCHOR0
	add	x20, x20, :lo12:.LC0
	.loc 1 4672 0
	stp	x21, x22, [sp,32]
	.cfi_offset 21, -16
	.cfi_offset 22, -8
	.loc 1 4673 0
	add	x21, x19, 400
	add	x19, x19, 424
	mov	x1, x20
	mov	x3, x21
	mov	x5, x19
	add	x4, x4, :lo12:.LC6
	.loc 1 4672 0
	mov	x22, x0
	.loc 1 4673 0
	mov	w0, 4
.LVL196:
	bl	HI_PRINT
.LVL197:
	.loc 1 4674 0
	mov	x0, x22
	bl	VENC_HAL_CfgReg
.LVL198:
	.loc 1 4675 0
	adrp	x4, .LC7
	mov	x1, x20
	mov	x3, x21
	mov	x5, x19
	mov	w0, 4
	mov	w2, 4675
	add	x4, x4, :lo12:.LC7
	bl	HI_PRINT
.LVL199:
	.loc 1 4677 0
	mov	w0, 0
	ldp	x19, x20, [sp,16]
	.cfi_restore 20
	.cfi_restore 19
	ldp	x21, x22, [sp,32]
	.cfi_restore 22
	.cfi_restore 21
.LVL200:
	ldp	x29, x30, [sp], 48
	.cfi_restore 30
	.cfi_restore 29
	.cfi_def_cfa 31, 0
	ret
	.cfi_endproc
.LFE2772:
	.size	VENC_DRV_EflCfgRegVenc, .-VENC_DRV_EflCfgRegVenc
	.align	2
	.global	VENC_DRV_EflStartVencByReg
	.type	VENC_DRV_EflStartVencByReg, %function
VENC_DRV_EflStartVencByReg:
.LFB2773:
	.loc 1 4680 0
	.cfi_startproc
.LVL201:
	stp	x29, x30, [sp, -48]!
	.cfi_def_cfa_offset 48
	.cfi_offset 29, -48
	.cfi_offset 30, -40
	.loc 1 4685 0
	adrp	x5, .LANCHOR0
	adrp	x4, .LC6
	.loc 1 4680 0
	add	x29, sp, 0
	.cfi_def_cfa_register 29
	stp	x19, x20, [sp,16]
	.loc 1 4685 0
	add	x5, x5, :lo12:.LANCHOR0
	.cfi_offset 19, -32
	.cfi_offset 20, -24
	adrp	x19, .LC0
	add	x20, x5, 448
	add	x19, x19, :lo12:.LC0
	.loc 1 4680 0
	str	x21, [sp,32]
	.cfi_offset 21, -16
	.loc 1 4685 0
	mov	x1, x19
	.loc 1 4680 0
	mov	x21, x0
	.loc 1 4685 0
	mov	x3, x20
	add	x5, x5, 480
	mov	w0, 4
.LVL202:
	mov	w2, 4685
	add	x4, x4, :lo12:.LC6
	bl	HI_PRINT
.LVL203:
	.loc 1 4690 0
	ldr	x3, [x21,1776]
.LVL204:
	.loc 1 4693 0
	mov	w4, 1
	.loc 1 4707 0
	mov	x1, x19
	mov	w0, 4
	mov	w2, 4707
	.loc 1 4692 0
	str	wzr, [x3,16]
	.loc 1 4693 0
	str	w4, [x3,16]
	.loc 1 4707 0
	adrp	x4, .LC8
	mov	x3, x20
.LVL205:
	add	x4, x4, :lo12:.LC8
	bl	HI_PRINT
.LVL206:
	.loc 1 4709 0
	ldr	x21, [sp,32]
	.cfi_restore 21
.LVL207:
	mov	w0, 0
	ldp	x19, x20, [sp,16]
	.cfi_restore 20
	.cfi_restore 19
	ldp	x29, x30, [sp], 48
	.cfi_restore 30
	.cfi_restore 29
	.cfi_def_cfa 31, 0
	ret
	.cfi_endproc
.LFE2773:
	.size	VENC_DRV_EflStartVencByReg, .-VENC_DRV_EflStartVencByReg
	.align	2
	.global	VENC_DRV_EflReadRegVenc
	.type	VENC_DRV_EflReadRegVenc, %function
VENC_DRV_EflReadRegVenc:
.LFB2774:
	.loc 1 4712 0
	.cfi_startproc
.LVL208:
	stp	x29, x30, [sp, -48]!
	.cfi_def_cfa_offset 48
	.cfi_offset 29, -48
	.cfi_offset 30, -40
	.loc 1 4713 0
	adrp	x4, .LC6
	mov	w2, 4713
	.loc 1 4712 0
	add	x29, sp, 0
	.cfi_def_cfa_register 29
	stp	x19, x20, [sp,16]
	.cfi_offset 19, -32
	.cfi_offset 20, -24
	.loc 1 4713 0
	adrp	x19, .LANCHOR0
	adrp	x20, .LC0
	add	x19, x19, :lo12:.LANCHOR0
	add	x20, x20, :lo12:.LC0
	.loc 1 4712 0
	stp	x21, x22, [sp,32]
	.cfi_offset 21, -16
	.cfi_offset 22, -8
	.loc 1 4713 0
	add	x21, x19, 512
	add	x19, x19, 536
	mov	x1, x20
	mov	x3, x21
	mov	x5, x19
	add	x4, x4, :lo12:.LC6
	.loc 1 4712 0
	mov	x22, x0
	.loc 1 4713 0
	mov	w0, 4
.LVL209:
	bl	HI_PRINT
.LVL210:
	.loc 1 4714 0
	mov	x0, x22
	bl	VENC_HAL_ReadReg
.LVL211:
	.loc 1 4715 0
	adrp	x4, .LC9
	mov	x1, x20
	mov	x3, x21
	mov	x5, x19
	mov	w0, 4
	mov	w2, 4715
	add	x4, x4, :lo12:.LC9
	bl	HI_PRINT
.LVL212:
	.loc 1 4717 0
	ldp	x19, x20, [sp,16]
	.cfi_restore 20
	.cfi_restore 19
	ldp	x21, x22, [sp,32]
	.cfi_restore 22
	.cfi_restore 21
.LVL213:
	ldp	x29, x30, [sp], 48
	.cfi_restore 30
	.cfi_restore 29
	.cfi_def_cfa 31, 0
	ret
	.cfi_endproc
.LFE2774:
	.size	VENC_DRV_EflReadRegVenc, .-VENC_DRV_EflReadRegVenc
	.align	2
	.global	VENC_DRV_EflReadRegVencSimple
	.type	VENC_DRV_EflReadRegVencSimple, %function
VENC_DRV_EflReadRegVencSimple:
.LFB2775:
	.loc 1 4720 0
	.cfi_startproc
.LVL214:
	stp	x29, x30, [sp, -48]!
	.cfi_def_cfa_offset 48
	.cfi_offset 29, -48
	.cfi_offset 30, -40
	.loc 1 4721 0
	adrp	x4, .LC6
	mov	w2, 4721
	.loc 1 4720 0
	add	x29, sp, 0
	.cfi_def_cfa_register 29
	stp	x19, x20, [sp,16]
	.cfi_offset 19, -32
	.cfi_offset 20, -24
	.loc 1 4721 0
	adrp	x19, .LANCHOR0
	adrp	x20, .LC0
	add	x19, x19, :lo12:.LANCHOR0
	add	x20, x20, :lo12:.LC0
	.loc 1 4720 0
	stp	x21, x22, [sp,32]
	.cfi_offset 21, -16
	.cfi_offset 22, -8
	.loc 1 4721 0
	add	x21, x19, 560
	add	x19, x19, 592
	mov	x1, x20
	mov	x3, x21
	mov	x5, x19
	add	x4, x4, :lo12:.LC6
	.loc 1 4720 0
	mov	x22, x0
	.loc 1 4721 0
	mov	w0, 4
.LVL215:
	bl	HI_PRINT
.LVL216:
	.loc 1 4722 0
	mov	x0, x22
	bl	VENC_HAL_ReadRegSimple
.LVL217:
	.loc 1 4723 0
	adrp	x4, .LC9
	mov	x1, x20
	mov	x3, x21
	mov	x5, x19
	mov	w0, 4
	mov	w2, 4723
	add	x4, x4, :lo12:.LC9
	bl	HI_PRINT
.LVL218:
	.loc 1 4725 0
	ldp	x19, x20, [sp,16]
	.cfi_restore 20
	.cfi_restore 19
	ldp	x21, x22, [sp,32]
	.cfi_restore 22
	.cfi_restore 21
.LVL219:
	ldp	x29, x30, [sp], 48
	.cfi_restore 30
	.cfi_restore 29
	.cfi_def_cfa 31, 0
	ret
	.cfi_endproc
.LFE2775:
	.size	VENC_DRV_EflReadRegVencSimple, .-VENC_DRV_EflReadRegVencSimple
	.align	2
	.global	VENC_DRV_H265e_ReMakeSlcHdr
	.type	VENC_DRV_H265e_ReMakeSlcHdr, %function
VENC_DRV_H265e_ReMakeSlcHdr:
.LFB2776:
	.loc 1 4728 0
	.cfi_startproc
.LVL220:
	stp	x29, x30, [sp, -128]!
	.cfi_def_cfa_offset 128
	.cfi_offset 29, -128
	.cfi_offset 30, -120
	.loc 1 4736 0 discriminator 2
	mov	w3, 2
	.loc 1 4728 0
	add	x29, sp, 0
	.cfi_def_cfa_register 29
	stp	x19, x20, [sp,16]
	.cfi_offset 19, -112
	.cfi_offset 20, -104
	.loc 1 4728 0
	mov	x19, x0
	adrp	x20, __stack_chk_guard
	.loc 1 4741 0
	ldr	x1, [x0]
	.loc 1 4746 0
	ldr	w4, [x0,7008]
	.loc 1 4736 0 discriminator 2
	mov	w0, 1
.LVL221:
	.loc 1 4735 0
	ldr	w5, [x19,1868]
	.loc 1 4767 0 discriminator 2
	mov	w6, w0
	.loc 1 4741 0
	ldr	w9, [x1,2576]
	.loc 1 4743 0
	str	wzr, [x19,7020]
	.loc 1 4744 0
	str	wzr, [x19,7024]
	.loc 1 4736 0
	ldr	w2, [x19,1388]
	.loc 1 4737 0
	ldr	w10, [x19,1496]
	.loc 1 4747 0
	ldr	w8, [x19,7012]
	.loc 1 4736 0 discriminator 2
	cmp	w2, wzr
	.loc 1 4748 0
	str	w4, [x1,184]
	.loc 1 4736 0 discriminator 2
	csel	w3, w3, w0, ne
	.loc 1 4728 0
	ldr	x1, [x20,#:lo12:__stack_chk_guard]
	.loc 1 4749 0
	ldr	x2, [x19]
	ldr	w7, [x19,7012]
	.loc 1 4728 0
	str	x1, [x29,120]
	.loc 1 4749 0
	str	w7, [x2,180]
	.loc 1 4732 0
	stp	xzr, xzr, [x29,32]
	.loc 1 4756 0
	ldr	x2, [x19]
	.loc 1 4758 0
	ldr	w1, [x19,3268]
	.loc 1 4732 0
	stp	xzr, xzr, [x29,96]
	.loc 1 4758 0
	sub	w1, w1, #26
	.loc 1 4735 0
	str	w5, [x29,104]
	.loc 1 4732 0
	stp	xzr, xzr, [x29,64]
	stp	xzr, xzr, [x29,80]
	.loc 1 4736 0 discriminator 4
	str	w3, [x29,36]
	.loc 1 4737 0
	str	w10, [x29,112]
	.loc 1 4739 0
	str	w5, [x29,44]
	.loc 1 4741 0
	str	w9, [x29,48]
	.loc 1 4745 0
	str	w0, [x29,52]
	.loc 1 4756 0
	ldr	w7, [x2,828]
	.loc 1 4746 0
	str	w4, [x29,56]
	.loc 1 4758 0
	str	w1, [x29,72]
	.loc 1 4767 0
	ldr	w1, [x2,216]
	.loc 1 4747 0
	str	w8, [x29,60]
	.loc 1 4756 0
	str	w7, [x29,64]
	.loc 1 4760 0
	str	w0, [x29,76]
	.loc 1 4761 0
	str	w0, [x29,80]
	.loc 1 4763 0
	str	w0, [x29,32]
	.loc 1 4767 0
	cbz	w1, .L345
	.loc 1 4767 0 is_stmt 0 discriminator 1
	ldr	w6, [x2,340]
.L345:
	.loc 1 4770 0 is_stmt 1
	ldr	w5, [x2,2616]
	.loc 1 4771 0
	add	x1, x29, 32
	.loc 1 4768 0
	ldr	w4, [x2,256]
	.loc 1 4771 0
	mov	x0, x19
	.loc 1 4769 0
	ldr	w3, [x2,252]
	.loc 1 4770 0
	mov	w2, 5
	sub	w2, w2, w5
	.loc 1 4767 0 discriminator 4
	str	w6, [x29,100]
	.loc 1 4770 0
	str	w2, [x29,68]
	.loc 1 4768 0
	str	w4, [x29,92]
	.loc 1 4769 0
	str	w3, [x29,96]
	.loc 1 4771 0
	bl	H265e_MakeSlcHdr
.LVL222:
	.loc 1 4773 0
	ldr	x2, [x29,120]
	ldr	x1, [x20,#:lo12:__stack_chk_guard]
	.loc 1 4771 0
	str	w0, [x19,1872]
	.loc 1 4773 0
	cmp	x2, x1
	bne	.L350
	ldp	x19, x20, [sp,16]
	.cfi_remember_state
	.cfi_restore 20
	.cfi_restore 19
.LVL223:
	ldp	x29, x30, [sp], 128
	.cfi_restore 30
	.cfi_restore 29
	.cfi_def_cfa 31, 0
	ret
.LVL224:
.L350:
	.cfi_restore_state
	bl	__stack_chk_fail
.LVL225:
	.cfi_endproc
.LFE2776:
	.size	VENC_DRV_H265e_ReMakeSlcHdr, .-VENC_DRV_H265e_ReMakeSlcHdr
	.align	2
	.global	VENC_DRV_EflEndOneSliceVenc
	.type	VENC_DRV_EflEndOneSliceVenc, %function
VENC_DRV_EflEndOneSliceVenc:
.LFB2779:
	.loc 1 5087 0
	.cfi_startproc
.LVL226:
	stp	x29, x30, [sp, -48]!
	.cfi_def_cfa_offset 48
	.cfi_offset 29, -48
	.cfi_offset 30, -40
	.loc 1 5088 0
	adrp	x4, .LC10
	mov	w0, 4
.LVL227:
	.loc 1 5087 0
	add	x29, sp, 0
	.cfi_def_cfa_register 29
	stp	x19, x20, [sp,16]
	.cfi_offset 19, -32
	.cfi_offset 20, -24
	.loc 1 5088 0
	adrp	x19, .LANCHOR0
	adrp	x20, .LC0
	add	x19, x19, :lo12:.LANCHOR0
	.loc 1 5087 0
	str	x21, [sp,32]
	.cfi_offset 21, -16
	.loc 1 5088 0
	add	x20, x20, :lo12:.LC0
	add	x21, x19, 624
	add	x19, x19, 656
	mov	x1, x20
	mov	x3, x21
	mov	x5, x19
	mov	w2, 5088
	add	x4, x4, :lo12:.LC10
	bl	HI_PRINT
.LVL228:
	.loc 1 5090 0
	adrp	x4, .LC11
	mov	x1, x20
	mov	x3, x21
	mov	x5, x19
	mov	w0, 4
	mov	w2, 5090
	add	x4, x4, :lo12:.LC11
	bl	HI_PRINT
.LVL229:
	.loc 1 5092 0
	ldr	x21, [sp,32]
	.cfi_restore 21
	mov	w0, 0
	ldp	x19, x20, [sp,16]
	.cfi_restore 20
	.cfi_restore 19
	ldp	x29, x30, [sp], 48
	.cfi_restore 30
	.cfi_restore 29
	.cfi_def_cfa 31, 0
	ret
	.cfi_endproc
.LFE2779:
	.size	VENC_DRV_EflEndOneSliceVenc, .-VENC_DRV_EflEndOneSliceVenc
	.align	2
	.global	VENC_DRV_EflFlushStrmHeader
	.type	VENC_DRV_EflFlushStrmHeader, %function
VENC_DRV_EflFlushStrmHeader:
.LFB2781:
	.loc 1 5141 0
	.cfi_startproc
.LVL230:
	sub	sp, sp, #1008
	.cfi_def_cfa_offset 1008
	adrp	x3, __stack_chk_guard
	.loc 1 5147 0
	mov	w1, 0
	mov	x2, 300
	.loc 1 5141 0
	stp	x29, x30, [sp, -96]!
	.cfi_def_cfa_offset 1104
	.cfi_offset 29, -1104
	.cfi_offset 30, -1096
	add	x29, sp, 0
	.cfi_def_cfa_register 29
	ldr	x3, [x3,#:lo12:__stack_chk_guard]
	stp	x21, x22, [sp,32]
	.cfi_offset 21, -1072
	.cfi_offset 22, -1064
	mov	x21, x0
	.loc 1 5147 0
	add	x0, x29, 168
.LVL231:
	.loc 1 5141 0
	stp	x19, x20, [sp,16]
	stp	x23, x24, [sp,48]
	stp	x25, x26, [sp,64]
	stp	x27, x28, [sp,80]
	.cfi_offset 19, -1088
	.cfi_offset 20, -1080
	.cfi_offset 23, -1056
	.cfi_offset 24, -1048
	.cfi_offset 25, -1040
	.cfi_offset 26, -1032
	.cfi_offset 27, -1024
	.cfi_offset 28, -1016
	.loc 1 5141 0
	str	x3, [x29,1096]
	.loc 1 5147 0
	bl	memset
.LVL232:
	.loc 1 5148 0
	mov	w1, 0
	mov	x2, 300
	add	x0, x29, 472
	bl	memset
.LVL233:
	.loc 1 5149 0
	add	x0, x29, 776
	mov	w1, 0
	mov	x2, 320
	bl	memset
.LVL234:
	.loc 1 5155 0
	cbz	x21, .L471
	.loc 1 5157 0
	ldr	x1, [x21]
	adrp	x0, .LANCHOR0
	add	x3, x0, :lo12:.LANCHOR0
	adrp	x20, .LC0
	adrp	x4, .LC14
	mov	w0, 4
	ldr	w5, [x1,192]
	mov	w2, 5157
	add	x1, x20, :lo12:.LC0
	add	x3, x3, 688
	add	x4, x4, :lo12:.LC14
	bl	HI_PRINT
.LVL235:
	.loc 1 5159 0
	ldr	x19, [x21]
	ldr	w0, [x19,192]
	cbnz	w0, .L355
	.loc 1 5172 0
	ldr	w22, [x19,300]
	.loc 1 5200 0 discriminator 2
	mov	w0, 1
	.loc 1 5173 0
	ldr	w20, [x19,296]
	.loc 1 5200 0 discriminator 2
	str	w0, [x29,124]
	.loc 1 5172 0
	add	w1, w22, 7
	.loc 1 5173 0
	add	w0, w20, 7
	.loc 1 5172 0
	and	w1, w1, -8
	.loc 1 5173 0
	and	w0, w0, -8
	.loc 1 5172 0
	str	w1, [x29,120]
	.loc 1 5173 0
	str	w0, [x29,116]
	.loc 1 5175 0
	sub	w1, w1, w22
	.loc 1 5177 0
	sub	w0, w0, w20
	.loc 1 5175 0
	lsr	w2, w1, 1
	.loc 1 5177 0
	lsr	w1, w0, 1
	.loc 1 5193 0
	ldr	w23, [x19,1580]
	.loc 1 5177 0
	mov	w0, w1
	.loc 1 5175 0
	str	w2, [x29,100]
	.loc 1 5177 0
	str	w1, [x29,96]
	orr	w2, w0, w2
	.loc 1 5193 0
	ldr	w1, [x19,1584]
	.loc 1 5179 0 discriminator 2
	cmp	w2, wzr
	cset	w2, ne
	.loc 1 5200 0
	ldr	w0, [x19,216]
	.loc 1 5193 0
	cmp	w23, w1
	.loc 1 5194 0
	ldr	w1, [x19,232]
	str	w1, [x29,112]
	.loc 1 5193 0
	cset	w24, ne
	.loc 1 5195 0
	ldr	w1, [x19,236]
	.loc 1 5179 0 discriminator 2
	str	w2, [x29,104]
	.loc 1 5195 0
	str	w1, [x29,108]
	.loc 1 5182 0
	ldr	w28, [x19,2576]
	.loc 1 5183 0
	ldr	w23, [x19,812]
	.loc 1 5188 0
	ldr	w27, [x19,1976]
	.loc 1 5192 0
	ldr	w26, [x19,1972]
	.loc 1 5200 0
	cbz	w0, .L356
	.loc 1 5200 0 is_stmt 0 discriminator 1
	ldr	w0, [x19,340]
	str	w0, [x29,124]
.L356:
.LBB187:
.LBB188:
	.loc 1 445 0 is_stmt 1
	add	x19, x29, 136
.LBE188:
.LBE187:
	.loc 1 5208 0
	ldr	w0, [x29,124]
	.loc 1 5210 0
	add	x25, x21, 1980
	.loc 1 5208 0
	str	w0, [x21,2592]
.LBB191:
.LBB189:
	.loc 1 445 0
	mov	x1, x25
	mov	x0, x19
	.loc 1 475 0
	mov	w20, 29
	.loc 1 445 0
	bl	VENC_DRV_BsOpenBitStream
.LVL236:
	.loc 1 446 0
	mov	x0, x19
	mov	w1, 1
	mov	w2, 32
	bl	VENC_DRV_BsPutBits32
.LVL237:
	.loc 1 449 0
	mov	x0, x19
	mov	w1, 16385
	mov	w2, 16
	bl	VENC_DRV_BsPutBits32
.LVL238:
	.loc 1 451 0
	mov	x0, x19
	mov	w1, 0
	mov	w2, 4
	bl	VENC_DRV_BsPutBits32
.LVL239:
	.loc 1 453 0
	mov	x0, x19
	mov	w1, 3
	mov	w2, 2
	bl	VENC_DRV_BsPutBits32
.LVL240:
	.loc 1 455 0
	mov	x0, x19
	mov	w1, 0
	mov	w2, 6
	bl	VENC_DRV_BsPutBits32
.LVL241:
	.loc 1 457 0
	mov	x0, x19
	mov	w1, 0
	mov	w2, 3
	bl	VENC_DRV_BsPutBits32
.LVL242:
	.loc 1 459 0
	mov	w1, 1
	mov	x0, x19
	mov	w2, w1
	bl	VENC_DRV_BsPutBits32
.LVL243:
	.loc 1 461 0
	mov	x0, x19
	mov	w1, 65535
	mov	w2, 16
	bl	VENC_DRV_BsPutBits32
.LVL244:
	.loc 1 465 0
	mov	x0, x19
	mov	w1, 0
	mov	w2, 2
	bl	VENC_DRV_BsPutBits32
.LVL245:
	.loc 1 467 0
	mov	x0, x19
	mov	w1, 0
	mov	w2, 1
	bl	VENC_DRV_BsPutBits32
.LVL246:
	.loc 1 469 0
	mov	x0, x19
	mov	w1, 1
	mov	w2, 5
	bl	VENC_DRV_BsPutBits32
.LVL247:
	.loc 1 471 0
	mov	x0, x19
	mov	w1, 0
	mov	w2, 1
	bl	VENC_DRV_BsPutBits32
.LVL248:
	.loc 1 473 0
	mov	w1, 1
	mov	x0, x19
	mov	w2, w1
	bl	VENC_DRV_BsPutBits32
.LVL249:
	.loc 1 475 0
	mov	w1, 1
	mov	x0, x19
	mov	w2, w1
	bl	VENC_DRV_BsPutBits32
.LVL250:
.L357:
	.loc 1 480 0
	mov	x0, x19
	mov	w1, 0
	mov	w2, 1
	bl	VENC_DRV_BsPutBits32
.LVL251:
	.loc 1 477 0 discriminator 1
	subs	w20, w20, #1
	bne	.L357
	.loc 1 484 0
	mov	w1, 0
	mov	w2, 1
	mov	x0, x19
.LBE189:
.LBE191:
	.loc 1 5211 0
	add	x22, x21, 2180
.LBB192:
.LBB193:
	.loc 1 576 0
	mov	w20, 29
.LBE193:
.LBE192:
.LBB216:
.LBB190:
	.loc 1 484 0
	bl	VENC_DRV_BsPutBits32
.LVL252:
	.loc 1 486 0
	mov	x0, x19
	mov	w1, 0
	mov	w2, 1
	bl	VENC_DRV_BsPutBits32
.LVL253:
	.loc 1 488 0
	mov	x0, x19
	mov	w1, 0
	mov	w2, 1
	bl	VENC_DRV_BsPutBits32
.LVL254:
	.loc 1 490 0
	mov	x0, x19
	mov	w1, 0
	mov	w2, 1
	bl	VENC_DRV_BsPutBits32
.LVL255:
	.loc 1 492 0
	mov	x0, x19
	mov	w1, 0
	mov	w2, 16
	bl	VENC_DRV_BsPutBits32
.LVL256:
	.loc 1 494 0
	mov	x0, x19
	mov	w1, 0
	mov	w2, 16
	bl	VENC_DRV_BsPutBits32
.LVL257:
	.loc 1 496 0
	mov	x0, x19
	mov	w1, 0
	mov	w2, 12
	bl	VENC_DRV_BsPutBits32
.LVL258:
	.loc 1 498 0
	mov	x0, x19
	mov	w1, 0
	mov	w2, 8
	bl	VENC_DRV_BsPutBits32
.LVL259:
	.loc 1 517 0
	mov	w1, 1
	mov	x0, x19
	mov	w2, w1
	bl	VENC_DRV_BsPutBits32
.LVL260:
	.loc 1 522 0
	mov	x0, x19
	mov	w1, 2
	mov	w2, 3
	bl	VENC_DRV_BsPutBits32
.LVL261:
	.loc 1 525 0
	mov	w1, 1
	mov	x0, x19
	mov	w2, w1
	bl	VENC_DRV_BsPutBits32
.LVL262:
	.loc 1 528 0
	mov	w1, 1
	mov	x0, x19
	mov	w2, w1
	bl	VENC_DRV_BsPutBits32
.LVL263:
	.loc 1 531 0
	mov	x0, x19
	mov	w1, 0
	mov	w2, 6
	bl	VENC_DRV_BsPutBits32
.LVL264:
	.loc 1 535 0
	mov	w1, 1
	mov	x0, x19
	mov	w2, w1
	bl	VENC_DRV_BsPutBits32
.LVL265:
	.loc 1 537 0
	mov	x0, x19
	mov	w1, 0
	mov	w2, 1
	bl	VENC_DRV_BsPutBits32
.LVL266:
	.loc 1 539 0
	mov	w2, 1
	mov	w1, 0
	mov	x0, x19
	bl	VENC_DRV_BsPutBits32
.LVL267:
	.loc 1 540 0
	mov	x0, x19
	bl	H264e_PutTrailingBits
.LVL268:
	.loc 1 542 0
	ldr	w0, [x19,20]
.LBE190:
.LBE216:
.LBB217:
.LBB210:
	.loc 1 552 0
	mov	x1, x22
.LBE210:
.LBE217:
	.loc 1 5210 0
	str	w0, [x21,1968]
.LBB218:
.LBB211:
	.loc 1 552 0
	mov	x0, x19
	bl	VENC_DRV_BsOpenBitStream
.LVL269:
	.loc 1 554 0
	mov	x0, x19
	mov	w1, 1
	mov	w2, 32
	bl	VENC_DRV_BsPutBits32
.LVL270:
	.loc 1 555 0
	mov	x0, x19
	mov	w1, 16897
	mov	w2, 16
	bl	VENC_DRV_BsPutBits32
.LVL271:
	.loc 1 557 0
	mov	x0, x19
	mov	w1, 0
	mov	w2, 4
	bl	VENC_DRV_BsPutBits32
.LVL272:
	.loc 1 559 0
	mov	x0, x19
	mov	w1, 0
	mov	w2, 3
	bl	VENC_DRV_BsPutBits32
.LVL273:
	.loc 1 561 0
	mov	w1, 1
	mov	x0, x19
	mov	w2, w1
	bl	VENC_DRV_BsPutBits32
.LVL274:
	.loc 1 566 0
	mov	x0, x19
	mov	w1, 0
	mov	w2, 2
	bl	VENC_DRV_BsPutBits32
.LVL275:
	.loc 1 568 0
	mov	x0, x19
	mov	w1, 0
	mov	w2, 1
	bl	VENC_DRV_BsPutBits32
.LVL276:
	.loc 1 570 0
	mov	x0, x19
	mov	w1, 1
	mov	w2, 5
	bl	VENC_DRV_BsPutBits32
.LVL277:
	.loc 1 572 0
	mov	x0, x19
	mov	w1, 0
	mov	w2, 1
	bl	VENC_DRV_BsPutBits32
.LVL278:
	.loc 1 574 0
	mov	w1, 1
	mov	x0, x19
	mov	w2, w1
	bl	VENC_DRV_BsPutBits32
.LVL279:
	.loc 1 576 0
	mov	w1, 1
	mov	x0, x19
	mov	w2, w1
	bl	VENC_DRV_BsPutBits32
.LVL280:
.L358:
	.loc 1 581 0
	mov	x0, x19
	mov	w1, 0
	mov	w2, 1
	bl	VENC_DRV_BsPutBits32
.LVL281:
	.loc 1 578 0 discriminator 1
	subs	w20, w20, #1
	bne	.L358
	.loc 1 584 0
	mov	w1, 0
	mov	w2, 1
	mov	x0, x19
	bl	VENC_DRV_BsPutBits32
.LVL282:
	.loc 1 586 0
	mov	x0, x19
	mov	w1, 0
	mov	w2, 1
	bl	VENC_DRV_BsPutBits32
.LVL283:
	.loc 1 588 0
	mov	x0, x19
	mov	w1, 0
	mov	w2, 1
	bl	VENC_DRV_BsPutBits32
.LVL284:
	.loc 1 590 0
	mov	x0, x19
	mov	w1, 0
	mov	w2, 1
	bl	VENC_DRV_BsPutBits32
.LVL285:
	.loc 1 592 0
	mov	x0, x19
	mov	w1, 0
	mov	w2, 16
	bl	VENC_DRV_BsPutBits32
.LVL286:
	.loc 1 594 0
	mov	x0, x19
	mov	w1, 0
	mov	w2, 16
	bl	VENC_DRV_BsPutBits32
.LVL287:
	.loc 1 596 0
	mov	x0, x19
	mov	w1, 0
	mov	w2, 12
	bl	VENC_DRV_BsPutBits32
.LVL288:
	.loc 1 598 0
	mov	x0, x19
	mov	w1, 0
	mov	w2, 8
	bl	VENC_DRV_BsPutBits32
.LVL289:
	.loc 1 602 0
	mov	w1, 1
	mov	x0, x19
	mov	w2, w1
	bl	VENC_DRV_BsPutBits32
.LVL290:
	.loc 1 606 0
	mov	x0, x19
	mov	w1, 2
	mov	w2, 3
	bl	VENC_DRV_BsPutBits32
.LVL291:
.LBB194:
	.loc 1 608 0
	ldr	w0, [x29,120]
	add	w1, w0, 1
.LVL292:
.LBB195:
	adrp	x0, .LANCHOR0
	add	x0, x0, :lo12:.LANCHOR0
	ubfx	x2, x1, 24, 8
	add	x0, x0, 64
	ldrb	w2, [x0,x2]
.LVL293:
	cmp	w2, 8
	beq	.L472
.L359:
.LBE195:
.LBE194:
	.loc 1 609 0
	mov	w3, 63
	mov	x0, x19
	sub	w2, w3, w2, lsl 1
.LVL294:
	bl	VENC_DRV_BsPutBits32
.LVL295:
.LBB197:
	.loc 1 612 0
	ldr	w0, [x29,116]
	add	w1, w0, 1
.LVL296:
.LBB198:
	adrp	x0, .LANCHOR0
	add	x0, x0, :lo12:.LANCHOR0
	ubfx	x2, x1, 24, 8
	add	x0, x0, 64
	ldrb	w2, [x0,x2]
.LVL297:
	cmp	w2, 8
	beq	.L473
.L360:
.LBE198:
.LBE197:
	.loc 1 613 0
	mov	w3, 63
	mov	x0, x19
	sub	w2, w3, w2, lsl 1
.LVL298:
	bl	VENC_DRV_BsPutBits32
.LVL299:
	.loc 1 615 0
	ldr	w20, [x29,104]
	mov	x0, x19
	mov	w2, 1
	mov	w1, w20
	bl	VENC_DRV_BsPutBits32
.LVL300:
	.loc 1 617 0
	cbnz	w20, .L474
.L361:
	.loc 1 634 0
	mov	w1, 1
	mov	x0, x19
	mov	w2, w1
	bl	VENC_DRV_BsPutBits32
.LVL301:
	.loc 1 636 0
	mov	w1, 1
	mov	x0, x19
	mov	w2, w1
	bl	VENC_DRV_BsPutBits32
.LVL302:
	.loc 1 639 0
	mov	x0, x19
	mov	w1, 13
	mov	w2, 7
	bl	VENC_DRV_BsPutBits32
.LVL303:
	.loc 1 642 0
	mov	w1, 1
	mov	x0, x19
	mov	w2, w1
	bl	VENC_DRV_BsPutBits32
.LVL304:
	.loc 1 647 0
	mov	x0, x19
	mov	w1, 2
	mov	w2, 3
	bl	VENC_DRV_BsPutBits32
.LVL305:
	.loc 1 649 0
	mov	w1, 1
	mov	x0, x19
	mov	w2, w1
	bl	VENC_DRV_BsPutBits32
.LVL306:
	.loc 1 651 0
	mov	w1, 1
	mov	x0, x19
	mov	w2, w1
	bl	VENC_DRV_BsPutBits32
.LVL307:
	.loc 1 654 0
	mov	w1, 1
	mov	x0, x19
	mov	w2, w1
	bl	VENC_DRV_BsPutBits32
.LVL308:
	.loc 1 657 0
	mov	x0, x19
	mov	w1, 4
	mov	w2, 5
	bl	VENC_DRV_BsPutBits32
.LVL309:
	.loc 1 659 0
	mov	w1, 1
	mov	x0, x19
	mov	w2, w1
	bl	VENC_DRV_BsPutBits32
.LVL310:
	.loc 1 662 0
	mov	x0, x19
	mov	w1, 4
	mov	w2, 5
	bl	VENC_DRV_BsPutBits32
.LVL311:
	.loc 1 664 0
	mov	w1, 1
	mov	x0, x19
	mov	w2, w1
	bl	VENC_DRV_BsPutBits32
.LVL312:
	.loc 1 666 0
	mov	w1, 1
	mov	x0, x19
	mov	w2, w1
	bl	VENC_DRV_BsPutBits32
.LVL313:
	.loc 1 668 0
	mov	x0, x19
	mov	w1, 0
	mov	w2, 1
	bl	VENC_DRV_BsPutBits32
.LVL314:
	.loc 1 670 0
	mov	x0, x19
	mov	w1, 0
	mov	w2, 1
	bl	VENC_DRV_BsPutBits32
.LVL315:
	.loc 1 673 0
	mov	w1, 1
	mov	x0, x19
	mov	w2, w1
	bl	VENC_DRV_BsPutBits32
.LVL316:
	.loc 1 675 0
	mov	x0, x19
	mov	w1, w23
	mov	w2, 1
	bl	VENC_DRV_BsPutBits32
.LVL317:
	.loc 1 677 0
	cmp	w23, 1
	beq	.L475
.L364:
	.loc 1 695 0
	mov	w1, 2
	mov	w2, 3
	mov	x0, x19
.LBE211:
.LBE218:
	.loc 1 5212 0
	add	x20, x21, 2380
.LBB219:
.LBB212:
	.loc 1 695 0
	bl	VENC_DRV_BsPutBits32
.LVL318:
	.loc 1 699 0
	mov	x0, x19
	mov	w1, 2
	mov	w2, 3
	bl	VENC_DRV_BsPutBits32
.LVL319:
	.loc 1 701 0
	mov	w1, 1
	mov	x0, x19
	mov	w2, w1
	bl	VENC_DRV_BsPutBits32
.LVL320:
	.loc 1 705 0
	mov	w1, 1
	mov	x0, x19
	mov	w2, w1
	bl	VENC_DRV_BsPutBits32
.LVL321:
	.loc 1 707 0
	mov	w1, 1
	mov	x0, x19
	mov	w2, w1
	bl	VENC_DRV_BsPutBits32
.LVL322:
	.loc 1 710 0
	mov	x0, x19
	mov	w2, 1
	mov	w1, 0
	bl	VENC_DRV_BsPutBits32
.LVL323:
	.loc 1 712 0
	mov	x0, x19
	mov	w1, w28
	mov	w2, 1
	bl	VENC_DRV_BsPutBits32
.LVL324:
	.loc 1 714 0
	mov	x0, x19
	mov	w1, w27
	mov	w2, 1
	bl	VENC_DRV_BsPutBits32
.LVL325:
	.loc 1 716 0
	mov	x0, x19
	mov	w1, 0
	mov	w2, 1
	bl	VENC_DRV_BsPutBits32
.LVL326:
	.loc 1 718 0
	mov	w2, 1
	mov	w1, 0
	mov	x0, x19
	bl	VENC_DRV_BsPutBits32
.LVL327:
	.loc 1 719 0
	mov	x0, x19
	bl	H264e_PutTrailingBits
.LVL328:
	.loc 1 720 0
	ldr	w0, [x19,20]
.LBE212:
.LBE219:
.LBB220:
.LBB221:
	.loc 1 731 0
	mov	x1, x20
.LBE221:
.LBE220:
	.loc 1 5211 0
	str	w0, [x21,1972]
.LBB236:
.LBB233:
	.loc 1 731 0
	mov	x0, x19
	bl	VENC_DRV_BsOpenBitStream
.LVL329:
	.loc 1 733 0
	mov	x0, x19
	mov	w1, 1
	mov	w2, 32
	bl	VENC_DRV_BsPutBits32
.LVL330:
	.loc 1 734 0
	mov	x0, x19
	mov	w1, 17409
	mov	w2, 16
	bl	VENC_DRV_BsPutBits32
.LVL331:
	.loc 1 736 0
	mov	w1, 1
	mov	x0, x19
	mov	w2, w1
	bl	VENC_DRV_BsPutBits32
.LVL332:
	.loc 1 738 0
	mov	w1, 1
	mov	x0, x19
	mov	w2, w1
	bl	VENC_DRV_BsPutBits32
.LVL333:
	.loc 1 740 0
	mov	x0, x19
	mov	w1, 0
	mov	w2, 1
	bl	VENC_DRV_BsPutBits32
.LVL334:
	.loc 1 742 0
	mov	x0, x19
	mov	w1, 0
	mov	w2, 1
	bl	VENC_DRV_BsPutBits32
.LVL335:
	.loc 1 744 0
	mov	x0, x19
	mov	w1, 0
	mov	w2, 3
	bl	VENC_DRV_BsPutBits32
.LVL336:
	.loc 1 746 0
	mov	x0, x19
	mov	w1, 0
	mov	w2, 1
	bl	VENC_DRV_BsPutBits32
.LVL337:
	.loc 1 749 0
	mov	x0, x19
	mov	w1, 0
	mov	w2, 1
	bl	VENC_DRV_BsPutBits32
.LVL338:
	.loc 1 751 0
	mov	w1, 1
	mov	x0, x19
	mov	w2, w1
	bl	VENC_DRV_BsPutBits32
.LVL339:
	.loc 1 753 0
	mov	w1, 1
	mov	x0, x19
	mov	w2, w1
	bl	VENC_DRV_BsPutBits32
.LVL340:
	.loc 1 756 0
	mov	w1, 1
	mov	x0, x19
	mov	w2, w1
	bl	VENC_DRV_BsPutBits32
.LVL341:
	.loc 1 759 0
	mov	x0, x19
	mov	w1, w26
	mov	w2, 1
	bl	VENC_DRV_BsPutBits32
.LVL342:
	.loc 1 761 0
	mov	x0, x19
	mov	w2, 1
	mov	w1, 0
	bl	VENC_DRV_BsPutBits32
.LVL343:
	.loc 1 763 0
	mov	x0, x19
	mov	w1, w24
	mov	w2, 1
	bl	VENC_DRV_BsPutBits32
.LVL344:
	.loc 1 764 0
	cbnz	w24, .L476
.L365:
.LBB222:
	.loc 1 771 0
	ldr	w1, [x29,112]
.LBB223:
	adrp	x2, .LANCHOR0
	add	x3, x2, :lo12:.LANCHOR0
.LBE223:
	cmp	w1, wzr
.LBB224:
	add	x3, x3, 64
.LBE224:
	sxtw	x0, w1
	eor	x1, x0, x0, asr 63
	sub	x0, x1, x0, asr 63
	cset	w1, le
	orr	w1, w1, w0, lsl 1
.LVL345:
.LBB225:
	ubfx	x0, x1, 24, 8
	ldrb	w2, [x3,x0]
.LVL346:
	cmp	w2, 8
	beq	.L477
.L366:
.LBE225:
.LBE222:
	.loc 1 772 0
	mov	w3, 63
	mov	x0, x19
	sub	w2, w3, w2, lsl 1
.LVL347:
	bl	VENC_DRV_BsPutBits32
.LVL348:
.LBB227:
	.loc 1 774 0
	ldr	w0, [x29,108]
	cmp	w0, wzr
	sxtw	x23, w0
	cset	w1, le
	eor	x0, x23, x23, asr 63
	sub	x23, x0, x23, asr 63
.LBB228:
	adrp	x0, .LANCHOR0
	add	x0, x0, :lo12:.LANCHOR0
.LBE228:
	orr	w1, w1, w23, lsl 1
.LVL349:
.LBB229:
	add	x0, x0, 64
	ubfx	x2, x1, 24, 8
	ldrb	w23, [x0,x2]
.LVL350:
	cmp	w23, 8
	beq	.L478
.L367:
.LBE229:
.LBE227:
	.loc 1 775 0
	mov	w2, 63
	mov	x0, x19
	sub	w2, w2, w23, lsl 1
	bl	VENC_DRV_BsPutBits32
.LVL351:
	.loc 1 777 0
	mov	x0, x19
	mov	w1, 0
	mov	w2, 1
	bl	VENC_DRV_BsPutBits32
.LVL352:
	.loc 1 779 0
	mov	x0, x19
	mov	w1, 0
	mov	w2, 1
	bl	VENC_DRV_BsPutBits32
.LVL353:
	.loc 1 781 0
	mov	x0, x19
	mov	w1, 0
	mov	w2, 1
	bl	VENC_DRV_BsPutBits32
.LVL354:
	.loc 1 783 0
	mov	x0, x19
	mov	w1, 0
	mov	w2, 1
	bl	VENC_DRV_BsPutBits32
.LVL355:
	.loc 1 785 0
	mov	x0, x19
	mov	w1, 0
	mov	w2, 1
	bl	VENC_DRV_BsPutBits32
.LVL356:
	.loc 1 787 0
	mov	x0, x19
	mov	w2, 1
	mov	w1, 0
	bl	VENC_DRV_BsPutBits32
.LVL357:
	.loc 1 801 0
	ldr	w1, [x29,124]
	mov	x0, x19
	mov	w2, 1
	bl	VENC_DRV_BsPutBits32
.LVL358:
	.loc 1 803 0
	mov	w1, 1
	mov	x0, x19
	mov	w2, w1
	bl	VENC_DRV_BsPutBits32
.LVL359:
	.loc 1 807 0
	mov	w1, 1
	mov	x0, x19
	mov	w2, w1
	bl	VENC_DRV_BsPutBits32
.LVL360:
	.loc 1 809 0
	mov	x0, x19
	mov	w1, 0
	mov	w2, 1
	bl	VENC_DRV_BsPutBits32
.LVL361:
	.loc 1 814 0
	mov	w1, 1
	mov	x0, x19
	mov	w2, w1
	bl	VENC_DRV_BsPutBits32
.LVL362:
	.loc 1 817 0
	mov	w1, 1
	mov	x0, x19
	mov	w2, w1
	bl	VENC_DRV_BsPutBits32
.LVL363:
	.loc 1 821 0
	mov	x0, x19
	mov	w1, 0
	mov	w2, 1
	bl	VENC_DRV_BsPutBits32
.LVL364:
	.loc 1 824 0
	mov	x0, x19
	mov	w1, 0
	mov	w2, 1
	bl	VENC_DRV_BsPutBits32
.LVL365:
	.loc 1 826 0
	mov	w1, 1
	mov	x0, x19
	mov	w2, w1
	bl	VENC_DRV_BsPutBits32
.LVL366:
	.loc 1 828 0
	mov	x0, x19
	mov	w1, 0
	mov	w2, 1
	bl	VENC_DRV_BsPutBits32
.LVL367:
	.loc 1 830 0
	mov	w1, 0
	mov	w2, 1
	mov	x0, x19
	bl	VENC_DRV_BsPutBits32
.LVL368:
	.loc 1 832 0
	mov	x0, x19
	bl	H264e_PutTrailingBits
.LVL369:
	.loc 1 833 0
	ldr	w0, [x19,20]
.LBE233:
.LBE236:
	.loc 1 5214 0
	mov	x2, 200
	.loc 1 5212 0
	str	w0, [x21,1976]
	.loc 1 5214 0
	mov	x1, x25
	add	x0, x29, 168
	bl	memcpy
.LVL370:
	.loc 1 5215 0
	mov	x1, x22
	mov	x2, 200
	add	x0, x29, 472
	bl	memcpy
.LVL371:
	.loc 1 5216 0
	mov	x1, x20
	mov	x2, 200
	add	x0, x29, 776
	bl	memcpy
.LVL372:
	.loc 1 5218 0
	str	xzr, [x25,192]
	stp	xzr, xzr, [x25]
	stp	xzr, xzr, [x25,16]
	stp	xzr, xzr, [x25,32]
	stp	xzr, xzr, [x25,48]
	stp	xzr, xzr, [x25,64]
	stp	xzr, xzr, [x25,80]
	stp	xzr, xzr, [x25,96]
	stp	xzr, xzr, [x25,112]
	stp	xzr, xzr, [x25,128]
	stp	xzr, xzr, [x25,144]
	stp	xzr, xzr, [x25,160]
	stp	xzr, xzr, [x25,176]
	.loc 1 5219 0
	stp	xzr, xzr, [x22]
	stp	xzr, xzr, [x22,16]
	stp	xzr, xzr, [x22,32]
	stp	xzr, xzr, [x22,48]
	stp	xzr, xzr, [x22,64]
	stp	xzr, xzr, [x22,80]
	stp	xzr, xzr, [x22,96]
	stp	xzr, xzr, [x22,112]
	stp	xzr, xzr, [x22,128]
	stp	xzr, xzr, [x22,144]
	stp	xzr, xzr, [x22,160]
	stp	xzr, xzr, [x22,176]
	str	xzr, [x22,192]
	.loc 1 5221 0
	mov	x2, x25
	.loc 1 5220 0
	stp	xzr, xzr, [x20]
	stp	xzr, xzr, [x20,16]
	stp	xzr, xzr, [x20,32]
	stp	xzr, xzr, [x20,48]
	stp	xzr, xzr, [x20,64]
	stp	xzr, xzr, [x20,80]
	stp	xzr, xzr, [x20,96]
	stp	xzr, xzr, [x20,112]
	stp	xzr, xzr, [x20,128]
	stp	xzr, xzr, [x20,144]
	stp	xzr, xzr, [x20,160]
	stp	xzr, xzr, [x20,176]
	str	xzr, [x20,192]
	.loc 1 5221 0
	add	x0, x29, 168
	ldr	w1, [x21,1968]
	bl	CheckPreventionThreeByte
.LVL373:
	.loc 1 5222 0
	ldr	w3, [x21,1968]
	.loc 1 5223 0
	mov	x2, x22
	ldr	w1, [x21,1972]
	.loc 1 5222 0
	add	w3, w3, w0, lsl 3
	.loc 1 5223 0
	add	x0, x29, 472
	.loc 1 5222 0
	str	w3, [x21,1968]
	.loc 1 5223 0
	bl	CheckPreventionThreeByte
.LVL374:
	.loc 1 5224 0
	ldr	w3, [x21,1972]
	.loc 1 5225 0
	mov	x2, x20
	ldr	w1, [x21,1976]
	.loc 1 5224 0
	add	w3, w3, w0, lsl 3
	.loc 1 5225 0
	add	x0, x29, 776
	.loc 1 5224 0
	str	w3, [x21,1972]
	.loc 1 5225 0
	bl	CheckPreventionThreeByte
.LVL375:
	.loc 1 5226 0
	ldr	w2, [x21,1976]
	.loc 1 5261 0
	mov	w1, 0
	.loc 1 5226 0
	add	w0, w2, w0, lsl 3
	str	w0, [x21,1976]
.LVL376:
.L354:
	.loc 1 5262 0
	mov	w0, w1
	adrp	x1, __stack_chk_guard
	ldr	x2, [x29,1096]
	ldr	x1, [x1,#:lo12:__stack_chk_guard]
	cmp	x2, x1
	bne	.L479
	ldp	x19, x20, [sp,16]
	.cfi_remember_state
	.cfi_restore 20
	.cfi_restore 19
	ldp	x21, x22, [sp,32]
	.cfi_restore 22
	.cfi_restore 21
.LVL377:
	ldp	x23, x24, [sp,48]
	.cfi_restore 24
	.cfi_restore 23
.LVL378:
	ldp	x25, x26, [sp,64]
	.cfi_restore 26
	.cfi_restore 25
	ldp	x27, x28, [sp,80]
	.cfi_restore 28
	.cfi_restore 27
.LVL379:
	ldp	x29, x30, [sp], 96
	.cfi_restore 30
	.cfi_restore 29
	.cfi_def_cfa 31, 1008
	add	sp, sp, 1008
	.cfi_def_cfa_offset 912
	ret
.LVL380:
.L355:
	.cfi_restore_state
	.loc 1 5228 0
	cmp	w0, 1
	.loc 1 5261 0
	mov	w1, 0
	.loc 1 5228 0
	bne	.L354
	.loc 1 5230 0
	ldr	w28, [x21,2584]
	cmp	w28, 1
	beq	.L413
	.loc 1 5239 0
	cmp	w28, wzr
	mov	w0, 100
	mov	w24, 66
	csel	w24, w24, w0, eq
.LVL381:
.L369:
	.loc 1 5246 0
	ldr	w4, [x19,300]
.LBB237:
.LBB238:
.LBB239:
.LBB240:
	.loc 1 1054 0
	mov	w2, 520
.LBE240:
.LBE239:
.LBE238:
.LBE237:
	.loc 1 5247 0
	ldr	w3, [x19,296]
	.loc 1 5246 0
	add	w23, w4, 15
	.loc 1 5257 0
	ldr	w5, [x19,164]
	.loc 1 5247 0
	add	w22, w3, 15
	.loc 1 5246 0
	lsr	w23, w23, 4
	.loc 1 5247 0
	lsr	w22, w22, 4
	.loc 1 5250 0
	lsl	w0, w23, 4
	sub	w0, w0, w4
	.loc 1 5251 0
	lsl	w1, w22, 4
	.loc 1 5257 0
	cmp	w5, wzr
	.loc 1 5251 0
	sub	w1, w1, w3
	.loc 1 5250 0
	lsr	w3, w0, 1
	.loc 1 5251 0
	lsr	w26, w1, 1
	.loc 1 5257 0
	cset	w0, eq
	str	w0, [x29,112]
	.loc 1 5250 0
	uxtb	w0, w3
	str	w0, [x29,124]
	.loc 1 5251 0
	uxtb	w0, w26
	str	w0, [x29,120]
.LBB276:
.LBB269:
.LBB245:
.LBB241:
	.loc 1 1049 0
	mul	w27, w22, w23
.LVL382:
.LBE241:
.LBE245:
.LBE269:
.LBE276:
	.loc 1 5254 0
	ldr	w0, [x19,236]
	str	w0, [x29,104]
.LBB277:
.LBB270:
.LBB246:
.LBB242:
	.loc 1 1052 0
	cmp	w27, 36864
.LBE242:
.LBE246:
.LBE270:
.LBE277:
	.loc 1 5255 0
	ldr	w0, [x19,1972]
	str	w0, [x29,116]
	.loc 1 5250 0
	str	w3, [x29,108]
	.loc 1 5253 0
	ldr	w25, [x19,232]
.LBB278:
.LBB271:
.LBB247:
.LBB243:
	.loc 1 1050 0
	ldr	w0, [x21,3256]
	.loc 1 1052 0
	bhi	.L372
	.loc 1 1056 0
	mov	w1, 22080
	.loc 1 1058 0
	mov	w2, 510
	.loc 1 1056 0
	cmp	w27, w1
	bhi	.L372
	.loc 1 1060 0
	mov	w1, 8704
	.loc 1 1062 0
	mov	w2, 500
	.loc 1 1060 0
	cmp	w27, w1
	bhi	.L372
	.loc 1 1064 0
	cmp	w27, 8192
	.loc 1 1066 0
	mov	w2, 420
	.loc 1 1064 0
	bhi	.L372
	.loc 1 1068 0
	mov	w1, 5120
	.loc 1 1070 0
	mov	w2, 400
	.loc 1 1068 0
	cmp	w27, w1
	bhi	.L372
	.loc 1 1072 0
	cmp	w27, 3600
	.loc 1 1074 0
	mov	w2, 320
	.loc 1 1072 0
	bhi	.L372
	.loc 1 1076 0
	cmp	w27, 1620
	.loc 1 1078 0
	mov	w2, 310
	.loc 1 1076 0
	bhi	.L372
	.loc 1 1080 0
	cmp	w27, 792
	.loc 1 1082 0
	mov	w2, 220
	.loc 1 1080 0
	bhi	.L372
	.loc 1 1084 0
	cmp	w27, 396
	.loc 1 1086 0
	mov	w2, 210
	.loc 1 1084 0
	bhi	.L372
	.loc 1 1090 0
	cmp	w27, 100
	mov	w1, 110
	mov	w2, 100
	csel	w2, w2, w1, cc
.L372:
	.loc 1 1098 0
	mov	w4, 44864
	.loc 1 1097 0
	lsl	w3, w27, 1
.LVL383:
	.loc 1 1098 0
	movk	w4, 0x1, lsl 16
	.loc 1 1100 0
	mov	w1, 510
	.loc 1 1098 0
	cmp	w3, w4
	bhi	.L373
	.loc 1 1102 0
	mov	w4, 34816
	.loc 1 1104 0
	mov	w1, 500
	.loc 1 1102 0
	cmp	w3, w4
	bhi	.L373
	.loc 1 1106 0
	cmp	w3, 32768
	.loc 1 1108 0
	mov	w1, 420
	.loc 1 1106 0
	bhi	.L373
	.loc 1 1110 0
	cmp	w3, 20480
	.loc 1 1112 0
	mov	w1, 400
	.loc 1 1110 0
	bhi	.L373
	.loc 1 1114 0
	mov	w4, 18000
	.loc 1 1116 0
	mov	w1, 320
	.loc 1 1114 0
	cmp	w3, w4
	bhi	.L373
	.loc 1 1118 0
	mov	w4, 8100
	.loc 1 1120 0
	mov	w1, 310
	.loc 1 1118 0
	cmp	w3, w4
	bhi	.L373
	.loc 1 1122 0
	mov	w4, 4752
	.loc 1 1124 0
	mov	w1, 220
	.loc 1 1122 0
	cmp	w3, w4
	bhi	.L373
	.loc 1 1126 0
	cmp	w3, 2376
	.loc 1 1128 0
	mov	w1, 210
	.loc 1 1126 0
	bhi	.L373
	.loc 1 1130 0
	cmp	w3, 900
	.loc 1 1132 0
	mov	w1, 120
	.loc 1 1130 0
	bhi	.L373
	.loc 1 1140 0
	cmp	w3, 396
	mov	w1, 110
	mov	w3, 100
.LVL384:
	csel	w1, w1, w3, hi
.LVL385:
.L373:
	.loc 1 1050 0
	mul	w0, w27, w0
.LVL386:
	.loc 1 1143 0
	cmp	w1, w2
.LBE243:
.LBE247:
	.loc 1 1301 0
	mov	w27, 52
.LVL387:
.LBB248:
.LBB244:
	.loc 1 1143 0
	csel	w1, w1, w2, cs
	.loc 1 1146 0
	cmp	w0, 983040
	bhi	.L374
	.loc 1 1150 0
	cmp	w0, 589824
	.loc 1 1152 0
	mov	w5, 510
	.loc 1 1150 0
	bhi	.L375
	.loc 1 1154 0
	mov	w2, 522240
	.loc 1 1156 0
	mov	w5, 500
	.loc 1 1154 0
	cmp	w0, w2
	bhi	.L375
	.loc 1 1158 0
	cmp	w0, 245760
	.loc 1 1160 0
	mov	w5, 420
	.loc 1 1158 0
	bhi	.L375
	.loc 1 1162 0
	mov	w2, 19392
	.loc 1 1164 0
	mov	w5, 400
	.loc 1 1162 0
	movk	w2, 0x3, lsl 16
	cmp	w0, w2
	bhi	.L375
	.loc 1 1166 0
	mov	w2, 42464
	.loc 1 1168 0
	mov	w5, 320
	.loc 1 1166 0
	movk	w2, 0x1, lsl 16
	cmp	w0, w2
	bhi	.L375
	.loc 1 1170 0
	mov	w2, 40500
	.loc 1 1172 0
	mov	w5, 310
	.loc 1 1170 0
	cmp	w0, w2
	bhi	.L375
	.loc 1 1174 0
	mov	w2, 20250
	.loc 1 1176 0
	mov	w5, 300
	.loc 1 1174 0
	cmp	w0, w2
	bhi	.L375
	.loc 1 1178 0
	mov	w2, 19800
	.loc 1 1180 0
	mov	w5, 220
	.loc 1 1178 0
	cmp	w0, w2
	bhi	.L375
	.loc 1 1182 0
	mov	w2, 11880
	.loc 1 1184 0
	mov	w5, 210
	.loc 1 1182 0
	cmp	w0, w2
	bhi	.L375
	.loc 1 1186 0
	mov	w2, 6000
	.loc 1 1188 0
	mov	w5, 130
	.loc 1 1186 0
	cmp	w0, w2
	bhi	.L375
	.loc 1 1190 0
	cmp	w0, 3000
	.loc 1 1192 0
	mov	w5, 120
	.loc 1 1190 0
	bhi	.L375
	.loc 1 1200 0
	cmp	w0, 1485
	mov	w5, 100
	mov	w0, 110
.LVL388:
	csel	w5, w0, w5, hi
.LVL389:
.L375:
	.loc 1 1203 0
	cmp	w1, w5
	csel	w5, w1, w5, cs
.LBE244:
.LBE248:
	.loc 1 1217 0
	cmp	w5, 300
	beq	.L377
	bhi	.L378
	cmp	w5, 120
	beq	.L379
	bls	.L480
	cmp	w5, 200
	beq	.L383
	bls	.L481
	cmp	w5, 210
	.loc 1 1251 0
	mov	w27, 21
	.loc 1 1217 0
	beq	.L374
	cmp	w5, 220
	.loc 1 1256 0
	mov	w27, 22
	.loc 1 1217 0
	beq	.L374
.L376:
	.loc 1 1306 0
	adrp	x0, .LANCHOR0
.LVL390:
	adrp	x4, .LC15
	add	x3, x0, :lo12:.LANCHOR0
.LVL391:
	add	x1, x20, :lo12:.LC0
	mov	w0, 1
	mov	w2, 1306
	add	x3, x3, 720
	add	x4, x4, :lo12:.LC15
	.loc 1 1307 0
	mov	w27, 20
	.loc 1 1306 0
	bl	HI_PRINT
.LVL392:
.L374:
	.loc 1 1312 0
	add	x19, x29, 136
	add	x1, x21, 2180
	mov	x0, x19
.LVL393:
	bl	VENC_DRV_BsOpenBitStream
.LVL394:
	.loc 1 1315 0
	mov	x0, x19
	mov	w1, 1
	mov	w2, 32
	bl	VENC_DRV_BsPutBits32
.LVL395:
	.loc 1 1317 0
	mov	x0, x19
	mov	w1, 0
	mov	w2, 1
	bl	VENC_DRV_BsPutBits31
.LVL396:
	.loc 1 1318 0
	mov	x0, x19
	mov	w1, 3
	mov	w2, 2
	bl	VENC_DRV_BsPutBits31
.LVL397:
	.loc 1 1319 0
	mov	x0, x19
	mov	w2, 5
	mov	w1, 7
	bl	VENC_DRV_BsPutBits31
.LVL398:
	.loc 1 1321 0
	mov	x0, x19
	mov	w1, w24
	mov	w2, 8
	bl	VENC_DRV_BsPutBits31
.LVL399:
	.loc 1 1322 0
	cmp	w24, 66
	beq	.L482
	.loc 1 1326 0
	mov	w2, 8
	mov	x0, x19
	mov	w1, 0
	bl	VENC_DRV_BsPutBits31
.LVL400:
	.loc 1 1328 0
	mov	x0, x19
	mov	w1, w27
	mov	w2, 8
	bl	VENC_DRV_BsPutBits31
.LVL401:
	.loc 1 1330 0
	mov	w1, 1
	mov	x0, x19
	mov	w2, w1
	bl	VENC_DRV_BsPutBits31
.LVL402:
	.loc 1 1332 0
	cmp	w24, 100
	beq	.L483
.L399:
	.loc 1 1338 0
	mov	w1, 1
	mov	x0, x19
	mov	w2, w1
	bl	VENC_DRV_BsPutBits31
.LVL403:
	.loc 1 1340 0
	mov	w1, 3
	mov	x0, x19
	mov	w2, w1
	bl	VENC_DRV_BsPutBits31
.LVL404:
	.loc 1 1341 0
	mov	x0, x19
	mov	w1, 2
	mov	w2, 3
	bl	VENC_DRV_BsPutBits31
.LVL405:
	.loc 1 1342 0
	mov	x0, x19
	mov	w1, 0
	mov	w2, 1
	bl	VENC_DRV_BsPutBits31
.LVL406:
.LBB249:
.LBB250:
	.loc 1 1344 0
	adrp	x0, .LANCHOR0
	ubfx	x1, x23, 24, 4
	add	x0, x0, :lo12:.LANCHOR0
	add	x0, x0, 64
	ldrb	w2, [x0,x1]
.LVL407:
	cmp	w2, 8
	beq	.L484
.L400:
.LBE250:
.LBE249:
	.loc 1 1345 0
	mov	w3, 63
	mov	x0, x19
	mov	w1, w23
	sub	w2, w3, w2, lsl 1
.LVL408:
	bl	VENC_DRV_BsPutBits31
.LVL409:
.LBB252:
.LBB253:
	.loc 1 1346 0
	adrp	x0, .LANCHOR0
	add	x1, x0, :lo12:.LANCHOR0
	ubfx	x0, x22, 24, 4
	add	x1, x1, 64
	ldrb	w0, [x1,x0]
.LVL410:
	cmp	w0, 8
	beq	.L485
.L401:
.LBE253:
.LBE252:
	.loc 1 1347 0
	mov	w2, 63
	mov	w1, w22
	sub	w2, w2, w0, lsl 1
	mov	x0, x19
.LVL411:
	bl	VENC_DRV_BsPutBits31
.LVL412:
	.loc 1 1349 0
	mov	w1, 1
	mov	x0, x19
	mov	w2, w1
	bl	VENC_DRV_BsPutBits31
.LVL413:
	.loc 1 1358 0
	mov	x0, x19
	mov	w1, 0
	mov	w2, 1
	bl	VENC_DRV_BsPutBits31
.LVL414:
.LBB255:
	.loc 1 1363 0
	ldr	w1, [x29,124]
	.loc 1 1365 0
	mov	w2, 1
	.loc 1 1363 0
	ldr	w0, [x29,120]
	orr	w0, w0, w1
	cmp	w0, wzr
	.loc 1 1365 0
	mov	x0, x19
	.loc 1 1363 0
	cset	w22, ne
	.loc 1 1365 0
	mov	w1, w22
	bl	VENC_DRV_BsPutBits31
.LVL415:
	.loc 1 1367 0
	cbz	w22, .L402
	.loc 1 1370 0
	mov	w1, 1
	mov	x0, x19
	mov	w2, w1
	bl	VENC_DRV_BsPutBits31
.LVL416:
	ldr	w0, [x29,108]
	and	w1, w0, 255
.LBB256:
.LBB257:
	.loc 1 1371 0 discriminator 3
	adrp	x0, .LANCHOR0
	add	x2, x0, :lo12:.LANCHOR0
.LBE257:
	.loc 1 1371 0 is_stmt 0
	add	w1, w1, 1
.LVL417:
.LBB258:
	.loc 1 1371 0 discriminator 3
	add	x2, x2, 64
	ubfx	x0, x1, 8, 1
	ldrb	w0, [x2,x0]
	add	w0, w0, 16
.LVL418:
	cmp	w0, 24
	beq	.L486
.L403:
.LBE258:
.LBE256:
	.loc 1 1372 0 is_stmt 1
	mov	w2, 63
	sub	w2, w2, w0, lsl 1
	mov	x0, x19
.LVL419:
	bl	VENC_DRV_BsPutBits31
.LVL420:
	.loc 1 1374 0
	mov	w1, 1
	mov	x0, x19
	mov	w2, w1
	bl	VENC_DRV_BsPutBits31
.LVL421:
	and	w1, w26, 255
.LBB260:
.LBB261:
	.loc 1 1375 0 discriminator 3
	adrp	x0, .LANCHOR0
.LBE261:
	.loc 1 1375 0 is_stmt 0
	add	w1, w1, 1
.LVL422:
.LBB262:
	.loc 1 1375 0 discriminator 3
	add	x0, x0, :lo12:.LANCHOR0
	add	x0, x0, 64
	ubfx	x2, x1, 8, 1
	ldrb	w2, [x0,x2]
	add	w2, w2, 16
.LVL423:
	cmp	w2, 24
	beq	.L487
.L407:
.LBE262:
.LBE260:
	.loc 1 1376 0 is_stmt 1
	mov	w3, 63
	mov	x0, x19
	sub	w2, w3, w2, lsl 1
.LVL424:
	bl	VENC_DRV_BsPutBits31
.LVL425:
.L402:
.LBE255:
	.loc 1 1382 0
	adrp	x3, .LANCHOR0
	.loc 1 1379 0
	mov	w1, 0
	mov	w2, 1
	mov	x0, x19
	.loc 1 1382 0
	add	x22, x3, :lo12:.LANCHOR0
	.loc 1 1379 0
	bl	VENC_DRV_BsPutBits31
.LVL426:
	.loc 1 1380 0
	mov	x0, x19
	bl	H264e_PutTrailingBits
.LVL427:
	.loc 1 1382 0
	adrp	x4, .LC16
	add	x3, x22, 720
	add	x4, x4, :lo12:.LC16
	mov	w5, w24
	mov	w6, w27
	mov	w7, 1
	mov	w2, 1382
	add	x1, x20, :lo12:.LC0
	mov	w0, 4
.LBE271:
.LBE278:
.LBB279:
.LBB280:
.LBB281:
	.loc 1 1410 0
	sxtw	x20, w25
.LBB282:
	add	x22, x22, 64
.LBE282:
.LBE281:
.LBE280:
.LBE279:
.LBB297:
.LBB272:
	.loc 1 1382 0
	bl	HI_PRINT
.LVL428:
	.loc 1 1383 0
	ldr	w0, [x19,20]
.LBE272:
.LBE297:
.LBB298:
.LBB292:
	.loc 1 1392 0
	add	x1, x21, 2380
.LBE292:
.LBE298:
	.loc 1 5258 0
	str	w0, [x21,1972]
.LBB299:
.LBB293:
	.loc 1 1392 0
	mov	x0, x19
	bl	VENC_DRV_BsOpenBitStream
.LVL429:
	.loc 1 1394 0
	mov	x0, x19
	mov	w1, 1
	mov	w2, 32
	bl	VENC_DRV_BsPutBits32
.LVL430:
	.loc 1 1396 0
	mov	x0, x19
	mov	w1, 0
	mov	w2, 1
	bl	VENC_DRV_BsPutBits31
.LVL431:
	.loc 1 1397 0
	mov	x0, x19
	mov	w1, 3
	mov	w2, 2
	bl	VENC_DRV_BsPutBits31
.LVL432:
	.loc 1 1398 0
	mov	x0, x19
	mov	w1, 8
	mov	w2, 5
	bl	VENC_DRV_BsPutBits31
.LVL433:
	.loc 1 1400 0
	mov	w1, 1
	mov	x0, x19
	mov	w2, w1
	bl	VENC_DRV_BsPutBits31
.LVL434:
	.loc 1 1401 0
	mov	w1, 1
	mov	x0, x19
	mov	w2, w1
	bl	VENC_DRV_BsPutBits31
.LVL435:
	.loc 1 1403 0
	ldr	w1, [x29,112]
	mov	x0, x19
	mov	w2, 1
	bl	VENC_DRV_BsPutBits31
.LVL436:
	.loc 1 1404 0
	mov	x0, x19
	mov	w1, 0
	mov	w2, 1
	bl	VENC_DRV_BsPutBits31
.LVL437:
	.loc 1 1405 0
	mov	w1, 1
	mov	x0, x19
	mov	w2, w1
	bl	VENC_DRV_BsPutBits31
.LVL438:
	.loc 1 1406 0
	mov	x0, x19
	mov	w1, 2
	mov	w2, 3
	bl	VENC_DRV_BsPutBits31
.LVL439:
	.loc 1 1407 0
	mov	w1, 1
	mov	x0, x19
	mov	w2, w1
	bl	VENC_DRV_BsPutBits31
.LVL440:
	.loc 1 1408 0
	mov	x0, x19
	mov	w1, 0
	mov	w2, 3
	bl	VENC_DRV_BsPutBits31
.LVL441:
	.loc 1 1409 0
	mov	x0, x19
	mov	w1, 3
	mov	w2, 2
	bl	VENC_DRV_BsPutBits31
.LVL442:
.LBB285:
	.loc 1 1410 0
	eor	x0, x20, x20, asr 63
	cmp	w25, wzr
	sub	x20, x0, x20, asr 63
	cset	w1, le
	orr	w1, w1, w20, lsl 1
.LVL443:
.LBB283:
	ubfx	x0, x1, 24, 8
	ldrb	w0, [x22,x0]
.LVL444:
	cmp	w0, 8
	beq	.L488
.L405:
.LBE283:
.LBE285:
	.loc 1 1411 0
	mov	w2, 63
	sub	w2, w2, w0, lsl 1
	mov	x0, x19
.LVL445:
	bl	VENC_DRV_BsPutBits31
.LVL446:
	.loc 1 1413 0
	mov	w1, 1
	mov	x0, x19
	mov	w2, w1
	bl	VENC_DRV_BsPutBits31
.LVL447:
	.loc 1 1414 0
	ldr	w1, [x29,116]
	mov	x0, x19
	mov	w2, 1
	bl	VENC_DRV_BsPutBits31
.LVL448:
	.loc 1 1416 0
	mov	x0, x19
	mov	w1, 0
	mov	w2, 1
	bl	VENC_DRV_BsPutBits31
.LVL449:
	.loc 1 1418 0
	cmp	w28, 3
	beq	.L489
.L408:
	.loc 1 1427 0
	mov	x0, x19
	bl	H264e_PutTrailingBits
.LVL450:
	.loc 1 1428 0
	ldr	w0, [x19,20]
.LBE293:
.LBE299:
	.loc 1 5261 0
	mov	w1, 0
	.loc 1 5259 0
	str	w0, [x21,1976]
	b	.L354
.LVL451:
.L472:
.LBB300:
.LBB213:
.LBB200:
.LBB196:
	.loc 1 608 0 discriminator 1
	ubfx	x2, x1, 16, 8
.LVL452:
	ldrb	w2, [x0,x2]
	add	w2, w2, 8
.LVL453:
	cmp	w2, 16
	bne	.L359
	.loc 1 608 0 is_stmt 0 discriminator 3
	ubfx	x2, x1, 8, 8
.LVL454:
	ldrb	w2, [x0,x2]
	add	w2, w2, 16
.LVL455:
	cmp	w2, 24
	bne	.L359
	.loc 1 608 0 discriminator 5
	uxtb	x2, w1
.LVL456:
	ldrb	w2, [x0,x2]
	add	w2, w2, 24
.LVL457:
	b	.L359
.LVL458:
.L473:
.LBE196:
.LBE200:
.LBB201:
.LBB199:
	.loc 1 612 0 is_stmt 1 discriminator 1
	ubfx	x2, x1, 16, 8
.LVL459:
	ldrb	w2, [x0,x2]
	add	w2, w2, 8
.LVL460:
	cmp	w2, 16
	bne	.L360
	.loc 1 612 0 is_stmt 0 discriminator 3
	ubfx	x2, x1, 8, 8
.LVL461:
	ldrb	w2, [x0,x2]
	add	w2, w2, 16
.LVL462:
	cmp	w2, 24
	bne	.L360
	.loc 1 612 0 discriminator 5
	uxtb	x2, w1
.LVL463:
	ldrb	w2, [x0,x2]
	add	w2, w2, 24
.LVL464:
	b	.L360
.LVL465:
.L474:
.LBE199:
.LBE201:
	.loc 1 621 0 is_stmt 1
	mov	w1, 1
	mov	x0, x19
	mov	w2, w1
	bl	VENC_DRV_BsPutBits32
.LVL466:
.LBB202:
	.loc 1 623 0
	ldr	w0, [x29,100]
	add	w1, w0, 1
.LVL467:
.LBB203:
	adrp	x0, .LANCHOR0
	add	x0, x0, :lo12:.LANCHOR0
	ubfx	x2, x1, 24, 8
	add	x0, x0, 64
	ldrb	w2, [x0,x2]
.LVL468:
	cmp	w2, 8
	beq	.L490
.L362:
.LBE203:
.LBE202:
	.loc 1 624 0
	mov	w0, 63
	sub	w2, w0, w2, lsl 1
.LVL469:
	mov	x0, x19
	bl	VENC_DRV_BsPutBits32
.LVL470:
	.loc 1 628 0
	mov	w1, 1
	mov	x0, x19
	mov	w2, w1
	bl	VENC_DRV_BsPutBits32
.LVL471:
.LBB205:
	.loc 1 630 0
	ldr	w0, [x29,96]
	add	w1, w0, 1
.LVL472:
.LBB206:
	adrp	x0, .LANCHOR0
	add	x0, x0, :lo12:.LANCHOR0
	ubfx	x2, x1, 24, 8
	add	x0, x0, 64
	ldrb	w2, [x0,x2]
.LVL473:
	cmp	w2, 8
	beq	.L491
.L363:
.LBE206:
.LBE205:
	.loc 1 631 0
	mov	w3, 63
	mov	x0, x19
	sub	w2, w3, w2, lsl 1
.LVL474:
	bl	VENC_DRV_BsPutBits32
.LVL475:
	b	.L361
.LVL476:
.L477:
.LBE213:
.LBE300:
.LBB301:
.LBB234:
.LBB231:
.LBB226:
	.loc 1 771 0 discriminator 1
	ubfx	x0, x1, 16, 8
	ldrb	w2, [x3,x0]
.LVL477:
	add	w2, w2, 8
.LVL478:
	cmp	w2, 16
	bne	.L366
	.loc 1 771 0 is_stmt 0 discriminator 3
	ubfx	x0, x1, 8, 8
	ldrb	w2, [x3,x0]
.LVL479:
	add	w2, w2, 16
.LVL480:
	cmp	w2, 24
	bne	.L366
	.loc 1 771 0 discriminator 5
	uxtb	x0, w1
	ldrb	w2, [x3,x0]
.LVL481:
	add	w2, w2, 24
.LVL482:
	b	.L366
.LVL483:
.L478:
.LBE226:
.LBE231:
.LBB232:
.LBB230:
	.loc 1 774 0 is_stmt 1 discriminator 1
	ubfx	x2, x1, 16, 8
	ldrb	w23, [x0,x2]
.LVL484:
	add	w23, w23, 8
.LVL485:
	cmp	w23, 16
	bne	.L367
	.loc 1 774 0 is_stmt 0 discriminator 3
	ubfx	x2, x1, 8, 8
	ldrb	w23, [x0,x2]
.LVL486:
	add	w23, w23, 16
.LVL487:
	cmp	w23, 24
	bne	.L367
	.loc 1 774 0 discriminator 5
	uxtb	x2, w1
	ldrb	w23, [x0,x2]
.LVL488:
	add	w23, w23, 24
.LVL489:
	b	.L367
.LVL490:
.L489:
.LBE230:
.LBE232:
.LBE234:
.LBE301:
.LBB302:
.LBB294:
	.loc 1 1422 0 is_stmt 1
	mov	w1, 1
	mov	x0, x19
	mov	w2, w1
	bl	VENC_DRV_BsPutBits31
.LVL491:
	.loc 1 1423 0
	mov	x0, x19
	mov	w1, 0
	mov	w2, 1
	bl	VENC_DRV_BsPutBits31
.LVL492:
.LBB286:
	.loc 1 1424 0
	ldr	w0, [x29,104]
	cmp	w0, wzr
	sxtw	x1, w0
	cset	w2, le
	eor	x0, x1, x1, asr 63
	sub	x1, x0, x1, asr 63
.LBB287:
	adrp	x0, .LANCHOR0
	add	x0, x0, :lo12:.LANCHOR0
.LBE287:
	orr	w1, w2, w1, lsl 1
.LVL493:
.LBB288:
	add	x0, x0, 64
	ubfx	x2, x1, 24, 8
	ldrb	w2, [x0,x2]
.LVL494:
	cmp	w2, 8
	beq	.L492
.L409:
.LBE288:
.LBE286:
	.loc 1 1424 0 is_stmt 0 discriminator 7
	mov	w3, 63
	mov	x0, x19
	sub	w2, w3, w2, lsl 1
.LVL495:
	bl	VENC_DRV_BsPutBits31
.LVL496:
	b	.L408
.LVL497:
.L476:
.LBE294:
.LBE302:
.LBB303:
.LBB235:
	.loc 1 768 0 is_stmt 1
	mov	w1, 3
	mov	x0, x19
	mov	w2, w1
	bl	VENC_DRV_BsPutBits32
.LVL498:
	b	.L365
.L475:
.LBE235:
.LBE303:
.LBB304:
.LBB214:
	.loc 1 680 0
	mov	x0, x19
	mov	w1, 7
	mov	w2, 4
	bl	VENC_DRV_BsPutBits32
.LVL499:
	.loc 1 682 0
	mov	x0, x19
	mov	w1, 7
	mov	w2, 4
	bl	VENC_DRV_BsPutBits32
.LVL500:
	.loc 1 685 0
	mov	x0, x19
	mov	w1, w23
	mov	w2, w23
	bl	VENC_DRV_BsPutBits32
.LVL501:
	.loc 1 688 0
	mov	x0, x19
	mov	w1, w23
	mov	w2, w23
	bl	VENC_DRV_BsPutBits32
.LVL502:
	.loc 1 690 0
	mov	x0, x19
	mov	w1, 0
	mov	w2, w23
	bl	VENC_DRV_BsPutBits32
.LVL503:
	b	.L364
.LVL504:
.L488:
.LBE214:
.LBE304:
.LBB305:
.LBB295:
.LBB290:
.LBB284:
	.loc 1 1410 0 discriminator 1
	ubfx	x0, x1, 16, 8
.LVL505:
	ldrb	w0, [x22,x0]
	add	w0, w0, 8
.LVL506:
	cmp	w0, 16
	bne	.L405
	.loc 1 1410 0 is_stmt 0 discriminator 3
	ubfx	x0, x1, 8, 8
.LVL507:
	ldrb	w0, [x22,x0]
	add	w0, w0, 16
.LVL508:
	cmp	w0, 24
	bne	.L405
	.loc 1 1410 0 discriminator 5
	uxtb	x0, w1
.LVL509:
	ldrb	w0, [x22,x0]
	add	w0, w0, 24
.LVL510:
	b	.L405
.LVL511:
.L485:
.LBE284:
.LBE290:
.LBE295:
.LBE305:
.LBB306:
.LBB273:
.LBB266:
.LBB254:
	.loc 1 1346 0 is_stmt 1 discriminator 1
	ubfx	x0, x22, 16, 8
.LVL512:
	ldrb	w0, [x1,x0]
	add	w0, w0, 8
.LVL513:
	cmp	w0, 16
	bne	.L401
	.loc 1 1346 0 is_stmt 0 discriminator 3
	ubfx	x0, x22, 8, 8
.LVL514:
	ldrb	w0, [x1,x0]
	add	w0, w0, 16
.LVL515:
	cmp	w0, 24
	bne	.L401
	.loc 1 1346 0 discriminator 5
	uxtb	x0, w22
.LVL516:
	ldrb	w0, [x1,x0]
	add	w0, w0, 24
.LVL517:
	b	.L401
.LVL518:
.L484:
.LBE254:
.LBE266:
.LBB267:
.LBB251:
	.loc 1 1344 0 is_stmt 1 discriminator 1
	ubfx	x1, x23, 16, 8
	ldrb	w2, [x0,x1]
.LVL519:
	add	w2, w2, 8
.LVL520:
	cmp	w2, 16
	bne	.L400
	.loc 1 1344 0 is_stmt 0 discriminator 3
	ubfx	x1, x23, 8, 8
	ldrb	w2, [x0,x1]
.LVL521:
	add	w2, w2, 16
.LVL522:
	cmp	w2, 24
	bne	.L400
	.loc 1 1344 0 discriminator 5
	uxtb	x1, w23
	ldrb	w2, [x0,x1]
.LVL523:
	add	w2, w2, 24
.LVL524:
	b	.L400
.LVL525:
.L482:
.LBE251:
.LBE267:
	.loc 1 1323 0 is_stmt 1
	mov	x0, x19
	mov	w2, 8
	mov	w1, 192
	bl	VENC_DRV_BsPutBits31
.LVL526:
	.loc 1 1328 0
	mov	x0, x19
	mov	w1, w27
	mov	w2, 8
	bl	VENC_DRV_BsPutBits31
.LVL527:
	.loc 1 1330 0
	mov	w1, 1
	mov	x0, x19
	mov	w2, w1
	bl	VENC_DRV_BsPutBits31
.LVL528:
	b	.L399
.LVL529:
.L378:
	.loc 1 1217 0
	cmp	w5, 410
	beq	.L388
	bhi	.L389
	cmp	w5, 320
	beq	.L390
	cmp	w5, 400
	.loc 1 1276 0
	mov	w27, 40
	.loc 1 1217 0
	beq	.L374
	cmp	w5, 310
	.loc 1 1266 0
	mov	w27, 31
	.loc 1 1217 0
	beq	.L374
	b	.L376
.LVL530:
.L413:
.LBE273:
.LBE306:
	.loc 1 5236 0
	mov	w24, 77
.LVL531:
	b	.L369
.LVL532:
.L491:
.LBB307:
.LBB215:
.LBB208:
.LBB207:
	.loc 1 630 0 discriminator 1
	ubfx	x2, x1, 16, 8
.LVL533:
	ldrb	w2, [x0,x2]
	add	w2, w2, 8
.LVL534:
	cmp	w2, 16
	bne	.L363
	.loc 1 630 0 is_stmt 0 discriminator 3
	ubfx	x2, x1, 8, 8
.LVL535:
	ldrb	w2, [x0,x2]
	add	w2, w2, 16
.LVL536:
	cmp	w2, 24
	bne	.L363
	.loc 1 630 0 discriminator 5
	uxtb	x2, w1
.LVL537:
	ldrb	w2, [x0,x2]
	add	w2, w2, 24
.LVL538:
	b	.L363
.LVL539:
.L490:
.LBE207:
.LBE208:
.LBB209:
.LBB204:
	.loc 1 623 0 is_stmt 1 discriminator 1
	ubfx	x2, x1, 16, 8
.LVL540:
	ldrb	w2, [x0,x2]
	add	w2, w2, 8
.LVL541:
	cmp	w2, 16
	bne	.L362
	.loc 1 623 0 is_stmt 0 discriminator 3
	ubfx	x2, x1, 8, 8
.LVL542:
	ldrb	w2, [x0,x2]
	add	w2, w2, 16
.LVL543:
	cmp	w2, 24
	bne	.L362
	.loc 1 623 0 discriminator 5
	uxtb	x2, w1
.LVL544:
	ldrb	w2, [x0,x2]
	add	w2, w2, 24
.LVL545:
	b	.L362
.LVL546:
.L483:
.LBE204:
.LBE209:
.LBE215:
.LBE307:
.LBB308:
.LBB274:
	.loc 1 1334 0 is_stmt 1
	mov	x0, x19
	mov	w1, 2
	mov	w2, 3
	bl	VENC_DRV_BsPutBits31
.LVL547:
	.loc 1 1335 0
	mov	x0, x19
	mov	w1, 12
	mov	w2, 4
	bl	VENC_DRV_BsPutBits31
.LVL548:
	b	.L399
.LVL549:
.L492:
.LBE274:
.LBE308:
.LBB309:
.LBB296:
.LBB291:
.LBB289:
	.loc 1 1424 0 discriminator 1
	ubfx	x2, x1, 16, 8
.LVL550:
	ldrb	w2, [x0,x2]
	add	w2, w2, 8
.LVL551:
	cmp	w2, 16
	bne	.L409
	.loc 1 1424 0 is_stmt 0 discriminator 3
	ubfx	x2, x1, 8, 8
.LVL552:
	ldrb	w2, [x0,x2]
	add	w2, w2, 16
.LVL553:
	cmp	w2, 24
	bne	.L409
	.loc 1 1424 0 discriminator 5
	uxtb	x2, w1
.LVL554:
	ldrb	w2, [x0,x2]
	add	w2, w2, 24
.LVL555:
	b	.L409
.LVL556:
.L389:
.LBE289:
.LBE291:
.LBE296:
.LBE309:
.LBB310:
.LBB275:
	.loc 1 1217 0 is_stmt 1
	cmp	w5, 500
	beq	.L393
	bhi	.L394
	cmp	w5, 420
	.loc 1 1286 0
	mov	w27, 42
	.loc 1 1217 0
	beq	.L374
	b	.L376
.L480:
	cmp	w5, 101
	beq	.L381
	cmp	w5, 110
	.loc 1 1231 0
	mov	w27, 11
	.loc 1 1217 0
	beq	.L374
	cmp	w5, 100
	.loc 1 1221 0
	mov	w27, 10
	.loc 1 1217 0
	beq	.L374
	b	.L376
.L390:
	.loc 1 1271 0
	mov	w27, 32
	b	.L374
.L388:
	.loc 1 1281 0
	mov	w27, 41
	b	.L374
.L379:
	.loc 1 1236 0
	mov	w27, 12
	b	.L374
.L377:
	.loc 1 1261 0
	mov	w27, 30
	b	.L374
.L383:
	.loc 1 1246 0
	mov	w27, 20
	b	.L374
.L393:
	.loc 1 1291 0
	mov	w27, 50
	b	.L374
.LVL557:
.L487:
.LBB268:
.LBB264:
.LBB263:
	.loc 1 1375 0 discriminator 5
	uxtb	x2, w1
.LVL558:
	ldrb	w2, [x0,x2]
	add	w2, w2, 24
.LVL559:
	b	.L407
.LVL560:
.L486:
.LBE263:
.LBE264:
.LBB265:
.LBB259:
	.loc 1 1371 0 discriminator 5
	uxtb	x0, w1
.LVL561:
	ldrb	w0, [x2,x0]
	add	w0, w0, 24
.LVL562:
	b	.L403
.LVL563:
.L394:
.LBE259:
.LBE265:
.LBE268:
	.loc 1 1217 0
	cmp	w5, 510
	.loc 1 1296 0
	mov	w27, 51
	.loc 1 1217 0
	beq	.L374
	cmp	w5, 520
	.loc 1 1301 0
	mov	w27, 52
	.loc 1 1217 0
	bne	.L376
	b	.L374
.L481:
	cmp	w5, 130
	.loc 1 1241 0
	mov	w27, 13
	.loc 1 1217 0
	beq	.L374
	b	.L376
.L381:
	.loc 1 1226 0
	mov	w27, 1
	b	.L374
.LVL564:
.L471:
.LBE275:
.LBE310:
	.loc 1 5155 0 discriminator 1
	adrp	x0, .LC12
	adrp	x1, .LC13
	add	x1, x1, :lo12:.LC13
	add	x0, x0, :lo12:.LC12
	bl	printk
.LVL565:
	mov	w1, 11
	.loc 1 5155 0 is_stmt 0
	b	.L354
.LVL566:
.L479:
	.loc 1 5262 0 is_stmt 1
	bl	__stack_chk_fail
.LVL567:
	.cfi_endproc
.LFE2781:
	.size	VENC_DRV_EflFlushStrmHeader, .-VENC_DRV_EflFlushStrmHeader
	.align	2
	.global	scale_coeff_select
	.type	scale_coeff_select, %function
scale_coeff_select:
.LFB2782:
	.loc 1 5265 0
	.cfi_startproc
.LVL568:
	stp	x29, x30, [sp, -64]!
	.cfi_def_cfa_offset 64
	.cfi_offset 29, -64
	.cfi_offset 30, -56
	add	x29, sp, 0
	.cfi_def_cfa_register 29
	stp	x19, x20, [sp,16]
	stp	x21, x22, [sp,32]
	str	x23, [sp,48]
	.cfi_offset 19, -48
	.cfi_offset 20, -40
	.cfi_offset 21, -32
	.cfi_offset 22, -24
	.cfi_offset 23, -16
	.loc 1 5269 0
	ldr	w1, [x0,764]
	cmp	w1, 1
	beq	.L498
	.loc 1 5267 0
	mov	w22, 0
.LVL569:
	.loc 1 5266 0
	mov	w23, 0
.LVL570:
.L494:
	.loc 1 5343 0
	adrp	x20, .LANCHOR0
	adrp	x21, .LC0
	add	x20, x20, :lo12:.LANCHOR0
	add	x21, x21, :lo12:.LC0
	add	x20, x20, 736
	adrp	x4, .LC17
	mov	x19, x0
	mov	w6, w22
	mov	w0, 4
.LVL571:
	mov	x1, x21
	mov	w2, 5343
	mov	x3, x20
	add	x4, x4, :lo12:.LC17
	mov	w5, w23
	bl	HI_PRINT
.LVL572:
	.loc 1 5344 0
	ldr	w5, [x19,2808]
	adrp	x4, .LC18
	mov	w0, 4
	mov	x1, x21
	mov	w2, 5344
	mov	x3, x20
	add	x4, x4, :lo12:.LC18
	bl	HI_PRINT
.LVL573:
	.loc 1 5345 0
	ldr	w5, [x19,2804]
	adrp	x4, .LC19
	mov	w0, 4
	mov	x1, x21
	mov	w2, 5345
	mov	x3, x20
	add	x4, x4, :lo12:.LC19
	bl	HI_PRINT
.LVL574:
	.loc 1 5346 0
	ldr	w5, [x19,2936]
	adrp	x4, .LC20
	mov	w0, 4
	mov	x1, x21
	mov	w2, 5346
	mov	x3, x20
	add	x4, x4, :lo12:.LC20
	bl	HI_PRINT
.LVL575:
	.loc 1 5347 0
	ldr	w5, [x19,2932]
	adrp	x4, .LC21
	mov	w0, 4
	mov	x1, x21
	mov	w2, 5347
	mov	x3, x20
	add	x4, x4, :lo12:.LC21
	bl	HI_PRINT
.LVL576:
	.loc 1 5348 0
	mov	w0, 0
.L495:
	.loc 1 5349 0
	ldp	x19, x20, [sp,16]
	.cfi_remember_state
	.cfi_restore 20
	.cfi_restore 19
.LVL577:
	ldp	x21, x22, [sp,32]
	.cfi_restore 22
	.cfi_restore 21
.LVL578:
	ldr	x23, [sp,48]
	.cfi_restore 23
.LVL579:
	ldp	x29, x30, [sp], 64
	.cfi_restore 30
	.cfi_restore 29
	.cfi_def_cfa 31, 0
	ret
.LVL580:
.L498:
	.cfi_restore_state
	.loc 1 5272 0
	ldr	w1, [x0,788]
	.loc 1 5271 0
	ldr	w20, [x0,792]
	.loc 1 5272 0
	lsl	w6, w1, 3
	add	w6, w6, w1, lsl 1
	.loc 1 5271 0
	lsl	w5, w20, 3
	.loc 1 5272 0
	sub	w6, w6, #73728
	.loc 1 5271 0
	add	w5, w5, w20, lsl 1
	.loc 1 5272 0
	lsr	w22, w6, 14
.LVL581:
	.loc 1 5271 0
	sub	w5, w5, #73728
	.loc 1 5274 0
	cmp	w22, 15
	.loc 1 5271 0
	lsr	w23, w5, 14
.LVL582:
	.loc 1 5274 0
	bhi	.L497
	cmp	w23, 15
	bhi	.L497
	.loc 1 5278 0
	adrp	x2, .LANCHOR2
	ubfiz	x4, x23, 7, 18
	add	x2, x2, :lo12:.LANCHOR2
	.loc 1 5310 0
	ubfiz	x3, x22, 7, 18
	.loc 1 5278 0
	add	x1, x2, x4
	.loc 1 5310 0
	add	x19, x2, x3
	.loc 1 5278 0
	ldr	w4, [x2,x4]
	.loc 1 5279 0
	ldr	w21, [x1,4]
	.loc 1 5280 0
	ldr	w20, [x1,8]
	.loc 1 5281 0
	ldr	w18, [x1,12]
	.loc 1 5282 0
	ldr	w17, [x1,16]
	.loc 1 5283 0
	ldr	w16, [x1,20]
	.loc 1 5284 0
	ldr	w15, [x1,24]
	.loc 1 5285 0
	ldr	w14, [x1,28]
	.loc 1 5286 0
	ldr	w13, [x1,32]
	.loc 1 5287 0
	ldr	w12, [x1,36]
	.loc 1 5288 0
	ldr	w11, [x1,40]
	.loc 1 5289 0
	ldr	w10, [x1,44]
	.loc 1 5290 0
	ldr	w9, [x1,48]
	.loc 1 5291 0
	ldr	w8, [x1,52]
	.loc 1 5292 0
	ldr	w7, [x1,56]
	.loc 1 5278 0
	str	w4, [x0,2808]
	.loc 1 5293 0
	ldr	w4, [x1,60]
	.loc 1 5279 0
	str	w21, [x0,2804]
	.loc 1 5280 0
	str	w20, [x0,2816]
	.loc 1 5281 0
	str	w18, [x0,2812]
	.loc 1 5282 0
	str	w17, [x0,2824]
	.loc 1 5283 0
	str	w16, [x0,2820]
	.loc 1 5284 0
	str	w15, [x0,2832]
	.loc 1 5285 0
	str	w14, [x0,2828]
	.loc 1 5286 0
	str	w13, [x0,2840]
	.loc 1 5287 0
	str	w12, [x0,2836]
	.loc 1 5288 0
	str	w11, [x0,2848]
	.loc 1 5289 0
	str	w10, [x0,2844]
	.loc 1 5290 0
	str	w9, [x0,2856]
	.loc 1 5291 0
	str	w8, [x0,2852]
	.loc 1 5292 0
	str	w7, [x0,2864]
	.loc 1 5293 0
	str	w4, [x0,2860]
	.loc 1 5294 0
	ldr	w4, [x1,64]
	str	w4, [x0,2872]
	.loc 1 5297 0
	ldr	w18, [x1,76]
	.loc 1 5298 0
	ldr	w17, [x1,80]
	.loc 1 5299 0
	ldr	w16, [x1,84]
	.loc 1 5300 0
	ldr	w15, [x1,88]
	.loc 1 5301 0
	ldr	w14, [x1,92]
	.loc 1 5302 0
	ldr	w13, [x1,96]
	.loc 1 5303 0
	ldr	w12, [x1,100]
	.loc 1 5304 0
	ldr	w11, [x1,104]
	.loc 1 5305 0
	ldr	w10, [x1,108]
	.loc 1 5306 0
	ldr	w9, [x1,112]
	.loc 1 5307 0
	ldr	w8, [x1,116]
	.loc 1 5308 0
	ldr	w7, [x1,120]
	.loc 1 5309 0
	ldr	w4, [x1,124]
	.loc 1 5295 0
	ldr	w21, [x1,68]
	.loc 1 5296 0
	ldr	w20, [x1,72]
	.loc 1 5310 0
	ldr	w1, [x2,x3]
	.loc 1 5297 0
	str	w18, [x0,2876]
	.loc 1 5298 0
	str	w17, [x0,2888]
	.loc 1 5299 0
	str	w16, [x0,2884]
	.loc 1 5300 0
	str	w15, [x0,2896]
	.loc 1 5301 0
	str	w14, [x0,2892]
	.loc 1 5302 0
	str	w13, [x0,2904]
	.loc 1 5303 0
	str	w12, [x0,2900]
	.loc 1 5304 0
	str	w11, [x0,2912]
	.loc 1 5305 0
	str	w10, [x0,2908]
	.loc 1 5306 0
	str	w9, [x0,2920]
	.loc 1 5307 0
	str	w8, [x0,2916]
	.loc 1 5308 0
	str	w7, [x0,2928]
	.loc 1 5309 0
	str	w4, [x0,2924]
	.loc 1 5310 0
	str	w1, [x0,2936]
	.loc 1 5295 0
	str	w21, [x0,2868]
	.loc 1 5311 0
	ldr	w1, [x19,4]
	.loc 1 5296 0
	str	w20, [x0,2880]
	.loc 1 5311 0
	str	w1, [x0,2932]
	.loc 1 5315 0
	ldr	w15, [x19,20]
	.loc 1 5316 0
	ldr	w14, [x19,24]
	.loc 1 5317 0
	ldr	w13, [x19,28]
	.loc 1 5318 0
	ldr	w12, [x19,32]
	.loc 1 5319 0
	ldr	w11, [x19,36]
	.loc 1 5320 0
	ldr	w10, [x19,40]
	.loc 1 5321 0
	ldr	w9, [x19,44]
	.loc 1 5322 0
	ldr	w8, [x19,48]
	.loc 1 5323 0
	ldr	w7, [x19,52]
	.loc 1 5324 0
	ldr	w4, [x19,56]
	.loc 1 5325 0
	ldr	w3, [x19,60]
	.loc 1 5326 0
	ldr	w2, [x19,64]
	.loc 1 5327 0
	ldr	w1, [x19,68]
	.loc 1 5312 0
	ldr	w18, [x19,8]
	.loc 1 5313 0
	ldr	w17, [x19,12]
	.loc 1 5314 0
	ldr	w16, [x19,16]
	.loc 1 5315 0
	str	w15, [x0,2948]
	.loc 1 5316 0
	str	w14, [x0,2960]
	.loc 1 5317 0
	str	w13, [x0,2956]
	.loc 1 5318 0
	str	w12, [x0,2968]
	.loc 1 5319 0
	str	w11, [x0,2964]
	.loc 1 5320 0
	str	w10, [x0,2976]
	.loc 1 5321 0
	str	w9, [x0,2972]
	.loc 1 5322 0
	str	w8, [x0,2984]
	.loc 1 5323 0
	str	w7, [x0,2980]
	.loc 1 5324 0
	str	w4, [x0,2992]
	.loc 1 5325 0
	str	w3, [x0,2988]
	.loc 1 5326 0
	str	w2, [x0,3000]
	.loc 1 5327 0
	str	w1, [x0,2996]
	.loc 1 5312 0
	str	w18, [x0,2944]
	.loc 1 5328 0
	ldr	w1, [x19,72]
	.loc 1 5313 0
	str	w17, [x0,2940]
	.loc 1 5314 0
	str	w16, [x0,2952]
	.loc 1 5328 0
	str	w1, [x0,3008]
	.loc 1 5329 0
	ldr	w15, [x19,76]
	.loc 1 5330 0
	ldr	w14, [x19,80]
	.loc 1 5331 0
	ldr	w13, [x19,84]
	.loc 1 5332 0
	ldr	w12, [x19,88]
	.loc 1 5333 0
	ldr	w11, [x19,92]
	.loc 1 5334 0
	ldr	w10, [x19,96]
	.loc 1 5335 0
	ldr	w9, [x19,100]
	.loc 1 5336 0
	ldr	w8, [x19,104]
	.loc 1 5337 0
	ldr	w7, [x19,108]
	.loc 1 5338 0
	ldr	w4, [x19,112]
	.loc 1 5339 0
	ldr	w3, [x19,116]
	.loc 1 5340 0
	ldr	w2, [x19,120]
	.loc 1 5341 0
	ldr	w1, [x19,124]
	.loc 1 5329 0
	str	w15, [x0,3004]
	.loc 1 5330 0
	str	w14, [x0,3016]
	.loc 1 5331 0
	str	w13, [x0,3012]
	.loc 1 5332 0
	str	w12, [x0,3024]
	.loc 1 5333 0
	str	w11, [x0,3020]
	.loc 1 5334 0
	str	w10, [x0,3032]
	.loc 1 5335 0
	str	w9, [x0,3028]
	.loc 1 5336 0
	str	w8, [x0,3040]
	.loc 1 5337 0
	str	w7, [x0,3036]
	.loc 1 5338 0
	str	w4, [x0,3048]
	.loc 1 5339 0
	str	w3, [x0,3044]
	.loc 1 5340 0
	str	w2, [x0,3056]
	.loc 1 5341 0
	str	w1, [x0,3052]
	b	.L494
.L497:
	.loc 1 5276 0
	mov	w0, -1
.LVL583:
	b	.L495
	.cfi_endproc
.LFE2782:
	.size	scale_coeff_select, .-scale_coeff_select
	.align	2
	.global	VENC_DRV_EflDestroyVenc
	.type	VENC_DRV_EflDestroyVenc, %function
VENC_DRV_EflDestroyVenc:
.LFB2784:
	.loc 1 6332 0
	.cfi_startproc
.LVL584:
	stp	x29, x30, [sp, -64]!
	.cfi_def_cfa_offset 64
	.cfi_offset 29, -64
	.cfi_offset 30, -56
	add	x29, sp, 0
	.cfi_def_cfa_register 29
	stp	x19, x20, [sp,16]
	stp	x21, x22, [sp,32]
	str	x23, [sp,48]
	.cfi_offset 19, -48
	.cfi_offset 20, -40
	.cfi_offset 21, -32
	.cfi_offset 22, -24
	.cfi_offset 23, -16
	.loc 1 6332 0
	mov	x19, x0
.LVL585:
	.loc 1 6335 0
	cbz	x0, .L519
	.loc 1 6341 0
	adrp	x20, .LANCHOR0
	adrp	x22, .LC0
	add	x5, x20, :lo12:.LANCHOR0
	add	x23, x22, :lo12:.LC0
	add	x21, x5, 760
	adrp	x4, .LC23
	mov	x6, x0
	mov	w2, 6341
	mov	x3, x21
	add	x4, x4, :lo12:.LC23
	add	x5, x5, 784
	mov	w0, 4
.LVL586:
	mov	x1, x23
	bl	HI_PRINT
.LVL587:
	.loc 1 6343 0
	ldr	w1, [x19,7028]
	add	x0, x19, 824
	bl	DRV_MMU_MEM_UnmapAndRelease
.LVL588:
	.loc 1 6344 0
	add	x0, x19, 856
	bl	DRV_MEM_KFree
.LVL589:
	.loc 1 6345 0
	add	x0, x19, 840
	bl	DRV_MEM_KFree
.LVL590:
	.loc 1 6347 0
	ldr	x0, [x19,1536]
	bl	VENC_DRV_MngQueueDeinit
.LVL591:
	cbnz	w0, .L520
	.loc 1 6352 0
	ldr	x0, [x19,1544]
	bl	VENC_DRV_MngQueueDeinit
.LVL592:
	cbnz	w0, .L521
.L503:
	.loc 1 6357 0
	ldr	x0, [x19,1528]
	bl	VENC_DRV_MngQueueDeinit
.LVL593:
	cbnz	w0, .L522
.L504:
	.loc 1 6362 0
	adrp	x21, .LANCHOR1
	add	x0, x21, :lo12:.LANCHOR1
	add	x0, x0, 112
	bl	mutex_lock
.LVL594:
	.loc 1 6363 0
	ldr	x0, [x19]
	cbz	x0, .L505
	.loc 1 6365 0
	bl	vfree
.LVL595:
	.loc 1 6366 0
	str	xzr, [x19]
.L505:
	.loc 1 6369 0
	add	x0, x21, :lo12:.LANCHOR1
	add	x0, x0, 88
	ldr	x1, [x0,8]
	cmp	x19, x1
	beq	.L523
.L506:
	.loc 1 6374 0
	mov	x0, x19
	bl	vfree
.LVL596:
	.loc 1 6376 0
	add	x0, x21, :lo12:.LANCHOR1
	add	x0, x0, 112
	bl	mutex_unlock
.LVL597:
	.loc 1 6377 0
	add	x5, x20, :lo12:.LANCHOR0
	adrp	x4, .LC11
	mov	w0, 4
	add	x3, x5, 760
	add	x1, x22, :lo12:.LC0
	mov	w2, 6377
	add	x4, x4, :lo12:.LC11
	add	x5, x5, 784
	bl	HI_PRINT
.LVL598:
	.loc 1 6378 0
	mov	w0, 0
.L501:
	.loc 1 6379 0
	ldp	x19, x20, [sp,16]
	.cfi_remember_state
	.cfi_restore 20
	.cfi_restore 19
.LVL599:
	ldp	x21, x22, [sp,32]
	.cfi_restore 22
	.cfi_restore 21
	ldr	x23, [sp,48]
	.cfi_restore 23
	ldp	x29, x30, [sp], 64
	.cfi_restore 30
	.cfi_restore 29
	.cfi_def_cfa 31, 0
	ret
.LVL600:
.L520:
	.cfi_restore_state
	.loc 1 6349 0
	adrp	x4, .LC24
	mov	w0, 1
	mov	x1, x23
	mov	w2, 6349
	mov	x3, x21
	add	x4, x4, :lo12:.LC24
	mov	x5, 120
	bl	HI_PRINT
.LVL601:
	.loc 1 6352 0
	ldr	x0, [x19,1544]
	bl	VENC_DRV_MngQueueDeinit
.LVL602:
	cbz	w0, .L503
.L521:
	.loc 1 6354 0
	add	x3, x20, :lo12:.LANCHOR0
	adrp	x4, .LC25
	mov	w0, 1
	add	x1, x22, :lo12:.LC0
	mov	w2, 6354
	add	x3, x3, 760
	add	x4, x4, :lo12:.LC25
	mov	x5, 120
	bl	HI_PRINT
.LVL603:
	.loc 1 6357 0
	ldr	x0, [x19,1528]
	bl	VENC_DRV_MngQueueDeinit
.LVL604:
	cbz	w0, .L504
.L522:
	.loc 1 6359 0
	add	x3, x20, :lo12:.LANCHOR0
	adrp	x4, .LC26
	mov	w0, 1
	add	x1, x22, :lo12:.LC0
	mov	w2, 6359
	add	x3, x3, 760
	add	x4, x4, :lo12:.LC26
	mov	x5, 120
	bl	HI_PRINT
.LVL605:
	b	.L504
.L523:
	.loc 1 6371 0
	str	xzr, [x0,8]
	b	.L506
.LVL606:
.L519:
	.loc 1 6337 0
	adrp	x5, .LANCHOR0
	adrp	x1, .LC0
	add	x5, x5, :lo12:.LANCHOR0
	adrp	x4, .LC22
	mov	w0, 1
.LVL607:
	add	x3, x5, 760
	add	x1, x1, :lo12:.LC0
	mov	w2, 6337
	add	x4, x4, :lo12:.LC22
	add	x5, x5, 784
	bl	HI_PRINT
.LVL608:
	.loc 1 6338 0
	mov	w0, -1
	b	.L501
	.cfi_endproc
.LFE2784:
	.size	VENC_DRV_EflDestroyVenc, .-VENC_DRV_EflDestroyVenc
	.align	2
	.global	VENC_DRV_EflRequestIframe
	.type	VENC_DRV_EflRequestIframe, %function
VENC_DRV_EflRequestIframe:
.LFB2785:
	.loc 1 6382 0
	.cfi_startproc
.LVL609:
	stp	x29, x30, [sp, -16]!
	.cfi_def_cfa_offset 16
	.cfi_offset 29, -16
	.cfi_offset 30, -8
	add	x29, sp, 0
	.cfi_def_cfa_register 29
	.loc 1 6384 0
	cbz	x0, .L527
	.loc 1 6390 0
	mov	w1, 1
	.loc 1 6392 0
	mov	w2, 0
	.loc 1 6390 0
	str	w1, [x0,1396]
	.loc 1 6391 0
	str	w1, [x0,1508]
.L526:
	.loc 1 6393 0
	mov	w0, w2
.LVL610:
	ldp	x29, x30, [sp], 16
	.cfi_remember_state
	.cfi_restore 30
	.cfi_restore 29
	.cfi_def_cfa 31, 0
	ret
.LVL611:
.L527:
	.cfi_restore_state
	.loc 1 6386 0
	adrp	x3, .LANCHOR0
	adrp	x1, .LC0
	add	x3, x3, :lo12:.LANCHOR0
	adrp	x4, .LC27
	mov	w2, 6386
	mov	w0, 1
.LVL612:
	add	x1, x1, :lo12:.LC0
	add	x3, x3, 808
	add	x4, x4, :lo12:.LC27
	mov	x5, 0
	bl	HI_PRINT
.LVL613:
	.loc 1 6387 0
	mov	w2, -1
	b	.L526
	.cfi_endproc
.LFE2785:
	.size	VENC_DRV_EflRequestIframe, .-VENC_DRV_EflRequestIframe
	.align	2
	.global	VENC_DRV_EflRcGetAttr
	.type	VENC_DRV_EflRcGetAttr, %function
VENC_DRV_EflRcGetAttr:
.LFB2786:
	.loc 1 6396 0
	.cfi_startproc
.LVL614:
	.loc 1 6396 0
	mov	x2, x0
	.loc 1 6407 0
	mov	w0, 0
.LVL615:
	.loc 1 6399 0
	ldr	w3, [x2,2588]
	str	w3, [x1,20]
	.loc 1 6400 0
	ldr	w3, [x2,3260]
	str	w3, [x1]
	.loc 1 6401 0
	ldr	w3, [x2,3256]
	str	w3, [x1,8]
	.loc 1 6402 0
	ldr	w3, [x2,3264]
	str	w3, [x1,32]
	.loc 1 6403 0
	ldr	x3, [x2]
	ldr	w3, [x3,1584]
	str	w3, [x1,16]
	.loc 1 6404 0
	ldr	x2, [x2]
.LVL616:
	ldr	w2, [x2,1580]
	str	w2, [x1,12]
	.loc 1 6407 0
	ret
	.cfi_endproc
.LFE2786:
	.size	VENC_DRV_EflRcGetAttr, .-VENC_DRV_EflRcGetAttr
	.align	2
	.global	VENC_DRV_EflRcSetAttr
	.type	VENC_DRV_EflRcSetAttr, %function
VENC_DRV_EflRcSetAttr:
.LFB2787:
	.loc 1 6410 0
	.cfi_startproc
.LVL617:
	stp	x29, x30, [sp, -16]!
	.cfi_def_cfa_offset 16
	.cfi_offset 29, -16
	.cfi_offset 30, -8
	add	x29, sp, 0
	.cfi_def_cfa_register 29
	.loc 1 6419 0
	ldr	w5, [x1,8]
	.loc 1 6413 0
	ldr	w6, [x1,20]
	.loc 1 6419 0
	sub	w2, w5, #1
	cmp	w2, 239
	bhi	.L543
	.loc 1 6425 0
	ldr	w5, [x0,872]
	cmp	w5, 1
	bls	.L544
.L532:
.LVL618:
	.loc 1 6431 0 discriminator 1
	cmp	w6, wzr
	.loc 1 6431 0 is_stmt 0
	ldr	w5, [x0,3256]
	.loc 1 6431 0 discriminator 1
	ble	.L541
	cmp	w5, wzr
	ble	.L541
	.loc 1 6437 0 is_stmt 1
	str	wzr, [x0,4392]
	.loc 1 6452 0
	cmp	w6, 20
	.loc 1 6440 0
	ldr	x2, [x0]
	.loc 1 6438 0
	ldr	w3, [x1,8]
	str	w3, [x0,3256]
	.loc 1 6439 0
	ldr	w3, [x1]
	str	w3, [x0,3260]
	.loc 1 6440 0
	ldr	w3, [x1,12]
	str	w3, [x2,1580]
	.loc 1 6441 0
	ldr	x2, [x0]
	ldr	w3, [x1,16]
	str	w3, [x2,1584]
	.loc 1 6446 0
	ldr	w5, [x0,3260]
	ldr	w9, [x0,3256]
	.loc 1 6443 0
	ldr	w2, [x1,20]
	str	w2, [x0,2588]
	.loc 1 6446 0
	sdiv	w3, w5, w9
	.loc 1 6444 0
	ldr	w4, [x1,32]
	.loc 1 6448 0
	lsl	w2, w3, 4
	.loc 1 6449 0
	lsl	w1, w3, 3
.LVL619:
	.loc 1 6444 0
	str	w4, [x0,3264]
	.loc 1 6447 0
	mov	w4, 3
	.loc 1 6446 0
	str	w3, [x0,3292]
	.loc 1 6447 0
	str	w4, [x0,3304]
	.loc 1 6450 0
	str	wzr, [x0,4332]
	.loc 1 6448 0
	add	w2, w2, w3, lsl 2
	.loc 1 6449 0
	add	w1, w1, w3, lsl 1
	.loc 1 6448 0
	str	w2, [x0,4324]
	.loc 1 6449 0
	str	w1, [x0,4328]
	.loc 1 6452 0
	ble	.L539
	.loc 1 6456 0
	cmp	w6, 40
	bgt	.L540
	.loc 1 6458 0
	lsl	w4, w6, 4
	mov	w1, 34079
	sub	w4, w4, w6
	movk	w1, 0x51eb, lsl 16
	smull	x1, w4, w1
	lsr	x1, x1, 32
	asr	w1, w1, 5
	sub	w1, w1, w4, asr 31
.LVL620:
	sxtw	x8, w1
.L537:
	.loc 1 6466 0
	smull	x7, w5, w6
	sxtw	x9, w9
	.loc 1 6468 0
	sub	w2, w6, #1
	add	w4, w2, w1
	mov	x2, 0
	.loc 1 6466 0
	sdiv	x6, x7, x9
.LVL621:
	bfi	x2, x3, 0, 32
	.loc 1 6468 0
	sxtw	x4, w4
	add	x1, x0, 4096
.LVL622:
	bfi	x2, x3, 32, 32
	.loc 1 6465 0
	str	wzr, [x0,3308]
	add	x1, x1, 168
	add	x3, x0, 3304
	.loc 1 6468 0
	mul	x8, x6, x8
	.loc 1 6469 0
	sdiv	x6, x6, x4
.LVL623:
	str	w6, [x0,3300]
	.loc 1 6468 0
	sdiv	x4, x8, x4
	str	w4, [x0,3296]
.L538:
	.loc 1 6477 0
	str	x2, [x1],-8
	cmp	x1, x3
	bne	.L538
	.loc 1 6481 0
	asr	w5, w5, 1
	.loc 1 6482 0
	mov	w1, 26215
	lsl	w3, w5, 3
	movk	w1, 0x6666, lsl 16
	sub	w4, w3, w5
	.loc 1 6481 0
	str	w5, [x0,3280]
	.loc 1 6485 0
	mov	w2, 0
	.loc 1 6482 0
	smull	x1, w4, w1
	lsr	x1, x1, 32
	asr	w1, w1, 2
	sub	w1, w1, w4, asr 31
	str	w1, [x0,3288]
	.loc 1 6483 0
	str	w1, [x0,3284]
.L531:
	.loc 1 6486 0
	mov	w0, w2
.LVL624:
	ldp	x29, x30, [sp], 16
	.cfi_remember_state
	.cfi_restore 30
	.cfi_restore 29
	.cfi_def_cfa 31, 0
	ret
.LVL625:
.L539:
	.cfi_restore_state
	mov	x8, 3
	.loc 1 6454 0
	mov	w1, w8
.LVL626:
	b	.L537
.LVL627:
.L544:
	.loc 1 6425 0 discriminator 1
	ldr	w8, [x1,12]
	ldr	w7, [x1,16]
	cmp	w8, 51
	bhi	.L534
	.loc 1 6425 0 is_stmt 0 discriminator 2
	cmp	w8, w7
	bcs	.L532
.L534:
	.loc 1 6427 0 is_stmt 1
	adrp	x3, .LANCHOR0
	adrp	x1, .LC0
.LVL628:
	add	x3, x3, :lo12:.LANCHOR0
	adrp	x4, .LC29
	mov	w2, 6427
	mov	w0, 1
.LVL629:
	add	x1, x1, :lo12:.LC0
	add	x3, x3, 840
	add	x4, x4, :lo12:.LC29
	mov	w6, w8
	bl	HI_PRINT
.LVL630:
	.loc 1 6428 0
	mov	w2, -1
	b	.L531
.LVL631:
.L540:
	mov	x8, 6
	.loc 1 6462 0
	mov	w1, w8
.LVL632:
	b	.L537
.LVL633:
.L543:
	.loc 1 6421 0
	adrp	x3, .LANCHOR0
	ldr	w6, [x1,4]
	add	x3, x3, :lo12:.LANCHOR0
	adrp	x1, .LC0
.LVL634:
	adrp	x4, .LC28
	mov	w2, 6421
	mov	w0, 1
.LVL635:
	add	x1, x1, :lo12:.LC0
	add	x3, x3, 840
	add	x4, x4, :lo12:.LC28
	bl	HI_PRINT
.LVL636:
	.loc 1 6422 0
	mov	w2, -1
	b	.L531
.LVL637:
.L541:
	.loc 1 6433 0
	adrp	x3, .LANCHOR0
	adrp	x1, .LC0
.LVL638:
	add	x3, x3, :lo12:.LANCHOR0
	adrp	x4, .LC30
	mov	w2, 6433
	mov	w0, 1
.LVL639:
	add	x1, x1, :lo12:.LC0
	add	x3, x3, 840
	add	x4, x4, :lo12:.LC30
	bl	HI_PRINT
.LVL640:
	.loc 1 6434 0
	mov	w2, -1
	b	.L531
	.cfi_endproc
.LFE2787:
	.size	VENC_DRV_EflRcSetAttr, .-VENC_DRV_EflRcSetAttr
	.align	2
	.global	VENC_DRV_EflRcFrmRateCtrl
	.type	VENC_DRV_EflRcFrmRateCtrl, %function
VENC_DRV_EflRcFrmRateCtrl:
.LFB2789:
	.loc 1 6502 0
	.cfi_startproc
.LVL641:
	stp	x29, x30, [sp, -64]!
	.cfi_def_cfa_offset 64
	.cfi_offset 29, -64
	.cfi_offset 30, -56
	add	x29, sp, 0
	.cfi_def_cfa_register 29
	stp	x19, x20, [sp,16]
	stp	x21, x22, [sp,32]
	stp	x23, x24, [sp,48]
	.cfi_offset 19, -48
	.cfi_offset 20, -40
	.cfi_offset 21, -32
	.cfi_offset 22, -24
	.cfi_offset 23, -16
	.cfi_offset 24, -8
	.loc 1 6502 0
	mov	x20, x0
.LVL642:
.LBB311:
.LBB312:
	.loc 1 6493 0 discriminator 1
	ldr	w1, [x0,3256]
.LVL643:
.LBE312:
.LBE311:
	.loc 1 6504 0
	ldr	w21, [x0,3260]
.LBB315:
.LBB313:
	.loc 1 6493 0 discriminator 1
	cmp	w1, wzr
	ble	.L557
	sub	w2, w1, #1
	add	x0, x0, 3312
.LVL644:
	add	x2, x2, 829
	mov	w19, 0
.LVL645:
	add	x2, x20, x2, lsl 2
.L547:
	.loc 1 6495 0
	ldr	w1, [x0],4
	.loc 1 6493 0 discriminator 1
	cmp	x0, x2
	.loc 1 6495 0
	add	w19, w19, w1
	.loc 1 6493 0 discriminator 1
	bne	.L547
.LVL646:
.L546:
.LBE313:
.LBE315:
	.loc 1 6509 0
	adrp	x22, .LANCHOR0
	adrp	x23, .LC0
	add	x3, x22, :lo12:.LANCHOR0
	ldr	w5, [x20,1376]
	ldr	w6, [x20,1400]
	adrp	x4, .LC31
	ldr	w7, [x20,2588]
	mov	w0, 4
.LVL647:
	add	x1, x23, :lo12:.LC0
	mov	w2, 6509
	add	x3, x3, 864
	add	x4, x4, :lo12:.LC31
	.loc 1 6506 0
	ldr	w24, [x20,4316]
	.loc 1 6509 0
	bl	HI_PRINT
.LVL648:
	.loc 1 6511 0
	ldr	w0, [x20,1396]
	cmp	w0, 1
	beq	.L566
.L548:
	.loc 1 6518 0
	ldr	w0, [x20,1376]
	cbnz	w0, .L562
	.loc 1 6525 0
	ldr	w0, [x20,2588]
	ldr	w1, [x20,1400]
	sub	w0, w0, #1
	cmp	w1, w0
	bcc	.L551
	.loc 1 6528 0
	str	wzr, [x20,7128]
.L562:
	.loc 1 6527 0
	mov	w0, 1
	str	w0, [x20,1388]
.L550:
	.loc 1 6536 0
	ldr	x0, [x20]
	ldr	w1, [x0,1584]
	ldr	w0, [x0,1580]
	cmp	w1, w0
	beq	.L552
	.loc 1 6536 0 is_stmt 0 discriminator 1
	ldr	w0, [x20,3264]
	cbz	w0, .L552
	.loc 1 6541 0 is_stmt 1
	lsl	w1, w19, 2
.LVL649:
	add	w0, w21, w21, lsl 2
	cmp	w1, w0
	ble	.L553
.LVL650:
	.loc 1 6541 0 is_stmt 0 discriminator 1
	sub	w0, w19, w24
	cmp	w21, w0, lsl 2
	blt	.L565
.L553:
	.loc 1 6555 0 is_stmt 1
	lsl	w0, w21, 5
	add	w1, w1, w19, lsl 4
	sub	w0, w0, w21, lsl 3
	sub	w0, w0, w21
	cmp	w1, w0
	ble	.L555
	.loc 1 6555 0 is_stmt 0 discriminator 1
	sub	w0, w19, w24
	add	w0, w0, w0, lsl 2
	.loc 1 6557 0 is_stmt 1
	cmp	w21, w0
	ble	.L555
.L565:
	.loc 1 6559 0
	ldr	w0, [x20,3308]
	add	x1, x20, x0, sxtw 2
	str	wzr, [x1,3312]
	.loc 1 6560 0
	add	w0, w0, 1
	str	w0, [x20,3308]
	.loc 1 6561 0
	ldr	w1, [x20,3256]
	cmp	w0, w1
	beq	.L567
.L556:
	.loc 1 6565 0
	ldr	w1, [x20,3284]
	ldr	w0, [x20,3292]
	add	w0, w1, w0
	str	w0, [x20,3284]
.L555:
	.loc 1 6570 0
	add	x3, x22, :lo12:.LANCHOR0
	adrp	x4, .LC32
	mov	w0, 4
	add	x1, x23, :lo12:.LC0
	mov	w2, 6570
	add	x3, x3, 864
	add	x4, x4, :lo12:.LC32
	mov	w5, w19
	mov	w6, w21
	mov	w7, w24
	bl	HI_PRINT
.LVL651:
.L552:
	.loc 1 6573 0
	mov	w0, 0
	ldp	x19, x20, [sp,16]
	.cfi_remember_state
	.cfi_restore 20
	.cfi_restore 19
.LVL652:
	ldp	x21, x22, [sp,32]
	.cfi_restore 22
	.cfi_restore 21
.LVL653:
	ldp	x23, x24, [sp,48]
	.cfi_restore 24
	.cfi_restore 23
.LVL654:
	ldp	x29, x30, [sp], 64
	.cfi_restore 30
	.cfi_restore 29
	.cfi_def_cfa 31, 0
	ret
.LVL655:
.L551:
	.cfi_restore_state
	.loc 1 6532 0
	str	wzr, [x20,1388]
	b	.L550
.L566:
	.loc 1 6513 0
	ldr	w1, [x20,2588]
	.loc 1 6514 0
	str	w0, [x20,1392]
	.loc 1 6513 0
	sub	w1, w1, #1
	.loc 1 6515 0
	str	wzr, [x20,1396]
	.loc 1 6513 0
	str	w1, [x20,1400]
	b	.L548
.LVL656:
.L567:
	.loc 1 6563 0
	str	wzr, [x20,3308]
	b	.L556
.LVL657:
.L557:
.LBB316:
.LBB314:
	.loc 1 6491 0
	mov	w19, 0
.LVL658:
	b	.L546
.LBE314:
.LBE316:
	.cfi_endproc
.LFE2789:
	.size	VENC_DRV_EflRcFrmRateCtrl, .-VENC_DRV_EflRcFrmRateCtrl
	.align	2
	.global	VENC_DRV_EflRcSkipOneFrameVenc
	.type	VENC_DRV_EflRcSkipOneFrameVenc, %function
VENC_DRV_EflRcSkipOneFrameVenc:
.LFB2794:
	.loc 1 7544 0
	.cfi_startproc
.LVL659:
	stp	x29, x30, [sp, -16]!
	.cfi_def_cfa_offset 16
	.cfi_offset 29, -16
	.cfi_offset 30, -8
	add	x29, sp, 0
	.cfi_def_cfa_register 29
	.loc 1 7545 0
	bl	VENC_DRV_EflRcFrmRateCtrl
.LVL660:
	.loc 1 7546 0
	ldp	x29, x30, [sp], 16
	.cfi_restore 30
	.cfi_restore 29
	.cfi_def_cfa 31, 0
	ret
	.cfi_endproc
.LFE2794:
	.size	VENC_DRV_EflRcSkipOneFrameVenc, .-VENC_DRV_EflRcSkipOneFrameVenc
	.align	2
	.global	VENC_DRV_EflRcAttrInit
	.type	VENC_DRV_EflRcAttrInit, %function
VENC_DRV_EflRcAttrInit:
.LFB2795:
	.loc 1 7550 0
	.cfi_startproc
.LVL661:
	.loc 1 7560 0
	ldr	w2, [x1,8]
	.loc 1 7553 0
	ldr	w4, [x1,20]
	.loc 1 7560 0
	sub	w2, w2, #1
	cmp	w2, 239
	bhi	.L586
	.loc 1 7565 0
	ldr	w2, [x0,872]
	cmp	w2, 1
	bls	.L591
.L571:
	.loc 1 7572 0
	str	wzr, [x0,4392]
	.loc 1 7571 0
	mov	w2, 1
	str	w2, [x0,1376]
	.loc 1 7577 0
	ldr	x3, [x0]
	.loc 1 7573 0
	ldr	w5, [x1,24]
	str	w5, [x0,3248]
	.loc 1 7574 0
	ldr	w5, [x1,28]
	str	w5, [x0,3252]
	.loc 1 7575 0
	ldr	w5, [x1,8]
	str	w5, [x0,3256]
	.loc 1 7576 0
	ldr	w5, [x1]
	str	w5, [x0,3260]
	.loc 1 7577 0
	ldr	w5, [x1,12]
	str	w5, [x3,1580]
	.loc 1 7578 0
	ldr	x3, [x0]
	ldr	w5, [x1,16]
	str	w5, [x3,1584]
	.loc 1 7579 0
	ldr	w3, [x1,44]
	str	w3, [x0,7052]
	.loc 1 7582 0
	ldr	w5, [x1,36]
	str	w5, [x0,7044]
	.loc 1 7583 0
	ldr	w5, [x1,40]
	str	w5, [x0,7048]
	.loc 1 7585 0
	mov	w5, 100
	.loc 1 7584 0
	str	wzr, [x0,7056]
	.loc 1 7585 0
	str	w5, [x0,7096]
	.loc 1 7586 0
	mov	w5, 50
	.loc 1 7588 0
	str	xzr, [x0,7080]
	.loc 1 7586 0
	str	w5, [x0,7100]
	.loc 1 7589 0
	str	xzr, [x0,7088]
	.loc 1 7590 0
	str	wzr, [x0,7104]
	.loc 1 7591 0
	str	wzr, [x0,7108]
	.loc 1 7592 0
	str	wzr, [x0,7116]
	.loc 1 7593 0
	str	wzr, [x0,7128]
	.loc 1 7594 0
	str	wzr, [x0,7132]
	.loc 1 7595 0
	str	wzr, [x0,7120]
	.loc 1 7596 0
	str	wzr, [x0,4336]
	.loc 1 7597 0
	str	wzr, [x0,7124]
	.loc 1 7598 0
	cbnz	w3, .L589
	.loc 1 7605 0
	ldr	x7, [x0]
	.loc 1 7601 0
	mov	w5, 4588
	bfi	w5, w2, 16, 16
	.loc 1 7600 0
	mov	w6, 37723
	.loc 1 7602 0
	mov	w2, -131072
	.loc 1 7603 0
	mov	w3, 31326
	.loc 1 7602 0
	str	w2, [x0,7068]
	.loc 1 7603 0
	movk	w3, 0xfffe, lsl 16
	.loc 1 7601 0
	str	w5, [x0,7064]
	.loc 1 7604 0
	mov	w2, 12
	.loc 1 7603 0
	str	w3, [x0,7072]
	.loc 1 7600 0
	movk	w6, 0x3, lsl 16
	.loc 1 7604 0
	str	w2, [x0,7112]
	.loc 1 7605 0
	mov	w2, 2
	.loc 1 7600 0
	str	w6, [x0,7060]
	.loc 1 7605 0
	str	w2, [x7,1592]
	.loc 1 7606 0
	ldr	x2, [x0]
	ldr	w3, [x2,1584]
	cmp	w3, 15
	bhi	.L574
	.loc 1 7608 0
	mov	w3, 16
	str	w3, [x2,1584]
	ldr	x2, [x0]
.L574:
	.loc 1 7611 0
	ldr	w3, [x2,1580]
	cmp	w3, 44
	bhi	.L575
	ldr	w3, [x0,7052]
	.loc 1 7616 0
	cmp	w3, 1
	beq	.L592
.L590:
	ldr	w5, [x2,1580]
.L577:
	.loc 1 7678 0
	ldr	w3, [x2,1584]
	cmp	w3, w5
	bls	.L579
	.loc 1 7680 0
	str	w3, [x2,1580]
.L579:
	.loc 1 7683 0
	ldr	w3, [x1,20]
	.loc 1 7690 0
	ldr	w8, [x0,3260]
	ldr	w2, [x0,3256]
	.loc 1 7683 0
	str	w3, [x0,2588]
	.loc 1 7686 0
	ldr	w9, [x0,3252]
	.loc 1 7684 0
	ldr	w5, [x1,32]
	.loc 1 7690 0
	sdiv	w6, w8, w2
	.loc 1 7684 0
	str	w5, [x0,3264]
	.loc 1 7686 0
	ldr	w3, [x0,3248]
	add	w9, w9, 7
	.loc 1 7685 0
	ldr	w5, [x1,28]
	ldr	w7, [x1,24]
	.loc 1 7686 0
	add	w3, w3, 7
	asr	w3, w3, 3
	asr	w1, w9, 3
.LVL662:
	.loc 1 7685 0
	add	w5, w5, 15
	add	w7, w7, 15
	lsr	w5, w5, 4
	lsr	w7, w7, 4
	.loc 1 7686 0
	mul	w1, w3, w1
	.loc 1 7692 0
	lsl	w9, w6, 4
	.loc 1 7686 0
	str	w1, [x0,4372]
	.loc 1 7685 0
	mul	w3, w5, w7
	.loc 1 7687 0
	mov	w1, 1
	.loc 1 7693 0
	lsl	w5, w6, 3
	.loc 1 7692 0
	add	w9, w9, w6, lsl 2
	.loc 1 7693 0
	add	w5, w5, w6, lsl 1
	.loc 1 7687 0
	str	w1, [x0,4384]
	.loc 1 7691 0
	mov	w1, 3
	.loc 1 7685 0
	str	w3, [x0,3276]
	.loc 1 7688 0
	str	wzr, [x0,4388]
	.loc 1 7690 0
	str	w6, [x0,3292]
	.loc 1 7691 0
	str	w1, [x0,3304]
	.loc 1 7692 0
	str	w9, [x0,4324]
	.loc 1 7693 0
	str	w5, [x0,4328]
	.loc 1 7694 0
	str	wzr, [x0,4332]
.LVL663:
	.loc 1 7695 0
	cbnz	w4, .L593
	mov	x6, 1000
	mov	x9, 1003
	.loc 1 7695 0 is_stmt 0 discriminator 2
	mov	w4, w6
.L580:
	.loc 1 7698 0 is_stmt 1
	sxtw	x3, w8
	sxtw	x5, w2
	.loc 1 7696 0
	str	wzr, [x0,3308]
	.loc 1 7706 0 discriminator 1
	subs	w1, w2, #1
.LVL664:
	.loc 1 7698 0
	mul	x3, x3, x6
	sdiv	x3, x3, x5
.LVL665:
	.loc 1 7700 0
	lsl	x6, x3, 2
	.loc 1 7702 0
	sdiv	x5, x3, x9
	.loc 1 7705 0
	str	w5, [x0,3300]
	.loc 1 7702 0
	mov	w7, w5
.LVL666:
	.loc 1 7700 0
	sdiv	x9, x6, x9
	.loc 1 7704 0
	str	w9, [x0,3296]
	.loc 1 7700 0
	mov	w6, w9
.LVL667:
	.loc 1 7706 0 discriminator 1
	bmi	.L583
	sxtw	x3, w1
.LVL668:
	add	x3, x3, 828
	add	x3, x0, x3, lsl 2
.L582:
	.loc 1 7708 0
	sdiv	w2, w1, w4
	msub	w2, w2, w4, w1
	.loc 1 7706 0 discriminator 2
	sub	w1, w1, #1
	cmp	w2, wzr
	csel	w2, w6, w7, eq
	.loc 1 7706 0 is_stmt 0 discriminator 1
	cmn	w1, #1
	str	w2, [x3],-4
	bne	.L582
.LVL669:
.L583:
	.loc 1 7739 0 is_stmt 1
	asr	w3, w8, 1
.LVL670:
	.loc 1 7740 0
	mov	w2, 26215
	lsl	w1, w3, 3
.LVL671:
	movk	w2, 0x6666, lsl 16
	sub	w1, w1, w3
	.loc 1 7720 0
	str	wzr, [x0,4344]
	str	wzr, [x0,4348]
	.loc 1 7743 0
	mov	w4, 0
.LVL672:
	.loc 1 7740 0
	smull	x2, w1, w2
	.loc 1 7720 0
	str	wzr, [x0,4352]
	.loc 1 7740 0
	lsr	x2, x2, 32
	.loc 1 7720 0
	str	wzr, [x0,4356]
	.loc 1 7740 0
	asr	w2, w2, 2
	.loc 1 7720 0
	str	wzr, [x0,4360]
	.loc 1 7740 0
	sub	w2, w2, w1, asr 31
	.loc 1 7723 0
	str	wzr, [x0,4272]
	.loc 1 7724 0
	str	wzr, [x0,4284]
	.loc 1 7727 0
	str	w9, [x0,4276]
	str	w9, [x0,4280]
	.loc 1 7732 0
	str	w5, [x0,4288]
	str	w5, [x0,4292]
	str	w5, [x0,4296]
	str	w5, [x0,4300]
	str	w5, [x0,4304]
	.loc 1 7735 0
	str	wzr, [x0,4368]
	.loc 1 7736 0
	str	wzr, [x0,4376]
	.loc 1 7737 0
	str	w8, [x0,4316]
	.loc 1 7739 0
	str	w3, [x0,3280]
	.loc 1 7740 0
	str	w2, [x0,3288]
	.loc 1 7741 0
	str	w2, [x0,3284]
.LVL673:
.L570:
	.loc 1 7744 0
	mov	w0, w4
.LVL674:
	ret
.LVL675:
.L575:
	.loc 1 7613 0
	mov	w3, 44
	str	w3, [x2,1580]
	ldr	w3, [x0,7052]
.L589:
	.loc 1 7616 0
	cmp	w3, 1
	ldr	x2, [x0]
	bne	.L590
.L592:
	.loc 1 7619 0
	mov	w7, 19664
	.loc 1 7620 0
	mov	w6, 32768
	.loc 1 7619 0
	bfi	w7, w3, 16, 16
	.loc 1 7621 0
	mov	w5, 52427
	.loc 1 7618 0
	mov	w3, 393216
	.loc 1 7619 0
	str	w7, [x0,7064]
	.loc 1 7618 0
	str	w3, [x0,7060]
	.loc 1 7621 0
	movk	w5, 0xfffe, lsl 16
	.loc 1 7620 0
	movk	w6, 0xfffd, lsl 16
	.loc 1 7621 0
	str	w5, [x0,7072]
	.loc 1 7620 0
	str	w6, [x0,7068]
	.loc 1 7622 0
	mov	w3, 6
	str	w3, [x0,7112]
	.loc 1 7623 0
	mov	w5, 2
	str	w5, [x2,1592]
	.loc 1 7624 0
	ldr	x2, [x0]
	ldr	w5, [x2,1584]
	cmp	w5, 5
	bhi	.L578
	.loc 1 7626 0
	str	w3, [x2,1584]
	ldr	x2, [x0]
.L578:
	.loc 1 7629 0
	ldr	w5, [x2,1580]
	cmp	w5, 51
	bls	.L577
	.loc 1 7631 0
	mov	w3, 51
	str	w3, [x2,1580]
	ldr	x2, [x0]
	b	.L590
.LVL676:
.L593:
	add	w9, w4, w1
	sxtw	x6, w4
	sxtw	x9, w9
	b	.L580
.LVL677:
.L591:
	.loc 1 7565 0 discriminator 1
	ldr	w2, [x1,12]
	cmp	w2, 51
	bhi	.L586
	.loc 1 7565 0 is_stmt 0 discriminator 2
	ldr	w3, [x1,16]
	cmp	w2, w3
	bcs	.L571
.L586:
	.loc 1 7562 0 is_stmt 1
	mov	w4, -1
	b	.L570
	.cfi_endproc
.LFE2795:
	.size	VENC_DRV_EflRcAttrInit, .-VENC_DRV_EflRcAttrInit
	.align	2
	.global	VENC_DRV_EflRcFxLog
	.type	VENC_DRV_EflRcFxLog, %function
VENC_DRV_EflRcFxLog:
.LFB2796:
	.loc 1 7746 0
	.cfi_startproc
.LVL678:
	.loc 1 7750 0
	mov	x1, 32767
	cmp	x0, x1
	bhi	.L607
	.loc 1 7750 0 is_stmt 0 discriminator 1
	lsl	x0, x0, 16
	mov	x1, -45426
.L595:
	.loc 1 7751 0 is_stmt 1
	mov	x2, 8388607
	cmp	x0, x2
	bhi	.L596
	.loc 1 7751 0 is_stmt 0 discriminator 1
	sub	x1, x1, #360448
	lsl	x0, x0, 8
	sub	x1, x1, #2961
.L596:
	.loc 1 7752 0 is_stmt 1
	mov	x2, 134217727
	cmp	x0, x2
	bhi	.L597
	.loc 1 7752 0 is_stmt 0 discriminator 1
	sub	x1, x1, #180224
	lsl	x0, x0, 4
	sub	x1, x1, #1480
.L597:
	.loc 1 7753 0 is_stmt 1
	mov	x2, 536870911
	cmp	x0, x2
	bhi	.L598
	.loc 1 7753 0 is_stmt 0 discriminator 1
	sub	x1, x1, #90112
	lsl	x0, x0, 2
	sub	x1, x1, #740
.L598:
	.loc 1 7754 0 is_stmt 1
	mov	x2, 1073741823
	cmp	x0, x2
	bhi	.L599
	.loc 1 7754 0 is_stmt 0 discriminator 1
	sub	x1, x1, #45056
	lsl	x0, x0, 1
	sub	x1, x1, #370
.L599:
	.loc 1 7755 0 is_stmt 1
	add	x2, x0, x0, lsr 1
.LVL679:
	tbnz	x2, 31, .L600
	.loc 1 7755 0 is_stmt 0 discriminator 1
	sub	x1, x1, #24576
	mov	x0, x2
.LVL680:
	sub	x1, x1, #1997
.L600:
	.loc 1 7756 0 is_stmt 1
	add	x2, x0, x0, lsr 2
.LVL681:
	tbnz	x2, 31, .L601
	.loc 1 7756 0 is_stmt 0 discriminator 1
	sub	x1, x1, #12288
	mov	x0, x2
.LVL682:
	sub	x1, x1, #2336
.L601:
	.loc 1 7757 0 is_stmt 1
	add	x2, x0, x0, lsr 3
.LVL683:
	tbnz	x2, 31, .L602
	.loc 1 7757 0 is_stmt 0 discriminator 1
	sub	x1, x1, #4096
	mov	x0, x2
.LVL684:
	sub	x1, x1, #3623
.L602:
	.loc 1 7758 0 is_stmt 1
	add	x2, x0, x0, lsr 4
.LVL685:
	tbnz	x2, 31, .L603
	.loc 1 7758 0 is_stmt 0 discriminator 1
	sub	x1, x1, #3973
	mov	x0, x2
.LVL686:
.L603:
	.loc 1 7759 0 is_stmt 1
	add	x2, x0, x0, lsr 5
.LVL687:
	tbnz	x2, 31, .L604
	.loc 1 7759 0 is_stmt 0 discriminator 1
	sub	x1, x1, #2017
	mov	x0, x2
.LVL688:
.L604:
	.loc 1 7760 0 is_stmt 1
	add	x2, x0, x0, lsr 6
.LVL689:
	tbnz	x2, 31, .L605
	.loc 1 7760 0 is_stmt 0 discriminator 1
	sub	x1, x1, #1016
	mov	x0, x2
.LVL690:
.L605:
	.loc 1 7761 0 is_stmt 1
	add	x2, x0, x0, lsr 7
.LVL691:
	tbnz	x2, 31, .L606
	.loc 1 7761 0 is_stmt 0 discriminator 1
	sub	x1, x1, #510
	mov	x0, x2
.LVL692:
.L606:
	.loc 1 7762 0 is_stmt 1
	mov	x2, 2147483648
	sub	x0, x2, x0
	.loc 1 7765 0
	sub	x0, x1, x0, lsr 15
.LVL693:
	ret
.LVL694:
.L607:
	.loc 1 7749 0
	mov	x1, 26031
	movk	x1, 0xa, lsl 16
	b	.L595
	.cfi_endproc
.LFE2796:
	.size	VENC_DRV_EflRcFxLog, .-VENC_DRV_EflRcFxLog
	.align	2
	.global	VENC_DRV_EflRcFxExp_FLOAT
	.type	VENC_DRV_EflRcFxExp_FLOAT, %function
VENC_DRV_EflRcFxExp_FLOAT:
.LFB2797:
	.loc 1 7768 0
	.cfi_startproc
.LVL695:
	.loc 1 7769 0
	tbz	x0, 8, .L609
	.loc 1 7769 0 is_stmt 0 discriminator 1
	add	x1, x1, x1, lsr 8
.L609:
	.loc 1 7770 0 is_stmt 1
	tbz	x0, 7, .L610
	.loc 1 7770 0 is_stmt 0 discriminator 1
	add	x1, x1, x1, lsr 9
.L610:
	.loc 1 7771 0 is_stmt 1
	tbz	x0, 6, .L611
	.loc 1 7771 0 is_stmt 0 discriminator 1
	add	x1, x1, x1, lsr 10
.L611:
	.loc 1 7772 0 is_stmt 1
	tbz	x0, 5, .L612
	.loc 1 7772 0 is_stmt 0 discriminator 1
	add	x1, x1, x1, lsr 11
.L612:
	.loc 1 7773 0 is_stmt 1
	tbz	x0, 4, .L613
	.loc 1 7773 0 is_stmt 0 discriminator 1
	add	x1, x1, x1, lsr 12
.L613:
	.loc 1 7774 0 is_stmt 1
	tbz	x0, 3, .L614
	.loc 1 7774 0 is_stmt 0 discriminator 1
	add	x1, x1, x1, lsr 13
.L614:
	.loc 1 7775 0 is_stmt 1
	tbz	x0, 2, .L615
	.loc 1 7775 0 is_stmt 0 discriminator 1
	add	x1, x1, x1, lsr 14
.L615:
	.loc 1 7776 0 is_stmt 1
	tbz	x0, 1, .L616
	.loc 1 7776 0 is_stmt 0 discriminator 1
	add	x1, x1, x1, lsr 15
.L616:
	.loc 1 7777 0 is_stmt 1
	tbz	x0, 0, .L617
.LVL696:
	.loc 1 7777 0 is_stmt 0 discriminator 1
	add	x1, x1, x1, lsr 16
.L617:
	.loc 1 7779 0 is_stmt 1
	mov	x0, x1
	ret
	.cfi_endproc
.LFE2797:
	.size	VENC_DRV_EflRcFxExp_FLOAT, .-VENC_DRV_EflRcFxExp_FLOAT
	.align	2
	.global	VENC_DRV_EflRcFxExp
	.type	VENC_DRV_EflRcFxExp, %function
VENC_DRV_EflRcFxExp:
.LFB2798:
	.loc 1 7781 0
	.cfi_startproc
.LVL697:
	stp	x29, x30, [sp, -32]!
	.cfi_def_cfa_offset 32
	.cfi_offset 29, -32
	.cfi_offset 30, -24
	add	x29, sp, 0
	.cfi_def_cfa_register 29
	str	x19, [sp,16]
	.cfi_offset 19, -16
	.loc 1 7781 0
	mov	x19, x0
	.loc 1 7784 0
	eor	x0, x0, x0, asr 63
.LVL698:
	sub	x1, x0, x19, asr 63
	.loc 1 7786 0
	sub	x0, x1, #360448
	subs	x0, x0, #2961
	bmi	.L658
	.loc 1 7786 0 is_stmt 0 discriminator 1
	mov	x1, 16777216
.LVL699:
.L646:
	.loc 1 7787 0 is_stmt 1
	sub	x2, x0, #180224
	subs	x2, x2, #1480
	bmi	.L659
	.loc 1 7787 0 is_stmt 0 discriminator 1
	lsl	x1, x1, 4
.L647:
	.loc 1 7788 0 is_stmt 1
	sub	x0, x2, #90112
	subs	x0, x0, #740
	bmi	.L660
	.loc 1 7788 0 is_stmt 0 discriminator 1
	lsl	x1, x1, 2
.L648:
	.loc 1 7789 0 is_stmt 1
	sub	x2, x0, #45056
	subs	x2, x2, #370
	bmi	.L661
	.loc 1 7789 0 is_stmt 0 discriminator 1
	lsl	x1, x1, 1
.L649:
	.loc 1 7790 0 is_stmt 1
	sub	x0, x2, #24576
	subs	x0, x0, #1997
	bmi	.L662
	.loc 1 7790 0 is_stmt 0 discriminator 1
	add	x1, x1, x1, lsr 1
.L650:
	.loc 1 7791 0 is_stmt 1
	sub	x2, x0, #12288
	subs	x2, x2, #2336
	bmi	.L663
	.loc 1 7791 0 is_stmt 0 discriminator 1
	add	x1, x1, x1, lsr 2
.L651:
	.loc 1 7792 0 is_stmt 1
	sub	x0, x2, #4096
	subs	x0, x0, #3623
	bmi	.L664
	.loc 1 7792 0 is_stmt 0 discriminator 1
	add	x1, x1, x1, lsr 3
.L652:
	.loc 1 7793 0 is_stmt 1
	subs	x2, x0, #3973
	bmi	.L665
	.loc 1 7793 0 is_stmt 0 discriminator 1
	add	x1, x1, x1, lsr 4
.L653:
	.loc 1 7794 0 is_stmt 1
	subs	x0, x2, #2017
	bmi	.L666
	.loc 1 7794 0 is_stmt 0 discriminator 1
	add	x1, x1, x1, lsr 5
.L654:
	.loc 1 7795 0 is_stmt 1
	subs	x2, x0, #1016
	bmi	.L667
	.loc 1 7795 0 is_stmt 0 discriminator 1
	add	x1, x1, x1, lsr 6
.L655:
	.loc 1 7796 0 is_stmt 1
	subs	x0, x2, #510
	bmi	.L668
	.loc 1 7796 0 is_stmt 0 discriminator 1
	add	x1, x1, x1, lsr 7
.L656:
	.loc 1 7797 0 is_stmt 1
	bl	VENC_DRV_EflRcFxExp_FLOAT
.LVL700:
	.loc 1 7798 0
	tbz	x19, #63, .L657
	.loc 1 7799 0
	mov	x1, 4294967296
.LVL701:
	udiv	x0, x1, x0
.L657:
	.loc 1 7801 0
	ldr	x19, [sp,16]
	.cfi_remember_state
	.cfi_restore 19
.LVL702:
.LVL703:
	ldp	x29, x30, [sp], 32
	.cfi_restore 30
	.cfi_restore 29
	.cfi_def_cfa 31, 0
	ret
.LVL704:
.L668:
	.cfi_restore_state
	mov	x0, x2
	b	.L656
.L667:
	mov	x2, x0
	b	.L655
.L666:
	mov	x0, x2
	b	.L654
.L665:
	mov	x2, x0
	b	.L653
.L664:
	mov	x0, x2
	b	.L652
.L663:
	mov	x2, x0
	b	.L651
.L662:
	mov	x0, x2
	b	.L650
.L661:
	mov	x2, x0
	b	.L649
.L660:
	mov	x0, x2
	b	.L648
.L659:
	mov	x2, x0
	b	.L647
.LVL705:
.L658:
	.loc 1 7784 0
	mov	x0, x1
	.loc 1 7785 0
	mov	x1, 65536
.LVL706:
	b	.L646
	.cfi_endproc
.LFE2798:
	.size	VENC_DRV_EflRcFxExp, .-VENC_DRV_EflRcFxExp
	.align	2
	.global	VENC_DRV_EflRcPicLogLambdaQP
	.type	VENC_DRV_EflRcPicLogLambdaQP, %function
VENC_DRV_EflRcPicLogLambdaQP:
.LFB2799:
	.loc 1 7806 0
	.cfi_startproc
.LVL707:
	stp	x29, x30, [sp, -80]!
	.cfi_def_cfa_offset 80
	.cfi_offset 29, -80
	.cfi_offset 30, -72
	.loc 1 7811 0 discriminator 1
	mov	w5, 46
	.loc 1 7809 0
	sbfiz	x2, x2, 16, 32
.LVL708:
	.loc 1 7806 0
	add	x29, sp, 0
	.cfi_def_cfa_register 29
	stp	x19, x20, [sp,16]
	stp	x21, x22, [sp,32]
	stp	x23, x24, [sp,48]
	stp	x25, x26, [sp,64]
	.cfi_offset 19, -64
	.cfi_offset 20, -56
	.cfi_offset 21, -48
	.cfi_offset 22, -40
	.cfi_offset 23, -32
	.cfi_offset 24, -24
	.cfi_offset 25, -16
	.cfi_offset 26, -8
	.loc 1 7806 0
	mov	x21, x0
	.loc 1 7811 0 discriminator 4
	adrp	x22, .LANCHOR0
	.loc 1 7811 0 is_stmt 0
	ldr	x0, [x0]
.LVL709:
	.loc 1 7811 0 discriminator 4
	add	x20, x22, :lo12:.LANCHOR0
	add	x19, x20, 896
	.loc 1 7808 0 is_stmt 1
	ldr	w4, [x21,3252]
	.loc 1 7811 0
	ldr	w3, [x0,1584]
	.loc 1 7812 0
	ldr	w0, [x0,1580]
	.loc 1 7811 0
	sub	w3, w3, #6
	.loc 1 7808 0
	ldr	w6, [x21,3248]
	.loc 1 7811 0 discriminator 1
	cmp	w3, w5
	.loc 1 7812 0
	sub	w0, w0, #5
	.loc 1 7811 0 discriminator 1
	csel	w3, w3, w5, le
	cmp	w3, wzr
	csel	w3, w3, wzr, ge
	.loc 1 7812 0 discriminator 1
	cmp	w0, w5
	csel	w0, w0, w5, le
	cmp	w0, wzr
	csel	w0, w0, wzr, ge
	.loc 1 7816 0
	cmp	w1, 1
	.loc 1 7809 0
	mul	w4, w4, w6
	.loc 1 7811 0 discriminator 4
	ldrsw	x24, [x19,w3,sxtw 2]
.LVL710:
	.loc 1 7812 0 discriminator 4
	ldr	w5, [x19,w0,sxtw 2]
	.loc 1 7809 0
	udiv	x23, x2, x4
.LVL711:
	.loc 1 7812 0 discriminator 4
	sub	w5, w5, #1
	sxtw	x25, w5
.LVL712:
	.loc 1 7816 0
	beq	.L700
	.loc 1 7845 0
	ldrsw	x0, [x21,7064]
	bl	VENC_DRV_EflRcFxLog
.LVL713:
	mov	x26, x0
	.loc 1 7845 0 is_stmt 0 discriminator 1
	mov	x0, x23
	bl	VENC_DRV_EflRcFxLog
.LVL714:
	.loc 1 7845 0
	ldrsw	x4, [x21,7072]
	mov	x1, x19
	add	x3, x20, 1080
	.loc 1 7846 0 is_stmt 1
	mov	w19, 6
	.loc 1 7813 0
	mov	w20, 0
	.loc 1 7845 0
	mul	x0, x4, x0
	add	x2, x26, x0, lsr 16
	.loc 1 7846 0
	sxtw	x2, w2
	cmp	x2, x25
	csel	x2, x2, x25, le
	cmp	x2, x24
	csel	x2, x2, x24, ge
.L681:
	.loc 1 7849 0
	ldrsw	x0, [x1,4]
	.loc 1 7850 0
	lsl	w4, w19, 6
	add	w19, w19, 1
	.loc 1 7849 0
	cmp	x2, x0
	bge	.L680
	.loc 1 7849 0 is_stmt 0 discriminator 1
	ldrsw	x0, [x1]
	.loc 1 7850 0 is_stmt 1
	cmp	x2, x0
	csel	w20, w4, w20, ge
.L680:
	add	x1, x1, 4
	.loc 1 7847 0 discriminator 1
	cmp	x1, x3
	bne	.L681
	.loc 1 7852 0
	ldr	w0, [x21,4320]
	cbz	w0, .L682
	.loc 1 7854 0
	ldr	w1, [x21,7056]
	.loc 1 7856 0
	lsr	w0, w0, 6
	.loc 1 7854 0
	cmp	w1, 1
	beq	.L701
	.loc 1 7864 0
	sub	w1, w0, #6
	cmp	w1, 5
	bgt	.L702
	mov	w1, 0
	mov	w4, 384
.L685:
	.loc 1 7865 0
	add	w0, w0, 6
	.loc 1 7865 0 is_stmt 0 discriminator 1
	mov	w3, 51
	cmp	w0, 51
	.loc 1 7867 0 is_stmt 1
	add	x22, x22, :lo12:.LANCHOR0
	.loc 1 7865 0 discriminator 1
	csel	w0, w0, w3, le
	.loc 1 7867 0
	add	x22, x22, 896
	sub	w5, w0, #5
	.loc 1 7866 0
	lsl	w3, w0, 6
	cmp	w20, w3
	csel	w20, w20, w3, le
	.loc 1 7867 0
	ldr	w3, [x22,w1,sxtw 2]
	ldr	w0, [x22,w5,sxtw 2]
	.loc 1 7866 0
	cmp	w4, w20
	csel	w20, w4, w20, ge
	.loc 1 7867 0
	cmp	w0, w2
	csel	w2, w0, w2, lt
	cmp	w3, w2
	csel	w2, w3, w2, ge
	sxtw	x2, w2
.L682:
	.loc 1 7871 0
	str	x2, [x21,7088]
	.loc 1 7874 0
	mov	w0, w20
	ldp	x19, x20, [sp,16]
	.cfi_remember_state
	.cfi_restore 20
	.cfi_restore 19
	ldp	x21, x22, [sp,32]
	.cfi_restore 22
	.cfi_restore 21
.LVL715:
	ldp	x23, x24, [sp,48]
	.cfi_restore 24
	.cfi_restore 23
.LVL716:
	ldp	x25, x26, [sp,64]
	.cfi_restore 26
	.cfi_restore 25
.LVL717:
	ldp	x29, x30, [sp], 80
	.cfi_restore 30
	.cfi_restore 29
	.cfi_def_cfa 31, 0
	ret
.LVL718:
.L700:
	.cfi_restore_state
	.loc 1 7818 0
	ldrsw	x0, [x21,7060]
	bl	VENC_DRV_EflRcFxLog
.LVL719:
	mov	x26, x0
	.loc 1 7818 0 is_stmt 0 discriminator 1
	mov	x0, x23
	bl	VENC_DRV_EflRcFxLog
.LVL720:
	.loc 1 7818 0
	ldrsw	x4, [x21,7068]
	mov	x1, x19
	add	x3, x20, 1080
	.loc 1 7819 0 is_stmt 1
	mov	w19, 6
	.loc 1 7813 0
	mov	w20, 0
	.loc 1 7818 0
	mul	x0, x4, x0
	add	x2, x26, x0, lsr 16
	.loc 1 7819 0
	sxtw	x2, w2
	cmp	x2, x25
	csel	x2, x2, x25, le
	cmp	x2, x24
	csel	x2, x2, x24, ge
.L672:
	.loc 1 7822 0
	ldrsw	x0, [x1,4]
	.loc 1 7823 0
	lsl	w4, w19, 6
	add	w19, w19, 1
	.loc 1 7822 0
	cmp	x2, x0
	bge	.L671
	.loc 1 7822 0 is_stmt 0 discriminator 1
	ldrsw	x0, [x1]
	.loc 1 7823 0 is_stmt 1
	cmp	x2, x0
	csel	w20, w4, w20, ge
.L671:
	add	x1, x1, 4
	.loc 1 7820 0 discriminator 1
	cmp	x1, x3
	bne	.L672
	.loc 1 7826 0
	ldr	w0, [x21,4336]
	cmp	w0, wzr
	ble	.L673
	.loc 1 7828 0
	sub	w1, w0, #6
	cmp	w1, 5
	bgt	.L703
	.loc 1 7829 0
	add	w0, w0, 6
	mov	w1, 0
	cmp	w0, 5
	mov	w3, 384
	ble	.L687
.L704:
	.loc 1 7829 0 is_stmt 0 discriminator 1
	cmp	w0, 51
	mov	w4, 51
	csel	w0, w0, w4, le
	lsl	w5, w0, 6
	sub	w0, w0, #5
.L675:
	.loc 1 7831 0 is_stmt 1
	add	x4, x22, :lo12:.LANCHOR0
	.loc 1 7830 0
	cmp	w5, w20
	.loc 1 7831 0
	add	x4, x4, 896
	.loc 1 7830 0
	csel	w20, w5, w20, le
	cmp	w20, w3
	csel	w20, w20, w3, ge
	.loc 1 7831 0
	ldr	w0, [x4,w0,sxtw 2]
	ldr	w5, [x4,w1,sxtw 2]
	cmp	w0, w2
	csel	w2, w0, w2, le
	cmp	w2, w5
	csel	w2, w2, w5, ge
	sxtw	x2, w2
.L673:
	.loc 1 7833 0
	ldr	w0, [x21,4320]
	cbz	w0, .L676
	.loc 1 7835 0
	lsr	w0, w0, 6
	sub	w1, w0, #6
	cmp	w1, 5
	ble	.L688
	.loc 1 7835 0 is_stmt 0 discriminator 1
	mov	w3, 51
	cmp	w1, 51
	csel	w1, w1, w3, le
	lsl	w5, w1, 6
	sub	w3, w1, #6
.L677:
	.loc 1 7836 0 is_stmt 1
	add	w0, w0, 2
	cmp	w0, 5
	bls	.L689
	.loc 1 7836 0 is_stmt 0 discriminator 1
	cmp	w0, 51
	mov	w1, 51
	csel	w0, w0, w1, le
	lsl	w19, w0, 6
	sub	w0, w0, #5
.L678:
	.loc 1 7837 0 is_stmt 1
	cmp	x2, x25
	.loc 1 7839 0
	add	x22, x22, :lo12:.LANCHOR0
	.loc 1 7837 0
	csel	x4, x2, x25, le
	.loc 1 7839 0
	add	x22, x22, 896
	.loc 1 7838 0
	cmp	w19, w20
	csel	w20, w19, w20, le
	cmp	w20, w5
	.loc 1 7839 0
	ldr	w2, [x22,w0,sxtw 2]
	.loc 1 7838 0
	csel	w20, w20, w5, ge
	.loc 1 7837 0
	cmp	x4, x24
	csel	x24, x4, x24, ge
.LVL721:
	.loc 1 7839 0
	ldr	w5, [x22,w3,sxtw 2]
	cmp	w2, w24
	csel	w24, w2, w24, le
	cmp	w24, w5
	csel	w2, w24, w5, ge
	sxtw	x2, w2
.LVL722:
.L676:
	.loc 1 7841 0
	str	x2, [x21,7080]
	.loc 1 7874 0
	mov	w0, w20
	ldp	x19, x20, [sp,16]
	.cfi_remember_state
	.cfi_restore 19
	.cfi_restore 20
	ldp	x21, x22, [sp,32]
	.cfi_restore 21
	.cfi_restore 22
.LVL723:
	ldp	x23, x24, [sp,48]
	.cfi_restore 23
	.cfi_restore 24
.LVL724:
	ldp	x25, x26, [sp,64]
	.cfi_restore 25
	.cfi_restore 26
.LVL725:
	ldp	x29, x30, [sp], 80
	.cfi_restore 29
	.cfi_restore 30
	.cfi_def_cfa 31, 0
	ret
.LVL726:
.L702:
	.cfi_restore_state
	.loc 1 7864 0 discriminator 1
	mov	w4, 51
	cmp	w1, 51
	csel	w1, w1, w4, le
	lsl	w4, w1, 6
	sub	w1, w1, #6
	b	.L685
.L703:
	.loc 1 7828 0 discriminator 1
	cmp	w1, 51
	mov	w3, 51
	.loc 1 7829 0
	add	w0, w0, 6
	.loc 1 7828 0 discriminator 1
	csel	w1, w1, w3, le
	.loc 1 7829 0
	cmp	w0, 5
	lsl	w3, w1, 6
	sub	w1, w1, #6
	bgt	.L704
.L687:
	mov	w0, 1
	mov	w5, 384
	b	.L675
.L701:
	.loc 1 7856 0
	sub	w1, w0, #10
	cmp	w1, 5
	ble	.L690
	.loc 1 7856 0 is_stmt 0 discriminator 1
	mov	w4, 51
	cmp	w1, 51
	csel	w1, w1, w4, le
	lsl	w5, w1, 6
	sub	w4, w1, #6
.L684:
	.loc 1 7857 0 is_stmt 1
	add	w0, w0, 10
	.loc 1 7857 0 is_stmt 0 discriminator 1
	mov	w1, 51
	cmp	w0, 51
	.loc 1 7859 0 is_stmt 1
	add	x22, x22, :lo12:.LANCHOR0
	.loc 1 7857 0 discriminator 1
	csel	w0, w0, w1, le
	.loc 1 7859 0
	add	x22, x22, 896
	sub	w1, w0, #5
	.loc 1 7858 0
	lsl	w3, w0, 6
	cmp	w20, w3
	csel	w20, w20, w3, le
	.loc 1 7859 0
	ldr	w19, [x22,w4,sxtw 2]
	ldr	w0, [x22,w1,sxtw 2]
	.loc 1 7858 0
	cmp	w5, w20
	csel	w20, w5, w20, ge
	.loc 1 7859 0
	cmp	w0, w2
	csel	w2, w0, w2, lt
	cmp	w19, w2
	csel	w2, w19, w2, ge
	sxtw	x2, w2
	b	.L682
.L689:
	mov	w0, 1
	mov	w19, 384
	b	.L678
.L688:
	mov	w3, 0
	mov	w5, 384
	b	.L677
.L690:
	mov	w4, 0
	mov	w5, 384
	b	.L684
	.cfi_endproc
.LFE2799:
	.size	VENC_DRV_EflRcPicLogLambdaQP, .-VENC_DRV_EflRcPicLogLambdaQP
	.align	2
	.global	VENC_DRV_EflRcComputeQp
	.type	VENC_DRV_EflRcComputeQp, %function
VENC_DRV_EflRcComputeQp:
.LFB2800:
	.loc 1 7950 0
	.cfi_startproc
.LVL727:
	adrp	x5, .LANCHOR0
	.loc 1 7950 0
	mov	w2, 6
	add	x5, x5, :lo12:.LANCHOR0
	.loc 1 7952 0
	mov	w6, 0
.LVL728:
	add	x1, x5, 896
	add	x5, x5, 1080
.L707:
	.loc 1 7955 0
	ldrsw	x3, [x1,4]
	.loc 1 7957 0
	lsl	w4, w2, 6
	add	w2, w2, 1
	.loc 1 7955 0
	cmp	x3, x0
	ble	.L706
	.loc 1 7955 0 is_stmt 0 discriminator 1
	ldrsw	x3, [x1]
	.loc 1 7957 0 is_stmt 1
	cmp	x0, x3
	csel	w6, w4, w6, ge
.L706:
	add	x1, x1, 4
	.loc 1 7953 0 discriminator 1
	cmp	x1, x5
	bne	.L707
	.loc 1 7961 0
	mov	w0, w6
.LVL729:
	ret
	.cfi_endproc
.LFE2800:
	.size	VENC_DRV_EflRcComputeQp, .-VENC_DRV_EflRcComputeQp
	.align	2
	.global	VENC_DRV_EflRcJudgeClip
	.type	VENC_DRV_EflRcJudgeClip, %function
VENC_DRV_EflRcJudgeClip:
.LFB2801:
	.loc 1 7963 0
	.cfi_startproc
.LVL730:
	.loc 1 7965 0
	cmp	w3, w2, lsl 6
	.loc 1 7966 0
	mov	w2, 1
.LVL731:
	.loc 1 7965 0
	bgt	.L710
	.loc 1 7965 0 is_stmt 0 discriminator 1
	cmp	w3, w1, lsl 6
	cset	w2, lt
.L710:
	str	w2, [x0,7124]
	.loc 1 7969 0 is_stmt 1
	ret
	.cfi_endproc
.LFE2801:
	.size	VENC_DRV_EflRcJudgeClip, .-VENC_DRV_EflRcJudgeClip
	.align	2
	.global	VENC_DRV_EflRcPicLogLambdaQPVILTE
	.type	VENC_DRV_EflRcPicLogLambdaQPVILTE, %function
VENC_DRV_EflRcPicLogLambdaQPVILTE:
.LFB2802:
	.loc 1 7971 0
	.cfi_startproc
.LVL732:
	stp	x29, x30, [sp, -96]!
	.cfi_def_cfa_offset 96
	.cfi_offset 29, -96
	.cfi_offset 30, -88
	.loc 1 7974 0
	sbfiz	x2, x2, 16, 32
.LVL733:
	.loc 1 7971 0
	add	x29, sp, 0
	.cfi_def_cfa_register 29
	stp	x19, x20, [sp,16]
	stp	x23, x24, [sp,48]
	stp	x25, x26, [sp,64]
	stp	x21, x22, [sp,32]
	str	x27, [sp,80]
	.cfi_offset 19, -80
	.cfi_offset 20, -72
	.cfi_offset 23, -48
	.cfi_offset 24, -40
	.cfi_offset 25, -32
	.cfi_offset 26, -24
	.cfi_offset 21, -64
	.cfi_offset 22, -56
	.cfi_offset 27, -16
	.loc 1 7971 0
	mov	x23, x0
	.loc 1 7976 0 discriminator 1
	mov	w25, 46
	.loc 1 7976 0 is_stmt 0 discriminator 4
	adrp	x24, .LANCHOR0
	.loc 1 7976 0
	ldr	x4, [x0]
	.loc 1 7976 0 discriminator 4
	add	x22, x24, :lo12:.LANCHOR0
	.loc 1 7973 0 is_stmt 1
	ldr	w3, [x0,3252]
	.loc 1 7976 0 discriminator 4
	add	x19, x22, 896
	.loc 1 7973 0
	ldr	w5, [x0,3248]
	.loc 1 7976 0
	ldr	w0, [x4,1584]
.LVL734:
	.loc 1 7977 0
	ldr	w21, [x4,1580]
	.loc 1 7976 0
	sub	w0, w0, #6
	.loc 1 7976 0 is_stmt 0 discriminator 1
	cmp	w0, w25
	.loc 1 7977 0 is_stmt 1
	sub	w21, w21, #5
	.loc 1 7976 0 discriminator 1
	csel	w0, w0, w25, le
	cmp	w0, wzr
	csel	w0, w0, wzr, ge
	.loc 1 7977 0 discriminator 1
	cmp	w21, w25
	csel	w21, w21, w25, le
	cmp	w21, wzr
	csel	w21, w21, wzr, ge
	.loc 1 7980 0
	cmp	w1, 1
	.loc 1 7974 0
	mul	w3, w3, w5
	.loc 1 7976 0 discriminator 4
	ldrsw	x20, [x19,w0,sxtw 2]
.LVL735:
	.loc 1 7977 0 discriminator 4
	ldr	w25, [x19,w21,sxtw 2]
	.loc 1 7974 0
	udiv	x26, x2, x3
.LVL736:
	.loc 1 7977 0 discriminator 4
	sub	w25, w25, #1
	sxtw	x25, w25
.LVL737:
	.loc 1 7980 0
	beq	.L748
	.loc 1 7998 0
	ldrsw	x0, [x23,7064]
.LBB317:
.LBB318:
	.loc 1 7952 0
	mov	w21, 0
.LBE318:
.LBE317:
	.loc 1 7998 0
	bl	VENC_DRV_EflRcFxLog
.LVL738:
	mov	x27, x0
	.loc 1 7998 0 is_stmt 0 discriminator 1
	mov	x0, x26
	bl	VENC_DRV_EflRcFxLog
.LVL739:
	.loc 1 7998 0
	ldrsw	x2, [x23,7072]
	mov	x1, x19
	add	x3, x22, 1080
	.loc 1 7999 0 is_stmt 1
	mov	w19, 6
	.loc 1 7998 0
	mul	x0, x2, x0
	add	x0, x27, x0, lsr 16
	.loc 1 7999 0
	sxtw	x0, w0
	cmp	x0, x25
	csel	x0, x0, x25, le
	cmp	x0, x20
	csel	x20, x0, x20, ge
.LVL740:
.L722:
.LBB320:
.LBB319:
	.loc 1 7955 0
	ldrsw	x2, [x1,4]
	.loc 1 7957 0
	lsl	w0, w19, 6
	add	w19, w19, 1
	.loc 1 7955 0
	cmp	x20, x2
	bge	.L721
	.loc 1 7955 0 is_stmt 0 discriminator 1
	ldrsw	x2, [x1]
	.loc 1 7957 0 is_stmt 1
	cmp	x20, x2
	csel	w21, w0, w21, ge
.L721:
	add	x1, x1, 4
	.loc 1 7953 0 discriminator 1
	cmp	x1, x3
	bne	.L722
.LBE319:
.LBE320:
	.loc 1 8001 0
	add	x3, x24, :lo12:.LANCHOR0
	adrp	x1, .LC0
	adrp	x4, .LC33
	add	x1, x1, :lo12:.LC0
	mov	w0, 4
	mov	w2, 8001
	add	x3, x3, 1088
	add	x4, x4, :lo12:.LC33
	mov	w5, w21
	mov	x6, x20
	bl	HI_PRINT
.LVL741:
	.loc 1 8002 0
	ldr	w1, [x23,7120]
	cmp	w1, wzr
	ble	.L737
	.loc 1 8004 0
	ldr	w2, [x23,4392]
	cmp	w2, 1
	beq	.L749
	.loc 1 8013 0
	ldr	w2, [x23,7056]
	cmp	w2, 1
	beq	.L750
