	.cpu generic+fp+simd
	.file	"venc_regulator.c"
	.text
.Ltext0:
	.cfi_sections	.debug_frame
	.align	2
	.global	Venc_Regulator_Init
	.type	Venc_Regulator_Init, %function
Venc_Regulator_Init:
.LFB2822:
	.file 1 "/mnt/disk/jenkins/ci/workspace/chipset_release_960_xloader/opensource/component_code/vendor/huawei/extra/build/build_script/kirin_kernel_release/kernel/drivers/vcodec/hi_vcodec/venc/drv/venc/venc_regulator.c"
	.loc 1 226 0
	.cfi_startproc
.LVL0:
	stp	x29, x30, [sp, -176]!
	.cfi_def_cfa_offset 176
	.cfi_offset 29, -176
	.cfi_offset 30, -168
	add	x29, sp, 0
	.cfi_def_cfa_register 29
	stp	x21, x22, [sp,32]
	.cfi_offset 21, -144
	.cfi_offset 22, -136
	mov	x21, x0
	adrp	x0, __stack_chk_guard
.LVL1:
	stp	x19, x20, [sp,16]
	stp	x23, x24, [sp,48]
	ldr	x0, [x0,#:lo12:__stack_chk_guard]
	stp	x25, x26, [sp,64]
	stp	x27, x28, [sp,80]
	.cfi_offset 19, -160
	.cfi_offset 20, -152
	.cfi_offset 23, -128
	.cfi_offset 24, -120
	.cfi_offset 25, -112
	.cfi_offset 26, -104
	.cfi_offset 27, -96
	.cfi_offset 28, -88
	.loc 1 226 0
	str	x0, [x29,168]
	.loc 1 229 0
	cbz	x21, .L50
.LBB89:
.LBB90:
	.loc 1 187 0
	adrp	x24, .LC0
	adrp	x20, .LANCHOR0
	add	x25, x20, :lo12:.LANCHOR0
	add	x27, x24, :lo12:.LC0
	adrp	x4, .LC2
	mov	w0, 3
	mov	x1, x27
	mov	w2, 187
	add	x3, x25, 48
	add	x4, x4, :lo12:.LC2
	add	x5, x25, 72
	.loc 1 189 0
	adrp	x19, .LANCHOR1
	.loc 1 190 0
	add	x21, x21, 16
.LVL2:
	.loc 1 189 0
	add	x26, x19, :lo12:.LANCHOR1
	.loc 1 187 0
	bl	HI_PRINT
.LVL3:
	.loc 1 190 0
	adrp	x1, .LC3
	mov	x0, x21
	add	x1, x1, :lo12:.LC3
	.loc 1 189 0
	str	xzr, [x19,#:lo12:.LANCHOR1]
	.loc 1 190 0
	bl	devm_regulator_get
.LVL4:
	str	x0, [x19,#:lo12:.LANCHOR1]
	mov	x6, x0
.LBB91:
.LBB92:
	.file 2 "/mnt/disk/jenkins/ci/workspace/chipset_release_960_xloader/opensource/component_code/vendor/huawei/extra/build/build_script/kirin_kernel_release/kernel/include/linux/err.h"
	.loc 2 40 0
	cbz	x0, .L4
	.loc 2 40 0 is_stmt 0 discriminator 2
	cmn	x0, #4096
	bhi	.L4
.LBE92:
.LBE91:
.LBE90:
.LBE89:
.LBB94:
.LBB95:
	.loc 1 48 0 is_stmt 1
	mov	x0, 0
	bl	hisi_ion_enable_iommu
.LVL5:
	.loc 1 49 0
	cbz	x0, .L51
	.loc 1 56 0
	ldr	x1, [x0,72]
.LVL6:
	.loc 1 54 0
	str	x0, [x26,8]
	.loc 1 57 0
	cbz	x1, .L6
	.loc 1 60 0
	ldr	x6, [x1,16]
	adrp	x4, .LC7
.LBE95:
.LBE94:
.LBB98:
.LBB99:
	.loc 1 101 0
	add	x23, x29, 104
.LBE99:
.LBE98:
	.loc 1 252 0
	add	x28, x26, 16
.LBB128:
.LBB96:
	.loc 1 60 0
	mov	w0, 3
.LVL7:
	mov	x1, x27
.LVL8:
	mov	w2, 60
	add	x3, x25, 96
	add	x4, x4, :lo12:.LC7
	add	x5, x25, 120
	bl	HI_PRINT
.LVL9:
.LBE96:
.LBE128:
.LBB129:
.LBB121:
	.loc 1 99 0
	ldr	x22, [x21,664]
.LVL10:
.LBE121:
.LBE129:
	.loc 1 252 0
	stp	xzr, xzr, [x26,16]
	stp	xzr, xzr, [x28,16]
	stp	xzr, xzr, [x28,32]
.LBB130:
.LBB122:
	.loc 1 83 0
	str	wzr, [x29,96]
.LVL11:
	.loc 1 84 0
	str	wzr, [x29,100]
.LVL12:
	.loc 1 101 0
	stp	xzr, xzr, [x23]
	stp	xzr, xzr, [x23,16]
	stp	xzr, xzr, [x23,32]
	stp	xzr, xzr, [x23,48]
	.loc 1 102 0
	cbz	x22, .L28
	cbz	x28, .L28
	.loc 1 109 0
	mov	x0, x22
	mov	w1, 0
	bl	irq_of_parse_and_map
.LVL13:
	str	w0, [x28,4]
	.loc 1 110 0
	cbz	w0, .L52
	.loc 1 116 0
	mov	x0, x22
	mov	w1, 1
	bl	irq_of_parse_and_map
.LVL14:
	str	w0, [x28,8]
	.loc 1 117 0
	cbz	w0, .L53
	.loc 1 124 0
	mov	x0, x22
	mov	w1, 0
	mov	x2, x23
	bl	of_address_to_resource
.LVL15:
	mov	w6, w0
	.loc 1 125 0
	cbnz	w0, .L54
	ldr	x2, [x29,112]
	.loc 1 130 0
	add	x26, x19, :lo12:.LANCHOR1
	ldr	x3, [x29,104]
	add	x23, x26, 16
	.loc 1 134 0
	adrp	x1, .LC12
	add	x2, x2, 1
.LBB100:
.LBB101:
	.file 3 "/mnt/disk/jenkins/ci/workspace/chipset_release_960_xloader/opensource/component_code/vendor/huawei/extra/build/build_script/kirin_kernel_release/kernel/include/linux/ioport.h"
	.loc 3 195 0
	sub	x2, x2, x3
.LBE101:
.LBE100:
	.loc 1 134 0
	add	x1, x1, :lo12:.LC12
	mov	x0, x21
	.loc 1 130 0
	str	w3, [x23,20]
	.loc 1 131 0
	str	w2, [x23,24]
	.loc 1 134 0
	bl	devm_clk_get
.LVL16:
	mov	x25, x0
.LVL17:
	.loc 1 135 0
	adrp	x1, .LC13
	mov	x0, x21
	add	x1, x1, :lo12:.LC13
	bl	devm_clk_get
.LVL18:
	mov	x5, x0
.LVL19:
.LBB102:
.LBB103:
	.loc 2 40 0
	cbz	x0, .L13
.LBE103:
.LBE102:
.LBB104:
.LBB105:
	cmn	x0, #4096
	bhi	.L13
	cbz	x25, .L13
	.loc 2 40 0 is_stmt 0 discriminator 2
	cmn	x25, #4096
	bhi	.L13
.LBE105:
.LBE104:
	.loc 1 144 0 is_stmt 1
	adrp	x21, .LC20
	mov	w2, 0
	add	x21, x21, :lo12:.LC20
	add	x3, x29, 96
	mov	x1, x21
	mov	x0, x22
	.loc 1 141 0
	str	x25, [x26,64]
	.loc 1 142 0
	str	x5, [x26,72]
	.loc 1 144 0
	bl	of_property_read_u32_index
.LVL20:
	.loc 1 145 0
	mov	x1, x21
	.loc 1 144 0
	mov	w25, w0
.LVL21:
	.loc 1 145 0
	mov	w2, 1
	mov	x0, x22
	add	x3, x29, 100
	bl	of_property_read_u32_index
.LVL22:
	.loc 1 146 0
	adds	w6, w25, w0
	bne	.L55
	.loc 1 151 0
	ldr	w5, [x29,100]
.LBB106:
.LBB107:
.LBB108:
	.file 4 "/mnt/disk/jenkins/ci/workspace/chipset_release_960_xloader/opensource/component_code/vendor/huawei/extra/build/build_script/kirin_kernel_release/kernel/include/linux/of.h"
	.loc 4 468 0
	adrp	x1, .LC16
.LVL23:
.LBE108:
.LBE107:
.LBE106:
	.loc 1 151 0
	str	w5, [x23,28]
.LBB115:
.LBB112:
.LBB109:
	.loc 4 468 0
	mov	x0, x22
.LBE109:
.LBE112:
.LBE115:
	.loc 1 152 0
	ldr	w5, [x29,96]
.LVL24:
.LBB116:
.LBB113:
.LBB110:
	.loc 4 468 0
	add	x1, x1, :lo12:.LC16
	mov	x2, x23
	mov	x3, 1
	mov	x4, 0
.LVL25:
.LBE110:
.LBE113:
.LBE116:
	.loc 1 152 0
	str	w5, [x23,32]
.LBB117:
.LBB114:
.LBB111:
	.loc 4 468 0
	bl	of_property_read_variable_u32_array
.LVL26:
	.loc 4 470 0
	tbnz	w0, #31, .L15
.L21:
.LBE111:
.LBE114:
.LBE117:
.LBB118:
.LBB119:
.LBB120:
	.loc 4 468 0
	adrp	x21, .LANCHOR2
	adrp	x1, .LC17
	mov	x0, x22
	add	x1, x1, :lo12:.LC17
	add	x2, x21, :lo12:.LANCHOR2
	mov	x3, 1
	mov	x4, 0
	bl	of_property_read_variable_u32_array
.LVL27:
	.loc 4 470 0
	tbnz	w0, #31, .L16
.LBE120:
.LBE119:
.LBE118:
	.loc 1 169 0
	add	x7, x19, :lo12:.LANCHOR1
	ldr	x0, [x7,8]
	ldr	x0, [x0,72]
.LVL28:
	.loc 1 170 0
	cbz	x0, .L17
.L59:
	.loc 1 172 0
	ldr	x8, [x0,16]
	.loc 1 173 0
	add	x5, x20, :lo12:.LANCHOR0
	adrp	x4, .LC18
	add	x3, x5, 144
	mov	w0, 3
.LVL29:
	add	x1, x24, :lo12:.LC0
	mov	w2, 173
	add	x4, x4, :lo12:.LC18
	add	x5, x5, 168
	mov	x6, x8
	.loc 1 172 0
	str	x8, [x7,56]
	.loc 1 173 0
	bl	HI_PRINT
.LVL30:
.L17:
	.loc 1 176 0
	add	x0, x19, :lo12:.LANCHOR1
.LVL31:
	add	x0, x0, 16
	ldr	x1, [x0,40]
	cbz	x1, .L56
.LBE122:
.LBE130:
	.loc 1 261 0
	bl	VENC_SetDtsConfig
.LVL32:
	.loc 1 262 0
	cbnz	w0, .L57
	.loc 1 268 0
	add	x3, x20, :lo12:.LANCHOR0
	adrp	x4, .LC24
	mov	w0, 3
	add	x1, x24, :lo12:.LC0
	mov	w2, 268
	add	x4, x4, :lo12:.LC24
	add	x5, x3, 24
	bl	HI_PRINT
.LVL33:
	.loc 1 269 0
	mov	w0, 0
.LVL34:
.L3:
	.loc 1 270 0
	adrp	x1, __stack_chk_guard
	ldr	x2, [x29,168]
	ldr	x1, [x1,#:lo12:__stack_chk_guard]
	cmp	x2, x1
	bne	.L58
	ldp	x19, x20, [sp,16]
	.cfi_remember_state
	.cfi_restore 20
	.cfi_restore 19
	ldp	x21, x22, [sp,32]
	.cfi_restore 22
	.cfi_restore 21
.LVL35:
	ldp	x23, x24, [sp,48]
	.cfi_restore 24
	.cfi_restore 23
	ldp	x25, x26, [sp,64]
	.cfi_restore 26
	.cfi_restore 25
.LVL36:
	ldp	x27, x28, [sp,80]
	.cfi_restore 28
	.cfi_restore 27
	ldp	x29, x30, [sp], 176
	.cfi_restore 30
	.cfi_restore 29
	.cfi_def_cfa 31, 0
	ret
.LVL37:
.L13:
	.cfi_restore_state
.LBB131:
.LBB123:
	.loc 1 138 0
	add	x3, x20, :lo12:.LANCHOR0
	adrp	x4, .LC14
	mov	w0, 1
.LVL38:
	add	x1, x24, :lo12:.LC0
	mov	w2, 138
	add	x3, x3, 144
	add	x4, x4, :lo12:.LC14
	mov	x6, x25
	bl	HI_PRINT
.LVL39:
.L9:
.LBE123:
.LBE131:
	.loc 1 256 0
	add	x3, x20, :lo12:.LANCHOR0
	adrp	x4, .LC26
	mov	w0, 1
	add	x1, x24, :lo12:.LC0
	mov	w2, 256
	add	x4, x4, :lo12:.LC26
	add	x5, x3, 24
	bl	HI_PRINT
.LVL40:
	.loc 1 257 0
	mov	w0, -1
	b	.L3
.LVL41:
.L16:
.LBB132:
.LBB124:
	.loc 1 166 0
	add	x3, x20, :lo12:.LANCHOR0
	adrp	x4, .LC22
	mov	w0, 1
	.loc 1 165 0
	mov	w5, 2
	.loc 1 166 0
	add	x1, x24, :lo12:.LC0
	mov	w2, 166
	add	x3, x3, 144
	add	x4, x4, :lo12:.LC22
	.loc 1 165 0
	str	w5, [x21,#:lo12:.LANCHOR2]
	.loc 1 166 0
	bl	HI_PRINT
.LVL42:
	.loc 1 169 0
	add	x7, x19, :lo12:.LANCHOR1
	ldr	x0, [x7,8]
	ldr	x0, [x0,72]
.LVL43:
	.loc 1 170 0
	cbnz	x0, .L59
	b	.L17
.LVL44:
.L15:
	.loc 1 158 0
	add	x5, x20, :lo12:.LANCHOR0
	adrp	x4, .LC21
	add	x3, x5, 144
	mov	w0, 3
	add	x1, x24, :lo12:.LC0
	mov	w2, 158
	add	x4, x4, :lo12:.LC21
	add	x5, x5, 168
	bl	HI_PRINT
.LVL45:
	b	.L21
.LVL46:
.L4:
.LBE124:
.LBE132:
.LBB133:
.LBB93:
	.loc 1 193 0 discriminator 1
	add	x20, x20, :lo12:.LANCHOR0
	add	x24, x24, :lo12:.LC0
	adrp	x4, .LC4
	mov	w0, 1
	mov	x1, x24
	mov	w2, 193
	add	x3, x20, 48
	add	x4, x4, :lo12:.LC4
	add	x5, x20, 72
	bl	HI_PRINT
.LVL47:
	.loc 1 194 0
	str	xzr, [x19,#:lo12:.LANCHOR1]
.LBE93:
.LBE133:
	.loc 1 239 0
	adrp	x4, .LC5
	mov	w0, 1
	mov	x1, x24
	mov	w2, 239
	mov	x3, x20
	add	x4, x4, :lo12:.LC5
	add	x5, x20, 24
	bl	HI_PRINT
.LVL48:
	.loc 1 240 0
	mov	w0, -1
	b	.L3
.LVL49:
.L28:
.LBB134:
.LBB125:
	.loc 1 104 0
	add	x3, x20, :lo12:.LANCHOR0
	add	x6, x19, :lo12:.LANCHOR1
	adrp	x4, .LC8
	mov	w0, 1
	add	x1, x24, :lo12:.LC0
	mov	w2, 104
	add	x3, x3, 144
	add	x4, x4, :lo12:.LC8
	mov	x5, x22
	add	x6, x6, 16
	bl	HI_PRINT
.LVL50:
	b	.L9
.L57:
.LBE125:
.LBE134:
	.loc 1 264 0
	add	x3, x20, :lo12:.LANCHOR0
	adrp	x4, .LC23
	mov	w0, 1
	add	x1, x24, :lo12:.LC0
	mov	w2, 264
	add	x4, x4, :lo12:.LC23
	add	x5, x3, 24
	bl	HI_PRINT
.LVL51:
	.loc 1 265 0
	mov	w0, -1
	b	.L3
.L52:
.LBB135:
.LBB126:
	.loc 1 112 0
	adrp	x4, .LC9
	mov	w0, 1
	mov	x1, x27
	mov	w2, 112
	add	x3, x25, 144
	add	x4, x4, :lo12:.LC9
	add	x5, x25, 168
	bl	HI_PRINT
.LVL52:
	b	.L9
.L53:
	.loc 1 119 0
	adrp	x4, .LC10
	mov	w0, 1
	mov	x1, x27
	mov	w2, 119
	add	x3, x25, 144
	add	x4, x4, :lo12:.LC10
	add	x5, x25, 168
	bl	HI_PRINT
.LVL53:
	b	.L9
.L54:
	.loc 1 127 0
	add	x5, x20, :lo12:.LANCHOR0
	adrp	x4, .LC11
	add	x3, x5, 144
	mov	w0, 1
	add	x1, x24, :lo12:.LC0
	mov	w2, 127
	add	x4, x4, :lo12:.LC11
	add	x5, x5, 168
	bl	HI_PRINT
.LVL54:
	b	.L9
.LVL55:
.L51:
.LBE126:
.LBE135:
.LBB136:
.LBB97:
	.loc 1 50 0
	adrp	x4, .LC6
	mov	w0, 1
.LVL56:
	mov	x1, x27
	mov	w2, 50
	add	x3, x25, 96
	add	x4, x4, :lo12:.LC6
	add	x5, x25, 120
	bl	HI_PRINT
.LVL57:
.L6:
.LBE97:
.LBE136:
	.loc 1 247 0
	add	x3, x20, :lo12:.LANCHOR0
	adrp	x4, .LC25
	mov	w0, 1
.LVL58:
	add	x1, x24, :lo12:.LC0
.LVL59:
	mov	w2, 247
	add	x4, x4, :lo12:.LC25
	add	x5, x3, 24
	bl	HI_PRINT
.LVL60:
	.loc 1 248 0
	mov	w0, -1
	b	.L3
.LVL61:
.L55:
.LBB137:
.LBB127:
	.loc 1 148 0
	add	x5, x20, :lo12:.LANCHOR0
	adrp	x4, .LC15
	add	x3, x5, 144
	mov	w0, 1
	add	x1, x24, :lo12:.LC0
	mov	w2, 148
	add	x4, x4, :lo12:.LC15
	add	x5, x5, 168
	bl	HI_PRINT
.LVL62:
	b	.L9
.L56:
	.loc 1 178 0
	add	x5, x20, :lo12:.LANCHOR0
	adrp	x4, .LC19
	add	x3, x5, 144
	mov	w0, 1
	add	x1, x24, :lo12:.LC0
	mov	w2, 178
	add	x4, x4, :lo12:.LC19
	add	x5, x5, 168
	bl	HI_PRINT
.LVL63:
	b	.L9
.LVL64:
.L50:
.LBE127:
.LBE137:
	.loc 1 231 0
	adrp	x3, .LANCHOR0
	adrp	x1, .LC0
	add	x3, x3, :lo12:.LANCHOR0
	adrp	x4, .LC1
	mov	w0, 1
	add	x1, x1, :lo12:.LC0
	mov	w2, 231
	add	x4, x4, :lo12:.LC1
	add	x5, x3, 24
	bl	HI_PRINT
.LVL65:
	.loc 1 232 0
	mov	w0, -1
	b	.L3
.LVL66:
.L58:
	.loc 1 270 0
	bl	__stack_chk_fail
.LVL67:
	.cfi_endproc
.LFE2822:
	.size	Venc_Regulator_Init, .-Venc_Regulator_Init
	.align	2
	.global	Venc_Regulator_Deinit
	.type	Venc_Regulator_Deinit, %function
Venc_Regulator_Deinit:
.LFB2823:
	.loc 1 273 0
	.cfi_startproc
.LVL68:
	.loc 1 274 0
	cbz	x0, .L60
.LBB138:
.LBB139:
	.loc 1 72 0
	adrp	x0, .LANCHOR1
.LVL69:
	add	x0, x0, :lo12:.LANCHOR1
	ldr	x1, [x0,8]
	cbz	x1, .L60
	.loc 1 74 0
	str	xzr, [x0,8]
.LVL70:
.L60:
.LBE139:
.LBE138:
	.loc 1 280 0
	ret
	.cfi_endproc
.LFE2823:
	.size	Venc_Regulator_Deinit, .-Venc_Regulator_Deinit
	.align	2
	.global	Venc_Regulator_Enable
	.type	Venc_Regulator_Enable, %function
Venc_Regulator_Enable:
.LFB2825:
	.loc 1 440 0
	.cfi_startproc
	stp	x29, x30, [sp, -48]!
	.cfi_def_cfa_offset 48
	.cfi_offset 29, -48
	.cfi_offset 30, -40
	add	x29, sp, 0
	.cfi_def_cfa_register 29
	stp	x19, x20, [sp,16]
	.cfi_offset 19, -32
	.cfi_offset 20, -24
.LBB157:
.LBB158:
	.loc 1 287 0
	adrp	x20, .LANCHOR1
.LBE158:
.LBE157:
	.loc 1 440 0
	str	x21, [sp,32]
	.cfi_offset 21, -16
.LBB185:
.LBB180:
	.loc 1 287 0
	add	x19, x20, :lo12:.LANCHOR1
	ldr	w0, [x19,80]
	cmp	w0, 1
	beq	.L86
	.loc 1 292 0
	ldr	x5, [x19,64]
.LBB159:
.LBB160:
	.loc 2 40 0
	cbz	x5, .L72
	.loc 2 40 0 is_stmt 0 discriminator 2
	cmn	x5, #4096
	bhi	.L72
.LBE160:
.LBE159:
	.loc 1 292 0 is_stmt 1 discriminator 1
	ldr	x6, [x19,72]
	ldr	x7, [x20,#:lo12:.LANCHOR1]
.LBB161:
.LBB162:
	.loc 2 40 0
	cbz	x6, .L71
	.loc 2 40 0 is_stmt 0 discriminator 2
	cmn	x6, #4096
	bhi	.L71
.LBE162:
.LBE161:
.LBB163:
.LBB164:
	.loc 2 40 0
	cbz	x7, .L71
	.loc 2 40 0 discriminator 2
	cmn	x7, #4096
	bhi	.L71
.LBE164:
.LBE163:
	.loc 1 299 0 is_stmt 1
	ldr	w1, [x19,44]
	mov	x0, x5
	bl	clk_set_rate
.LVL71:
	.loc 1 300 0
	cbnz	w0, .L97
	.loc 1 306 0
	ldr	x19, [x19,64]
.LBB165:
.LBB166:
	.file 5 "/mnt/disk/jenkins/ci/workspace/chipset_release_960_xloader/opensource/component_code/vendor/huawei/extra/build/build_script/kirin_kernel_release/kernel/include/linux/clk.h"
	.loc 5 508 0
	mov	x0, x19
	bl	clk_prepare
.LVL72:
	.loc 5 509 0
	cbz	w0, .L98
.L76:
.LBE166:
.LBE165:
	.loc 1 309 0
	adrp	x3, .LANCHOR0
	adrp	x1, .LC0
	add	x3, x3, :lo12:.LANCHOR0
	adrp	x4, .LC33
	mov	w0, 1
	add	x1, x1, :lo12:.LC0
	mov	w2, 309
	add	x3, x3, 192
	add	x4, x4, :lo12:.LC33
	bl	HI_PRINT
.LVL73:
	.loc 1 310 0
	mov	w0, -1
.L91:
.LBE180:
.LBE185:
	.loc 1 448 0
	ldp	x19, x20, [sp,16]
	.cfi_remember_state
	.cfi_restore 20
	.cfi_restore 19
	ldr	x21, [sp,32]
	.cfi_restore 21
	ldp	x29, x30, [sp], 48
	.cfi_restore 30
	.cfi_restore 29
	.cfi_def_cfa 31, 0
	ret
.L72:
	.cfi_restore_state
	add	x0, x20, :lo12:.LANCHOR1
	ldr	x7, [x20,#:lo12:.LANCHOR1]
	ldr	x6, [x0,72]
.L71:
.LBB186:
.LBB181:
	.loc 1 294 0
	adrp	x3, .LANCHOR0
	adrp	x1, .LC0
	add	x3, x3, :lo12:.LANCHOR0
	adrp	x4, .LC27
	mov	w0, 1
	add	x1, x1, :lo12:.LC0
	mov	w2, 295
	add	x3, x3, 192
	add	x4, x4, :lo12:.LC27
	bl	HI_PRINT
.LVL74:
.LBE181:
.LBE186:
	.loc 1 448 0
	ldr	x21, [sp,32]
	.cfi_remember_state
	.cfi_restore 21
.LBB187:
.LBB182:
	.loc 1 296 0
	mov	w0, -1
.LBE182:
.LBE187:
	.loc 1 448 0
	ldp	x19, x20, [sp,16]
	.cfi_restore 19
	.cfi_restore 20
	ldp	x29, x30, [sp], 48
	.cfi_restore 29
	.cfi_restore 30
	.cfi_def_cfa 31, 0
	ret
.L86:
	.cfi_restore_state
.LBB188:
.LBB183:
	.loc 1 289 0
	mov	w0, 0
.LBE183:
.LBE188:
	.loc 1 448 0
	ldr	x21, [sp,32]
	.cfi_remember_state
	.cfi_restore 21
	ldp	x19, x20, [sp,16]
	.cfi_restore 19
	.cfi_restore 20
	ldp	x29, x30, [sp], 48
	.cfi_restore 29
	.cfi_restore 30
	.cfi_def_cfa 31, 0
	ret
.L98:
	.cfi_restore_state
.LBB189:
.LBB184:
.LBB169:
.LBB167:
	.loc 5 511 0
	mov	x0, x19
	bl	clk_enable
.LVL75:
	.loc 5 512 0
	cbnz	w0, .L99
.LBE167:
.LBE169:
	.loc 1 327 0
	ldr	x0, [x20,#:lo12:.LANCHOR1]
	add	x19, x20, :lo12:.LANCHOR1
	bl	regulator_enable
.LVL76:
	.loc 1 328 0
	cbnz	w0, .L100
.LBB170:
.LBB171:
	.loc 1 207 0 discriminator 4
	mov	x2, 1799
	.loc 1 207 0 is_stmt 0 discriminator 5
	mov	x0, 12
	.loc 1 207 0 discriminator 4
	movk	x2, 0xe8, lsl 48
	.loc 1 207 0 discriminator 5
	movk	x0, 0xe894, lsl 16
	mov	x1, 4
	bl	__ioremap
.LVL77:
	.loc 1 208 0 is_stmt 1
	cbz	x0, .L79
.LBB172:
	.loc 1 210 0
#APP
// 210 "/mnt/disk/jenkins/ci/workspace/chipset_release_960_xloader/opensource/component_code/vendor/huawei/extra/build/build_script/kirin_kernel_release/kernel/drivers/vcodec/hi_vcodec/venc/drv/venc/venc_regulator.c" 1
	dsb st
// 0 "" 2
#NO_APP
	adrp	x2, .LANCHOR2
.LBB173:
.LBB174:
	.file 6 "/mnt/disk/jenkins/ci/workspace/chipset_release_960_xloader/opensource/component_code/vendor/huawei/extra/build/build_script/kirin_kernel_release/kernel/arch/arm64/include/asm/io.h"
	.loc 6 55 0
	ldr	w2, [x2,#:lo12:.LANCHOR2]
#APP
// 55 "/mnt/disk/jenkins/ci/workspace/chipset_release_960_xloader/opensource/component_code/vendor/huawei/extra/build/build_script/kirin_kernel_release/kernel/arch/arm64/include/asm/io.h" 1
	str w2, [x0]
// 0 "" 2
#NO_APP
.LBE174:
.LBE173:
.LBE172:
	.loc 1 211 0
	bl	__iounmap
.LVL78:
.LBE171:
.LBE170:
	.loc 1 342 0
	adrp	x3, .LANCHOR0
	adrp	x1, .LC0
	add	x3, x3, :lo12:.LANCHOR0
	adrp	x4, .LC30
	mov	w0, 3
	.loc 1 341 0
	mov	w5, 1
	.loc 1 342 0
	add	x1, x1, :lo12:.LC0
	mov	w2, 342
	add	x3, x3, 192
	add	x4, x4, :lo12:.LC30
	.loc 1 341 0
	str	w5, [x19,80]
	.loc 1 342 0
	bl	HI_PRINT
.LVL79:
	.loc 1 343 0
	mov	w0, 0
	b	.L91
.L99:
.LBB176:
.LBB168:
	.loc 5 513 0
	mov	x0, x19
	bl	clk_unprepare
.LVL80:
	b	.L76
.L97:
.LBE168:
.LBE176:
	.loc 1 302 0
	adrp	x3, .LANCHOR0
	adrp	x1, .LC0
	add	x3, x3, :lo12:.LANCHOR0
	adrp	x4, .LC28
	mov	w0, 1
	add	x1, x1, :lo12:.LC0
	mov	w2, 302
	add	x3, x3, 192
	add	x4, x4, :lo12:.LC28
	bl	HI_PRINT
.LVL81:
	.loc 1 303 0
	mov	w0, -1
	b	.L91
.L100:
	.loc 1 330 0
	adrp	x3, .LANCHOR0
	adrp	x1, .LC0
	add	x3, x3, :lo12:.LANCHOR0
	adrp	x4, .LC29
	mov	w0, 1
	add	x1, x1, :lo12:.LC0
	mov	w2, 330
	add	x3, x3, 192
	add	x4, x4, :lo12:.LC29
	bl	HI_PRINT
.LVL82:
.L78:
	.loc 1 354 0
	add	x20, x20, :lo12:.LANCHOR1
	ldr	x19, [x20,64]
.LBB177:
.LBB178:
	.loc 5 521 0
	mov	x0, x19
	bl	clk_disable
.LVL83:
	.loc 5 522 0
	mov	x0, x19
	bl	clk_unprepare
.LVL84:
.LBE178:
.LBE177:
	.loc 1 355 0
	mov	w0, -1
	b	.L91
.LVL85:
.L79:
.LBB179:
.LBB175:
	.loc 1 217 0
	adrp	x21, .LC0
	adrp	x19, .LANCHOR0
	add	x21, x21, :lo12:.LC0
	add	x19, x19, :lo12:.LANCHOR0
	adrp	x4, .LC31
	mov	x1, x21
	add	x3, x19, 224
	mov	w0, 1
.LVL86:
	mov	w2, 217
	add	x4, x4, :lo12:.LC31
	bl	HI_PRINT
.LVL87:
.LBE175:
.LBE179:
	.loc 1 337 0
	adrp	x4, .LC32
	mov	w0, 1
	mov	x1, x21
	mov	w2, 337
	add	x3, x19, 192
	add	x4, x4, :lo12:.LC32
	bl	HI_PRINT
.LVL88:
	.loc 1 346 0
	adrp	x0, .LANCHOR1
	ldr	x0, [x0,#:lo12:.LANCHOR1]
	bl	regulator_disable
.LVL89:
	b	.L78
.LBE184:
.LBE189:
	.cfi_endproc
.LFE2825:
	.size	Venc_Regulator_Enable, .-Venc_Regulator_Enable
	.align	2
	.global	Venc_Regulator_Disable
	.type	Venc_Regulator_Disable, %function
Venc_Regulator_Disable:
.LFB2827:
	.loc 1 536 0
	.cfi_startproc
.LVL90:
	stp	x29, x30, [sp, -80]!
	.cfi_def_cfa_offset 80
	.cfi_offset 29, -80
	.cfi_offset 30, -72
.LBB200:
.LBB201:
	.loc 1 454 0
	adrp	x4, .LC34
	mov	w0, 4
.LVL91:
.LBE201:
.LBE200:
	.loc 1 536 0
	add	x29, sp, 0
	.cfi_def_cfa_register 29
	stp	x19, x20, [sp,16]
	.cfi_offset 19, -64
	.cfi_offset 20, -56
.LBB215:
.LBB210:
	.loc 1 454 0
	adrp	x20, .LANCHOR1
.LBE210:
.LBE215:
	.loc 1 536 0
	str	x25, [sp,64]
	stp	x21, x22, [sp,32]
	.cfi_offset 25, -16
	.cfi_offset 21, -48
	.cfi_offset 22, -40
.LBB216:
.LBB211:
	.loc 1 454 0
	adrp	x21, .LANCHOR0
	adrp	x25, .LC0
	add	x5, x21, :lo12:.LANCHOR0
	add	x22, x25, :lo12:.LC0
.LBE211:
.LBE216:
	.loc 1 536 0
	stp	x23, x24, [sp,48]
	.cfi_offset 23, -32
	.cfi_offset 24, -24
.LBB217:
.LBB212:
	.loc 1 454 0
	ldr	x6, [x20,#:lo12:.LANCHOR1]
	add	x23, x5, 240
	add	x19, x20, :lo12:.LANCHOR1
	mov	x1, x22
	mov	w2, 454
	mov	x3, x23
	add	x4, x4, :lo12:.LC34
	add	x5, x5, 272
	.loc 1 458 0
	mov	w24, 0
	.loc 1 454 0
	bl	HI_PRINT
.LVL92:
	.loc 1 456 0
	ldr	w0, [x19,80]
	cbz	w0, .L116
	.loc 1 461 0
	ldr	x5, [x19,64]
.LBB202:
.LBB203:
	.loc 2 40 0
	cbz	x5, .L105
	.loc 2 40 0 is_stmt 0 discriminator 2
	cmn	x5, #4096
	bhi	.L105
.LBE203:
.LBE202:
	.loc 1 461 0 is_stmt 1 discriminator 1
	ldr	x6, [x19,72]
	ldr	x7, [x20,#:lo12:.LANCHOR1]
.LBB204:
.LBB205:
	.loc 2 40 0
	cbz	x6, .L104
	.loc 2 40 0 is_stmt 0 discriminator 2
	cmn	x6, #4096
	bhi	.L104
.LBE205:
.LBE204:
.LBB206:
.LBB207:
	.loc 2 40 0
	cbz	x7, .L104
	.loc 2 40 0 discriminator 2
	cmn	x7, #4096
	bhi	.L104
.LBE207:
.LBE206:
	.loc 1 468 0 is_stmt 1
	mov	x0, x7
	bl	regulator_disable
.LVL93:
	.loc 1 469 0
	cbnz	w0, .L123
	.loc 1 475 0
	ldr	x20, [x19,64]
.LBB208:
.LBB209:
	.loc 5 521 0
	mov	x0, x20
	bl	clk_disable
.LVL94:
	.loc 5 522 0
	mov	x0, x20
	bl	clk_unprepare
.LVL95:
.LBE209:
.LBE208:
	.loc 1 486 0
	str	wzr, [x19,80]
	.loc 1 487 0
	adrp	x4, .LC36
	mov	w0, 3
	mov	x1, x22
	mov	w2, 487
	mov	x3, x23
	add	x4, x4, :lo12:.LC36
	bl	HI_PRINT
.LVL96:
.L116:
.LBE212:
.LBE217:
	.loc 1 546 0
	mov	w0, w24
	ldr	x25, [sp,64]
	.cfi_remember_state
	.cfi_restore 25
	ldp	x19, x20, [sp,16]
	.cfi_restore 20
	.cfi_restore 19
	ldp	x21, x22, [sp,32]
	.cfi_restore 22
	.cfi_restore 21
	ldp	x23, x24, [sp,48]
	.cfi_restore 24
	.cfi_restore 23
	ldp	x29, x30, [sp], 80
	.cfi_restore 30
	.cfi_restore 29
	.cfi_def_cfa 31, 0
	ret
.L105:
	.cfi_restore_state
	add	x0, x20, :lo12:.LANCHOR1
	ldr	x7, [x20,#:lo12:.LANCHOR1]
	ldr	x6, [x0,72]
.L104:
.LBB218:
.LBB213:
	.loc 1 463 0
	add	x3, x21, :lo12:.LANCHOR0
	adrp	x4, .LC27
	add	x1, x25, :lo12:.LC0
	mov	w0, 1
	mov	w2, 464
	add	x3, x3, 240
	add	x4, x4, :lo12:.LC27
	.loc 1 465 0
	mov	w24, -1
	.loc 1 463 0
	bl	HI_PRINT
.LVL97:
.LBE213:
.LBE218:
	.loc 1 546 0
	ldr	x25, [sp,64]
	.cfi_remember_state
	.cfi_restore 25
	mov	w0, w24
	ldp	x19, x20, [sp,16]
	.cfi_restore 19
	.cfi_restore 20
	ldp	x21, x22, [sp,32]
	.cfi_restore 21
	.cfi_restore 22
	ldp	x23, x24, [sp,48]
	.cfi_restore 23
	.cfi_restore 24
	ldp	x29, x30, [sp], 80
	.cfi_restore 29
	.cfi_restore 30
	.cfi_def_cfa 31, 0
	ret
.L123:
	.cfi_restore_state
.LBB219:
.LBB214:
	.loc 1 471 0
	adrp	x4, .LC35
	mov	w0, 1
	mov	x1, x22
	mov	w2, 471
	mov	x3, x23
	add	x4, x4, :lo12:.LC35
	.loc 1 472 0
	mov	w24, -1
	.loc 1 471 0
	bl	HI_PRINT
.LVL98:
	b	.L116
.LBE214:
.LBE219:
	.cfi_endproc
.LFE2827:
	.size	Venc_Regulator_Disable, .-Venc_Regulator_Disable
	.align	2
	.global	Venc_SetRate
	.type	Venc_SetRate, %function
Venc_SetRate:
.LFB2828:
	.loc 1 549 0
	.cfi_startproc
.LVL99:
	stp	x29, x30, [sp, -16]!
	.cfi_def_cfa_offset 16
	.cfi_offset 29, -16
	.cfi_offset 30, -8
	add	x29, sp, 0
	.cfi_def_cfa_register 29
	.loc 1 552 0
	cbnz	w0, .L131
.L124:
	.loc 1 560 0
	ldp	x29, x30, [sp], 16
	.cfi_remember_state
	.cfi_restore 30
	.cfi_restore 29
	.cfi_def_cfa 31, 0
	ret
.L131:
	.cfi_restore_state
	.loc 1 554 0
	adrp	x1, .LANCHOR1
	add	x1, x1, :lo12:.LANCHOR1
	ldr	x0, [x1,64]
.LVL100:
	ldr	w1, [x1,48]
	bl	clk_set_rate
.LVL101:
	.loc 1 555 0
	cbz	w0, .L124
	.loc 1 557 0
	adrp	x3, .LANCHOR0
	adrp	x1, .LC0
	add	x3, x3, :lo12:.LANCHOR0
	adrp	x4, .LC37
	mov	w0, 1
	add	x1, x1, :lo12:.LC0
	mov	w2, 557
	add	x3, x3, 304
	add	x4, x4, :lo12:.LC37
	bl	HI_PRINT
.LVL102:
	.loc 1 560 0
	ldp	x29, x30, [sp], 16
	.cfi_restore 29
	.cfi_restore 30
	.cfi_def_cfa 31, 0
	ret
	.cfi_endproc
.LFE2828:
	.size	Venc_SetRate, .-Venc_SetRate
	.global	g_voltHold
	.global	g_hisi_mmu_domain
	.section	.rodata
	.align	3
.LANCHOR0 = . + 0
	.type	__FUNCTION__.39136, %object
	.size	__FUNCTION__.39136, 20
__FUNCTION__.39136:
	.string	"Venc_Regulator_Init"
	.zero	4
	.type	__func__.39137, %object
	.size	__func__.39137, 20
__func__.39137:
	.string	"Venc_Regulator_Init"
	.zero	4
	.type	__FUNCTION__.39123, %object
	.size	__FUNCTION__.39123, 19
__FUNCTION__.39123:
	.string	"Venc_Regulator_Get"
	.zero	5
	.type	__func__.39124, %object
	.size	__func__.39124, 19
__func__.39124:
	.string	"Venc_Regulator_Get"
	.zero	5
	.type	__FUNCTION__.39100, %object
	.size	__FUNCTION__.39100, 18
__FUNCTION__.39100:
	.string	"Venc_Enable_Iommu"
	.zero	6
	.type	__func__.39101, %object
	.size	__func__.39101, 18
__func__.39101:
	.string	"Venc_Enable_Iommu"
	.zero	6
	.type	__FUNCTION__.39118, %object
	.size	__FUNCTION__.39118, 22
__FUNCTION__.39118:
	.string	"Venc_GetDtsConfigInfo"
	.zero	2
	.type	__func__.39119, %object
	.size	__func__.39119, 22
__func__.39119:
	.string	"Venc_GetDtsConfigInfo"
	.zero	2
	.type	__FUNCTION__.39145, %object
	.size	__FUNCTION__.39145, 31
__FUNCTION__.39145:
	.string	"Venc_Regulator_Enable_Kirin960"
	.zero	1
	.type	__FUNCTION__.39131, %object
	.size	__FUNCTION__.39131, 16
__FUNCTION__.39131:
	.string	"Venc_config_QOS"
	.type	__FUNCTION__.39155, %object
	.size	__FUNCTION__.39155, 32
__FUNCTION__.39155:
	.string	"Venc_Regulator_Disable_Kirin960"
	.type	__func__.39156, %object
	.size	__func__.39156, 32
__func__.39156:
	.string	"Venc_Regulator_Disable_Kirin960"
	.type	__FUNCTION__.39164, %object
	.size	__FUNCTION__.39164, 13
__FUNCTION__.39164:
	.string	"Venc_SetRate"
	.data
	.align	2
.LANCHOR2 = . + 0
	.type	g_vencQosMode, %object
	.size	g_vencQosMode, 4
g_vencQosMode:
	.word	2
	.section	.rodata.str1.8,"aMS",%progbits,1
	.align	3
.LC0:
	.string	"/mnt/disk/jenkins/ci/workspace/chipset_release_960_xloader/opensource/component_code/vendor/huawei/extra/build/build_script/kirin_kernel_release/kernel/drivers/vcodec/hi_vcodec/venc/drv/venc/venc_regulator.c"
.LC1:
	.string	"%s, invalid argument!!\n"
.LC2:
	.string	"enter %s!\n"
	.zero	5
.LC3:
	.string	"ldo_venc"
	.zero	7
.LC4:
	.string	"%s, get regulator failed, error no = %ld!\n"
	.zero	5
.LC5:
	.string	"%s, Venc_Regulator_Get failed!\n"
.LC6:
	.string	"%s, iommu_domain_alloc failed!\n"
.LC7:
	.string	"%s, phy_pgd_base:0x%x\n"
	.zero	1
.LC8:
	.string	"invalid argument np:0x%x, pDtsConfig:0x%x \n"
	.zero	4
.LC9:
	.string	"%s, irq_of_parse_and_map VeduIrqNum failed!\n"
	.zero	3
.LC10:
	.string	"%s, irq_of_parse_and_map MmuIrqNum failed!\n"
	.zero	4
.LC11:
	.string	"%s of_address_to_resource failed! ret = %d\n"
	.zero	4
.LC12:
	.string	"clk_venc"
	.zero	7
.LC13:
	.string	"venc_volt_hold"
	.zero	1
.LC14:
	.string	"can not get venc clock, pvenc_volt = 0x%x, pvenc_clk = 0x%x!\n"
	.zero	2
.LC15:
	.string	"%s can not get venc rate, return %d\n"
	.zero	3
.LC16:
	.string	"venc_fpga"
	.zero	6
.LC17:
	.string	"venc_qos_mode"
	.zero	2
.LC18:
	.string	"%s, SmmuPageBaseAddr:0x%x\n"
	.zero	5
.LC19:
	.string	"%s, Regulator_GetSmmuBasePhy failed!\n"
	.zero	2
.LC20:
	.string	"enc_clk_rate"
	.zero	3
.LC21:
	.string	"%s, read failed!\n"
	.zero	6
.LC22:
	.string	"get venc qos mode failed set default!\n"
	.zero	1
.LC23:
	.string	"%s VENC_SetDtsConfig failed.\n"
	.zero	2
.LC24:
	.string	"exit %s()\n"
	.zero	5
.LC25:
	.string	"%s, VENC_Enable_Iommu failed!\n"
	.zero	1
.LC26:
	.string	"%s VENC_GetDtsConfigInfo failed.\n"
	.zero	6
.LC27:
	.string	"invalid_argument g_PvencClk:0x%x, g_PvencVolt:0x%x, g_VencRegulator:0x%x\n"
	.zero	6
.LC28:
	.string	"clk_set_rate high/2 failed!\n"
	.zero	3
.LC29:
	.string	"enable regulator failed!\n"
	.zero	6
.LC30:
	.string	"++\n"
	.zero	4
.LC31:
	.string	"ioremap VENC_QOS_MODE reg failed!\n"
	.zero	5
.LC32:
	.string	"Venc_config_QOS failed!\n"
	.zero	7
.LC33:
	.string	"clk_prepare_enable failed!\n"
	.zero	4
.LC34:
	.string	"%s, Venc_Regulator_Disable g_VencRegulator:0x%x\n"
	.zero	7
.LC35:
	.string	"disable regulator failed!\n"
	.zero	5
.LC36:
	.string	"--\n"
	.zero	4
.LC37:
	.string	"clk_set_rate high failed!\n"
	.bss
	.align	3
.LANCHOR1 = . + 0
	.type	g_VencRegulator, %object
	.size	g_VencRegulator, 8
g_VencRegulator:
	.zero	8
	.type	g_hisi_mmu_domain, %object
	.size	g_hisi_mmu_domain, 8
g_hisi_mmu_domain:
	.zero	8
	.type	g_VencDtsConfig, %object
	.size	g_VencDtsConfig, 48
g_VencDtsConfig:
	.zero	48
	.type	g_PvencClk, %object
	.size	g_PvencClk, 8
g_PvencClk:
	.zero	8
	.type	g_PvencVolt, %object
	.size	g_PvencVolt, 8
g_PvencVolt:
	.zero	8
	.type	g_VencPowerOn, %object
	.size	g_VencPowerOn, 4
g_VencPowerOn:
	.zero	4
	.type	g_voltHold, %object
	.size	g_voltHold, 4
g_voltHold:
	.zero	4
	.text
.Letext0:
	.file 7 "/mnt/disk/jenkins/ci/workspace/chipset_release_960_xloader/opensource/component_code/vendor/huawei/extra/build/build_script/kirin_kernel_release/kernel/include/uapi/asm-generic/int-ll64.h"
	.file 8 "/mnt/disk/jenkins/ci/workspace/chipset_release_960_xloader/opensource/component_code/vendor/huawei/extra/build/build_script/kirin_kernel_release/kernel/include/asm-generic/int-ll64.h"
	.file 9 "/mnt/disk/jenkins/ci/workspace/chipset_release_960_xloader/opensource/component_code/vendor/huawei/extra/build/build_script/kirin_kernel_release/kernel/include/uapi/asm-generic/posix_types.h"
	.file 10 "/mnt/disk/jenkins/ci/workspace/chipset_release_960_xloader/opensource/component_code/vendor/huawei/extra/build/build_script/kirin_kernel_release/kernel/include/uapi/linux/types.h"
	.file 11 "/mnt/disk/jenkins/ci/workspace/chipset_release_960_xloader/opensource/component_code/vendor/huawei/extra/build/build_script/kirin_kernel_release/kernel/include/linux/types.h"
	.file 12 "/mnt/disk/jenkins/ci/workspace/chipset_release_960_xloader/opensource/component_code/vendor/huawei/extra/build/build_script/kirin_kernel_release/kernel/include/linux/export.h"
	.file 13 "/mnt/disk/jenkins/ci/workspace/chipset_release_960_xloader/opensource/component_code/vendor/huawei/extra/build/build_script/kirin_kernel_release/kernel/include/linux/capability.h"
	.file 14 "/mnt/disk/jenkins/ci/workspace/chipset_release_960_xloader/opensource/component_code/vendor/huawei/extra/build/build_script/kirin_kernel_release/kernel/include/asm-generic/bug.h"
	.file 15 "/mnt/disk/jenkins/ci/workspace/chipset_release_960_xloader/opensource/component_code/vendor/huawei/extra/build/build_script/kirin_kernel_release/kernel/include/linux/restart_block.h"
	.file 16 "/mnt/disk/jenkins/ci/workspace/chipset_release_960_xloader/opensource/component_code/vendor/huawei/extra/build/build_script/kirin_kernel_release/kernel/include/uapi/linux/time.h"
	.file 17 "/mnt/disk/jenkins/ci/workspace/chipset_release_960_xloader/opensource/component_code/vendor/huawei/extra/build/build_script/kirin_kernel_release/kernel/arch/arm64/include/asm/compat.h"
	.file 18 "/mnt/disk/jenkins/ci/workspace/chipset_release_960_xloader/opensource/component_code/vendor/huawei/extra/build/build_script/kirin_kernel_release/kernel/arch/arm64/include/asm/thread_info.h"
	.file 19 "/mnt/disk/jenkins/ci/workspace/chipset_release_960_xloader/opensource/component_code/vendor/huawei/extra/build/build_script/kirin_kernel_release/kernel/arch/arm64/include/uapi/asm/ptrace.h"
	.file 20 "/mnt/disk/jenkins/ci/workspace/chipset_release_960_xloader/opensource/component_code/vendor/huawei/extra/build/build_script/kirin_kernel_release/kernel/arch/arm64/include/asm/ptrace.h"
	.file 21 "/mnt/disk/jenkins/ci/workspace/chipset_release_960_xloader/opensource/component_code/vendor/huawei/extra/build/build_script/kirin_kernel_release/kernel/arch/arm64/include/asm/spinlock_types.h"
	.file 22 "/mnt/disk/jenkins/ci/workspace/chipset_release_960_xloader/opensource/component_code/vendor/huawei/extra/build/build_script/kirin_kernel_release/kernel/include/linux/spinlock_types.h"
	.file 23 "/mnt/disk/jenkins/ci/workspace/chipset_release_960_xloader/opensource/component_code/vendor/huawei/extra/build/build_script/kirin_kernel_release/kernel/include/linux/rwlock_types.h"
	.file 24 "/mnt/disk/jenkins/ci/workspace/chipset_release_960_xloader/opensource/component_code/vendor/huawei/extra/build/build_script/kirin_kernel_release/kernel/arch/arm64/include/asm/fpsimd.h"
	.file 25 "/mnt/disk/jenkins/ci/workspace/chipset_release_960_xloader/opensource/component_code/vendor/huawei/extra/build/build_script/kirin_kernel_release/kernel/include/linux/jump_label.h"
	.file 26 "/mnt/disk/jenkins/ci/workspace/chipset_release_960_xloader/opensource/component_code/vendor/huawei/extra/build/build_script/kirin_kernel_release/kernel/include/asm-generic/atomic-long.h"
	.file 27 "/mnt/disk/jenkins/ci/workspace/chipset_release_960_xloader/opensource/component_code/vendor/huawei/extra/build/build_script/kirin_kernel_release/kernel/arch/arm64/include/asm/processor.h"
	.file 28 "/mnt/disk/jenkins/ci/workspace/chipset_release_960_xloader/opensource/component_code/vendor/huawei/extra/build/build_script/kirin_kernel_release/kernel/include/linux/seqlock.h"
	.file 29 "/mnt/disk/jenkins/ci/workspace/chipset_release_960_xloader/opensource/component_code/vendor/huawei/extra/build/build_script/kirin_kernel_release/kernel/include/linux/time64.h"
	.file 30 "/mnt/disk/jenkins/ci/workspace/chipset_release_960_xloader/opensource/component_code/vendor/huawei/extra/build/build_script/kirin_kernel_release/kernel/include/linux/plist.h"
	.file 31 "/mnt/disk/jenkins/ci/workspace/chipset_release_960_xloader/opensource/component_code/vendor/huawei/extra/build/build_script/kirin_kernel_release/kernel/include/linux/cpumask.h"
	.file 32 "/mnt/disk/jenkins/ci/workspace/chipset_release_960_xloader/opensource/component_code/vendor/huawei/extra/build/build_script/kirin_kernel_release/kernel/include/linux/wait.h"
	.file 33 "/mnt/disk/jenkins/ci/workspace/chipset_release_960_xloader/opensource/component_code/vendor/huawei/extra/build/build_script/kirin_kernel_release/kernel/include/linux/completion.h"
	.file 34 "/mnt/disk/jenkins/ci/workspace/chipset_release_960_xloader/opensource/component_code/vendor/huawei/extra/build/build_script/kirin_kernel_release/kernel/include/linux/ktime.h"
	.file 35 "/mnt/disk/jenkins/ci/workspace/chipset_release_960_xloader/opensource/component_code/vendor/huawei/extra/build/build_script/kirin_kernel_release/kernel/include/linux/rbtree.h"
	.file 36 "/mnt/disk/jenkins/ci/workspace/chipset_release_960_xloader/opensource/component_code/vendor/huawei/extra/build/build_script/kirin_kernel_release/kernel/include/linux/nodemask.h"
	.file 37 "/mnt/disk/jenkins/ci/workspace/chipset_release_960_xloader/opensource/component_code/vendor/huawei/extra/build/build_script/kirin_kernel_release/kernel/include/linux/osq_lock.h"
	.file 38 "/mnt/disk/jenkins/ci/workspace/chipset_release_960_xloader/opensource/component_code/vendor/huawei/extra/build/build_script/kirin_kernel_release/kernel/include/linux/rwsem.h"
	.file 39 "/mnt/disk/jenkins/ci/workspace/chipset_release_960_xloader/opensource/component_code/vendor/huawei/extra/build/build_script/kirin_kernel_release/kernel/include/linux/sched.h"
	.file 40 "/mnt/disk/jenkins/ci/workspace/chipset_release_960_xloader/opensource/component_code/vendor/huawei/extra/build/build_script/kirin_kernel_release/kernel/include/linux/mm_types.h"
	.file 41 "/mnt/disk/jenkins/ci/workspace/chipset_release_960_xloader/opensource/component_code/vendor/huawei/extra/build/build_script/kirin_kernel_release/kernel/include/linux/lockdep.h"
	.file 42 "/mnt/disk/jenkins/ci/workspace/chipset_release_960_xloader/opensource/component_code/vendor/huawei/extra/build/build_script/kirin_kernel_release/kernel/include/linux/uprobes.h"
	.file 43 "/mnt/disk/jenkins/ci/workspace/chipset_release_960_xloader/opensource/component_code/vendor/huawei/extra/build/build_script/kirin_kernel_release/kernel/include/linux/timer.h"
	.file 44 "/mnt/disk/jenkins/ci/workspace/chipset_release_960_xloader/opensource/component_code/vendor/huawei/extra/build/build_script/kirin_kernel_release/kernel/include/linux/uidgid.h"
	.file 45 "/mnt/disk/jenkins/ci/workspace/chipset_release_960_xloader/opensource/component_code/vendor/huawei/extra/build/build_script/kirin_kernel_release/kernel/include/linux/workqueue.h"
	.file 46 "/mnt/disk/jenkins/ci/workspace/chipset_release_960_xloader/opensource/component_code/vendor/huawei/extra/build/build_script/kirin_kernel_release/kernel/arch/arm64/include/asm/pgtable-types.h"
	.file 47 "/mnt/disk/jenkins/ci/workspace/chipset_release_960_xloader/opensource/component_code/vendor/huawei/extra/build/build_script/kirin_kernel_release/kernel/arch/arm64/include/asm/page.h"
	.file 48 "/mnt/disk/jenkins/ci/workspace/chipset_release_960_xloader/opensource/component_code/vendor/huawei/extra/build/build_script/kirin_kernel_release/kernel/include/linux/llist.h"
	.file 49 "/mnt/disk/jenkins/ci/workspace/chipset_release_960_xloader/opensource/component_code/vendor/huawei/extra/build/build_script/kirin_kernel_release/kernel/arch/arm64/include/asm/smp.h"
	.file 50 "/mnt/disk/jenkins/ci/workspace/chipset_release_960_xloader/opensource/component_code/vendor/huawei/extra/build/build_script/kirin_kernel_release/kernel/arch/arm64/include/asm/mmu.h"
	.file 51 "/mnt/disk/jenkins/ci/workspace/chipset_release_960_xloader/opensource/component_code/vendor/huawei/extra/build/build_script/kirin_kernel_release/kernel/include/linux/fs.h"
	.file 52 "/mnt/disk/jenkins/ci/workspace/chipset_release_960_xloader/opensource/component_code/vendor/huawei/extra/build/build_script/kirin_kernel_release/kernel/include/linux/mm.h"
	.file 53 "/mnt/disk/jenkins/ci/workspace/chipset_release_960_xloader/opensource/component_code/vendor/huawei/extra/build/build_script/kirin_kernel_release/kernel/include/asm-generic/cputime_jiffies.h"
	.file 54 "/mnt/disk/jenkins/ci/workspace/chipset_release_960_xloader/opensource/component_code/vendor/huawei/extra/build/build_script/kirin_kernel_release/kernel/include/uapi/asm-generic/signal.h"
	.file 55 "/mnt/disk/jenkins/ci/workspace/chipset_release_960_xloader/opensource/component_code/vendor/huawei/extra/build/build_script/kirin_kernel_release/kernel/include/uapi/asm-generic/signal-defs.h"
	.file 56 "/mnt/disk/jenkins/ci/workspace/chipset_release_960_xloader/opensource/component_code/vendor/huawei/extra/build/build_script/kirin_kernel_release/kernel/include/uapi/asm-generic/siginfo.h"
	.file 57 "/mnt/disk/jenkins/ci/workspace/chipset_release_960_xloader/opensource/component_code/vendor/huawei/extra/build/build_script/kirin_kernel_release/kernel/include/linux/signal.h"
	.file 58 "/mnt/disk/jenkins/ci/workspace/chipset_release_960_xloader/opensource/component_code/vendor/huawei/extra/build/build_script/kirin_kernel_release/kernel/include/linux/pid.h"
	.file 59 "/mnt/disk/jenkins/ci/workspace/chipset_release_960_xloader/opensource/component_code/vendor/huawei/extra/build/build_script/kirin_kernel_release/kernel/include/linux/mmzone.h"
	.file 60 "/mnt/disk/jenkins/ci/workspace/chipset_release_960_xloader/opensource/component_code/vendor/huawei/extra/build/build_script/kirin_kernel_release/kernel/include/linux/mutex.h"
	.file 61 "/mnt/disk/jenkins/ci/workspace/chipset_release_960_xloader/opensource/component_code/vendor/huawei/extra/build/build_script/kirin_kernel_release/kernel/include/linux/seccomp.h"
	.file 62 "/mnt/disk/jenkins/ci/workspace/chipset_release_960_xloader/opensource/component_code/vendor/huawei/extra/build/build_script/kirin_kernel_release/kernel/include/uapi/linux/resource.h"
	.file 63 "/mnt/disk/jenkins/ci/workspace/chipset_release_960_xloader/opensource/component_code/vendor/huawei/extra/build/build_script/kirin_kernel_release/kernel/include/linux/timerqueue.h"
	.file 64 "/mnt/disk/jenkins/ci/workspace/chipset_release_960_xloader/opensource/component_code/vendor/huawei/extra/build/build_script/kirin_kernel_release/kernel/include/linux/hrtimer.h"
	.file 65 "/mnt/disk/jenkins/ci/workspace/chipset_release_960_xloader/opensource/component_code/vendor/huawei/extra/build/build_script/kirin_kernel_release/kernel/include/linux/task_io_accounting.h"
	.file 66 "/mnt/disk/jenkins/ci/workspace/chipset_release_960_xloader/opensource/component_code/vendor/huawei/extra/build/build_script/kirin_kernel_release/kernel/include/linux/assoc_array.h"
	.file 67 "/mnt/disk/jenkins/ci/workspace/chipset_release_960_xloader/opensource/component_code/vendor/huawei/extra/build/build_script/kirin_kernel_release/kernel/include/linux/key.h"
	.file 68 "/mnt/disk/jenkins/ci/workspace/chipset_release_960_xloader/opensource/component_code/vendor/huawei/extra/build/build_script/kirin_kernel_release/kernel/include/linux/cred.h"
	.file 69 "/mnt/disk/jenkins/ci/workspace/chipset_release_960_xloader/opensource/component_code/vendor/huawei/extra/build/build_script/kirin_kernel_release/kernel/include/linux/idr.h"
	.file 70 "/mnt/disk/jenkins/ci/workspace/chipset_release_960_xloader/opensource/component_code/vendor/huawei/extra/build/build_script/kirin_kernel_release/kernel/include/linux/percpu-refcount.h"
	.file 71 "/mnt/disk/jenkins/ci/workspace/chipset_release_960_xloader/opensource/component_code/vendor/huawei/extra/build/build_script/kirin_kernel_release/kernel/include/linux/rcu_sync.h"
	.file 72 "/mnt/disk/jenkins/ci/workspace/chipset_release_960_xloader/opensource/component_code/vendor/huawei/extra/build/build_script/kirin_kernel_release/kernel/include/linux/percpu-rwsem.h"
	.file 73 "/mnt/disk/jenkins/ci/workspace/chipset_release_960_xloader/opensource/component_code/vendor/huawei/extra/build/build_script/kirin_kernel_release/kernel/include/linux/bpf-cgroup.h"
	.file 74 "/mnt/disk/jenkins/ci/workspace/chipset_release_960_xloader/opensource/component_code/vendor/huawei/extra/build/build_script/kirin_kernel_release/kernel/include/linux/cgroup-defs.h"
	.file 75 "/mnt/disk/jenkins/ci/workspace/chipset_release_960_xloader/opensource/component_code/vendor/huawei/extra/build/build_script/kirin_kernel_release/kernel/include/linux/kernfs.h"
	.file 76 "/mnt/disk/jenkins/ci/workspace/chipset_release_960_xloader/opensource/component_code/vendor/huawei/extra/build/build_script/kirin_kernel_release/kernel/include/linux/seq_file.h"
	.file 77 "/mnt/disk/jenkins/ci/workspace/chipset_release_960_xloader/opensource/component_code/vendor/huawei/extra/build/build_script/kirin_kernel_release/kernel/include/linux/stat.h"
	.file 78 "/mnt/disk/jenkins/ci/workspace/chipset_release_960_xloader/opensource/component_code/vendor/huawei/extra/build/build_script/kirin_kernel_release/kernel/include/uapi/linux/elf.h"
	.file 79 "/mnt/disk/jenkins/ci/workspace/chipset_release_960_xloader/opensource/component_code/vendor/huawei/extra/build/build_script/kirin_kernel_release/kernel/include/linux/kobject_ns.h"
	.file 80 "/mnt/disk/jenkins/ci/workspace/chipset_release_960_xloader/opensource/component_code/vendor/huawei/extra/build/build_script/kirin_kernel_release/kernel/include/linux/sysfs.h"
	.file 81 "/mnt/disk/jenkins/ci/workspace/chipset_release_960_xloader/opensource/component_code/vendor/huawei/extra/build/build_script/kirin_kernel_release/kernel/include/linux/kobject.h"
	.file 82 "/mnt/disk/jenkins/ci/workspace/chipset_release_960_xloader/opensource/component_code/vendor/huawei/extra/build/build_script/kirin_kernel_release/kernel/include/linux/kref.h"
	.file 83 "/mnt/disk/jenkins/ci/workspace/chipset_release_960_xloader/opensource/component_code/vendor/huawei/extra/build/build_script/kirin_kernel_release/kernel/include/linux/moduleparam.h"
	.file 84 "/mnt/disk/jenkins/ci/workspace/chipset_release_960_xloader/opensource/component_code/vendor/huawei/extra/build/build_script/kirin_kernel_release/kernel/include/linux/module.h"
	.file 85 "/mnt/disk/jenkins/ci/workspace/chipset_release_960_xloader/opensource/component_code/vendor/huawei/extra/build/build_script/kirin_kernel_release/kernel/include/linux/rbtree_latch.h"
	.file 86 "/mnt/disk/jenkins/ci/workspace/chipset_release_960_xloader/opensource/component_code/vendor/huawei/extra/build/build_script/kirin_kernel_release/kernel/arch/arm64/include/asm/module.h"
	.file 87 "/mnt/disk/jenkins/ci/workspace/chipset_release_960_xloader/opensource/component_code/vendor/huawei/extra/build/build_script/kirin_kernel_release/kernel/include/linux/tracepoint-defs.h"
	.file 88 "/mnt/disk/jenkins/ci/workspace/chipset_release_960_xloader/opensource/component_code/vendor/huawei/extra/build/build_script/kirin_kernel_release/kernel/include/linux/tracepoint.h"
	.file 89 "/mnt/disk/jenkins/ci/workspace/chipset_release_960_xloader/opensource/component_code/vendor/huawei/extra/build/build_script/kirin_kernel_release/kernel/include/linux/klist.h"
	.file 90 "/mnt/disk/jenkins/ci/workspace/chipset_release_960_xloader/opensource/component_code/vendor/huawei/extra/build/build_script/kirin_kernel_release/kernel/include/linux/list_bl.h"
	.file 91 "/mnt/disk/jenkins/ci/workspace/chipset_release_960_xloader/opensource/component_code/vendor/huawei/extra/build/build_script/kirin_kernel_release/kernel/include/linux/lockref.h"
	.file 92 "/mnt/disk/jenkins/ci/workspace/chipset_release_960_xloader/opensource/component_code/vendor/huawei/extra/build/build_script/kirin_kernel_release/kernel/include/linux/dcache.h"
	.file 93 "/mnt/disk/jenkins/ci/workspace/chipset_release_960_xloader/opensource/component_code/vendor/huawei/extra/build/build_script/kirin_kernel_release/kernel/include/linux/path.h"
	.file 94 "/mnt/disk/jenkins/ci/workspace/chipset_release_960_xloader/opensource/component_code/vendor/huawei/extra/build/build_script/kirin_kernel_release/kernel/include/linux/shrinker.h"
	.file 95 "/mnt/disk/jenkins/ci/workspace/chipset_release_960_xloader/opensource/component_code/vendor/huawei/extra/build/build_script/kirin_kernel_release/kernel/include/linux/list_lru.h"
	.file 96 "/mnt/disk/jenkins/ci/workspace/chipset_release_960_xloader/opensource/component_code/vendor/huawei/extra/build/build_script/kirin_kernel_release/kernel/include/linux/radix-tree.h"
	.file 97 "/mnt/disk/jenkins/ci/workspace/chipset_release_960_xloader/opensource/component_code/vendor/huawei/extra/build/build_script/kirin_kernel_release/kernel/include/uapi/linux/fiemap.h"
	.file 98 "/mnt/disk/jenkins/ci/workspace/chipset_release_960_xloader/opensource/component_code/vendor/huawei/extra/build/build_script/kirin_kernel_release/kernel/include/linux/migrate_mode.h"
	.file 99 "/mnt/disk/jenkins/ci/workspace/chipset_release_960_xloader/opensource/component_code/vendor/huawei/extra/build/build_script/kirin_kernel_release/kernel/include/linux/delayed_call.h"
	.file 100 "/mnt/disk/jenkins/ci/workspace/chipset_release_960_xloader/opensource/component_code/vendor/huawei/extra/build/build_script/kirin_kernel_release/kernel/include/linux/percpu_counter.h"
	.file 101 "/mnt/disk/jenkins/ci/workspace/chipset_release_960_xloader/opensource/component_code/vendor/huawei/extra/build/build_script/kirin_kernel_release/kernel/include/linux/quota.h"
	.file 102 "/mnt/disk/jenkins/ci/workspace/chipset_release_960_xloader/opensource/component_code/vendor/huawei/extra/build/build_script/kirin_kernel_release/kernel/include/linux/projid.h"
	.file 103 "/mnt/disk/jenkins/ci/workspace/chipset_release_960_xloader/opensource/component_code/vendor/huawei/extra/build/build_script/kirin_kernel_release/kernel/include/linux/nfs_fs_i.h"
	.file 104 "/mnt/disk/jenkins/ci/workspace/chipset_release_960_xloader/opensource/component_code/vendor/huawei/extra/build/build_script/kirin_kernel_release/kernel/include/linux/pinctrl/devinfo.h"
	.file 105 "/mnt/disk/jenkins/ci/workspace/chipset_release_960_xloader/opensource/component_code/vendor/huawei/extra/build/build_script/kirin_kernel_release/kernel/include/linux/pm.h"
	.file 106 "/mnt/disk/jenkins/ci/workspace/chipset_release_960_xloader/opensource/component_code/vendor/huawei/extra/build/build_script/kirin_kernel_release/kernel/include/linux/device.h"
	.file 107 "/mnt/disk/jenkins/ci/workspace/chipset_release_960_xloader/opensource/component_code/vendor/huawei/extra/build/build_script/kirin_kernel_release/kernel/include/linux/pm_wakeup.h"
	.file 108 "/mnt/disk/jenkins/ci/workspace/chipset_release_960_xloader/opensource/component_code/vendor/huawei/extra/build/build_script/kirin_kernel_release/kernel/arch/arm64/include/asm/device.h"
	.file 109 "/mnt/disk/jenkins/ci/workspace/chipset_release_960_xloader/opensource/component_code/vendor/huawei/extra/build/build_script/kirin_kernel_release/kernel/include/linux/dma-mapping.h"
	.file 110 "/mnt/disk/jenkins/ci/workspace/chipset_release_960_xloader/opensource/component_code/vendor/huawei/extra/build/build_script/kirin_kernel_release/kernel/include/linux/iommu.h"
	.file 111 "/mnt/disk/jenkins/ci/workspace/chipset_release_960_xloader/opensource/component_code/vendor/huawei/extra/build/build_script/kirin_kernel_release/kernel/include/linux/mod_devicetable.h"
	.file 112 "/mnt/disk/jenkins/ci/workspace/chipset_release_960_xloader/opensource/component_code/vendor/huawei/extra/build/build_script/kirin_kernel_release/kernel/include/linux/irqdomain.h"
	.file 113 "/mnt/disk/jenkins/ci/workspace/chipset_release_960_xloader/opensource/component_code/vendor/huawei/extra/build/build_script/kirin_kernel_release/kernel/include/linux/fwnode.h"
	.file 114 "/mnt/disk/jenkins/ci/workspace/chipset_release_960_xloader/opensource/component_code/vendor/huawei/extra/build/build_script/kirin_kernel_release/kernel/include/linux/platform_device.h"
	.file 115 "/mnt/disk/jenkins/ci/workspace/chipset_release_960_xloader/opensource/component_code/vendor/huawei/extra/build/build_script/kirin_kernel_release/kernel/include/linux/irqhandler.h"
	.file 116 "/mnt/disk/jenkins/ci/workspace/chipset_release_960_xloader/opensource/component_code/vendor/huawei/extra/build/build_script/kirin_kernel_release/kernel/include/linux/irqdesc.h"
	.file 117 "/mnt/disk/jenkins/ci/workspace/chipset_release_960_xloader/opensource/component_code/vendor/huawei/extra/build/build_script/kirin_kernel_release/kernel/include/linux/irq.h"
	.file 118 "/mnt/disk/jenkins/ci/workspace/chipset_release_960_xloader/opensource/component_code/vendor/huawei/extra/build/build_script/kirin_kernel_release/kernel/include/linux/irqreturn.h"
	.file 119 "/mnt/disk/jenkins/ci/workspace/chipset_release_960_xloader/opensource/component_code/vendor/huawei/extra/build/build_script/kirin_kernel_release/kernel/include/linux/interrupt.h"
	.file 120 "/mnt/disk/jenkins/ci/workspace/chipset_release_960_xloader/opensource/component_code/vendor/huawei/extra/build/build_script/kirin_kernel_release/kernel/drivers/vcodec/hi_vcodec/venc/include/hi_type.h"
	.file 121 "/mnt/disk/jenkins/ci/workspace/chipset_release_960_xloader/opensource/component_code/vendor/huawei/extra/build/build_script/kirin_kernel_release/kernel/include/linux/vmstat.h"
	.file 122 "/mnt/disk/jenkins/ci/workspace/chipset_release_960_xloader/opensource/component_code/vendor/huawei/extra/build/build_script/kirin_kernel_release/kernel/include/linux/scatterlist.h"
	.file 123 "/mnt/disk/jenkins/ci/workspace/chipset_release_960_xloader/opensource/component_code/vendor/huawei/extra/build/build_script/kirin_kernel_release/kernel/include/linux/dma-direction.h"
	.file 124 "/mnt/disk/jenkins/ci/workspace/chipset_release_960_xloader/opensource/component_code/vendor/huawei/extra/build/build_script/kirin_kernel_release/kernel/drivers/vcodec/hi_vcodec/venc/drv/include/hi_drv_mem.h"
	.file 125 "/mnt/disk/jenkins/ci/workspace/chipset_release_960_xloader/opensource/component_code/vendor/huawei/extra/build/build_script/kirin_kernel_release/kernel/include/linux/hisi/hisi-iommu.h"
	.file 126 "/mnt/disk/jenkins/ci/workspace/chipset_release_960_xloader/opensource/component_code/vendor/huawei/extra/build/build_script/kirin_kernel_release/kernel/drivers/vcodec/hi_vcodec/venc/drv/include/hi_drv_video.h"
	.file 127 "/mnt/disk/jenkins/ci/workspace/chipset_release_960_xloader/opensource/component_code/vendor/huawei/extra/build/build_script/kirin_kernel_release/kernel/drivers/vcodec/hi_vcodec/venc/drv/venc/drv_venc_efl.h"
	.file 128 "/mnt/disk/jenkins/ci/workspace/chipset_release_960_xloader/opensource/component_code/vendor/huawei/extra/build/build_script/kirin_kernel_release/kernel/drivers/vcodec/hi_vcodec/venc/drv/venc/drv_venc_buf_mng.h"
	.file 129 "/mnt/disk/jenkins/ci/workspace/chipset_release_960_xloader/opensource/component_code/vendor/huawei/extra/build/build_script/kirin_kernel_release/kernel/arch/arm64/include/asm/cachetype.h"
	.file 130 "/mnt/disk/jenkins/ci/workspace/chipset_release_960_xloader/opensource/component_code/vendor/huawei/extra/build/build_script/kirin_kernel_release/kernel/include/linux/printk.h"
	.file 131 "/mnt/disk/jenkins/ci/workspace/chipset_release_960_xloader/opensource/component_code/vendor/huawei/extra/build/build_script/kirin_kernel_release/kernel/include/linux/kernel.h"
	.file 132 "/mnt/disk/jenkins/ci/workspace/chipset_release_960_xloader/opensource/component_code/vendor/huawei/extra/build/build_script/kirin_kernel_release/kernel/arch/arm64/include/asm/stack_pointer.h"
	.file 133 "/mnt/disk/jenkins/ci/workspace/chipset_release_960_xloader/opensource/component_code/vendor/huawei/extra/build/build_script/kirin_kernel_release/kernel/arch/arm64/include/asm/hwcap.h"
	.file 134 "/mnt/disk/jenkins/ci/workspace/chipset_release_960_xloader/opensource/component_code/vendor/huawei/extra/build/build_script/kirin_kernel_release/kernel/arch/arm64/include/asm/cpufeature.h"
	.file 135 "/mnt/disk/jenkins/ci/workspace/chipset_release_960_xloader/opensource/component_code/vendor/huawei/extra/build/build_script/kirin_kernel_release/kernel/arch/arm64/include/asm/virt.h"
	.file 136 "/mnt/disk/jenkins/ci/workspace/chipset_release_960_xloader/opensource/component_code/vendor/huawei/extra/build/build_script/kirin_kernel_release/kernel/include/linux/jiffies.h"
	.file 137 "/mnt/disk/jenkins/ci/workspace/chipset_release_960_xloader/opensource/component_code/vendor/huawei/extra/build/build_script/kirin_kernel_release/kernel/include/linux/highuid.h"
	.file 138 "/mnt/disk/jenkins/ci/workspace/chipset_release_960_xloader/opensource/component_code/vendor/huawei/extra/build/build_script/kirin_kernel_release/kernel/arch/arm64/include/asm/memory.h"
	.file 139 "/mnt/disk/jenkins/ci/workspace/chipset_release_960_xloader/opensource/component_code/vendor/huawei/extra/build/build_script/kirin_kernel_release/kernel/include/asm-generic/percpu.h"
	.file 140 "/mnt/disk/jenkins/ci/workspace/chipset_release_960_xloader/opensource/component_code/vendor/huawei/extra/build/build_script/kirin_kernel_release/kernel/include/asm-generic/pgtable.h"
	.file 141 "/mnt/disk/jenkins/ci/workspace/chipset_release_960_xloader/opensource/component_code/vendor/huawei/extra/build/build_script/kirin_kernel_release/kernel/arch/arm64/include/asm/irq.h"
	.file 142 "/mnt/disk/jenkins/ci/workspace/chipset_release_960_xloader/opensource/component_code/vendor/huawei/extra/build/build_script/kirin_kernel_release/kernel/include/asm-generic/irq_regs.h"
	.file 143 "/mnt/disk/jenkins/ci/workspace/chipset_release_960_xloader/opensource/component_code/vendor/huawei/extra/build/build_script/kirin_kernel_release/kernel/include/linux/slab.h"
	.file 144 "/mnt/disk/jenkins/ci/workspace/chipset_release_960_xloader/opensource/component_code/vendor/huawei/extra/build/build_script/kirin_kernel_release/kernel/include/linux/debug_locks.h"
	.file 145 "/mnt/disk/jenkins/ci/workspace/chipset_release_960_xloader/opensource/component_code/vendor/huawei/extra/build/build_script/kirin_kernel_release/kernel/include/linux/pci.h"
	.file 146 "/mnt/disk/jenkins/ci/workspace/chipset_release_960_xloader/opensource/component_code/vendor/huawei/extra/build/build_script/kirin_kernel_release/kernel/arch/arm64/include/../../arm/include/asm/xen/hypervisor.h"
	.file 147 "/mnt/disk/jenkins/ci/workspace/chipset_release_960_xloader/opensource/component_code/vendor/huawei/extra/build/build_script/kirin_kernel_release/kernel/arch/arm64/include/asm/dma-mapping.h"
	.file 148 "/mnt/disk/jenkins/ci/workspace/chipset_release_960_xloader/opensource/component_code/vendor/huawei/extra/build/build_script/kirin_kernel_release/kernel/include/trace/events/iommu.h"
	.file 149 "/mnt/disk/jenkins/ci/workspace/chipset_release_960_xloader/opensource/component_code/vendor/huawei/extra/build/build_script/kirin_kernel_release/kernel/arch/arm64/include/asm/hardirq.h"
	.file 150 "/mnt/disk/jenkins/ci/workspace/chipset_release_960_xloader/opensource/component_code/vendor/huawei/extra/build/build_script/kirin_kernel_release/kernel/include/linux/regulator/consumer.h"
	.file 151 "/mnt/disk/jenkins/ci/workspace/chipset_release_960_xloader/opensource/component_code/vendor/huawei/extra/build/build_script/kirin_kernel_release/kernel/include/linux/of_irq.h"
	.file 152 "/mnt/disk/jenkins/ci/workspace/chipset_release_960_xloader/opensource/component_code/vendor/huawei/extra/build/build_script/kirin_kernel_release/kernel/include/linux/of_address.h"
	.section	.note.GNU-stack,"",%progbits
