	.cpu generic+fp+simd
	.file	"scd_drv.c"
	.text
.Ltext0:
	.cfi_sections	.debug_frame
	.align	2
	.global	GetInstIDByRawArray
	.type	GetInstIDByRawArray, %function
GetInstIDByRawArray:
.LFB2638:
	.file 1 "/mnt/disk/jenkins/ci/workspace/chipset_release_960_xloader/opensource/component_code/vendor/huawei/extra/build/build_script/kirin_kernel_release/kernel/drivers/vcodec/hi_vcodec/vdec/vfmw/vfmw_v4.0/firmware/driver/HiSCDV200/scd_drv.c"
	.loc 1 145 0
	.cfi_startproc
.LVL0:
	adrp	x4, .LANCHOR0
	.loc 1 145 0
	mov	x1, 0
	add	x4, x4, :lo12:.LANCHOR0
	b	.L4
.L2:
	add	x1, x1, 1
	.loc 1 148 0 discriminator 1
	cmp	x1, 32
	beq	.L11
.L4:
	add	x2, x4, x1, lsl 3
	.loc 1 150 0
	ldr	x2, [x2,1880]
	.loc 1 150 0 is_stmt 0 discriminator 1
	add	x3, x2, 104
	cmp	x0, x3
	.loc 1 150 0
	cbz	x2, .L2
	.loc 1 150 0 discriminator 1
	bne	.L2
	mov	w0, w1
.LVL1:
	.loc 1 157 0 is_stmt 1
	ret
.LVL2:
.L11:
	.loc 1 156 0
	mov	w0, -1
.LVL3:
	.loc 1 157 0
	ret
	.cfi_endproc
.LFE2638:
	.size	GetInstIDByRawArray, .-GetInstIDByRawArray
	.align	2
	.global	ResetSCD
	.type	ResetSCD, %function
ResetSCD:
.LFB2639:
	.loc 1 177 0
	.cfi_startproc
	.loc 1 186 0
	adrp	x0, gSOFTRST_REQ_Addr
	.loc 1 177 0
	stp	x29, x30, [sp, -80]!
	.cfi_def_cfa_offset 80
	.cfi_offset 29, -80
	.cfi_offset 30, -72
	add	x29, sp, 0
	.cfi_def_cfa_register 29
	.loc 1 186 0
	ldr	w0, [x0,#:lo12:gSOFTRST_REQ_Addr]
	.loc 1 177 0
	stp	x19, x20, [sp,16]
	stp	x21, x22, [sp,32]
	stp	x23, x24, [sp,48]
	stp	x25, x26, [sp,64]
	.cfi_offset 19, -64
	.cfi_offset 20, -56
	.cfi_offset 21, -48
	.cfi_offset 22, -40
	.cfi_offset 23, -32
	.cfi_offset 24, -24
	.cfi_offset 25, -16
	.cfi_offset 26, -8
	.loc 1 186 0
	bl	MEM_Phy2Vir
.LVL4:
	mov	x22, x0
.LVL5:
	.loc 1 187 0
	adrp	x0, gSOFTRST_OK_ADDR
	ldr	w0, [x0,#:lo12:gSOFTRST_OK_ADDR]
	bl	MEM_Phy2Vir
.LVL6:
	mov	x20, x0
.LVL7:
	.loc 1 189 0
	cbz	x0, .L19
	cbz	x22, .L19
	.loc 1 195 0
	adrp	x24, gScdRegBaseAddr
	.loc 1 201 0
	mov	w19, 100
	.loc 1 211 0
	adrp	x21, g_vfmw_osal_fun_ptr
	.loc 1 195 0
	ldr	w0, [x24,#:lo12:gScdRegBaseAddr]
	add	w0, w0, 2076
	bl	MEM_ReadPhyWord
.LVL8:
	mov	w25, w0
.LVL9:
	.loc 1 197 0
	mov	w0, 2
	bl	VDMHAL_EXT_ReduceFrequency
.LVL10:
	.loc 1 200 0
	ldr	w23, [x22]
	.loc 1 197 0
	mov	w26, w0
.LVL11:
	.loc 1 201 0
	orr	w0, w23, 4
	str	w0, [x22]
	b	.L17
.L25:
	.loc 1 211 0
	add	x1, x21, :lo12:g_vfmw_osal_fun_ptr
	ldr	x1, [x1,80]
	blr	x1
.LVL12:
	.loc 1 204 0 discriminator 1
	subs	w19, w19, #1
	beq	.L24
.L17:
	.loc 1 206 0
	ldr	w1, [x20]
	.loc 1 211 0
	mov	x0, 10
.LVL13:
	.loc 1 207 0
	tbz	x1, 2, .L25
.LVL14:
.L16:
	.loc 1 226 0
	mov	w0, 2
	mov	w1, w26
	.loc 1 224 0
	and	w23, w23, -5
.LVL15:
	str	w23, [x22]
	.loc 1 226 0
	bl	VDMHAL_EXT_RestoreFrequency
.LVL16:
	.loc 1 228 0
	ldr	w0, [x24,#:lo12:gScdRegBaseAddr]
	mov	w1, w25
	add	w0, w0, 2076
	bl	MEM_WritePhyWord
.LVL17:
	.loc 1 230 0
	mov	w0, 1
.L21:
	.loc 1 231 0
	ldp	x19, x20, [sp,16]
	.cfi_remember_state
	.cfi_restore 20
	.cfi_restore 19
.LVL18:
	ldp	x21, x22, [sp,32]
	.cfi_restore 22
	.cfi_restore 21
.LVL19:
	ldp	x23, x24, [sp,48]
	.cfi_restore 24
	.cfi_restore 23
	ldp	x25, x26, [sp,64]
	.cfi_restore 26
	.cfi_restore 25
.LVL20:
	ldp	x29, x30, [sp], 80
	.cfi_restore 30
	.cfi_restore 29
	.cfi_def_cfa 31, 0
	ret
.LVL21:
.L24:
	.cfi_restore_state
	.loc 1 216 0
	adrp	x1, .LC2
	adrp	x2, .LANCHOR1
	add	x1, x1, :lo12:.LC2
	add	x2, x2, :lo12:.LANCHOR1
	mov	w0, 0
	bl	dprint_linux_kernel
.LVL22:
	b	.L16
.LVL23:
.L19:
	.loc 1 191 0
	adrp	x1, .LC1
	mov	w0, 0
.LVL24:
	add	x1, x1, :lo12:.LC1
	bl	dprint_linux_kernel
.LVL25:
	.loc 1 192 0
	mov	w0, -20
	b	.L21
	.cfi_endproc
.LFE2639:
	.size	ResetSCD, .-ResetSCD
	.align	2
	.global	SCDDRV_ResetSCD
	.type	SCDDRV_ResetSCD, %function
SCDDRV_ResetSCD:
.LFB2640:
	.loc 1 246 0
	.cfi_startproc
.LVL26:
	stp	x29, x30, [sp, -32]!
	.cfi_def_cfa_offset 32
	.cfi_offset 29, -32
	.cfi_offset 30, -24
	add	x29, sp, 0
	.cfi_def_cfa_register 29
	str	x19, [sp,16]
	.cfi_offset 19, -16
	.loc 1 247 0
	adrp	x19, .LANCHOR0
	add	x19, x19, :lo12:.LANCHOR0
	ldr	w1, [x19,2144]
	cmp	w1, 1
	beq	.L28
.L26:
	.loc 1 254 0
	ldr	x19, [sp,16]
	.cfi_remember_state
	.cfi_restore 19
	ldp	x29, x30, [sp], 32
	.cfi_restore 30
	.cfi_restore 29
	.cfi_def_cfa 31, 0
	ret
.L28:
	.cfi_restore_state
	.loc 1 247 0 discriminator 1
	ldr	w1, [x19,2140]
	cmp	w1, w0
	bne	.L26
	.loc 1 249 0
	bl	ResetSCD
.LVL27:
	.loc 1 250 0
	str	wzr, [x19,2144]
	b	.L26
	.cfi_endproc
.LFE2640:
	.size	SCDDRV_ResetSCD, .-SCDDRV_ResetSCD
	.align	2
	.global	ResetRawStreamArray
	.type	ResetRawStreamArray, %function
ResetRawStreamArray:
.LFB2641:
	.loc 1 263 0
	.cfi_startproc
.LVL28:
	stp	x29, x30, [sp, -16]!
	.cfi_def_cfa_offset 16
	.cfi_offset 29, -16
	.cfi_offset 30, -8
	add	x29, sp, 0
	.cfi_def_cfa_register 29
	.loc 1 264 0
	cbz	x0, .L29
	.loc 1 266 0
	mov	x2, 32792
	mov	w1, 0
	movk	x2, 0x1, lsl 16
	bl	memset
.LVL29:
.L29:
	.loc 1 268 0
	ldp	x29, x30, [sp], 16
	.cfi_restore 30
	.cfi_restore 29
	.cfi_def_cfa 31, 0
	ret
	.cfi_endproc
.LFE2641:
	.size	ResetRawStreamArray, .-ResetRawStreamArray
	.align	2
	.global	InsertRawPacket
	.type	InsertRawPacket, %function
InsertRawPacket:
.LFB2642:
	.loc 1 278 0
	.cfi_startproc
.LVL30:
	.loc 1 282 0
	cbz	x0, .L36
	cbz	x1, .L36
	.loc 1 287 0
	ldr	w2, [x0,4]
	ldr	w5, [x0,8]
	add	w3, w2, 1
	asr	w4, w3, 31
	lsr	w4, w4, 22
	add	w3, w3, w4
	and	w3, w3, 1023
	sub	w3, w3, w4
	cmp	w3, w5
	beq	.L37
	.loc 1 294 0
	sxtw	x2, w2
	.loc 1 299 0
	mov	w3, 0
	.loc 1 294 0
	lsl	x6, x2, 7
	sub	x2, x6, x2, lsl 5
	add	x2, x0, x2
	add	x2, x2, 24
	ldp	x4, x5, [x1]
	stp	x4, x5, [x2]
	ldp	x4, x5, [x1,16]
	stp	x4, x5, [x2,16]
	ldp	x4, x5, [x1,32]
	stp	x4, x5, [x2,32]
	ldp	x4, x5, [x1,48]
	stp	x4, x5, [x2,48]
	ldp	x4, x5, [x1,64]
	stp	x4, x5, [x2,64]
	ldp	x4, x5, [x1,80]
	stp	x4, x5, [x2,80]
	.loc 1 295 0
	ldr	w1, [x0,4]
.LVL31:
	add	w1, w1, 1
	asr	w2, w1, 31
	lsr	w2, w2, 22
	add	w1, w1, w2
	and	w1, w1, 1023
	sub	w1, w1, w2
	str	w1, [x0,4]
.LVL32:
.L35:
	.loc 1 300 0
	mov	w0, w3
.LVL33:
	ret
.LVL34:
.L36:
	.loc 1 282 0 discriminator 1
	mov	w3, -1
	b	.L35
.L37:
	.loc 1 289 0
	mov	w3, -4
	b	.L35
	.cfi_endproc
.LFE2642:
	.size	InsertRawPacket, .-InsertRawPacket
	.align	2
	.global	GetRawState
	.type	GetRawState, %function
GetRawState:
.LFB2643:
	.loc 1 310 0
	.cfi_startproc
.LVL35:
	.loc 1 316 0
	cmp	w0, 31
	bhi	.L41
	.loc 1 317 0
	adrp	x1, .LANCHOR0
	add	x1, x1, :lo12:.LANCHOR0
	add	x0, x1, x0, sxtw 3
.LVL36:
	ldr	x1, [x0,1880]
	cbz	x1, .L41
	.loc 1 321 0
	ldr	w0, [x1,108]
	ldr	w2, [x1,112]
	add	w0, w0, 1
	asr	w1, w0, 31
	lsr	w1, w1, 22
	add	w0, w0, w1
	and	w0, w0, 1023
	sub	w0, w0, w1
	.loc 1 326 0
	cmp	w0, w2
	mov	w0, -4
	csel	w0, w0, wzr, eq
	.loc 1 328 0
	ret
.LVL37:
.L41:
	.loc 1 316 0 discriminator 1
	mov	w0, -4
.LVL38:
	.loc 1 328 0
	ret
	.cfi_endproc
.LFE2643:
	.size	GetRawState, .-GetRawState
	.align	2
	.global	ShowFirstRawPacket
	.type	ShowFirstRawPacket, %function
ShowFirstRawPacket:
.LFB2644:
	.loc 1 338 0
	.cfi_startproc
.LVL39:
	.loc 1 338 0
	mov	x2, x0
	.loc 1 340 0
	cbz	x0, .L45
	cbz	x1, .L45
	.loc 1 342 0
	ldr	w0, [x0]
	ldr	w3, [x2,4]
	cmp	w0, w3
	beq	.L46
	.loc 1 350 0
	sxtw	x3, w0
	.loc 1 349 0
	str	w0, [x2,16]
	.loc 1 350 0
	lsl	x4, x3, 7
	.loc 1 353 0
	mov	w0, 0
	.loc 1 350 0
	sub	x3, x4, x3, lsl 5
	add	x2, x2, x3
.LVL40:
	add	x2, x2, 24
	ldp	x4, x5, [x2]
	stp	x4, x5, [x1]
	ldp	x4, x5, [x2,16]
	stp	x4, x5, [x1,16]
	ldp	x4, x5, [x2,32]
	stp	x4, x5, [x1,32]
	ldp	x4, x5, [x2,48]
	stp	x4, x5, [x1,48]
	ldp	x4, x5, [x2,64]
	stp	x4, x5, [x1,64]
	ldp	x2, x3, [x2,80]
	stp	x2, x3, [x1,80]
	.loc 1 354 0
	ret
.LVL41:
.L45:
	.loc 1 340 0 discriminator 1
	mov	w0, -1
.LVL42:
	.loc 1 354 0
	ret
.L46:
	.loc 1 344 0
	mov	w0, -3
	.loc 1 354 0
	ret
	.cfi_endproc
.LFE2644:
	.size	ShowFirstRawPacket, .-ShowFirstRawPacket
	.align	2
	.global	ShowNextRawPacket
	.type	ShowNextRawPacket, %function
ShowNextRawPacket:
.LFB2645:
	.loc 1 364 0
	.cfi_startproc
.LVL43:
	.loc 1 364 0
	mov	x2, x0
	.loc 1 366 0
	cbz	x0, .L49
	cbz	x1, .L49
	.loc 1 369 0
	ldr	w3, [x0,16]
	.loc 1 370 0
	ldr	w0, [x0,4]
	.loc 1 369 0
	add	w3, w3, 1
	asr	w4, w3, 31
	lsr	w4, w4, 22
	add	w5, w3, w4
	and	w5, w5, 1023
	sub	w4, w5, w4
	.loc 1 370 0
	cmp	w0, w4
	beq	.L50
	.loc 1 377 0
	sxtw	x3, w4
.LVL44:
	.loc 1 376 0
	str	w4, [x2,16]
	.loc 1 377 0
	lsl	x4, x3, 7
	.loc 1 380 0
	mov	w0, 0
	.loc 1 377 0
	sub	x3, x4, x3, lsl 5
.LVL45:
	add	x2, x2, x3
.LVL46:
	add	x2, x2, 24
	ldp	x4, x5, [x2]
	stp	x4, x5, [x1]
	ldp	x4, x5, [x2,16]
	stp	x4, x5, [x1,16]
	ldp	x4, x5, [x2,32]
	stp	x4, x5, [x1,32]
	ldp	x4, x5, [x2,48]
	stp	x4, x5, [x1,48]
	ldp	x4, x5, [x2,64]
	stp	x4, x5, [x1,64]
	ldp	x2, x3, [x2,80]
	stp	x2, x3, [x1,80]
	.loc 1 381 0
	ret
.LVL47:
.L49:
	.loc 1 366 0 discriminator 1
	mov	w0, -1
.LVL48:
	.loc 1 381 0
	ret
.L50:
	.loc 1 372 0
	mov	w0, -3
	.loc 1 381 0
	ret
	.cfi_endproc
.LFE2645:
	.size	ShowNextRawPacket, .-ShowNextRawPacket
	.align	2
	.global	SetFirstOffset
	.type	SetFirstOffset, %function
SetFirstOffset:
.LFB2646:
	.loc 1 391 0
	.cfi_startproc
.LVL49:
	.loc 1 394 0
	cbz	x0, .L55
	.loc 1 397 0
	ldr	w2, [x0]
	ldr	w3, [x0,4]
	cmp	w2, w3
	beq	.L54
	.loc 1 404 0
	sxtw	x2, w2
	.loc 1 402 0
	ldr	w3, [x0,12]
	.loc 1 404 0
	lsl	x4, x2, 7
	sub	x2, x4, x2, lsl 5
	.loc 1 402 0
	add	w1, w1, w3
.LVL50:
	.loc 1 404 0
	add	x2, x0, x2
	ldr	w2, [x2,28]
	cmp	w1, w2
	bge	.L55
	.loc 1 409 0
	str	w1, [x0,12]
	.loc 1 411 0
	mov	w0, 0
.LVL51:
	.loc 1 412 0
	ret
.LVL52:
.L55:
	.loc 1 394 0 discriminator 1
	mov	w0, -1
.LVL53:
	.loc 1 412 0
	ret
.LVL54:
.L54:
	.loc 1 399 0
	mov	w0, -3
.LVL55:
	.loc 1 412 0
	ret
	.cfi_endproc
.LFE2646:
	.size	SetFirstOffset, .-SetFirstOffset
	.align	2
	.global	GetFirstOffset
	.type	GetFirstOffset, %function
GetFirstOffset:
.LFB2647:
	.loc 1 422 0
	.cfi_startproc
.LVL56:
	.loc 1 423 0
	cbz	x0, .L58
	cbz	x1, .L58
	.loc 1 426 0
	ldr	w3, [x0]
	ldr	w2, [x0,4]
	cmp	w3, w2
	beq	.L59
	.loc 1 431 0
	ldr	w2, [x0,12]
	.loc 1 433 0
	mov	w0, 0
.LVL57:
	.loc 1 431 0
	str	w2, [x1]
	.loc 1 434 0
	ret
.LVL58:
.L58:
	.loc 1 423 0 discriminator 1
	mov	w0, -1
.LVL59:
	.loc 1 434 0
	ret
.LVL60:
.L59:
	.loc 1 428 0
	mov	w0, -3
.LVL61:
	.loc 1 434 0
	ret
	.cfi_endproc
.LFE2647:
	.size	GetFirstOffset, .-GetFirstOffset
	.align	2
	.global	DeleteRawPacket
	.type	DeleteRawPacket, %function
DeleteRawPacket:
.LFB2648:
	.loc 1 447 0
	.cfi_startproc
.LVL62:
	stp	x29, x30, [sp, -80]!
	.cfi_def_cfa_offset 80
	.cfi_offset 29, -80
	.cfi_offset 30, -72
	add	x29, sp, 0
	.cfi_def_cfa_register 29
	stp	x19, x20, [sp,16]
	stp	x21, x22, [sp,32]
	stp	x23, x24, [sp,48]
	str	x25, [sp,64]
	.cfi_offset 19, -64
	.cfi_offset 20, -56
	.cfi_offset 21, -48
	.cfi_offset 22, -40
	.cfi_offset 23, -32
	.cfi_offset 24, -24
	.cfi_offset 25, -16
	.loc 1 452 0
	cbz	x0, .L73
	cbz	w1, .L73
	adrp	x21, .LANCHOR0
	mov	w20, w1
	mov	x23, x0
	mov	x2, 0
	add	x22, x21, :lo12:.LANCHOR0
	b	.L65
.LVL63:
.L62:
.LBB86:
.LBB87:
.LBB88:
.LBB89:
	.loc 1 148 0 discriminator 1
	cmp	x2, 32
	beq	.L87
.L65:
	add	x3, x22, x2, lsl 3
	mov	w1, w2
	.loc 1 150 0
	add	x2, x2, 1
	ldr	x3, [x3,1880]
	.loc 1 150 0 is_stmt 0 discriminator 1
	add	x19, x3, 104
	cmp	x23, x19
	.loc 1 150 0
	cbz	x3, .L62
	.loc 1 150 0 discriminator 1
	bne	.L62
.LBE89:
.LBE88:
	.loc 1 462 0 is_stmt 1
	ldr	w19, [x23]
	ldr	w0, [x23,4]
	cmp	w19, w0
	.loc 1 463 0
	sub	w2, w0, w19
.LVL64:
	.loc 1 462 0
	bgt	.L88
.L67:
	.loc 1 466 0
	cmp	w20, w2
	bhi	.L89
	sxtw	x3, w1
.LVL65:
	.loc 1 478 0
	add	x21, x21, :lo12:.LANCHOR0
	add	x3, x3, 234
.LVL66:
	.loc 1 476 0
	adrp	x22, .LC4
	.loc 1 473 0
	mov	w24, 0
.LVL67:
	.loc 1 476 0
	add	x22, x22, :lo12:.LC4
	.loc 1 478 0
	add	x21, x21, x3, lsl 3
.LVL68:
.L68:
	.loc 1 476 0
	uxtw	x3, w19
.LVL69:
	mov	x1, x22
	lsl	x2, x3, 7
.LVL70:
	mov	w0, 26
	sub	x3, x2, x3, lsl 5
.LVL71:
	.loc 1 474 0 discriminator 3
	add	w24, w24, 1
	.loc 1 476 0
	add	x3, x23, x3
.LVL72:
	.loc 1 480 0
	add	w19, w19, 1
.LVL73:
	.loc 1 476 0
	add	x25, x3, 16
	.loc 1 480 0
	and	w19, w19, 1023
.LVL74:
	.loc 1 476 0
	ldr	w2, [x3,56]
	ldr	w3, [x3,28]
	bl	dprint_linux_kernel
.LVL75:
	.loc 1 478 0
	ldr	x1, [x21,8]
	ldr	w2, [x25,12]
	ldr	w0, [x1,124]
	sub	w0, w0, w2
	str	w0, [x1,124]
	.loc 1 479 0
	ldr	x0, [x21,8]
	ldr	w3, [x0,124]
	cmp	w3, wzr
	csel	w3, w3, wzr, ge
	.loc 1 474 0 discriminator 1
	cmp	w24, w20
	.loc 1 479 0
	str	w3, [x0,124]
	.loc 1 474 0 discriminator 1
	bne	.L68
	.loc 1 483 0
	ldr	w0, [x23]
	add	w24, w24, w0
.LVL76:
	.loc 1 484 0
	cmp	w24, 1023
	bgt	.L90
.L83:
	.loc 1 486 0
	str	w24, [x23]
	.loc 1 494 0
	mov	w0, 0
	.loc 1 490 0
	str	wzr, [x23,12]
.L81:
.LBE87:
.LBE86:
	.loc 1 495 0
	ldp	x19, x20, [sp,16]
	.cfi_remember_state
	.cfi_restore 20
	.cfi_restore 19
.LVL77:
	ldp	x21, x22, [sp,32]
	.cfi_restore 22
	.cfi_restore 21
	ldp	x23, x24, [sp,48]
	.cfi_restore 24
	.cfi_restore 23
.LVL78:
	ldr	x25, [sp,64]
	.cfi_restore 25
	ldp	x29, x30, [sp], 80
	.cfi_restore 30
	.cfi_restore 29
	.cfi_def_cfa 31, 0
	ret
.LVL79:
.L88:
	.cfi_restore_state
.LBB93:
.LBB90:
	.loc 1 464 0
	add	w2, w0, 1024
.LVL80:
	sub	w2, w2, w19
.LVL81:
	b	.L67
.LVL82:
.L90:
	.loc 1 486 0
	sub	w24, w24, #1024
	b	.L83
.LVL83:
.L87:
	.loc 1 457 0
	adrp	x1, .LC5
.LVL84:
	mov	w2, 457
	add	x1, x1, :lo12:.LC5
	mov	w0, 0
	bl	dprint_linux_kernel
.LVL85:
.LBE90:
.LBE93:
	.loc 1 495 0
	ldr	x25, [sp,64]
	.cfi_remember_state
	.cfi_restore 25
.LBB94:
.LBB91:
	.loc 1 458 0
	mov	w0, -1
.LBE91:
.LBE94:
	.loc 1 495 0
	ldp	x19, x20, [sp,16]
	.cfi_restore 19
	.cfi_restore 20
.LVL86:
	ldp	x21, x22, [sp,32]
	.cfi_restore 21
	.cfi_restore 22
	ldp	x23, x24, [sp,48]
	.cfi_restore 23
	.cfi_restore 24
.LVL87:
	ldp	x29, x30, [sp], 80
	.cfi_restore 29
	.cfi_restore 30
	.cfi_def_cfa 31, 0
	ret
.LVL88:
.L73:
	.cfi_restore_state
	.loc 1 452 0 discriminator 1
	mov	w0, -1
.LVL89:
	b	.L81
.LVL90:
.L89:
.LBB95:
.LBB92:
	.loc 1 468 0
	adrp	x1, .LC3
.LVL91:
	mov	w0, 26
	add	x1, x1, :lo12:.LC3
	mov	w3, w20
	bl	dprint_linux_kernel
.LVL92:
	.loc 1 469 0
	mov	w0, -1
	b	.L81
.LBE92:
.LBE95:
	.cfi_endproc
.LFE2648:
	.size	DeleteRawPacket, .-DeleteRawPacket
	.align	2
	.global	GetRawNumOffsert
	.type	GetRawNumOffsert, %function
GetRawNumOffsert:
.LFB2650:
	.loc 1 569 0
	.cfi_startproc
.LVL93:
	sub	sp, sp, #16
	.cfi_def_cfa_offset 16
	mov	x15, x0
	stp	x19, x20, [sp]
	.cfi_offset 19, -16
	.cfi_offset 20, -8
	.loc 1 569 0
	ldr	x16, [sp,16]
	ldr	x17, [sp,24]
.LVL94:
	ldr	x18, [sp,32]
.LVL95:
	ldr	x19, [sp,40]
.LVL96:
	.loc 1 574 0
	cbz	x0, .L101
	tbnz	w1, #31, .L101
	.loc 1 575 0
	cbz	x2, .L101
	cbz	x3, .L101
	.loc 1 577 0
	ldr	w0, [x15]
.LBB96:
.LBB97:
	.loc 1 758 0
	ldr	w12, [x15,4]
.LBE97:
.LBE96:
	.loc 1 577 0
	ldr	w13, [x15,12]
	sxtw	x8, w0
.LBB102:
.LBB98:
	.loc 1 758 0
	sub	w11, w12, w0
.LBE98:
.LBE102:
	.loc 1 577 0
	lsl	x10, x8, 7
.LBB103:
.LBB99:
	.loc 1 762 0
	cmp	w11, wzr
.LBE99:
.LBE103:
	.loc 1 577 0
	sub	x10, x10, x8, lsl 5
.LBB104:
.LBB100:
	.loc 1 762 0
	add	w14, w11, 1024
.LBE100:
.LBE104:
	.loc 1 577 0
	add	x9, x15, x10
.LBB105:
.LBB101:
	.loc 1 762 0
	csel	w11, w14, w11, lt
.LBE101:
.LBE105:
	.loc 1 590 0
	add	x8, x9, 32
	.loc 1 586 0
	add	x12, x9, 80
	.loc 1 587 0
	add	x10, x9, 64
	.loc 1 583 0
	add	w0, w0, w11
	.loc 1 586 0
	ldr	x20, [x9,88]
	.loc 1 577 0
	ldr	w14, [x9,28]
	.loc 1 586 0
	str	x20, [x4]
	.loc 1 577 0
	sub	w13, w14, w13
	.loc 1 587 0
	ldr	x9, [x9,72]
	str	x9, [x5]
	.loc 1 588 0
	ldr	x9, [x12,8]
	str	x9, [x19]
	.loc 1 589 0
	ldr	x9, [x10,16]
	str	x9, [x6]
	.loc 1 590 0
	ldr	w9, [x8,8]
	str	w9, [x7]
	.loc 1 591 0
	ldr	w9, [x8,12]
	str	w9, [x16]
	.loc 1 592 0
	ldr	w9, [x8,16]
	str	w9, [x17]
	.loc 1 593 0
	ldr	w8, [x8,20]
	str	w8, [x18]
	.loc 1 595 0
	ldr	w11, [x15]
.LVL97:
	.loc 1 597 0
	cmp	w0, w11
	ble	.L99
	cmp	w1, w13
	bge	.L104
	b	.L99
.L96:
	.loc 1 604 0 discriminator 4
	str	x14, [x4]
	.loc 1 597 0
	cmp	w0, w11
	.loc 1 605 0
	ldr	x10, [x20,8]
	str	x10, [x5]
	.loc 1 606 0
	ldr	x9, [x9,88]
	str	x9, [x19]
	.loc 1 607 0
	ldr	x9, [x20,16]
	str	x9, [x6]
	.loc 1 608 0
	ldr	w9, [x12,8]
	str	w9, [x7]
	.loc 1 609 0
	ldr	w9, [x12,12]
	str	w9, [x16]
	.loc 1 610 0
	ldr	w9, [x12,16]
	str	w9, [x17]
	.loc 1 611 0
	ldr	w9, [x12,20]
	str	w9, [x18]
	.loc 1 597 0
	ble	.L102
	cmp	w1, w13
	blt	.L102
.L104:
	.loc 1 601 0
	add	w11, w11, 1
	.loc 1 602 0
	asr	w8, w11, 31
	lsr	w8, w8, 22
	add	w9, w11, w8
	and	w9, w9, 1023
	sub	w8, w9, w8
	.loc 1 603 0
	sxtw	x8, w8
	.loc 1 605 0
	lsl	x9, x8, 7
	sub	x9, x9, x8, lsl 5
	add	x9, x15, x9
	add	x20, x9, 64
	.loc 1 608 0
	add	x12, x9, 32
	.loc 1 604 0
	ldr	x14, [x9,88]
	.loc 1 603 0
	ldr	w10, [x9,28]
	.loc 1 604 0
	cmn	x14, #1
	.loc 1 603 0
	add	w13, w13, w10
	.loc 1 604 0
	bne	.L96
	.loc 1 604 0 is_stmt 0 discriminator 1
	ldr	x14, [x4]
	b	.L96
.L102:
	.loc 1 615 0 is_stmt 1
	ldr	w9, [x15]
	cmp	w9, w11
	beq	.L99
	.loc 1 623 0
	lsl	x0, x8, 7
	.loc 1 624 0
	sub	w9, w11, w9
	.loc 1 623 0
	sub	x8, x0, x8, lsl 5
	.loc 1 626 0
	mov	w0, 0
	.loc 1 623 0
	add	x8, x15, x8
	ldr	w4, [x8,28]
.LVL98:
	.loc 1 624 0
	str	w9, [x2]
	.loc 1 623 0
	sub	w13, w13, w4
	.loc 1 625 0
	sub	w1, w1, w13
.LVL99:
	str	w1, [x3]
.LVL100:
.L92:
	.loc 1 628 0
	ldp	x19, x20, [sp]
	.cfi_remember_state
	.cfi_restore 20
	.cfi_restore 19
.LVL101:
	add	sp, sp, 16
	.cfi_def_cfa_offset 0
	ret
.LVL102:
.L99:
	.cfi_restore_state
	.loc 1 617 0
	str	wzr, [x2]
	.loc 1 619 0
	mov	w0, 0
	.loc 1 628 0
	ldp	x19, x20, [sp]
	.cfi_remember_state
	.cfi_restore 19
	.cfi_restore 20
.LVL103:
	.loc 1 618 0
	str	w1, [x3]
	.loc 1 628 0
	add	sp, sp, 16
	.cfi_def_cfa_offset 0
	ret
.LVL104:
.L101:
	.cfi_restore_state
	.loc 1 574 0 discriminator 1
	mov	w0, -1
	b	.L92
	.cfi_endproc
.LFE2650:
	.size	GetRawNumOffsert, .-GetRawNumOffsert
	.align	2
	.global	DeleteRawLen
	.type	DeleteRawLen, %function
DeleteRawLen:
.LFB2651:
	.loc 1 638 0
	.cfi_startproc
.LVL105:
	sub	sp, sp, #128
	.cfi_def_cfa_offset 128
	stp	x29, x30, [sp,32]
	.cfi_offset 29, -96
	.cfi_offset 30, -88
	add	x29, sp, 32
	.cfi_def_cfa 29, 96
	stp	x19, x20, [sp,48]
	.cfi_offset 19, -80
	.cfi_offset 20, -72
	.loc 1 638 0
	adrp	x20, __stack_chk_guard
	mov	x19, x0
	ldr	x2, [x20,#:lo12:__stack_chk_guard]
	str	x2, [x29,88]
	.loc 1 652 0
	cbz	x0, .L111
	tbnz	w1, #31, .L111
.LBB106:
.LBB107:
	.loc 1 741 0
	ldr	w2, [x0,20]
	.loc 1 742 0
	ldr	w4, [x0,12]
.LBE107:
.LBE106:
	.loc 1 654 0
	str	wzr, [x29,32]
.LVL106:
.LBB109:
.LBB108:
	.loc 1 742 0
	sub	w2, w2, w4
.LBE108:
.LBE109:
	.loc 1 655 0
	str	wzr, [x29,36]
.LVL107:
	.loc 1 668 0
	cmp	w1, w2
	bgt	.L111
	tbnz	w2, #31, .L111
	.loc 1 675 0
	add	x8, x29, 44
	str	x8, [sp]
	add	x8, x29, 48
	str	x8, [sp,8]
	add	x8, x29, 52
	add	x2, x29, 32
	add	x3, x29, 36
	add	x4, x29, 56
	add	x5, x29, 64
	add	x6, x29, 72
	add	x7, x29, 40
	str	x8, [sp,16]
	add	x8, x29, 80
	str	x8, [sp,24]
	bl	GetRawNumOffsert
.LVL108:
	.loc 1 678 0
	ldr	w1, [x29,32]
	mov	x0, x19
	bl	DeleteRawPacket
.LVL109:
.LBB110:
.LBB111:
	.loc 1 397 0
	ldr	w0, [x19]
	ldr	w1, [x19,4]
.LBE111:
.LBE110:
	.loc 1 679 0
	ldr	w2, [x29,36]
.LBB115:
.LBB112:
	.loc 1 397 0
	cmp	w0, w1
	beq	.L113
	.loc 1 404 0
	sxtw	x0, w0
	.loc 1 402 0
	ldr	w1, [x19,12]
	.loc 1 404 0
	lsl	x3, x0, 7
	sub	x0, x3, x0, lsl 5
	.loc 1 402 0
	add	w1, w2, w1
.LVL110:
	.loc 1 404 0
	add	x0, x19, x0
	ldr	w0, [x0,28]
	cmp	w1, w0
	blt	.L114
.LVL111:
.L111:
.LBE112:
.LBE115:
	.loc 1 652 0 discriminator 1
	mov	w0, -1
.L110:
	.loc 1 692 0
	ldr	x2, [x29,88]
	ldr	x1, [x20,#:lo12:__stack_chk_guard]
.LVL112:
	cmp	x2, x1
	bne	.L115
	sub	sp, x29, #32
	.cfi_remember_state
	.cfi_def_cfa 31, 128
	ldp	x19, x20, [sp,48]
	.cfi_restore 20
	.cfi_restore 19
.LVL113:
	ldp	x29, x30, [sp,32]
	.cfi_restore 30
	.cfi_restore 29
	add	sp, sp, 128
	.cfi_def_cfa_offset 0
	ret
.LVL114:
.L114:
	.cfi_restore_state
.LBB116:
.LBB113:
	.loc 1 409 0
	str	w1, [x19,12]
.LBE113:
.LBE116:
	.loc 1 691 0
	mov	w0, 0
	b	.L110
.LVL115:
.L113:
.LBB117:
.LBB114:
	.loc 1 399 0
	mov	w0, -3
	b	.L110
.L115:
.LBE114:
.LBE117:
	.loc 1 692 0
	bl	__stack_chk_fail
.LVL116:
	.cfi_endproc
.LFE2651:
	.size	DeleteRawLen, .-DeleteRawLen
	.align	2
	.global	DeleteLastSendRaw
	.type	DeleteLastSendRaw, %function
DeleteLastSendRaw:
.LFB2652:
	.loc 1 702 0
	.cfi_startproc
.LVL117:
	stp	x29, x30, [sp, -32]!
	.cfi_def_cfa_offset 32
	.cfi_offset 29, -32
	.cfi_offset 30, -24
	.loc 1 706 0
	cmp	w0, 31
	.loc 1 702 0
	add	x29, sp, 0
	.cfi_def_cfa_register 29
	str	x19, [sp,16]
	.cfi_offset 19, -16
	.loc 1 706 0
	bhi	.L116
	.loc 1 708 0
	adrp	x1, .LANCHOR0
	add	x1, x1, :lo12:.LANCHOR0
	add	x0, x1, x0, uxtw 3
.LVL118:
	ldr	x0, [x0,1880]
.LVL119:
	.loc 1 709 0
	cbz	x0, .L119
	.loc 1 715 0
	add	x19, x0, 188416
	ldr	w1, [x19,2232]
.LVL120:
	.loc 1 717 0
	cmp	w1, wzr
	ble	.L116
	.loc 1 719 0
	add	x0, x0, 104
.LVL121:
	bl	DeleteRawPacket
.LVL122:
	.loc 1 720 0
	str	wzr, [x19,2232]
.LVL123:
.L116:
	.loc 1 725 0
	ldr	x19, [sp,16]
	.cfi_remember_state
	.cfi_restore 19
	ldp	x29, x30, [sp], 32
	.cfi_restore 30
	.cfi_restore 29
	.cfi_def_cfa 31, 0
	ret
.LVL124:
.L119:
	.cfi_restore_state
.LBB120:
.LBB121:
	.loc 1 711 0
	adrp	x1, .LC6
	mov	w2, 711
	add	x1, x1, :lo12:.LC6
	bl	dprint_linux_kernel
.LVL125:
	b	.L116
.LBE121:
.LBE120:
	.cfi_endproc
.LFE2652:
	.size	DeleteLastSendRaw, .-DeleteLastSendRaw
	.align	2
	.global	GetRawStreamSize
	.type	GetRawStreamSize, %function
GetRawStreamSize:
.LFB2653:
	.loc 1 737 0
	.cfi_startproc
.LVL126:
	.loc 1 739 0
	cbz	x0, .L122
	.loc 1 741 0
	ldr	w2, [x0,20]
	str	w2, [x1]
	.loc 1 742 0
	ldr	w0, [x0,12]
.LVL127:
	sub	w0, w2, w0
	str	w0, [x1]
	.loc 1 743 0
	asr	w0, w0, 31
	.loc 1 745 0
	ret
.LVL128:
.L122:
	.loc 1 739 0 discriminator 1
	mov	w0, -1
.LVL129:
	.loc 1 745 0
	ret
	.cfi_endproc
.LFE2653:
	.size	GetRawStreamSize, .-GetRawStreamSize
	.align	2
	.global	GetRawStreamNum
	.type	GetRawStreamNum, %function
GetRawStreamNum:
.LFB2654:
	.loc 1 755 0
	.cfi_startproc
.LVL130:
	.loc 1 756 0
	cbz	x0, .L126
	.loc 1 758 0
	ldr	w2, [x0,4]
	ldr	w0, [x0]
.LVL131:
	.loc 1 760 0
	subs	w2, w2, w0
	bmi	.L125
	.loc 1 758 0
	str	w2, [x1]
	.loc 1 765 0
	mov	w0, 0
	.loc 1 766 0
	ret
.L125:
	.loc 1 762 0
	add	w2, w2, 1024
	.loc 1 765 0
	mov	w0, 0
	.loc 1 762 0
	str	w2, [x1]
	.loc 1 766 0
	ret
.LVL132:
.L126:
	.loc 1 756 0 discriminator 1
	mov	w0, -1
.LVL133:
	.loc 1 766 0
	ret
	.cfi_endproc
.LFE2654:
	.size	GetRawStreamNum, .-GetRawStreamNum
	.align	2
	.global	GetRawStreamNumInBuffer
	.type	GetRawStreamNumInBuffer, %function
GetRawStreamNumInBuffer:
.LFB2655:
	.loc 1 776 0
	.cfi_startproc
.LVL134:
	.loc 1 777 0
	cbz	x0, .L130
	.loc 1 779 0
	ldr	w2, [x0,4]
	ldr	w0, [x0,8]
.LVL135:
	.loc 1 781 0
	subs	w2, w2, w0
	bmi	.L129
	.loc 1 779 0
	str	w2, [x1]
	.loc 1 786 0
	mov	w0, 0
	.loc 1 787 0
	ret
.L129:
	.loc 1 783 0
	add	w2, w2, 1024
	.loc 1 786 0
	mov	w0, 0
	.loc 1 783 0
	str	w2, [x1]
	.loc 1 787 0
	ret
.LVL136:
.L130:
	.loc 1 777 0 discriminator 1
	mov	w0, -1
.LVL137:
	.loc 1 787 0
	ret
	.cfi_endproc
.LFE2655:
	.size	GetRawStreamNumInBuffer, .-GetRawStreamNumInBuffer
	.align	2
	.global	ConfigStreamSegArray
	.type	ConfigStreamSegArray, %function
ConfigStreamSegArray:
.LFB2656:
	.loc 1 803 0
	.cfi_startproc
.LVL138:
	stp	x29, x30, [sp, -48]!
	.cfi_def_cfa_offset 48
	.cfi_offset 29, -48
	.cfi_offset 30, -40
	add	x29, sp, 0
	.cfi_def_cfa_register 29
	stp	x19, x20, [sp,16]
	stp	x21, x22, [sp,32]
	.cfi_offset 19, -32
	.cfi_offset 20, -24
	.cfi_offset 21, -16
	.cfi_offset 22, -8
	.loc 1 803 0
	mov	x19, x0
	.loc 1 804 0
	cbz	x0, .L134
	cbz	w1, .L134
	.loc 1 804 0 is_stmt 0 discriminator 2
	cbz	x2, .L134
	mov	w4, 262143
	cmp	w3, w4
	bls	.L134
	mov	x21, x2
	.loc 1 807 0 is_stmt 1
	mov	x2, 26680
.LVL139:
	mov	w20, w1
	movk	x2, 0x1, lsl 16
	mov	w1, 0
.LVL140:
	mov	w22, w3
	bl	memset
.LVL141:
	.loc 1 809 0
	str	w20, [x19,16]
	.loc 1 810 0
	str	x21, [x19,48]
	.loc 1 815 0
	mov	w0, 0
	.loc 1 811 0
	str	w20, [x19,24]
	.loc 1 812 0
	str	w20, [x19,28]
	.loc 1 813 0
	str	w22, [x19,20]
	.loc 1 816 0
	ldp	x19, x20, [sp,16]
	.cfi_remember_state
	.cfi_restore 20
	.cfi_restore 19
.LVL142:
	ldp	x21, x22, [sp,32]
	.cfi_restore 22
	.cfi_restore 21
.LVL143:
	ldp	x29, x30, [sp], 48
	.cfi_restore 30
	.cfi_restore 29
	.cfi_def_cfa 31, 0
	ret
.LVL144:
.L134:
	.cfi_restore_state
	.loc 1 804 0 discriminator 3
	mov	w0, -1
.LVL145:
	.loc 1 816 0
	ldp	x19, x20, [sp,16]
	.cfi_restore 19
	.cfi_restore 20
.LVL146:
	ldp	x21, x22, [sp,32]
	.cfi_restore 21
	.cfi_restore 22
	ldp	x29, x30, [sp], 48
	.cfi_restore 29
	.cfi_restore 30
	.cfi_def_cfa 31, 0
	ret
	.cfi_endproc
.LFE2656:
	.size	ConfigStreamSegArray, .-ConfigStreamSegArray
	.align	2
	.global	ResetStreamSegArray
	.type	ResetStreamSegArray, %function
ResetStreamSegArray:
.LFB2657:
	.loc 1 825 0
	.cfi_startproc
.LVL147:
	stp	x29, x30, [sp, -32]!
	.cfi_def_cfa_offset 32
	.cfi_offset 29, -32
	.cfi_offset 30, -24
	add	x29, sp, 0
	.cfi_def_cfa_register 29
	str	x19, [sp,16]
	.cfi_offset 19, -16
	.loc 1 826 0
	cbz	x0, .L135
	.loc 1 828 0
	mov	x2, 26624
	mov	x19, x0
	movk	x2, 0x1, lsl 16
	add	x0, x0, 56
.LVL148:
	mov	w1, 0
	bl	memset
.LVL149:
	.loc 1 830 0
	str	wzr, [x19]
	.loc 1 833 0
	ldr	w0, [x19,16]
	.loc 1 831 0
	str	wzr, [x19,4]
	.loc 1 832 0
	str	wzr, [x19,8]
	.loc 1 833 0
	str	w0, [x19,24]
	.loc 1 834 0
	str	w0, [x19,28]
.L135:
	.loc 1 837 0
	ldr	x19, [sp,16]
	.cfi_restore 19
.LVL150:
	ldp	x29, x30, [sp], 32
	.cfi_restore 30
	.cfi_restore 29
	.cfi_def_cfa 31, 0
	ret
	.cfi_endproc
.LFE2657:
	.size	ResetStreamSegArray, .-ResetStreamSegArray
	.align	2
	.global	GetSegBuf
	.type	GetSegBuf, %function
GetSegBuf:
.LFB2658:
	.loc 1 849 0
	.cfi_startproc
.LVL151:
	.loc 1 850 0
	cmp	x1, xzr
	cset	w4, eq
.LBB124:
.LBB125:
	.loc 1 850 0 is_stmt 0 discriminator 1
	cmp	x2, xzr
	cset	w3, eq
	orr	w3, w4, w3
	cbnz	w3, .L140
	cbz	x0, .L140
	.loc 1 853 0 is_stmt 1
	ldr	w3, [x0,16]
	str	w3, [x1]
	.loc 1 854 0
	ldr	w0, [x0,20]
.LVL152:
	str	w0, [x2]
.LVL153:
.L140:
.LBE125:
.LBE124:
	.loc 1 857 0
	ret
	.cfi_endproc
.LFE2658:
	.size	GetSegBuf, .-GetSegBuf
	.align	2
	.global	GetFreeSegBuf
	.type	GetFreeSegBuf, %function
GetFreeSegBuf:
.LFB2659:
	.loc 1 870 0
	.cfi_startproc
.LVL154:
	.loc 1 873 0
	cmp	x1, xzr
	cset	w4, eq
	.loc 1 873 0 is_stmt 0 discriminator 1
	cmp	x2, xzr
	cset	w3, eq
	orr	w3, w4, w3
	cbnz	w3, .L142
	cbz	x0, .L142
.LBB128:
.LBB129:
	.loc 1 875 0 is_stmt 1
	ldr	w3, [x0,28]
	str	w3, [x1]
	.loc 1 876 0
	str	wzr, [x2]
	.loc 1 878 0
	ldr	w3, [x0,28]
	ldr	w1, [x0,24]
.LVL155:
	cmp	w3, w1
	bls	.L146
	.loc 1 880 0
	ldr	w0, [x0,20]
.LVL156:
	sub	w1, w1, #1
	add	w1, w1, w0
	sub	w1, w1, w3
.LVL157:
.L147:
	.loc 1 892 0
	cmp	w1, w0
	bgt	.L142
	.loc 1 894 0
	str	w1, [x2]
.LVL158:
.L142:
.LBE129:
.LBE128:
	.loc 1 897 0
	ret
.LVL159:
.L146:
.LBB131:
.LBB130:
	.loc 1 883 0
	bcs	.L148
	sub	w1, w1, #1
	ldr	w0, [x0,20]
.LVL160:
	.loc 1 885 0
	sub	w1, w1, w3
.LVL161:
	b	.L147
.LVL162:
.L148:
	.loc 1 889 0
	ldr	w0, [x0,20]
.LVL163:
	sub	w1, w0, #1
.LVL164:
	b	.L147
.LBE130:
.LBE131:
	.cfi_endproc
.LFE2659:
	.size	GetFreeSegBuf, .-GetFreeSegBuf
	.align	2
	.global	InsertStreamSeg
	.type	InsertStreamSeg, %function
InsertStreamSeg:
.LFB2660:
	.loc 1 910 0
	.cfi_startproc
.LVL165:
	.loc 1 914 0
	cbz	x0, .L152
	cbz	x1, .L152
	.loc 1 918 0
	ldr	w3, [x0,4]
	mov	w2, 36409
	movk	w2, 0x38e3, lsl 16
	ldr	w5, [x0]
	add	w4, w3, 1
	.loc 1 933 0
	mov	w7, -4
	.loc 1 918 0
	smull	x2, w4, w2
	lsr	x2, x2, 32
	asr	w2, w2, 8
	sub	w2, w2, w4, asr 31
	lsl	w6, w2, 10
	add	w2, w6, w2, lsl 7
	sub	w2, w4, w2
	cmp	w2, w5
	beq	.L151
	.loc 1 921 0
	sxtw	x3, w3
	.loc 1 925 0
	mov	w2, 36409
	.loc 1 921 0
	lsl	x6, x3, 6
	.loc 1 925 0
	movk	w2, 0x38e3, lsl 16
	.loc 1 921 0
	add	x3, x6, x3, lsl 4
	.loc 1 912 0
	mov	w7, 0
	.loc 1 921 0
	add	x6, x0, x3
	.loc 1 923 0
	mov	x3, x6
	.loc 1 921 0
	add	x6, x6, 56
	ldp	x4, x5, [x1]
	stp	x4, x5, [x6]
	ldp	x4, x5, [x1,16]
	stp	x4, x5, [x6,16]
	ldp	x4, x5, [x1,32]
	stp	x4, x5, [x6,32]
	ldp	x4, x5, [x1,48]
	stp	x4, x5, [x6,48]
	ldp	x4, x5, [x1,64]
	stp	x4, x5, [x6,64]
	.loc 1 922 0
	ldr	w6, [x0,4]
	.loc 1 925 0
	add	w5, w6, 1
	.loc 1 922 0
	sxtw	x4, w6
	lsl	x8, x4, 6
	.loc 1 925 0
	smull	x2, w5, w2
	.loc 1 922 0
	add	x4, x8, x4, lsl 4
	mov	w8, 1
	add	x4, x0, x4
	.loc 1 925 0
	lsr	x2, x2, 32
	asr	w2, w2, 8
	sub	w2, w2, w5, asr 31
	.loc 1 922 0
	strb	w8, [x4,56]
	.loc 1 925 0
	lsl	w4, w2, 10
	.loc 1 923 0
	str	w6, [x3,68]
	.loc 1 925 0
	add	w2, w4, w2, lsl 7
	sub	w2, w5, w2
	str	w2, [x0,4]
	.loc 1 927 0
	ldr	w5, [x0,32]
	.loc 1 926 0
	ldr	w3, [x1,8]
	ldr	w2, [x1,4]
	.loc 1 928 0
	ldr	w4, [x0,36]
	.loc 1 926 0
	add	w2, w3, w2
	str	w2, [x0,28]
	.loc 1 929 0
	ldr	w2, [x0,40]
	.loc 1 927 0
	ldr	w3, [x1,8]
	.loc 1 929 0
	add	w2, w2, 1
	.loc 1 927 0
	add	w3, w5, w3
	str	w3, [x0,32]
	.loc 1 928 0
	ldr	w1, [x1,8]
.LVL166:
	.loc 1 929 0
	str	w2, [x0,40]
	.loc 1 928 0
	add	w1, w4, w1
	str	w1, [x0,36]
.LVL167:
.L151:
	.loc 1 937 0
	mov	w0, w7
.LVL168:
	ret
.LVL169:
.L152:
	.loc 1 914 0 discriminator 1
	mov	w7, -1
	b	.L151
	.cfi_endproc
.LFE2660:
	.size	InsertStreamSeg, .-InsertStreamSeg
	.align	2
	.global	GetStreamSeg
	.type	GetStreamSeg, %function
GetStreamSeg:
.LFB2661:
	.loc 1 947 0
	.cfi_startproc
.LVL170:
	stp	x29, x30, [sp, -16]!
	.cfi_def_cfa_offset 16
	.cfi_offset 29, -16
	.cfi_offset 30, -8
	add	x29, sp, 0
	.cfi_def_cfa_register 29
	.loc 1 951 0
	cbz	x0, .L160
	cbz	x1, .L160
	.loc 1 954 0
	ldr	w2, [x0]
	.loc 1 956 0
	ldr	w5, [x0,4]
.LVL171:
	cmp	w2, w5
	beq	.L161
	.loc 1 960 0
	sxtw	x4, w2
.LVL172:
	lsl	x3, x4, 6
	b	.L159
.L158:
	.loc 1 967 0
	mov	w3, 36409
.LVL173:
	add	w4, w2, 1
	movk	w3, 0x38e3, lsl 16
	smull	x3, w4, w3
	lsr	x2, x3, 32
.LVL174:
	asr	w2, w2, 8
	sub	w2, w2, w4, asr 31
.LVL175:
	lsl	w3, w2, 10
	add	w2, w3, w2, lsl 7
.LVL176:
	sub	w2, w4, w2
.LVL177:
	.loc 1 956 0
	cmp	w2, w5
	.loc 1 960 0
	sxtw	x4, w2
.LVL178:
	lsl	x3, x4, 6
	.loc 1 956 0
	beq	.L161
.L159:
	.loc 1 960 0
	add	x3, x3, x4, lsl 4
	add	x3, x0, x3
	ldrsb	w3, [x3,56]
	cmp	w3, 1
	bne	.L158
	.loc 1 973 0
	lsl	x2, x4, 6
	mov	x6, x1
	add	x2, x2, x4, lsl 4
	mov	x5, x0
	add	x7, x0, x2
	.loc 1 981 0
	mov	w0, 26
.LVL179:
	.loc 1 974 0
	mov	x3, x7
	.loc 1 973 0
	add	x7, x7, 56
	.loc 1 974 0
	add	x4, x3, 48
.LVL180:
	.loc 1 973 0
	ldp	x2, x3, [x7]
	stp	x2, x3, [x1]
	.loc 1 981 0
	adrp	x1, .LC7
.LVL181:
	.loc 1 973 0
	ldp	x2, x3, [x7,16]
	stp	x2, x3, [x6,16]
	.loc 1 981 0
	add	x1, x1, :lo12:.LC7
	.loc 1 973 0
	ldp	x2, x3, [x7,32]
	stp	x2, x3, [x6,32]
	ldp	x2, x3, [x7,48]
	stp	x2, x3, [x6,48]
	ldp	x2, x3, [x7,64]
	stp	x2, x3, [x6,64]
	.loc 1 974 0
	mov	w2, 2
	strb	w2, [x4,8]
	.loc 1 976 0
	ldr	w7, [x4,16]
	ldr	w6, [x5,36]
.LVL182:
	.loc 1 977 0
	ldr	w2, [x5,40]
	.loc 1 981 0
	mov	w3, w7
	.loc 1 978 0
	subs	w6, w6, w7
	csel	w6, w6, wzr, pl
	.loc 1 979 0
	subs	w2, w2, #1
	.loc 1 978 0
	str	w6, [x5,36]
	.loc 1 979 0
	csel	w2, w2, wzr, pl
	str	w2, [x5,40]
	.loc 1 981 0
	ldr	w2, [x4,12]
	ldrb	w4, [x4,9]
	bl	dprint_linux_kernel
.LVL183:
	.loc 1 982 0
	mov	w0, 0
.LVL184:
.L155:
	.loc 1 990 0
	ldp	x29, x30, [sp], 16
	.cfi_remember_state
	.cfi_restore 30
	.cfi_restore 29
	.cfi_def_cfa 31, 0
	ret
.LVL185:
.L161:
	.cfi_restore_state
	.loc 1 986 0
	mov	w0, -3
.LVL186:
	.loc 1 990 0
	ldp	x29, x30, [sp], 16
	.cfi_remember_state
	.cfi_restore 29
	.cfi_restore 30
	.cfi_def_cfa 31, 0
	ret
.LVL187:
.L160:
	.cfi_restore_state
	.loc 1 951 0 discriminator 1
	mov	w0, -1
.LVL188:
	b	.L155
	.cfi_endproc
.LFE2661:
	.size	GetStreamSeg, .-GetStreamSeg
	.align	2
	.global	ReleaseStreamSeg
	.type	ReleaseStreamSeg, %function
ReleaseStreamSeg:
.LFB2662:
	.loc 1 1004 0
	.cfi_startproc
.LVL189:
	stp	x29, x30, [sp, -80]!
	.cfi_def_cfa_offset 80
	.cfi_offset 29, -80
	.cfi_offset 30, -72
	add	x29, sp, 0
	.cfi_def_cfa_register 29
	stp	x19, x20, [sp,16]
	stp	x23, x24, [sp,48]
	stp	x21, x22, [sp,32]
	str	x25, [sp,64]
	.cfi_offset 19, -64
	.cfi_offset 20, -56
	.cfi_offset 23, -32
	.cfi_offset 24, -24
	.cfi_offset 21, -48
	.cfi_offset 22, -40
	.cfi_offset 25, -16
	.loc 1 1004 0
	mov	x23, x0
	mov	w20, w1
	.loc 1 1009 0
	cbz	x0, .L185
	.loc 1 1009 0 is_stmt 0 discriminator 2
	sub	w0, w1, #1152
	cmn	w0, #1154
	bls	.L185
	.loc 1 1012 0 is_stmt 1
	cmn	w1, #1
	beq	.L204
	.loc 1 1028 0
	ldr	w0, [x23]
	.loc 1 1030 0
	ldr	w3, [x23,4]
	cmp	w0, w3
	bne	.L201
	b	.L190
.L176:
	.loc 1 1043 0
	mov	w19, 36409
	add	w1, w0, 1
	movk	w19, 0x38e3, lsl 16
	umull	x19, w1, w19
	lsr	x0, x19, 32
	lsr	w0, w0, 8
	lsl	w2, w0, 10
	add	w0, w2, w0, lsl 7
	sub	w0, w1, w0
	.loc 1 1030 0
	cmp	w0, w3
	beq	.L190
.LVL190:
.L201:
	.loc 1 1034 0
	cmp	w20, w0
	bne	.L176
	.loc 1 1036 0
	uxtw	x19, w0
	.loc 1 1090 0
	mov	w0, -3
	.loc 1 1036 0
	lsl	x1, x19, 6
	add	x19, x1, x19, lsl 4
	add	x1, x23, x19
	ldrsb	w1, [x1,56]
	cmp	w1, 2
	beq	.L205
.L196:
	.loc 1 1094 0
	ldp	x19, x20, [sp,16]
	.cfi_remember_state
	.cfi_restore 20
	.cfi_restore 19
.LVL191:
	ldp	x21, x22, [sp,32]
	.cfi_restore 22
	.cfi_restore 21
	ldp	x23, x24, [sp,48]
	.cfi_restore 24
	.cfi_restore 23
.LVL192:
	ldr	x25, [sp,64]
	.cfi_restore 25
	ldp	x29, x30, [sp], 80
	.cfi_restore 30
	.cfi_restore 29
	.cfi_def_cfa 31, 0
	ret
.LVL193:
.L190:
	.cfi_restore_state
	.loc 1 1090 0
	mov	w0, -3
	.loc 1 1094 0
	ldr	x25, [sp,64]
	.cfi_remember_state
	.cfi_restore 25
	ldp	x19, x20, [sp,16]
	.cfi_restore 19
	.cfi_restore 20
.LVL194:
	ldp	x21, x22, [sp,32]
	.cfi_restore 21
	.cfi_restore 22
	ldp	x23, x24, [sp,48]
	.cfi_restore 23
	.cfi_restore 24
.LVL195:
	ldp	x29, x30, [sp], 80
	.cfi_restore 29
	.cfi_restore 30
	.cfi_def_cfa 31, 0
	ret
.LVL196:
.L204:
	.cfi_restore_state
	.loc 1 1014 0
	ldr	w20, [x23]
	.loc 1 1090 0
	mov	w0, -3
	.loc 1 1014 0
	ldr	w1, [x23,4]
.LVL197:
	cmp	w20, w1
	beq	.L196
	.loc 1 1016 0
	sxtw	x19, w20
	.loc 1 1018 0
	adrp	x1, .LC8
	.loc 1 1016 0
	lsl	x24, x19, 6
	.loc 1 1018 0
	mov	w0, 0
	.loc 1 1016 0
	add	x24, x24, x19, lsl 4
	.loc 1 1018 0
	add	x1, x1, :lo12:.LC8
	.loc 1 1016 0
	add	x19, x23, x24
.LVL198:
	.loc 1 1018 0
	mov	w2, w20
	.loc 1 1019 0 discriminator 1
	add	x24, x23, x24
	.loc 1 1016 0
	add	x19, x19, 56
.LVL199:
	.loc 1 1018 0
	bl	dprint_linux_kernel
.LVL200:
	.loc 1 1019 0 discriminator 3
	ldr	w0, [x24,64]
	cbz	w0, .L173
	.loc 1 1021 0
	adrp	x25, .LC10
	.loc 1 1019 0 discriminator 3
	mov	x22, 0
	mov	w21, 0
	.loc 1 1021 0
	add	x25, x25, :lo12:.LC10
	b	.L170
.L206:
	.loc 1 1019 0 discriminator 3
	cmp	w21, 16
	beq	.L173
.L170:
	.loc 1 1021 0
	ldr	x2, [x24,120]
	mov	w0, 0
	mov	x1, x25
	.loc 1 1019 0 discriminator 4
	add	w21, w21, 1
	.loc 1 1021 0
	ldrb	w2, [x2,x22]
	add	x22, x22, 1
	bl	dprint_linux_kernel
.LVL201:
	.loc 1 1019 0 discriminator 1
	ldr	w0, [x24,64]
	.loc 1 1019 0 is_stmt 0 discriminator 3
	cmp	w0, w21
	bhi	.L206
.L173:
	.loc 1 1023 0 is_stmt 1
	adrp	x1, .LC9
	mov	w0, 0
	add	x1, x1, :lo12:.LC9
	bl	dprint_linux_kernel
.LVL202:
.L171:
	.loc 1 1052 0
	ldr	w2, [x19,4]
	adrp	x1, .LC12
	ldr	w3, [x19,8]
	mov	w0, 26
	ldrb	w4, [x19,1]
	add	x1, x1, :lo12:.LC12
	.loc 1 1050 0
	strb	wzr, [x19]
	.loc 1 1052 0
	mov	w5, w20
	bl	dprint_linux_kernel
.LVL203:
	.loc 1 1053 0
	ldr	w0, [x23]
	cmp	w0, w20
	beq	.L207
.L180:
	.loc 1 1082 0
	ldr	w1, [x23,32]
	.loc 1 1085 0
	mov	w0, 0
	.loc 1 1082 0
	ldr	w2, [x19,8]
	.loc 1 1083 0
	subs	w1, w1, w2
	csel	w1, w1, wzr, pl
	str	w1, [x23,32]
	.loc 1 1094 0
	ldp	x19, x20, [sp,16]
	.cfi_remember_state
	.cfi_restore 19
	.cfi_restore 20
.LVL204:
	ldp	x21, x22, [sp,32]
	.cfi_restore 21
	.cfi_restore 22
	ldp	x23, x24, [sp,48]
	.cfi_restore 23
	.cfi_restore 24
.LVL205:
	ldr	x25, [sp,64]
	.cfi_restore 25
	ldp	x29, x30, [sp], 80
	.cfi_restore 29
	.cfi_restore 30
	.cfi_def_cfa 31, 0
	ret
.LVL206:
.L207:
	.cfi_restore_state
	.loc 1 1059 0
	adrp	x21, .LANCHOR1
	adrp	x22, .LC11
	add	x21, x21, :lo12:.LANCHOR1
	add	x22, x22, :lo12:.LC11
	add	x21, x21, 16
	b	.L181
.L178:
	.loc 1 1063 0
	ldr	w1, [x23,4]
	.loc 1 1069 0 discriminator 1
	add	x0, x23, x0
	add	x0, x0, 48
	.loc 1 1063 0
	cmp	w1, w20
	beq	.L182
	.loc 1 1069 0 discriminator 1
	ldrsb	w1, [x0,8]
	cbnz	w1, .L208
.L191:
	.loc 1 1077 0
	mov	w1, 36409
	add	w0, w20, 1
	movk	w1, 0x38e3, lsl 16
	umull	x1, w0, w1
	lsr	x20, x1, 32
.LVL207:
	lsr	w20, w20, 8
.LVL208:
	lsl	w1, w20, 10
	add	w20, w1, w20, lsl 7
.LVL209:
	sub	w20, w0, w20
.LVL210:
.L181:
	.loc 1 1069 0 discriminator 1
	uxtw	x0, w20
.LVL211:
	.loc 1 1057 0
	cmp	w20, 1151
	.loc 1 1069 0 discriminator 1
	lsl	x1, x0, 6
	add	x0, x1, x0, lsl 4
.LVL212:
	.loc 1 1057 0
	bls	.L178
	.loc 1 1059 0
	mov	x1, x22
	mov	x2, x21
	mov	w0, 1
	bl	dprint_linux_kernel
.LVL213:
	.loc 1 1063 0
	ldr	w1, [x23,4]
	cmp	w1, w20
	bne	.L191
.L182:
	.loc 1 1066 0
	ldr	w0, [x23,28]
	.loc 1 1065 0
	str	w1, [x23]
	.loc 1 1066 0
	str	w0, [x23,24]
	.loc 1 1067 0
	b	.L180
.LVL214:
.L205:
	.loc 1 1038 0
	add	x0, x23, x19
	add	x19, x0, 56
.LVL215:
	b	.L171
.L208:
	.loc 1 1071 0
	str	w20, [x23]
	.loc 1 1072 0
	ldr	w0, [x0,12]
	str	w0, [x23,24]
	.loc 1 1073 0
	b	.L180
.LVL216:
.L185:
	.loc 1 1009 0 discriminator 3
	mov	w0, -1
	b	.L196
	.cfi_endproc
.LFE2662:
	.size	ReleaseStreamSeg, .-ReleaseStreamSeg
	.align	2
	.global	GetSegStreamSize
	.type	GetSegStreamSize, %function
GetSegStreamSize:
.LFB2663:
	.loc 1 1105 0
	.cfi_startproc
.LVL217:
	.loc 1 1107 0
	cbz	x0, .L211
	.loc 1 1108 0
	ldr	w2, [x0,32]
	.loc 1 1111 0
	mov	w0, 0
.LVL218:
	.loc 1 1108 0
	str	w2, [x1]
	.loc 1 1112 0
	ret
.LVL219:
.L211:
	.loc 1 1107 0 discriminator 1
	mov	w0, -1
.LVL220:
	.loc 1 1112 0
	ret
	.cfi_endproc
.LFE2663:
	.size	GetSegStreamSize, .-GetSegStreamSize
	.align	2
	.global	GetSegStreamNum
	.type	GetSegStreamNum, %function
GetSegStreamNum:
.LFB2664:
	.loc 1 1121 0
	.cfi_startproc
.LVL221:
	.loc 1 1125 0
	cbz	x0, .L215
	.loc 1 1127 0
	ldr	w2, [x0,4]
	ldr	w0, [x0]
.LVL222:
	.loc 1 1129 0
	subs	w2, w2, w0
	bmi	.L214
	.loc 1 1127 0
	str	w2, [x1]
	.loc 1 1133 0
	mov	w0, 0
	.loc 1 1134 0
	ret
.L214:
	.loc 1 1131 0
	add	w2, w2, 1152
	.loc 1 1133 0
	mov	w0, 0
	.loc 1 1131 0
	str	w2, [x1]
	.loc 1 1134 0
	ret
.LVL223:
.L215:
	.loc 1 1125 0 discriminator 1
	mov	w0, -1
.LVL224:
	.loc 1 1134 0
	ret
	.cfi_endproc
.LFE2664:
	.size	GetSegStreamNum, .-GetSegStreamNum
	.align	2
	.global	GetFreshSegStream
	.type	GetFreshSegStream, %function
GetFreshSegStream:
.LFB2665:
	.loc 1 1143 0
	.cfi_startproc
.LVL225:
	.loc 1 1144 0
	cbz	x0, .L216
	.loc 1 1146 0
	ldr	w3, [x0,40]
	str	w3, [x1]
	.loc 1 1147 0
	ldr	w0, [x0,36]
.LVL226:
	str	w0, [x2]
.LVL227:
.L216:
	.loc 1 1150 0
	ret
	.cfi_endproc
.LFE2665:
	.size	GetFreshSegStream, .-GetFreshSegStream
	.align	2
	.global	SCDDRV_PrepareSleep
	.type	SCDDRV_PrepareSleep, %function
SCDDRV_PrepareSleep:
.LFB2666:
	.loc 1 1154 0
	.cfi_startproc
	.loc 1 1157 0
	adrp	x1, .LANCHOR0
	add	x1, x1, :lo12:.LANCHOR0
	ldr	w0, [x1,2152]
	cbnz	w0, .L224
	.loc 1 1159 0
	ldr	w0, [x1,2144]
	cbz	w0, .L225
	.loc 1 1165 0
	mov	w2, 1
	.loc 1 1168 0
	mov	w0, 0
.LVL228:
	.loc 1 1165 0
	str	w2, [x1,2152]
.LVL229:
	.loc 1 1176 0
	ret
.L225:
	.loc 1 1161 0
	mov	w2, 2
	str	w2, [x1,2152]
	.loc 1 1176 0
	ret
.L224:
	.loc 1 1172 0
	mov	w0, -1
.LVL230:
.LVL231:
	.loc 1 1176 0
	ret
	.cfi_endproc
.LFE2666:
	.size	SCDDRV_PrepareSleep, .-SCDDRV_PrepareSleep
	.align	2
	.global	SCDDRV_GetSleepStage
	.type	SCDDRV_GetSleepStage, %function
SCDDRV_GetSleepStage:
.LFB2667:
	.loc 1 1180 0
	.cfi_startproc
	.loc 1 1181 0
	adrp	x0, .LANCHOR0+2152
	.loc 1 1182 0
	ldr	w0, [x0,#:lo12:.LANCHOR0+2152]
	ret
	.cfi_endproc
.LFE2667:
	.size	SCDDRV_GetSleepStage, .-SCDDRV_GetSleepStage
	.align	2
	.global	SCDDRV_ForceSleep
	.type	SCDDRV_ForceSleep, %function
SCDDRV_ForceSleep:
.LFB2668:
	.loc 1 1186 0
	.cfi_startproc
	.loc 1 1187 0
	adrp	x0, .LANCHOR0
	add	x0, x0, :lo12:.LANCHOR0
	ldr	w1, [x0,2152]
	cmp	w1, 2
	beq	.L227
	.loc 1 1189 0
	mov	w1, 2
	str	w1, [x0,2152]
.L227:
	.loc 1 1193 0
	ret
	.cfi_endproc
.LFE2668:
	.size	SCDDRV_ForceSleep, .-SCDDRV_ForceSleep
	.align	2
	.global	SCDDRV_ExitSleep
	.type	SCDDRV_ExitSleep, %function
SCDDRV_ExitSleep:
.LFB2669:
	.loc 1 1197 0
	.cfi_startproc
	.loc 1 1198 0
	adrp	x0, g_vdm_hal_fun_ptr+16
	.loc 1 1197 0
	stp	x29, x30, [sp, -16]!
	.cfi_def_cfa_offset 16
	.cfi_offset 29, -16
	.cfi_offset 30, -8
	add	x29, sp, 0
	.cfi_def_cfa_register 29
	.loc 1 1198 0
	ldr	x0, [x0,#:lo12:g_vdm_hal_fun_ptr+16]
	blr	x0
.LVL232:
	.loc 1 1199 0
	adrp	x0, .LANCHOR0+2152
	.loc 1 1201 0
	ldp	x29, x30, [sp], 16
	.cfi_restore 30
	.cfi_restore 29
	.cfi_def_cfa 31, 0
	.loc 1 1199 0
	str	wzr, [x0,#:lo12:.LANCHOR0+2152]
	.loc 1 1201 0
	ret
	.cfi_endproc
.LFE2669:
	.size	SCDDRV_ExitSleep, .-SCDDRV_ExitSleep
	.align	2
	.global	SM_ClearInst
	.type	SM_ClearInst, %function
SM_ClearInst:
.LFB2671:
	.loc 1 1273 0
	.cfi_startproc
.LVL233:
	stp	x29, x30, [sp, -32]!
	.cfi_def_cfa_offset 32
	.cfi_offset 29, -32
	.cfi_offset 30, -24
	.loc 1 1274 0
	cmp	w0, 31
	.loc 1 1273 0
	add	x29, sp, 0
	.cfi_def_cfa_register 29
	str	x19, [sp,16]
	.cfi_offset 19, -16
	.loc 1 1274 0
	bhi	.L235
	.loc 1 1277 0
	sxtw	x0, w0
	adrp	x19, .LANCHOR0
	add	x0, x0, 234
.LVL234:
	add	x19, x19, :lo12:.LANCHOR0
	mov	x2, 9240
	mov	w1, 0
	add	x19, x19, x0, lsl 3
	movk	x2, 0x3, lsl 16
	ldr	x0, [x19,8]
	bl	memset
.LVL235:
	.loc 1 1278 0
	ldr	x1, [x19,8]
	mov	x2, -1
	.loc 1 1280 0
	mov	w0, 0
	.loc 1 1278 0
	add	x1, x1, 200704
	str	x2, [x1,3936]
.L234:
	.loc 1 1281 0
	ldr	x19, [sp,16]
	.cfi_remember_state
	.cfi_restore 19
	ldp	x29, x30, [sp], 32
	.cfi_restore 30
	.cfi_restore 29
	.cfi_def_cfa 31, 0
	ret
.LVL236:
.L235:
	.cfi_restore_state
	.loc 1 1274 0 discriminator 1
	mov	w0, -1
.LVL237:
	b	.L234
	.cfi_endproc
.LFE2671:
	.size	SM_ClearInst, .-SM_ClearInst
	.align	2
	.global	SM_AllocDSPCtxMem
	.type	SM_AllocDSPCtxMem, %function
SM_AllocDSPCtxMem:
.LFB2672:
	.loc 1 1287 0
	.cfi_startproc
.LVL238:
	stp	x29, x30, [sp, -96]!
	.cfi_def_cfa_offset 96
	.cfi_offset 29, -96
	.cfi_offset 30, -88
	.loc 1 1302 0
	mov	w1, 9248
	mov	w3, 0
	.loc 1 1287 0
	add	x29, sp, 0
	.cfi_def_cfa_register 29
	stp	x21, x22, [sp,32]
	.cfi_offset 21, -64
	.cfi_offset 22, -56
	adrp	x22, __stack_chk_guard
	.loc 1 1302 0
	add	x2, x29, 64
	.loc 1 1287 0
	stp	x19, x20, [sp,16]
	.cfi_offset 19, -80
	.cfi_offset 20, -72
	mov	w19, w0
	.loc 1 1302 0
	adrp	x0, .LC13
.LVL239:
	.loc 1 1287 0
	ldr	x4, [x22,#:lo12:__stack_chk_guard]
	.loc 1 1302 0
	add	x0, x0, :lo12:.LC13
	.loc 1 1287 0
	stp	x23, x24, [sp,48]
	.cfi_offset 23, -48
	.cfi_offset 24, -40
	.loc 1 1287 0
	str	x4, [x29,88]
	.loc 1 1300 0
	stp	xzr, xzr, [x29,64]
	str	xzr, [x29,80]
	.loc 1 1302 0
	bl	MEM_AllocMemBlock
.LVL240:
	cbnz	w0, .L237
	.loc 1 1304 0
	ldr	w0, [x29,64]
	ldr	x1, [x29,80]
	ldr	w2, [x29,68]
	bl	MEM_AddMemRecord
.LVL241:
	mov	w21, w0
	cbnz	w0, .L244
	.loc 1 1316 0
	sxtw	x0, w19
.LVL242:
	adrp	x20, .LANCHOR0
	lsl	x1, x0, 6
	add	x20, x20, :lo12:.LANCHOR0
	sub	x0, x1, x0, lsl 3
.LVL243:
	.loc 1 1317 0
	ldr	w19, [x29,64]
	.loc 1 1316 0
	add	x2, x20, x0
	ldr	x3, [x29,80]
	.loc 1 1320 0
	mov	x20, x2
	.loc 1 1316 0
	add	x2, x2, 120
	.loc 1 1320 0
	add	x23, x20, 80
.LVL244:
	.loc 1 1318 0
	add	w1, w19, 15
	.loc 1 1316 0
	ldp	x4, x5, [x29,64]
	.loc 1 1318 0
	and	w1, w1, -16
	.loc 1 1316 0
	str	x3, [x2,16]
	stp	x4, x5, [x2]
	.loc 1 1321 0
	mov	w0, w1
	.loc 1 1320 0
	str	w1, [x23,16]
	.loc 1 1318 0
	sub	w24, w1, w19
	.loc 1 1321 0
	bl	MEM_Phy2Vir
.LVL245:
	str	x0, [x23,8]
	.loc 1 1322 0
	cbz	x0, .L245
	.loc 1 1327 0
	mov	w3, 1024
	.loc 1 1328 0
	mov	w1, 0
	mov	x2, 1024
	.loc 1 1327 0
	str	w3, [x23,20]
	.loc 1 1331 0
	add	x20, x20, 96
	.loc 1 1329 0
	add	w24, w24, 1024
	.loc 1 1328 0
	bl	memset
.LVL246:
	.loc 1 1331 0
	add	w19, w24, w19
.LVL247:
	.loc 1 1332 0
	mov	w0, w19
	.loc 1 1331 0
	str	w19, [x20,16]
	.loc 1 1332 0
	bl	MEM_Phy2Vir
.LVL248:
	str	x0, [x20,8]
	.loc 1 1333 0
	cbz	x0, .L246
	.loc 1 1338 0
	mov	w3, 8192
	.loc 1 1339 0
	mov	w1, 0
	mov	x2, 8192
	.loc 1 1338 0
	str	w3, [x20,20]
	.loc 1 1339 0
	bl	memset
.LVL249:
.L239:
	.loc 1 1344 0
	ldr	x2, [x29,88]
	mov	w0, w21
	ldr	x1, [x22,#:lo12:__stack_chk_guard]
	cmp	x2, x1
	bne	.L247
	ldp	x19, x20, [sp,16]
	.cfi_remember_state
	.cfi_restore 20
	.cfi_restore 19
.LVL250:
	ldp	x21, x22, [sp,32]
	.cfi_restore 22
	.cfi_restore 21
	ldp	x23, x24, [sp,48]
	.cfi_restore 24
	.cfi_restore 23
	ldp	x29, x30, [sp], 96
	.cfi_restore 30
	.cfi_restore 29
	.cfi_def_cfa 31, 0
	ret
.LVL251:
.L237:
	.cfi_restore_state
	.loc 1 1312 0
	adrp	x1, .LC15
	mov	w0, 0
	add	x1, x1, :lo12:.LC15
.LVL252:
.L243:
	.loc 1 1324 0
	adrp	x2, .LANCHOR1
	.loc 1 1325 0
	mov	w21, -7
	.loc 1 1324 0
	add	x2, x2, :lo12:.LANCHOR1
	add	x2, x2, 40
	bl	dprint_linux_kernel
.LVL253:
	.loc 1 1325 0
	b	.L239
.LVL254:
.L244:
	.loc 1 1306 0
	adrp	x2, .LANCHOR1
	adrp	x1, .LC14
	add	x2, x2, :lo12:.LANCHOR1
	add	x1, x1, :lo12:.LC14
	add	x2, x2, 40
	mov	w3, 1306
	mov	w0, 1
	.loc 1 1307 0
	mov	w21, -7
	.loc 1 1306 0
	bl	dprint_linux_kernel
.LVL255:
	.loc 1 1307 0
	b	.L239
.LVL256:
.L245:
	.loc 1 1324 0
	adrp	x1, .LC16
	mov	w0, 0
	add	x1, x1, :lo12:.LC16
	b	.L243
.LVL257:
.L246:
	.loc 1 1335 0
	adrp	x1, .LC17
	mov	w0, 0
	add	x1, x1, :lo12:.LC17
	b	.L243
.LVL258:
.L247:
	.loc 1 1344 0
	bl	__stack_chk_fail
.LVL259:
	.cfi_endproc
.LFE2672:
	.size	SM_AllocDSPCtxMem, .-SM_AllocDSPCtxMem
	.align	2
	.global	SM_DeletDSPCtxMem
	.type	SM_DeletDSPCtxMem, %function
SM_DeletDSPCtxMem:
.LFB2673:
	.loc 1 1351 0
	.cfi_startproc
.LVL260:
	stp	x29, x30, [sp, -32]!
	.cfi_def_cfa_offset 32
	.cfi_offset 29, -32
	.cfi_offset 30, -24
	add	x29, sp, 0
	.cfi_def_cfa_register 29
	str	x19, [sp,16]
	.cfi_offset 19, -16
	.loc 1 1351 0
	mov	x19, x0
	.loc 1 1353 0
	ldr	w0, [x0]
.LVL261:
	cbnz	w0, .L251
	.loc 1 1359 0
	adrp	x1, .LC18
	mov	w0, 0
	add	x1, x1, :lo12:.LC18
	bl	dprint_linux_kernel
.LVL262:
	.loc 1 1362 0
	ldr	x1, [x19,16]
	ldr	w2, [x19,4]
	ldr	w0, [x19]
	bl	MEM_DelMemRecord
.LVL263:
	.loc 1 1365 0
	ldr	x19, [sp,16]
	.cfi_remember_state
	.cfi_restore 19
.LVL264:
	ldp	x29, x30, [sp], 32
	.cfi_restore 30
	.cfi_restore 29
	.cfi_def_cfa 31, 0
	ret
.LVL265:
.L251:
	.cfi_restore_state
	.loc 1 1355 0
	ldr	x1, [x19,16]
	bl	MEM_ReleaseMemBlock
.LVL266:
	.loc 1 1362 0
	ldr	x1, [x19,16]
	ldr	w2, [x19,4]
	ldr	w0, [x19]
	bl	MEM_DelMemRecord
.LVL267:
	.loc 1 1365 0
	ldr	x19, [sp,16]
	.cfi_restore 19
.LVL268:
	ldp	x29, x30, [sp], 32
	.cfi_restore 29
	.cfi_restore 30
	.cfi_def_cfa 31, 0
	ret
	.cfi_endproc
.LFE2673:
	.size	SM_DeletDSPCtxMem, .-SM_DeletDSPCtxMem
	.align	2
	.global	SM_OpenSCDDrv
	.type	SM_OpenSCDDrv, %function
SM_OpenSCDDrv:
.LFB2674:
	.loc 1 1370 0
	.cfi_startproc
.LVL269:
	stp	x29, x30, [sp, -64]!
	.cfi_def_cfa_offset 64
	.cfi_offset 29, -64
	.cfi_offset 30, -56
	add	x29, sp, 0
	.cfi_def_cfa_register 29
	stp	x21, x22, [sp,32]
	stp	x19, x20, [sp,16]
	str	x23, [sp,48]
	.cfi_offset 21, -32
	.cfi_offset 22, -24
	.cfi_offset 19, -48
	.cfi_offset 20, -40
	.cfi_offset 23, -16
	.loc 1 1370 0
	mov	x22, x0
	.loc 1 1374 0
	cbz	x0, .L260
	.loc 1 1379 0
	ldr	w20, [x0]
	.loc 1 1381 0
	adrp	x0, g_vdm_hal_fun_ptr+16
	.loc 1 1383 0
	adrp	x23, .LANCHOR0
	add	x19, x23, :lo12:.LANCHOR0
	.loc 1 1381 0
	ldr	x0, [x0,#:lo12:g_vdm_hal_fun_ptr+16]
	blr	x0
.LVL270:
	.loc 1 1383 0
	ldr	w0, [x19,2136]
	cmp	w0, 1
	beq	.L261
	.loc 1 1389 0
	mov	w1, 0
	mov	x2, 2152
	mov	x0, x19
	bl	memset
.LVL271:
	.loc 1 1395 0
	str	w20, [x23,#:lo12:.LANCHOR0]
	.loc 1 1393 0
	add	w1, w20, 15
	.loc 1 1396 0
	ldr	w2, [x22,4]
	.loc 1 1393 0
	and	w1, w1, -16
	.loc 1 1396 0
	str	w2, [x19,4]
	.loc 1 1399 0
	mov	w0, w1
	.loc 1 1393 0
	sub	w21, w1, w20
	add	w20, w20, 12288
.LVL272:
	.loc 1 1398 0
	str	w1, [x19,16]
	.loc 1 1403 0
	add	w20, w20, w21
	.loc 1 1390 0
	str	wzr, [x19,2152]
	.loc 1 1399 0
	bl	MEM_Phy2Vir
.LVL273:
	str	x0, [x19,8]
	.loc 1 1400 0
	mov	w1, 12288
	.loc 1 1404 0
	mov	w0, w20
	.loc 1 1400 0
	str	w1, [x19,20]
	.loc 1 1403 0
	str	w20, [x19,32]
	.loc 1 1404 0
	bl	MEM_Phy2Vir
.LVL274:
	str	x0, [x19,24]
	mov	x5, x0
	.loc 1 1405 0
	mov	w0, 9216
	str	w0, [x19,36]
	.loc 1 1406 0
	add	w2, w21, 20480
	ldr	x4, [x19,8]
	.loc 1 1459 0
	ldr	w3, [x22,4]
	.loc 1 1406 0
	add	w2, w2, 1024
.LVL275:
	.loc 1 1459 0
	cmp	w2, w3
	bgt	.L257
	.loc 1 1460 0
	cbz	x5, .L257
	cbz	x4, .L257
	.loc 1 1467 0
	mov	w1, 1
	.loc 1 1470 0
	mov	w0, 0
	.loc 1 1467 0
	str	w1, [x19,2136]
.L254:
	.loc 1 1471 0
	ldp	x19, x20, [sp,16]
	.cfi_remember_state
	.cfi_restore 20
	.cfi_restore 19
	ldp	x21, x22, [sp,32]
	.cfi_restore 22
	.cfi_restore 21
.LVL276:
	ldr	x23, [sp,48]
	.cfi_restore 23
	ldp	x29, x30, [sp], 64
	.cfi_restore 30
	.cfi_restore 29
	.cfi_def_cfa 31, 0
	ret
.LVL277:
.L257:
	.cfi_restore_state
	.loc 1 1462 0
	adrp	x1, .LC21
	mov	w0, 0
	add	x1, x1, :lo12:.LC21
	bl	dprint_linux_kernel
.LVL278:
	.loc 1 1463 0
	mov	w0, -7
	b	.L254
.L261:
	.loc 1 1385 0
	adrp	x1, .LC20
	mov	w0, 0
	add	x1, x1, :lo12:.LC20
	bl	dprint_linux_kernel
.LVL279:
	.loc 1 1386 0
	mov	w0, -7
	b	.L254
.LVL280:
.L260:
	.loc 1 1376 0
	adrp	x2, .LANCHOR1
	adrp	x1, .LC19
	add	x2, x2, :lo12:.LANCHOR1
	mov	w0, 0
.LVL281:
	add	x1, x1, :lo12:.LC19
	add	x2, x2, 64
	bl	dprint_linux_kernel
.LVL282:
	.loc 1 1377 0
	mov	w0, -7
	b	.L254
	.cfi_endproc
.LFE2674:
	.size	SM_OpenSCDDrv, .-SM_OpenSCDDrv
	.align	2
	.global	SM_CloseSCDDrv
	.type	SM_CloseSCDDrv, %function
SM_CloseSCDDrv:
.LFB2675:
	.loc 1 1475 0
	.cfi_startproc
	adrp	x0, .LANCHOR0
	add	x4, x0, :lo12:.LANCHOR0
	stp	x29, x30, [sp, -16]!
	.cfi_def_cfa_offset 16
	.cfi_offset 29, -16
	.cfi_offset 30, -8
	add	x1, x4, 1880
	add	x4, x4, 2136
	add	x29, sp, 0
	.cfi_def_cfa_register 29
.L264:
.LBB136:
.LBB137:
	.loc 1 1733 0
	ldr	x2, [x1]
	.loc 1 1734 0
	add	x3, x2, 188416
	.loc 1 1733 0
	cbz	x2, .L266
	.loc 1 1734 0
	ldr	w2, [x3,2388]
	cbz	w2, .L266
	.loc 1 1739 0
	str	wzr, [x3,2388]
.L266:
	add	x1, x1, 8
.LBE137:
.LBE136:
	.loc 1 1479 0 discriminator 1
	cmp	x1, x4
	bne	.L264
	.loc 1 1485 0
	mov	w1, 0
	mov	x2, 2152
	add	x0, x0, :lo12:.LANCHOR0
	bl	memset
.LVL283:
	.loc 1 1487 0
	adrp	x0, g_vdm_hal_fun_ptr+24
	ldr	x0, [x0,#:lo12:g_vdm_hal_fun_ptr+24]
	blr	x0
.LVL284:
	.loc 1 1490 0
	mov	w0, 0
	ldp	x29, x30, [sp], 16
	.cfi_restore 30
	.cfi_restore 29
	.cfi_def_cfa 31, 0
	ret
	.cfi_endproc
.LFE2675:
	.size	SM_CloseSCDDrv, .-SM_CloseSCDDrv
	.align	2
	.global	SetMaxSegSize
	.type	SetMaxSegSize, %function
SetMaxSegSize:
.LFB2677:
	.loc 1 1503 0
	.cfi_startproc
.LVL285:
	stp	x29, x30, [sp, -64]!
	.cfi_def_cfa_offset 64
	.cfi_offset 29, -64
	.cfi_offset 30, -56
	add	x29, sp, 0
	.cfi_def_cfa_register 29
	stp	x19, x20, [sp,16]
	.cfi_offset 19, -48
	.cfi_offset 20, -40
	.loc 1 1503 0
	adrp	x19, __stack_chk_guard
	mov	w20, w0
	str	x1, [x29,40]
	ldr	x2, [x19,#:lo12:__stack_chk_guard]
	str	x2, [x29,56]
	.loc 1 1508 0
	bl	VCTRL_GetChanCapLevel
.LVL286:
	.loc 1 1510 0
	cmp	w0, 32
	ldr	x1, [x29,40]
.LVL287:
	bhi	.L285
	.loc 1 1516 0
	cmp	w0, 25
	beq	.L286
	.loc 1 1537 0
	ldr	w1, [x1,4]
.LVL288:
	.loc 1 1571 0
	mov	w20, 3145728
.LVL289:
	.loc 1 1537 0
	tst	w1, -17
	beq	.L287
.LVL290:
.L275:
	.loc 1 1578 0
	ldr	x2, [x29,56]
	mov	w0, w20
.LVL291:
	ldr	x1, [x19,#:lo12:__stack_chk_guard]
.LVL292:
	cmp	x2, x1
	bne	.L288
	ldp	x19, x20, [sp,16]
	.cfi_remember_state
	.cfi_restore 20
	.cfi_restore 19
	ldp	x29, x30, [sp], 64
	.cfi_restore 30
	.cfi_restore 29
	.cfi_def_cfa 31, 0
	ret
.LVL293:
.L287:
	.cfi_restore_state
	.loc 1 1541 0
	sub	w0, w0, #13
.LVL294:
	cmp	w0, 19
	bls	.L289
.L278:
	.loc 1 1571 0
	mov	w20, 3145728
	b	.L275
.L289:
	.loc 1 1541 0
	adrp	x1, .L280
	add	x1, x1, :lo12:.L280
	ldrb	w0, [x1,w0,uxtw]
	adr	x1, .Lrtx280
	add	x0, x1, w0, sxtb #2
	br	x0
.Lrtx280:
	.section	.rodata
	.align	0
	.align	2
.L280:
	.byte	(.L279 - .Lrtx280) / 4
	.byte	(.L279 - .Lrtx280) / 4
	.byte	(.L279 - .Lrtx280) / 4
	.byte	(.L279 - .Lrtx280) / 4
	.byte	(.L279 - .Lrtx280) / 4
	.byte	(.L284 - .Lrtx280) / 4
	.byte	(.L284 - .Lrtx280) / 4
	.byte	(.L284 - .Lrtx280) / 4
	.byte	(.L284 - .Lrtx280) / 4
	.byte	(.L284 - .Lrtx280) / 4
	.byte	(.L284 - .Lrtx280) / 4
	.byte	(.L278 - .Lrtx280) / 4
	.byte	(.L278 - .Lrtx280) / 4
	.byte	(.L278 - .Lrtx280) / 4
	.byte	(.L278 - .Lrtx280) / 4
	.byte	(.L278 - .Lrtx280) / 4
	.byte	(.L278 - .Lrtx280) / 4
	.byte	(.L278 - .Lrtx280) / 4
	.byte	(.L278 - .Lrtx280) / 4
	.byte	(.L284 - .Lrtx280) / 4
	.text
.L284:
	.loc 1 1544 0
	mov	w20, 20971520
	b	.L275
.L279:
	.loc 1 1552 0
	mov	w20, 4194304
	b	.L275
.LVL295:
.L286:
	.loc 1 1518 0
	mov	w0, w20
.LVL296:
	add	x1, x29, 48
.LVL297:
	add	x2, x29, 52
	bl	VCTRL_GetChanResolution
.LVL298:
	cmn	w0, #1
	mov	w20, w0
.LVL299:
	beq	.L290
.LVL300:
	.loc 1 1525 0
	ldr	w1, [x29,52]
	.loc 1 1531 0
	mov	w20, 20971520
.LVL301:
	.loc 1 1525 0
	ldr	w0, [x29,48]
	mul	w0, w0, w1
	.loc 1 1531 0
	cmp	w0, 2088960
	mov	w0, 3145728
	csel	w20, w0, w20, le
	b	.L275
.LVL302:
.L285:
	.loc 1 1512 0
	adrp	x1, .LC22
.LVL303:
	mov	w0, 0
.LVL304:
	add	x1, x1, :lo12:.LC22
	.loc 1 1513 0
	mov	w20, -1
.LVL305:
	.loc 1 1512 0
	bl	dprint_linux_kernel
.LVL306:
	.loc 1 1513 0
	b	.L275
.L290:
.LBB142:
.LBB143:
	.loc 1 1520 0
	adrp	x1, .LC23
	mov	w0, 0
	add	x1, x1, :lo12:.LC23
	bl	dprint_linux_kernel
.LVL307:
	b	.L275
.LVL308:
.L288:
.LBE143:
.LBE142:
	.loc 1 1578 0
	bl	__stack_chk_fail
.LVL309:
	.cfi_endproc
.LFE2677:
	.size	SetMaxSegSize, .-SetMaxSegSize
	.align	2
	.global	SM_Config
	.type	SM_Config, %function
SM_Config:
.LFB2678:
	.loc 1 1590 0
	.cfi_startproc
.LVL310:
	stp	x29, x30, [sp, -80]!
	.cfi_def_cfa_offset 80
	.cfi_offset 29, -80
	.cfi_offset 30, -72
	.loc 1 1599 0
	cmp	w0, 31
	.loc 1 1590 0
	add	x29, sp, 0
	.cfi_def_cfa_register 29
	stp	x19, x20, [sp,16]
	stp	x25, x26, [sp,64]
	stp	x21, x22, [sp,32]
	stp	x23, x24, [sp,48]
	.cfi_offset 19, -64
	.cfi_offset 20, -56
	.cfi_offset 25, -16
	.cfi_offset 26, -8
	.cfi_offset 21, -48
	.cfi_offset 22, -40
	.cfi_offset 23, -32
	.cfi_offset 24, -24
	.loc 1 1590 0
	mov	w25, w0
	mov	x19, x1
	.loc 1 1599 0
	bhi	.L307
	cbz	x1, .L307
	.loc 1 1605 0
	adrp	x0, .LANCHOR0
	add	x0, x0, :lo12:.LANCHOR0
	add	x1, x0, x25, sxtw 3
	ldr	x20, [x1,1880]
.LVL311:
	.loc 1 1606 0
	cbz	x20, .L298
	.loc 1 1612 0
	ldr	w1, [x19,8]
	ldr	w2, [x20,64]
	cmp	w2, w1
	beq	.L317
	.loc 1 1614 0
	cbz	w1, .L298
	.loc 1 1615 0
	ldr	x1, [x19,32]
	cbz	x1, .L298
	.loc 1 1620 0
	add	x23, x20, 188416
	ldr	w3, [x0,16]
	.loc 1 1621 0
	ldr	x2, [x0,8]
	.loc 1 1622 0
	ldr	w4, [x0,20]
	.loc 1 1620 0
	str	w3, [x23,2260]
	.loc 1 1621 0
	str	x2, [x23,2248]
	.loc 1 1624 0
	ldr	w3, [x0,32]
	.loc 1 1625 0
	ldr	x2, [x0,24]
	.loc 1 1626 0
	ldr	w0, [x0,36]
	str	w0, [x23,2276]
	.loc 1 1627 0
	mov	w0, 1152
	.loc 1 1622 0
	str	w4, [x23,2256]
	.loc 1 1624 0
	str	w3, [x23,2272]
	.loc 1 1625 0
	str	x2, [x23,2264]
	.loc 1 1627 0
	str	w0, [x23,2280]
	.loc 1 1651 0
	ldr	w0, [x19,4]
	cmp	w0, 6
	beq	.L305
	mov	x21, 131072
	mov	w4, w21
	.loc 1 1657 0
	mov	w22, w21
.LVL312:
.L299:
	.loc 1 1659 0
	ldr	w24, [x19,8]
	.loc 1 1664 0
	add	x26, x23, 2248
	.loc 1 1661 0
	ldr	x3, [x19,32]
	.loc 1 1668 0
	mov	x1, x19
	.loc 1 1659 0
	add	w2, w24, 15
	.loc 1 1668 0
	mov	w0, w25
	.loc 1 1659 0
	and	w2, w2, -16
.LVL313:
	.loc 1 1660 0
	sub	w24, w2, w24
.LVL314:
	.loc 1 1664 0
	add	w2, w4, w2
.LVL315:
	add	x21, x21, x24, sxtw
	str	w2, [x26,116]
	.loc 1 1665 0
	add	x21, x3, x21
	str	x21, [x26,128]
	.loc 1 1668 0
	bl	SetMaxSegSize
.LVL316:
	.loc 1 1674 0
	ldr	w21, [x19,12]
.LVL317:
	.loc 1 1671 0
	cmn	w0, #1
	mov	w1, 2097152
	csel	w0, w0, w1, ne
	.loc 1 1674 0
	sub	w21, w21, w24
	cmp	w0, w21
	blt	.L318
	.loc 1 1680 0
	sub	w22, w21, w22
.LVL318:
	.loc 1 1681 0
	mov	w0, 262143
.LVL319:
	.loc 1 1680 0
	sub	w22, w22, #1024
	str	w22, [x26,120]
	.loc 1 1681 0
	cmp	w22, w0
	ble	.L298
.LVL320:
.L302:
	.loc 1 1687 0
	ldr	w24, [x23,2364]
.LVL321:
	add	x21, x20, 98304
	ldr	x26, [x23,2376]
	add	x21, x21, 128
.LBB146:
.LBB147:
	.loc 1 804 0
	cbz	w24, .L303
	.loc 1 804 0 is_stmt 0 discriminator 2
	cbz	x26, .L303
	mov	w0, 262143
.LVL322:
	cmp	w22, w0
	bls	.L303
	.loc 1 807 0 is_stmt 1
	mov	x2, 26680
	mov	x0, x21
	movk	x2, 0x1, lsl 16
	mov	w1, 0
	bl	memset
.LVL323:
	.loc 1 809 0
	str	w24, [x21,16]
	.loc 1 810 0
	str	x26, [x21,48]
	.loc 1 811 0
	str	w24, [x21,24]
	.loc 1 812 0
	str	w24, [x21,28]
	.loc 1 813 0
	str	w22, [x21,20]
.LVL324:
.L303:
.LBE147:
.LBE146:
	.loc 1 1690 0
	add	x0, x20, 56
.LVL325:
	ldp	x2, x3, [x19]
	stp	x2, x3, [x0]
	ldp	x2, x3, [x19,16]
	stp	x2, x3, [x0,16]
	ldp	x2, x3, [x19,32]
	stp	x2, x3, [x0,32]
.L297:
	.loc 1 1694 0
	ldp	x2, x3, [x19]
	stp	x2, x3, [x0]
	.loc 1 1696 0
	add	x20, x20, 200704
.LVL326:
	.loc 1 1694 0
	ldp	x2, x3, [x19,16]
	stp	x2, x3, [x0,16]
	ldp	x2, x3, [x19,32]
	stp	x2, x3, [x0,32]
	.loc 1 1696 0
	mov	w0, 2
	str	w0, [x20,3972]
	.loc 1 1697 0
	ldr	w0, [x19,4]
	cmp	w0, 2
	beq	.L319
.L304:
	.loc 1 1704 0
	str	w25, [x23,2384]
	.loc 1 1705 0
	mov	w0, 0
.LVL327:
.L294:
	.loc 1 1706 0
	ldp	x19, x20, [sp,16]
	.cfi_remember_state
	.cfi_restore 20
	.cfi_restore 19
.LVL328:
	ldp	x21, x22, [sp,32]
	.cfi_restore 22
	.cfi_restore 21
	ldp	x23, x24, [sp,48]
	.cfi_restore 24
	.cfi_restore 23
.LVL329:
	ldp	x25, x26, [sp,64]
	.cfi_restore 26
	.cfi_restore 25
.LVL330:
	ldp	x29, x30, [sp], 80
	.cfi_restore 30
	.cfi_restore 29
	.cfi_def_cfa 31, 0
	ret
.LVL331:
.L318:
	.cfi_restore_state
	.loc 1 1676 0
	sub	w22, w0, w22
.LVL332:
	sub	w22, w22, #1024
	str	w22, [x26,120]
	b	.L302
.LVL333:
.L319:
	.loc 1 1700 0
	mov	w0, 3
	str	w0, [x20,3972]
	b	.L304
.LVL334:
.L305:
	mov	x21, 1048576
	mov	w4, w21
	.loc 1 1653 0
	mov	w22, w21
.LVL335:
	b	.L299
.LVL336:
.L317:
	add	x0, x20, 56
	add	x23, x20, 188416
	b	.L297
.LVL337:
.L298:
	.loc 1 1608 0
	mov	w0, -1
	b	.L294
.LVL338:
.L307:
	.loc 1 1601 0
	adrp	x1, .LC24
.LVL339:
	mov	w0, 0
	add	x1, x1, :lo12:.LC24
	mov	w2, 1601
	mov	w3, w25
	mov	x4, x19
	bl	dprint_linux_kernel
.LVL340:
	.loc 1 1602 0
	mov	w0, -1
	b	.L294
	.cfi_endproc
.LFE2678:
	.size	SM_Config, .-SM_Config
	.align	2
	.global	SM_Start
	.type	SM_Start, %function
SM_Start:
.LFB2679:
	.loc 1 1710 0
	.cfi_startproc
.LVL341:
	.loc 1 1713 0
	adrp	x1, .LANCHOR0
	add	x1, x1, :lo12:.LANCHOR0
	add	x0, x1, x0, sxtw 3
.LVL342:
	ldr	x0, [x0,1880]
	cbz	x0, .L321
	.loc 1 1714 0
	ldr	w1, [x0,68]
	cbz	w1, .L321
	.loc 1 1715 0
	add	x0, x0, 188416
	ldr	w1, [x0,2388]
	cbnz	w1, .L321
	.loc 1 1717 0
	mov	w1, 1
	str	w1, [x0,2388]
.L321:
	.loc 1 1726 0
	mov	w0, -7
	ret
	.cfi_endproc
.LFE2679:
	.size	SM_Start, .-SM_Start
	.align	2
	.global	SM_Stop
	.type	SM_Stop, %function
SM_Stop:
.LFB2680:
	.loc 1 1729 0
	.cfi_startproc
.LVL343:
	.loc 1 1733 0
	adrp	x1, .LANCHOR0
	add	x1, x1, :lo12:.LANCHOR0
	add	x0, x1, x0, sxtw 3
.LVL344:
	ldr	x2, [x0,1880]
	cbz	x2, .L331
	.loc 1 1734 0
	add	x2, x2, 188416
	ldr	w0, [x2,2388]
	cbz	w0, .L331
	ldr	w1, [x1,2144]
	.loc 1 1739 0
	mov	w0, 50
	str	wzr, [x2,2388]
	b	.L332
.L341:
.LBB150:
.LBB151:
	.loc 1 1742 0 discriminator 1
	beq	.L340
.L332:
	subs	w0, w0, #1
	.loc 1 1744 0
	cbnz	w1, .L341
.L331:
.LBE151:
.LBE150:
	.loc 1 1736 0
	mov	w0, 0
	.loc 1 1755 0
	ret
.L340:
.LBB153:
.LBB152:
	.loc 1 1754 0
	mov	w0, -7
.LBE152:
.LBE153:
	.loc 1 1755 0
	ret
	.cfi_endproc
.LFE2680:
	.size	SM_Stop, .-SM_Stop
	.align	2
	.global	SM_GetInfo
	.type	SM_GetInfo, %function
SM_GetInfo:
.LFB2681:
	.loc 1 1770 0
	.cfi_startproc
.LVL345:
	.loc 1 1774 0
	cmp	w0, 31
	bhi	.L350
	.loc 1 1776 0
	adrp	x2, .LANCHOR0
	add	x2, x2, :lo12:.LANCHOR0
	add	x0, x2, x0, sxtw 3
.LVL346:
	ldr	x0, [x0,1880]
.LVL347:
	.loc 1 1777 0
	cbz	x0, .L353
	.loc 1 1786 0
	add	x4, x0, 188416
	.loc 1 1788 0
	add	x2, x0, 200704
.LBB154:
.LBB155:
	.loc 1 758 0
	add	x3, x0, 104
.LBE155:
.LBE154:
	.loc 1 1786 0
	ldr	w4, [x4,2388]
	strb	w4, [x1]
	.loc 1 1788 0
	ldr	w2, [x2,3964]
	str	w2, [x1,20]
.LBB158:
.LBB156:
	.loc 1 758 0
	ldr	w2, [x3,4]
	ldr	w4, [x0,104]
	.loc 1 760 0
	subs	w2, w2, w4
	bmi	.L354
.L351:
	.loc 1 762 0
	str	w2, [x1,4]
.LBE156:
.LBE158:
.LBB159:
.LBB160:
	.loc 1 1127 0
	add	x0, x0, 98304
.LVL348:
.LBE160:
.LBE159:
.LBB163:
.LBB164:
	.loc 1 741 0
	ldr	w2, [x3,20]
	str	w2, [x1,12]
	.loc 1 742 0
	ldr	w3, [x3,12]
	sub	w2, w2, w3
	str	w2, [x1,12]
.LBE164:
.LBE163:
.LBB165:
.LBB161:
	.loc 1 1127 0
	ldr	w2, [x0,132]
	ldr	w3, [x0,128]
	.loc 1 1129 0
	subs	w2, w2, w3
	bmi	.L355
.L352:
	.loc 1 1131 0
	str	w2, [x1,8]
.LBE161:
.LBE165:
.LBB166:
.LBB167:
	.loc 1 1108 0
	ldr	w2, [x0,160]
.LBE167:
.LBE166:
	.loc 1 1814 0
	mov	w0, 0
.LBB169:
.LBB168:
	.loc 1 1108 0
	str	w2, [x1,16]
.LBE168:
.LBE169:
	.loc 1 1815 0
	ret
.LVL349:
.L354:
.LBB170:
.LBB157:
	.loc 1 762 0
	add	w2, w2, 1024
	b	.L351
.LVL350:
.L355:
.LBE157:
.LBE170:
.LBB171:
.LBB162:
	.loc 1 1131 0
	add	w2, w2, 1152
	b	.L352
.LVL351:
.L353:
.LBE162:
.LBE171:
	.loc 1 1779 0
	cbz	x1, .L350
	.loc 1 1781 0
	strb	wzr, [x1]
	.loc 1 1783 0
	mov	w0, -1
.LVL352:
	.loc 1 1815 0
	ret
.LVL353:
.L350:
	.loc 1 1774 0 discriminator 1
	mov	w0, -1
.LVL354:
	.loc 1 1815 0
	ret
	.cfi_endproc
.LFE2681:
	.size	SM_GetInfo, .-SM_GetInfo
	.align	2
	.global	SM_PushRaw
	.type	SM_PushRaw, %function
SM_PushRaw:
.LFB2682:
	.loc 1 1828 0
	.cfi_startproc
.LVL355:
	.loc 1 1830 0
	adrp	x2, .LANCHOR0
	add	x2, x2, :lo12:.LANCHOR0
	add	x0, x2, x0, sxtw 3
.LVL356:
	ldr	x3, [x0,1880]
.LVL357:
	.loc 1 1832 0
	ldr	w0, [x1,32]
	cbz	w0, .L360
	.loc 1 1834 0
	cbz	x3, .L360
	.loc 1 1833 0
	ldr	x0, [x1,40]
	.loc 1 1834 0
	cbz	x0, .L360
.LBB174:
.LBB175:
	.loc 1 282 0
	cbz	x1, .L360
	.loc 1 287 0
	ldr	w2, [x3,108]
	add	x3, x3, 104
.LVL358:
	ldr	w5, [x3,8]
	add	w0, w2, 1
	asr	w4, w0, 31
	lsr	w4, w4, 22
	add	w0, w0, w4
	and	w0, w0, 1023
	sub	w0, w0, w4
	cmp	w0, w5
	beq	.L361
	.loc 1 294 0
	sxtw	x2, w2
	.loc 1 299 0
	mov	w0, 0
	.loc 1 294 0
	lsl	x6, x2, 7
	sub	x2, x6, x2, lsl 5
	add	x2, x3, x2
.LVL359:
	add	x2, x2, 24
	ldp	x4, x5, [x1]
	stp	x4, x5, [x2]
	ldp	x4, x5, [x1,16]
	stp	x4, x5, [x2,16]
	ldp	x4, x5, [x1,32]
	stp	x4, x5, [x2,32]
	ldp	x4, x5, [x1,48]
	stp	x4, x5, [x2,48]
	ldp	x4, x5, [x1,64]
	stp	x4, x5, [x2,64]
	ldp	x4, x5, [x1,80]
	stp	x4, x5, [x2,80]
	.loc 1 295 0
	ldr	w2, [x3,4]
	add	w2, w2, 1
	asr	w1, w2, 31
.LVL360:
	lsr	w1, w1, 22
	add	w2, w2, w1
	and	w2, w2, 1023
	sub	w2, w2, w1
	str	w2, [x3,4]
.LBE175:
.LBE174:
	.loc 1 1840 0
	ret
.LVL361:
.L360:
	.loc 1 1832 0 discriminator 1
	mov	w0, -1
	.loc 1 1840 0
	ret
.L361:
.LBB177:
.LBB176:
	.loc 1 289 0
	mov	w0, -4
.LBE176:
.LBE177:
	.loc 1 1840 0
	ret
	.cfi_endproc
.LFE2682:
	.size	SM_PushRaw, .-SM_PushRaw
	.align	2
	.global	SM_CopyRawToSeg
	.type	SM_CopyRawToSeg, %function
SM_CopyRawToSeg:
.LFB2683:
	.loc 1 1844 0
	.cfi_startproc
.LVL362:
	stp	x29, x30, [sp, -112]!
	.cfi_def_cfa_offset 112
	.cfi_offset 29, -112
	.cfi_offset 30, -104
	.loc 1 1848 0
	adrp	x2, .LANCHOR0
	.loc 1 1844 0
	add	x29, sp, 0
	.cfi_def_cfa_register 29
	stp	x19, x20, [sp,16]
	stp	x21, x22, [sp,32]
	stp	x23, x24, [sp,48]
	stp	x25, x26, [sp,64]
	stp	x27, x28, [sp,80]
	.cfi_offset 19, -96
	.cfi_offset 20, -88
	.cfi_offset 21, -80
	.cfi_offset 22, -72
	.cfi_offset 23, -64
	.cfi_offset 24, -56
	.cfi_offset 25, -48
	.cfi_offset 26, -40
	.cfi_offset 27, -32
	.cfi_offset 28, -24
	.loc 1 1848 0
	add	x2, x2, :lo12:.LANCHOR0
	add	x0, x2, x0, sxtw 3
.LVL363:
	ldr	x24, [x0,1880]
.LVL364:
	.loc 1 1858 0
	cbz	x24, .L377
	.loc 1 1863 0 discriminator 2
	cbz	x1, .L377
	.loc 1 1867 0
	add	x20, x24, 104
	ldr	w3, [x24,104]
	ldr	w5, [x20,4]
	cmp	w5, w3
	beq	.L366
	.loc 1 1877 0
	sxtw	x6, w3
	.loc 1 1878 0
	mov	w19, 1
	.loc 1 1877 0
	lsl	x2, x6, 7
	uxtw	x0, w3
	sub	x2, x2, x6, lsl 5
	add	x2, x20, x2
	ldr	w22, [x2,28]
	.loc 1 1880 0
	b	.L365
.LVL365:
.L367:
	.loc 1 1884 0
	ldr	w2, [x4,28]
	.loc 1 1882 0
	add	w19, w19, 1
	.loc 1 1884 0
	add	w22, w22, w2
	.loc 1 1889 0
	beq	.L366
	cmp	w19, 1025
	beq	.L366
.L365:
	.loc 1 1880 0
	lsl	x2, x0, 7
	.loc 1 1883 0
	add	w3, w3, 1
	.loc 1 1880 0
	sub	x2, x2, x0, lsl 5
	.loc 1 1883 0
	and	w3, w3, 1023
	.loc 1 1880 0
	add	x2, x20, x2
	.loc 1 1889 0
	cmp	w3, w5
	.loc 1 1884 0
	uxtw	x0, w3
	lsl	x4, x0, 7
	.loc 1 1880 0
	ldrb	w2, [x2,24]
	.loc 1 1884 0
	sub	x4, x4, x0, lsl 5
	add	x4, x20, x4
	.loc 1 1880 0
	cbnz	w2, .L367
	.loc 1 1861 0
	add	x23, x24, 98304
	str	x6, [x29,104]
	add	x0, x23, 128
.LVL366:
	mov	x21, x1
	mov	x23, x0
	str	x0, [x29,96]
	.loc 1 1895 0
	bl	ResetStreamSegArray
.LVL367:
	.loc 1 1897 0
	ldr	x6, [x29,104]
	ldr	w0, [x23,20]
	sub	w0, w0, #262144
	cmp	w0, w22
	blt	.L404
	.loc 1 1913 0
	ldr	w26, [x24,60]
	.loc 1 1908 0
	ldr	x2, [x29,96]
.LVL368:
	.loc 1 1913 0
	sub	w1, w26, #10
	tst	w1, -3
	.loc 1 1908 0
	ldr	w0, [x2,16]
	.loc 1 1909 0
	ldr	x25, [x2,48]
	.loc 1 1913 0
	bne	.L369
	.loc 1 1913 0 is_stmt 0 discriminator 1
	adrp	x1, g_VdmCharacter
	ldr	w1, [x1,#:lo12:g_VdmCharacter]
	tbnz	x1, 0, .L370
	.loc 1 1915 0 is_stmt 1
	strb	wzr, [x25]
	add	x25, x25, 1
	ldr	w26, [x24,60]
.L369:
	.loc 1 1918 0
	lsl	x1, x6, 7
	.loc 1 1922 0
	cmp	w26, 12
	.loc 1 1918 0
	sub	x1, x1, x6, lsl 5
	.loc 1 1920 0
	ldr	w24, [x24,104]
.LVL369:
	.loc 1 1918 0
	add	x1, x20, x1
	ldr	x26, [x1,64]
	.loc 1 1919 0
	ldr	w27, [x1,28]
	.loc 1 1922 0
	beq	.L405
.L371:
.LVL370:
	.loc 1 1974 0
	str	w0, [x21,4]
	.loc 1 1982 0
	mov	w28, 0
.LVL371:
	str	x6, [x29,104]
	.loc 1 1975 0
	bl	MEM_Phy2Vir
.LVL372:
	str	x0, [x21,64]
	.loc 1 1977 0
	ldr	x6, [x29,104]
	.loc 1 1976 0
	sub	x0, x25, x0
	str	w0, [x21,8]
	.loc 1 1977 0
	lsl	x1, x6, 7
	sub	x6, x1, x6, lsl 5
	add	x6, x20, x6
	.loc 1 2002 0
	mov	x23, x6
	.loc 1 1977 0
	ldr	x1, [x6,88]
	str	x1, [x21,16]
	.loc 1 1978 0
	ldr	x0, [x6,88]
	str	x0, [x21,24]
	.loc 1 1979 0
	ldr	x0, [x6,72]
	str	x0, [x21,32]
	.loc 1 1980 0
	mov	w0, 1
	strb	w0, [x21,1]
.L374:
	.loc 1 1986 0
	sxtw	x4, w27
	str	x4, [x29,104]
	mov	x0, x25
	mov	x1, x26
	mov	x2, x4
	.loc 1 1982 0 discriminator 2
	add	w28, w28, 1
	.loc 1 1984 0
	cbz	x26, .L366
	cbz	x25, .L366
	.loc 1 1986 0
	bl	memcpy
.LVL373:
	.loc 1 1994 0
	uxtw	x0, w24
	.loc 1 1998 0
	add	w24, w24, 1
	.loc 1 1994 0
	lsl	x1, x0, 7
	.loc 1 1995 0
	ldr	w3, [x21,8]
	.loc 1 1994 0
	sub	x1, x1, x0, lsl 5
	.loc 1 1998 0
	and	w0, w24, 1023
	.loc 1 1994 0
	add	x1, x20, x1
	.loc 1 1999 0
	lsl	x6, x0, 7
	.loc 1 1998 0
	mov	x24, x0
	.loc 1 1999 0
	sub	x0, x6, x0, lsl 5
	add	x0, x20, x0
	.loc 1 1995 0
	add	w3, w3, w27
	.loc 1 1994 0
	ldrb	w1, [x1,25]
	.loc 1 1982 0 discriminator 1
	cmp	w28, w19
	.loc 1 1994 0
	strb	w1, [x21,2]
	.loc 1 1995 0
	str	w3, [x21,8]
	.loc 1 1997 0
	ldr	x4, [x29,104]
	.loc 1 2002 0
	ldr	x1, [x23,80]
	.loc 1 1999 0
	ldr	x26, [x0,64]
	.loc 1 1997 0
	add	x25, x25, x4
	.loc 1 2000 0
	ldr	w27, [x0,28]
	.loc 1 2002 0
	str	x1, [x21,40]
	.loc 1 2003 0
	ldr	w0, [x23,40]
	str	w0, [x21,48]
	.loc 1 2004 0
	ldr	w0, [x23,44]
	str	w0, [x21,52]
	.loc 1 2005 0
	ldr	w0, [x23,48]
	str	w0, [x21,56]
	.loc 1 2006 0
	ldr	w0, [x23,52]
	str	w0, [x21,60]
	.loc 1 1982 0 discriminator 1
	bne	.L374
	.loc 1 2010 0
	ldr	x0, [x29,96]
	mov	x1, x21
	bl	InsertStreamSeg
.LVL374:
	.loc 1 2016 0
	mov	w1, w22
	mov	x0, x20
	bl	DeleteRawLen
.LVL375:
	.loc 1 2021 0
	mov	w0, 0
	.loc 1 2022 0
	ldp	x19, x20, [sp,16]
	.cfi_remember_state
	.cfi_restore 19
	.cfi_restore 20
	ldp	x21, x22, [sp,32]
	.cfi_restore 21
	.cfi_restore 22
.LVL376:
	ldp	x23, x24, [sp,48]
	.cfi_restore 23
	.cfi_restore 24
	ldp	x25, x26, [sp,64]
	.cfi_restore 25
	.cfi_restore 26
	ldp	x27, x28, [sp,80]
	.cfi_restore 27
	.cfi_restore 28
.LVL377:
	ldp	x29, x30, [sp], 112
	.cfi_restore 29
	.cfi_restore 30
	.cfi_def_cfa 31, 0
	ret
.LVL378:
.L366:
	.cfi_restore_state
	.loc 1 1873 0
	mov	w0, -4
.LVL379:
.L386:
	.loc 1 2022 0
	ldp	x19, x20, [sp,16]
	.cfi_remember_state
	.cfi_restore 20
	.cfi_restore 19
	ldp	x21, x22, [sp,32]
	.cfi_restore 22
	.cfi_restore 21
.LVL380:
	ldp	x23, x24, [sp,48]
	.cfi_restore 24
	.cfi_restore 23
.LVL381:
	ldp	x25, x26, [sp,64]
	.cfi_restore 26
	.cfi_restore 25
	ldp	x27, x28, [sp,80]
	.cfi_restore 28
	.cfi_restore 27
.LVL382:
	ldp	x29, x30, [sp], 112
	.cfi_restore 30
	.cfi_restore 29
	.cfi_def_cfa 31, 0
	ret
.LVL383:
.L405:
	.cfi_restore_state
	.loc 1 1922 0 discriminator 1
	adrp	x1, g_VdmCharacter
	ldr	w1, [x1,#:lo12:g_VdmCharacter]
	tbz	x1, 0, .L371
	.loc 1 1922 0 is_stmt 0 discriminator 2
	cbz	w27, .L371
.L406:
	.loc 1 1926 0 is_stmt 1
	cmp	w27, 2
	ble	.L372
	.loc 1 1928 0
	add	x26, x26, 3
	.loc 1 1929 0
	sub	w27, w27, #3
	b	.L371
.LVL384:
.L404:
	.loc 1 1899 0
	adrp	x1, .LC25
	mov	w2, w22
	add	x1, x1, :lo12:.LC25
	mov	w0, 0
	bl	dprint_linux_kernel
.LVL385:
	.loc 1 1900 0
	mov	x0, x20
	mov	w1, w22
	bl	DeleteRawLen
.LVL386:
	cbz	w0, .L386
	.loc 1 1902 0
	adrp	x1, .LC26
	mov	w0, 0
	add	x1, x1, :lo12:.LC26
	mov	w2, 1902
	bl	dprint_linux_kernel
.LVL387:
	.loc 1 1905 0
	mov	w0, 0
	b	.L386
.LVL388:
.L370:
	.loc 1 1918 0
	lsl	x1, x6, 7
	.loc 1 1922 0
	cmp	w26, 12
	.loc 1 1918 0
	sub	x1, x1, x6, lsl 5
	.loc 1 1920 0
	ldr	w24, [x20]
.LVL389:
	.loc 1 1918 0
	add	x1, x20, x1
	ldr	x26, [x1,64]
	.loc 1 1919 0
	ldr	w27, [x1,28]
	.loc 1 1922 0
	bne	.L371
	.loc 1 1922 0 is_stmt 0 discriminator 2
	cbz	w27, .L371
	b	.L406
.L372:
	.loc 1 1935 0 is_stmt 1
	cmp	w19, 1
	.loc 1 1933 0
	add	w24, w24, 1
	and	w24, w24, 1023
	.loc 1 1935 0
	beq	.L366
	.loc 1 1939 0
	uxtw	x1, w24
	lsl	x2, x1, 7
.LVL390:
	sub	x1, x2, x1, lsl 5
	add	x3, x20, x1
	ldr	w4, [x3,28]
	.loc 1 1940 0
	ldr	x26, [x3,64]
	.loc 1 1939 0
	add	w27, w27, w4
	.loc 1 1941 0
	cmp	w27, 2
	ble	.L373
	.loc 1 1943 0
	add	w3, w24, 1023
	.loc 1 1944 0
	sub	w27, w27, #3
	.loc 1 1943 0
	and	x1, x3, 1023
	.loc 1 1945 0
	sub	w19, w19, #1
	.loc 1 1943 0
	lsl	x2, x1, 7
	sub	x1, x2, x1, lsl 5
	add	x2, x20, x1
	mov	w1, 3
	ldr	w3, [x2,28]
	sub	w1, w1, w3
	add	x26, x26, x1, sxtw
	b	.L371
.LVL391:
.L377:
	.loc 1 1858 0 discriminator 1
	mov	w0, -1
	b	.L386
.LVL392:
.L373:
	.loc 1 1951 0
	cmp	w19, 2
	.loc 1 1949 0
	add	w24, w24, 1
	and	w24, w24, 1023
	.loc 1 1951 0
	beq	.L366
	.loc 1 1955 0
	uxtw	x2, w24
	lsl	x3, x2, 7
	sub	x3, x3, x2, lsl 5
	add	x3, x20, x3
	ldr	w4, [x3,28]
	.loc 1 1956 0
	ldr	x26, [x3,64]
	.loc 1 1955 0
	add	w27, w27, w4
	.loc 1 1957 0
	cmp	w27, 2
	ble	.L366
	.loc 1 1959 0
	add	w3, w24, 1023
	.loc 1 1960 0
	add	w1, w24, 1022
	.loc 1 1959 0
	and	x3, x3, 1023
	.loc 1 1960 0
	and	x1, x1, 1023
	.loc 1 1959 0
	lsl	x4, x3, 7
	.loc 1 1960 0
	lsl	x2, x1, 7
	.loc 1 1959 0
	sub	x3, x4, x3, lsl 5
	.loc 1 1960 0
	sub	x1, x2, x1, lsl 5
	.loc 1 1959 0
	add	x3, x20, x3
	.loc 1 1960 0
	add	x2, x20, x1
	.loc 1 1961 0
	sub	w27, w27, #3
	.loc 1 1962 0
	sub	w19, w19, #2
	.loc 1 1959 0
	ldr	w1, [x3,28]
	.loc 1 1960 0
	ldr	w3, [x2,28]
	.loc 1 1959 0
	mov	w2, 3
	sub	w1, w2, w1
	.loc 1 1960 0
	sub	w1, w1, w3
	.loc 1 1959 0
	add	x26, x26, x1, sxtw
	b	.L371
	.cfi_endproc
.LFE2683:
	.size	SM_CopyRawToSeg, .-SM_CopyRawToSeg
	.align	2
	.global	SM_IsScdBypassInst
	.type	SM_IsScdBypassInst, %function
SM_IsScdBypassInst:
.LFB2684:
	.loc 1 2025 0
	.cfi_startproc
.LVL393:
	.loc 1 2026 0
	ldr	w1, [x0,60]
	.loc 1 2028 0
	sub	w2, w1, #4
	.loc 1 2033 0
	cmp	w2, 1
	bls	.L409
	.loc 1 2027 0
	sub	w2, w1, #8
	.loc 1 2033 0
	cmp	w2, 6
	bls	.L409
	.loc 1 2034 0
	cmp	w1, 1
	.loc 1 2041 0
	mov	w1, 0
	.loc 1 2034 0
	beq	.L411
.L408:
	.loc 1 2043 0
	mov	w0, w1
.LVL394:
	ret
.LVL395:
.L409:
	.loc 1 2037 0
	mov	w1, 1
	.loc 1 2043 0
	mov	w0, w1
.LVL396:
	ret
.LVL397:
.L411:
	.loc 1 2035 0
	ldr	w0, [x0,96]
.LVL398:
	cmp	w0, wzr
	.loc 1 2037 0
	cset	w1, eq
	b	.L408
	.cfi_endproc
.LFE2684:
	.size	SM_IsScdBypassInst, .-SM_IsScdBypassInst
	.align	2
	.global	SM_ReadStreamSeg
	.type	SM_ReadStreamSeg, %function
SM_ReadStreamSeg:
.LFB2685:
	.loc 1 2053 0
	.cfi_startproc
.LVL399:
	stp	x29, x30, [sp, -48]!
	.cfi_def_cfa_offset 48
	.cfi_offset 29, -48
	.cfi_offset 30, -40
	add	x29, sp, 0
	.cfi_def_cfa_register 29
	stp	x19, x20, [sp,16]
	stp	x21, x22, [sp,32]
	.cfi_offset 19, -32
	.cfi_offset 20, -24
	.cfi_offset 21, -16
	.cfi_offset 22, -8
	.loc 1 2053 0
	mov	w21, w0
	.loc 1 2055 0
	adrp	x0, .LANCHOR0
.LVL400:
	add	x0, x0, :lo12:.LANCHOR0
	add	x0, x0, x21, sxtw 3
	ldr	x19, [x0,1880]
.LVL401:
	.loc 1 2053 0
	mov	x20, x1
	.loc 1 2057 0
	cbz	x19, .L419
	cbz	x1, .L419
.LBB181:
.LBB182:
	.loc 1 2026 0
	ldr	w0, [x19,60]
	.loc 1 2028 0
	sub	w1, w0, #4
	.loc 1 2033 0
	cmp	w1, 1
	bls	.L414
	.loc 1 2027 0
	sub	w1, w0, #8
	.loc 1 2033 0
	cmp	w1, 6
	bls	.L414
	.loc 1 2034 0
	cmp	w0, 1
	beq	.L428
.L415:
.LBE182:
.LBE181:
	.loc 1 2069 0
	add	x0, x19, 98304
	mov	x1, x20
	add	x0, x0, 128
	bl	GetStreamSeg
.LVL402:
	mov	w1, w0
.LVL403:
	.loc 1 2072 0
	cbnz	w0, .L416
.LBB184:
	.loc 1 2077 0
	adrp	x22, vfmw_save_seg_file
	ldr	x1, [x22,#:lo12:vfmw_save_seg_file]
	cbz	x1, .L417
	.loc 1 2077 0 is_stmt 0 discriminator 1
	adrp	x1, save_seg_chan_num
	ldr	w1, [x1,#:lo12:save_seg_chan_num]
	cmp	w21, w1
	beq	.L429
.L417:
.LBE184:
	.loc 1 2093 0 is_stmt 1
	add	x19, x19, 200704
.LVL404:
	mov	w0, 0
.LVL405:
	str	wzr, [x19,3964]
	.loc 1 2098 0
	ldp	x19, x20, [sp,16]
	.cfi_remember_state
	.cfi_restore 19
	.cfi_restore 20
.LVL406:
	ldp	x21, x22, [sp,32]
	.cfi_restore 21
	.cfi_restore 22
.LVL407:
	ldp	x29, x30, [sp], 48
	.cfi_restore 29
	.cfi_restore 30
	.cfi_def_cfa 31, 0
	ret
.LVL408:
.L428:
	.cfi_restore_state
.LBB185:
.LBB183:
	.loc 1 2035 0
	ldr	w0, [x19,96]
	cbnz	w0, .L415
.L414:
.LBE183:
.LBE185:
	.loc 1 2061 0
	mov	w0, w21
	mov	x1, x20
	bl	SM_CopyRawToSeg
.LVL409:
	cbz	w0, .L415
	.loc 1 2063 0
	adrp	x1, .LC27
	mov	w0, 26
	add	x1, x1, :lo12:.LC27
	bl	dprint_linux_kernel
.LVL410:
	.loc 1 2064 0
	mov	w1, -7
.LVL411:
.L416:
	.loc 1 2089 0
	add	x19, x19, 200704
.LVL412:
	mov	w0, w1
	ldr	w1, [x19,3964]
.LVL413:
	add	w1, w1, 1
	str	w1, [x19,3964]
.LVL414:
.L426:
	.loc 1 2098 0
	ldp	x19, x20, [sp,16]
	.cfi_remember_state
	.cfi_restore 20
	.cfi_restore 19
.LVL415:
	ldp	x21, x22, [sp,32]
	.cfi_restore 22
	.cfi_restore 21
.LVL416:
	ldp	x29, x30, [sp], 48
	.cfi_restore 30
	.cfi_restore 29
	.cfi_def_cfa 31, 0
	ret
.LVL417:
.L429:
	.cfi_restore_state
.LBB186:
	.loc 1 2079 0
	adrp	x21, g_vfmw_osal_fun_ptr
.LVL418:
	add	x21, x21, :lo12:g_vfmw_osal_fun_ptr
	ldr	x1, [x21,32]
	blr	x1
.LVL419:
	.loc 1 2080 0
	ldr	w1, [x20,8]
	ldr	x0, [x20,64]
	ldr	x2, [x22,#:lo12:vfmw_save_seg_file]
	bl	OSAL_FileWrite
.LVL420:
	.loc 1 2081 0
	ldr	x1, [x21,24]
	mov	w0, 0
	blr	x1
.LVL421:
	b	.L417
.LVL422:
.L419:
.LBE186:
	.loc 1 2057 0 discriminator 1
	mov	w0, -1
	b	.L426
	.cfi_endproc
.LFE2685:
	.size	SM_ReadStreamSeg, .-SM_ReadStreamSeg
	.align	2
	.global	SM_ReleaseStreamSeg
	.type	SM_ReleaseStreamSeg, %function
SM_ReleaseStreamSeg:
.LFB2686:
	.loc 1 2109 0
	.cfi_startproc
.LVL423:
	stp	x29, x30, [sp, -16]!
	.cfi_def_cfa_offset 16
	.cfi_offset 29, -16
	.cfi_offset 30, -8
	.loc 1 2110 0
	adrp	x2, .LANCHOR0
	.loc 1 2109 0
	add	x29, sp, 0
	.cfi_def_cfa_register 29
	.loc 1 2110 0
	add	x2, x2, :lo12:.LANCHOR0
	.loc 1 2109 0
	.loc 1 2110 0
	add	x0, x2, x0, sxtw 3
.LVL424:
	ldr	x0, [x0,1880]
.LVL425:
	.loc 1 2112 0
	cbz	x0, .L432
	.loc 1 2114 0
	add	x0, x0, 98304
.LVL426:
	add	x0, x0, 128
	bl	ReleaseStreamSeg
.LVL427:
.L431:
	.loc 1 2117 0
	ldp	x29, x30, [sp], 16
	.cfi_remember_state
	.cfi_restore 30
	.cfi_restore 29
	.cfi_def_cfa 31, 0
	ret
.LVL428:
.L432:
	.cfi_restore_state
	.loc 1 2112 0 discriminator 1
	mov	w0, -1
.LVL429:
	b	.L431
	.cfi_endproc
.LFE2686:
	.size	SM_ReleaseStreamSeg, .-SM_ReleaseStreamSeg
	.align	2
	.global	SM_GiveThreadEvent
	.type	SM_GiveThreadEvent, %function
SM_GiveThreadEvent:
.LFB2687:
	.loc 1 2125 0
	.cfi_startproc
.LVL430:
	stp	x29, x30, [sp, -48]!
	.cfi_def_cfa_offset 48
	.cfi_offset 29, -48
	.cfi_offset 30, -40
	add	x29, sp, 0
	.cfi_def_cfa_register 29
	stp	x21, x22, [sp,32]
	.cfi_offset 21, -16
	.cfi_offset 22, -8
	.loc 1 2127 0
	adrp	x21, g_vfmw_osal_fun_ptr
	.loc 1 2125 0
	mov	w22, w0
	stp	x19, x20, [sp,16]
	.cfi_offset 19, -32
	.cfi_offset 20, -24
	.loc 1 2130 0
	adrp	x19, .LANCHOR0
	.loc 1 2127 0
	ldr	x0, [x21,#:lo12:g_vfmw_osal_fun_ptr]
.LVL431:
	blr	x0
.LVL432:
	mov	w20, w0
.LVL433:
	.loc 1 2130 0
	add	x0, x19, :lo12:.LANCHOR0
	add	x0, x0, x22, sxtw 3
	ldr	x0, [x0,1880]
.LVL434:
	.loc 1 2132 0
	cbz	x0, .L433
	.loc 1 2138 0
	ldrsb	w0, [x0,3]
.LVL435:
	cmp	w0, 1
	beq	.L436
.L438:
	.loc 1 2125 0
	mov	w2, 0
.L437:
	.loc 1 2143 0
	add	x1, x19, :lo12:.LANCHOR0
	ldr	w0, [x1,2156]
	cmp	w20, w0
	bls	.L439
	.loc 1 2145 0
	sub	w0, w20, w0
.LVL436:
	.loc 1 2152 0
	cmp	w0, 1
	bls	.L433
.L448:
	cbz	w2, .L433
	.loc 1 2154 0
	add	x21, x21, :lo12:g_vfmw_osal_fun_ptr
	.loc 1 2155 0
	add	x19, x19, :lo12:.LANCHOR0
	.loc 1 2154 0
	mov	w0, 0
.LVL437:
	ldr	x1, [x21,104]
	blr	x1
.LVL438:
	.loc 1 2155 0
	str	w20, [x19,2156]
.LVL439:
.L433:
	.loc 1 2159 0
	ldp	x19, x20, [sp,16]
	.cfi_remember_state
	.cfi_restore 20
	.cfi_restore 19
.LVL440:
	ldp	x21, x22, [sp,32]
	.cfi_restore 22
	.cfi_restore 21
.LVL441:
	ldp	x29, x30, [sp], 48
	.cfi_restore 30
	.cfi_restore 29
	.cfi_def_cfa 31, 0
	ret
.LVL442:
.L439:
	.cfi_restore_state
	.loc 1 2150 0
	str	w20, [x1,2156]
	b	.L448
.L436:
	.loc 1 2139 0
	mov	w0, w22
	bl	VCTRL_GetDecParam
.LVL443:
	.loc 1 2138 0 discriminator 1
	cbnz	x0, .L438
	.loc 1 2139 0 discriminator 1
	mov	w0, w22
	bl	VCTRL_IsChanSegEnough
.LVL444:
	.loc 1 2139 0 is_stmt 0
	cmp	w0, wzr
	cset	w2, eq
	b	.L437
	.cfi_endproc
.LFE2687:
	.size	SM_GiveThreadEvent, .-SM_GiveThreadEvent
	.align	2
	.global	CalcInstBlockTime
	.type	CalcInstBlockTime, %function
CalcInstBlockTime:
.LFB2688:
	.loc 1 2171 0 is_stmt 1
	.cfi_startproc
.LVL445:
	stp	x29, x30, [sp, -32]!
	.cfi_def_cfa_offset 32
	.cfi_offset 29, -32
	.cfi_offset 30, -24
	.loc 1 2173 0
	adrp	x2, .LANCHOR0
	.loc 1 2171 0
	add	x29, sp, 0
	.cfi_def_cfa_register 29
	stp	x19, x20, [sp,16]
	.cfi_offset 19, -16
	.cfi_offset 20, -8
	.loc 1 2173 0
	add	x2, x2, :lo12:.LANCHOR0
	add	x0, x2, x0, sxtw 3
.LVL446:
	ldr	x20, [x0,1880]
.LVL447:
	.loc 1 2175 0
	cbz	x20, .L454
	.loc 1 2180 0
	adrp	x0, g_vfmw_osal_fun_ptr
	mov	w19, w1
	ldr	x0, [x0,#:lo12:g_vfmw_osal_fun_ptr]
	blr	x0
.LVL448:
	mov	w1, w0
.LVL449:
	.loc 1 2184 0
	add	x2, x20, 200704
	.loc 1 2182 0
	cbz	w19, .L451
	.loc 1 2184 0
	str	wzr, [x2,3928]
	mov	w0, 0
	.loc 1 2185 0
	str	w1, [x2,3932]
	.loc 1 2201 0
	ldp	x19, x20, [sp,16]
	.cfi_remember_state
	.cfi_restore 20
	.cfi_restore 19
.LVL450:
	ldp	x29, x30, [sp], 32
	.cfi_restore 30
	.cfi_restore 29
	.cfi_def_cfa 31, 0
	ret
.LVL451:
.L451:
	.cfi_restore_state
	.loc 1 2189 0
	ldr	w0, [x2,3932]
	cmp	w1, w0
	bls	.L453
	.loc 1 2191 0
	sub	w0, w1, w0
	str	w0, [x2,3928]
	.loc 1 2201 0
	ldp	x19, x20, [sp,16]
	.cfi_remember_state
	.cfi_restore 19
	.cfi_restore 20
.LVL452:
	ldp	x29, x30, [sp], 32
	.cfi_restore 29
	.cfi_restore 30
	.cfi_def_cfa 31, 0
	ret
.LVL453:
.L454:
	.cfi_restore_state
	.loc 1 2177 0
	mov	w0, 0
	.loc 1 2201 0
	ldp	x19, x20, [sp,16]
	.cfi_remember_state
	.cfi_restore 19
	.cfi_restore 20
.LVL454:
	ldp	x29, x30, [sp], 32
	.cfi_restore 29
	.cfi_restore 30
	.cfi_def_cfa 31, 0
	ret
.LVL455:
.L453:
	.cfi_restore_state
	.loc 1 2195 0
	str	wzr, [x2,3928]
	.loc 1 2196 0
	mov	w0, 0
	str	w1, [x2,3932]
	.loc 1 2201 0
	ldp	x19, x20, [sp,16]
	.cfi_restore 19
	.cfi_restore 20
.LVL456:
	ldp	x29, x30, [sp], 32
	.cfi_restore 29
	.cfi_restore 30
	.cfi_def_cfa 31, 0
	ret
	.cfi_endproc
.LFE2688:
	.size	CalcInstBlockTime, .-CalcInstBlockTime
	.align	2
	.global	SetInstMode
	.type	SetInstMode, %function
SetInstMode:
.LFB2689:
	.loc 1 2213 0
	.cfi_startproc
.LVL457:
	.loc 1 2215 0
	sub	w2, w1, #1
	.loc 1 2216 0
	cmp	w2, 1
	.loc 1 2214 0
	adrp	x2, .LANCHOR0
	add	x2, x2, :lo12:.LANCHOR0
	add	x0, x2, x0, sxtw 3
.LVL458:
	ldr	x0, [x0,1880]
.LVL459:
	.loc 1 2216 0
	bhi	.L457
	cbz	x0, .L457
	.loc 1 2218 0
	add	x2, x0, 188416
	.loc 1 2219 0
	mov	w0, 0
.LVL460:
	.loc 1 2218 0
	str	w1, [x2,2388]
	.loc 1 2220 0
	ret
.LVL461:
.L457:
	.loc 1 2216 0 discriminator 1
	mov	w0, -1
.LVL462:
	.loc 1 2220 0
	ret
	.cfi_endproc
.LFE2689:
	.size	SetInstMode, .-SetInstMode
	.align	2
	.global	WriteScdMsg
	.type	WriteScdMsg, %function
WriteScdMsg:
.LFB2692:
	.loc 1 2491 0
	.cfi_startproc
.LVL463:
	stp	x29, x30, [sp, -224]!
	.cfi_def_cfa_offset 224
	.cfi_offset 29, -224
	.cfi_offset 30, -216
	add	x29, sp, 0
	.cfi_def_cfa_register 29
	stp	x21, x22, [sp,32]
	.cfi_offset 21, -192
	.cfi_offset 22, -184
	adrp	x21, __stack_chk_guard
	str	x25, [sp,64]
	stp	x19, x20, [sp,16]
	.cfi_offset 25, -160
	.cfi_offset 19, -208
	.cfi_offset 20, -200
	.loc 1 2495 0
	add	x19, x29, 120
	.loc 1 2491 0
	mov	x20, x0
	ldr	x6, [x21,#:lo12:__stack_chk_guard]
	mov	w22, w1
	stp	x23, x24, [sp,48]
	.cfi_offset 23, -176
	.cfi_offset 24, -168
	.loc 1 2495 0
	stp	xzr, xzr, [x19]
	stp	xzr, xzr, [x19,16]
	stp	xzr, xzr, [x19,32]
	stp	xzr, xzr, [x19,48]
	.loc 1 2491 0
	str	x6, [x29,216]
	.loc 1 2495 0
	stp	xzr, xzr, [x19,64]
	stp	xzr, xzr, [x19,80]
.LBB191:
.LBB192:
	.loc 1 423 0
	cbz	x2, .L473
	.loc 1 426 0
	ldr	w1, [x2]
	ldr	w0, [x2,4]
	cmp	w1, w0
	beq	.L473
	.loc 1 431 0
	ldr	w25, [x2,12]
.LVL464:
	mov	w24, w25
	sxtw	x23, w25
.LVL465:
.L459:
.LBE192:
.LBE191:
	.loc 1 2502 0
	mov	x1, x19
	mov	x0, x2
	str	x5, [x29,88]
	str	x4, [x29,96]
	str	x3, [x29,104]
	str	x2, [x29,80]
	bl	ShowFirstRawPacket
.LVL466:
	.loc 1 2510 0
	ldr	x3, [x29,104]
.LVL467:
	.loc 1 2506 0
	ldr	w6, [x29,124]
	.loc 1 2504 0
	ldr	w1, [x29,152]
	.loc 1 2505 0
	ldr	x0, [x29,160]
	.loc 1 2506 0
	sub	w14, w6, w25
	.loc 1 2510 0
	str	wzr, [x3]
	.loc 1 2504 0
	add	w24, w24, w1
	.loc 1 2511 0
	str	wzr, [x3,4]
	.loc 1 2505 0
	add	x23, x23, x0
	.loc 1 2512 0
	str	wzr, [x3,8]
	.loc 1 2515 0 discriminator 1
	cmp	w14, w22
	.loc 1 2504 0
	str	w24, [x29,152]
	.loc 1 2505 0
	str	x23, [x29,160]
	.loc 1 2506 0
	str	w14, [x29,124]
	.loc 1 2513 0
	str	wzr, [x20,4]
	.loc 1 2515 0 discriminator 1
	ldr	x4, [x29,96]
.LVL468:
	ldr	x5, [x29,88]
.LVL469:
	bgt	.L460
	mov	w15, 0
.LVL470:
	mov	w17, w14
	mov	w16, 0
.LVL471:
	ldr	x2, [x29,80]
.LVL472:
	b	.L463
.L495:
.LBB194:
.LBB195:
	.loc 1 369 0
	ldr	w0, [x2,16]
	.loc 1 370 0
	ldr	w7, [x2,4]
	.loc 1 369 0
	add	w0, w0, 1
	asr	w6, w0, 31
	lsr	w6, w6, 22
	add	w1, w0, w6
	and	w1, w1, 1023
	sub	w1, w1, w6
	.loc 1 370 0
	cmp	w1, w7
	beq	.L462
	.loc 1 377 0
	sxtw	x0, w1
.LVL473:
	.loc 1 376 0
	str	w1, [x2,16]
	.loc 1 377 0
	lsl	x1, x0, 7
	sub	x0, x1, x0, lsl 5
.LVL474:
	add	x0, x2, x0
	add	x0, x0, 24
	ldr	x18, [x0]
	ldp	x12, x13, [x0,16]
.LBE195:
.LBE194:
	.loc 1 2533 0
	lsr	x17, x18, 32
.LBB200:
.LBB196:
	.loc 1 377 0
	ldr	x23, [x0,8]
	ldp	x10, x11, [x0,32]
	ldp	x8, x9, [x0,48]
	ldp	x6, x7, [x0,64]
.LBE196:
.LBE200:
	.loc 1 2533 0
	add	w14, w14, w17
.LBB201:
.LBB197:
	.loc 1 377 0
	str	x18, [x19]
	ldp	x0, x1, [x0,80]
	str	x23, [x19,8]
.LBE197:
.LBE201:
	.loc 1 2515 0 discriminator 1
	cmp	w22, w14
.LBB202:
.LBB198:
	.loc 1 377 0
	stp	x12, x13, [x19,16]
	stp	x10, x11, [x19,32]
	stp	x8, x9, [x19,48]
	stp	x6, x7, [x19,64]
	stp	x0, x1, [x19,80]
.LBE198:
.LBE202:
	.loc 1 2515 0 discriminator 1
	blt	.L476
	cmp	w16, 1023
	bgt	.L476
.L463:
	.loc 1 2518 0
	cmp	w17, wzr
	ble	.L461
	.loc 1 2520 0
	ldr	w1, [x19,32]
	.loc 1 2521 0
	add	x0, x3, x15, sxtw 2
	.loc 1 2520 0
	str	w1, [x3,w15,sxtw 2]
	.loc 1 2522 0
	add	w15, w15, 3
	sub	w1, w1, #1
	.loc 1 2524 0
	str	wzr, [x19,4]
	.loc 1 2521 0
	add	w1, w1, w17
	.loc 1 2522 0
	add	w6, w4, w15, lsl 2
	.loc 1 2521 0
	str	w1, [x0,4]
	.loc 1 2522 0
	str	w6, [x0,8]
.L461:
	.loc 1 2527 0
	str	w14, [x20,4]
	.loc 1 2528 0
	add	w16, w16, 1
.LBB203:
.LBB199:
	.loc 1 366 0
	cbnz	x2, .L495
.L462:
.LBE199:
.LBE203:
	.loc 1 2542 0
	cbz	w5, .L496
.L466:
	.loc 1 2567 0
	mov	w0, 1
	.loc 1 2564 0
	add	x3, x3, x15, sxtw 2
.LVL475:
	str	wzr, [x3,-4]
	.loc 1 2567 0
	str	w0, [x20,8]
	.loc 1 2570 0
	mov	w0, 0
	.loc 1 2566 0
	str	w16, [x20]
.LVL476:
.L467:
	.loc 1 2571 0
	ldr	x2, [x29,216]
.LVL477:
	ldr	x1, [x21,#:lo12:__stack_chk_guard]
	cmp	x2, x1
	bne	.L497
	ldp	x19, x20, [sp,16]
	.cfi_remember_state
	.cfi_restore 20
	.cfi_restore 19
.LVL478:
	ldp	x21, x22, [sp,32]
	.cfi_restore 22
	.cfi_restore 21
.LVL479:
	ldp	x23, x24, [sp,48]
	.cfi_restore 24
	.cfi_restore 23
	ldr	x25, [sp,64]
	.cfi_restore 25
.LVL480:
	ldp	x29, x30, [sp], 224
	.cfi_restore 30
	.cfi_restore 29
	.cfi_def_cfa 31, 0
	ret
.LVL481:
.L476:
	.cfi_restore_state
	.loc 1 2542 0
	cbnz	w5, .L465
	.loc 1 2542 0 is_stmt 0 discriminator 1
	cbz	w17, .L465
.L470:
	ldr	w0, [x20,4]
.L468:
	.loc 1 2543 0 is_stmt 1
	sub	w1, w22, #16
	.loc 1 2542 0 discriminator 2
	cmp	w1, w0
	ble	.L465
	.loc 1 2544 0
	cmp	w22, w14
	bge	.L465
	cmp	w16, 1023
	bgt	.L465
	.loc 1 2546 0
	sub	w0, w22, w0
	cmp	w17, w0
	blt	.L465
	.loc 1 2549 0
	ldr	w1, [x29,152]
	.loc 1 2550 0
	add	x2, x3, x15, sxtw 2
.LVL482:
	.loc 1 2549 0
	str	w1, [x3,w15,sxtw 2]
	.loc 1 2551 0
	add	w15, w15, 3
	sub	w1, w1, #1
	.loc 1 2555 0
	add	w16, w16, 1
	.loc 1 2550 0
	add	w1, w1, w0
	.loc 1 2551 0
	add	w4, w4, w15, lsl 2
.LVL483:
	.loc 1 2550 0
	str	w1, [x2,4]
	.loc 1 2551 0
	str	w4, [x2,8]
	.loc 1 2554 0
	ldr	w1, [x20,4]
	add	w0, w1, w0
	str	w0, [x20,4]
	b	.L466
.LVL484:
.L465:
	.loc 1 2560 0
	cbnz	w16, .L466
.L469:
	.loc 1 2562 0
	mov	w0, -6
	b	.L467
.L496:
	.loc 1 2542 0 discriminator 1
	ldr	w17, [x29,124]
	cbz	w17, .L466
	mov	w0, w14
	b	.L468
.LVL485:
.L473:
.LBB204:
.LBB193:
	.loc 1 426 0
	mov	x23, 0
	mov	w24, 0
.LBE193:
.LBE204:
	.loc 1 2497 0
	mov	w25, 0
.LVL486:
	b	.L459
.LVL487:
.L460:
	.loc 1 2542 0
	cbnz	w5, .L469
	.loc 1 2542 0 is_stmt 0 discriminator 1
	cbz	w14, .L469
	mov	w17, w14
	.loc 1 2515 0 is_stmt 1
	mov	w16, 0
.LVL488:
	mov	w15, 0
.LVL489:
	b	.L470
.L497:
	.loc 1 2571 0
	bl	__stack_chk_fail
.LVL490:
	.cfi_endproc
.LFE2692:
	.size	WriteScdMsg, .-WriteScdMsg
	.align	2
	.global	CheckScdStateReg
	.type	CheckScdStateReg, %function
CheckScdStateReg:
.LFB2695:
	.loc 1 2626 0
	.cfi_startproc
.LVL491:
	.loc 1 2628 0
	ldr	w0, [x0,16]
.LVL492:
	.loc 1 2630 0
	cmp	w0, wzr
	.loc 1 2631 0
	mov	w0, -7
	csel	w0, w0, wzr, eq
	ret
	.cfi_endproc
.LFE2695:
	.size	CheckScdStateReg, .-CheckScdStateReg
	.align	2
	.global	ScdParseUpMsgInfo
	.type	ScdParseUpMsgInfo, %function
ScdParseUpMsgInfo:
.LFB2696:
	.loc 1 2634 0
	.cfi_startproc
.LVL493:
	.loc 1 2635 0
	cbz	x1, .L503
	.loc 1 2640 0
	ldr	w6, [x0,20]
	.loc 1 2666 0
	mov	w5, 0
	ldrb	w4, [x1,72]
	.loc 1 2640 0
	cmp	w6, 1
	cset	w6, ne
	bfi	w4, w6, 0, 1
	strb	w4, [x1,72]
	.loc 1 2653 0
	mul	w2, w2, w3
.LVL494:
	ldr	x3, [x0,8]
.LVL495:
	add	w6, w2, 1
	.loc 1 2655 0
	add	w2, w2, 2
	.loc 1 2653 0
	ldr	w3, [x3,w6,uxtw 2]
	asr	w3, w3, 30
	bfi	w4, w3, 1, 1
	strb	w4, [x1,72]
	.loc 1 2655 0
	ldr	x3, [x0,8]
	ldr	w3, [x3,w2,uxtw 2]
	asr	w3, w3, 16
	bfi	w4, w3, 2, 1
	strb	w4, [x1,72]
	.loc 1 2656 0
	ldr	x3, [x0,8]
	ldr	w3, [x3,w2,uxtw 2]
	ubfx	x3, x3, 4, 3
	bfi	w4, w3, 3, 4
	strb	w4, [x1,72]
	.loc 1 2657 0
	ldr	x0, [x0,8]
.LVL496:
	ldrh	w3, [x1,72]
	ldr	w0, [x0,w2,uxtw 2]
	and	w0, w0, 7
	bfi	w3, w0, 7, 4
	strh	w3, [x1,72]
.LVL497:
.L502:
	.loc 1 2667 0
	mov	w0, w5
.LVL498:
	ret
.LVL499:
.L503:
	.loc 1 2637 0
	mov	w5, -1
	b	.L502
	.cfi_endproc
.LFE2696:
	.size	ScdParseUpMsgInfo, .-ScdParseUpMsgInfo
	.align	2
	.global	ScdReturnSegFilter
	.type	ScdReturnSegFilter, %function
ScdReturnSegFilter:
.LFB2697:
	.loc 1 2677 0
	.cfi_startproc
.LVL500:
	stp	x29, x30, [sp, -96]!
	.cfi_def_cfa_offset 96
	.cfi_offset 29, -96
	.cfi_offset 30, -88
	add	x29, sp, 0
	.cfi_def_cfa_register 29
	stp	x19, x20, [sp,16]
	.cfi_offset 19, -80
	.cfi_offset 20, -72
	mov	x19, x0
	mov	x20, x1
	stp	x23, x24, [sp,48]
	stp	x21, x22, [sp,32]
	stp	x25, x26, [sp,64]
	stp	x27, x28, [sp,80]
	.cfi_offset 23, -48
	.cfi_offset 24, -40
	.cfi_offset 21, -64
	.cfi_offset 22, -56
	.cfi_offset 25, -32
	.cfi_offset 26, -24
	.cfi_offset 27, -16
	.cfi_offset 28, -8
	.loc 1 2691 0
	adrp	x1, .LC28
.LVL501:
	mov	w0, 24
.LVL502:
	.loc 1 2688 0
	ldr	w22, [x19,40]
	.loc 1 2691 0
	add	x1, x1, :lo12:.LC28
	.loc 1 2690 0
	str	wzr, [x2]
	.loc 1 2677 0
	mov	x21, x3
	mov	w23, w4
	.loc 1 2691 0
	bl	dprint_linux_kernel
.LVL503:
	.loc 1 2693 0
	ldr	w24, [x19,16]
	cmp	w24, 2
	beq	.L505
.LVL504:
	.loc 1 2695 0 discriminator 1
	cmp	w22, wzr
	mov	w0, 0
	mov	w1, 0
.LVL505:
	ble	.L508
.L534:
	.loc 1 2705 0
	ldr	x3, [x19,8]
	.loc 1 2707 0
	add	w2, w0, 1
	.loc 1 2695 0 discriminator 3
	add	w1, w1, 1
	.loc 1 2695 0 is_stmt 0 discriminator 1
	cmp	w1, w22
	.loc 1 2705 0 is_stmt 1
	ldr	w3, [x3,w0,uxtw 2]
	str	w3, [x20,w0,uxtw 2]
	add	w0, w0, w23
	.loc 1 2707 0
	ldr	x3, [x19,8]
	ldr	w3, [x3,w2,uxtw 2]
	str	w3, [x20,w2,uxtw 2]
	.loc 1 2695 0 discriminator 1
	bne	.L534
.L508:
	.loc 1 2711 0
	str	wzr, [x19,20]
	.loc 1 2823 0
	mov	w0, 0
	.loc 1 2712 0
	str	wzr, [x19,24]
	.loc 1 2713 0
	str	w22, [x21]
.L507:
	.loc 1 2824 0
	ldp	x19, x20, [sp,16]
	.cfi_remember_state
	.cfi_restore 20
	.cfi_restore 19
.LVL506:
	ldp	x21, x22, [sp,32]
	.cfi_restore 22
	.cfi_restore 21
.LVL507:
	ldp	x23, x24, [sp,48]
	.cfi_restore 24
	.cfi_restore 23
.LVL508:
	ldp	x25, x26, [sp,64]
	.cfi_restore 26
	.cfi_restore 25
	ldp	x27, x28, [sp,80]
	.cfi_restore 28
	.cfi_restore 27
	ldp	x29, x30, [sp], 96
	.cfi_restore 30
	.cfi_restore 29
	.cfi_def_cfa 31, 0
	ret
.LVL509:
.L505:
	.cfi_restore_state
	.loc 1 2719 0
	ldr	w0, [x19,28]
	bl	MEM_Phy2Vir
.LVL510:
	.loc 1 2720 0
	cbz	x0, .L510
	.loc 1 2722 0
	ldrb	w3, [x0]
	.loc 1 2723 0
	ldrb	w25, [x0,1]
	.loc 1 2725 0
	ldrb	w2, [x0,3]
	.loc 1 2724 0
	ldrb	w1, [x0,2]
	.loc 1 2723 0
	lsl	w25, w25, 16
	.loc 1 2728 0
	ldr	w0, [x19,36]
	.loc 1 2723 0
	orr	w25, w25, w3, lsl 24
	orr	w25, w25, w2
	.loc 1 2722 0
	orr	w25, w25, w1, lsl 8
	.loc 1 2728 0
	bl	MEM_Phy2Vir
.LVL511:
	.loc 1 2729 0
	cbz	x0, .L510
	.loc 1 2731 0
	lsr	w3, w25, 24
	.loc 1 2732 0
	lsr	w2, w25, 16
	.loc 1 2733 0
	lsr	w1, w25, 8
	.loc 1 2731 0
	strb	w3, [x0]
	.loc 1 2732 0
	strb	w2, [x0,1]
.LVL512:
	.loc 1 2735 0 discriminator 1
	cmp	w22, wzr
	.loc 1 2733 0
	strb	w1, [x0,2]
	.loc 1 2734 0
	strb	w25, [x0,3]
	.loc 1 2735 0 discriminator 1
	ble	.L522
	.loc 1 2744 0
	ldr	x0, [x19,8]
	ldr	w25, [x0]
	.loc 1 2746 0
	cbz	w25, .L510
	mov	w28, 1
	mov	w27, 0
	mov	w26, w28
	b	.L512
.L542:
	.loc 1 2757 0
	cmp	w0, 438
	beq	.L523
	.loc 1 2769 0
	and	w0, w0, -1024
	cmp	w0, 32768
	beq	.L541
.L516:
	.loc 1 2809 0
	str	w25, [x20,w27,uxtw 2]
	.loc 1 2811 0
	mov	w0, w26
.LVL513:
	.loc 1 2810 0
	ldr	x1, [x19,8]
	ldr	w1, [x1,w28,uxtw 2]
	str	w1, [x20,w28,uxtw 2]
.L515:
	.loc 1 2735 0 discriminator 1
	cmp	w26, w22
	beq	.L511
	add	w27, w27, w23
	.loc 1 2744 0
	ldr	x0, [x19,8]
.LVL514:
	add	w26, w26, 1
	add	w28, w28, w23
	ldr	w25, [x0,w27,uxtw 2]
	.loc 1 2746 0
	cbz	w25, .L510
.L512:
	.loc 1 2748 0
	mov	w0, w25
	bl	MEM_Phy2Vir
.LVL515:
	.loc 1 2750 0
	cbz	x0, .L510
	.loc 1 2753 0
	ldrb	w6, [x0,1]
	.loc 1 2752 0
	ldrb	w3, [x0]
	.loc 1 2755 0
	ldrb	w2, [x0,3]
	.loc 1 2753 0
	lsl	w6, w6, 16
	.loc 1 2754 0
	ldrb	w1, [x0,2]
	.loc 1 2753 0
	orr	w0, w6, w3, lsl 24
	orr	w0, w0, w2
	.loc 1 2752 0
	orr	w0, w0, w1, lsl 8
	.loc 1 2757 0
	cmp	w0, 288
	bne	.L542
.L523:
	.loc 1 2763 0
	str	wzr, [x19,24]
	.loc 1 2761 0
	mov	w0, 1
	str	w0, [x19,20]
	.loc 1 2766 0
	mov	w0, w26
.LVL516:
	.loc 1 2764 0
	str	w25, [x20,w27,uxtw 2]
	.loc 1 2765 0
	ldr	x1, [x19,8]
	ldr	w1, [x1,w28,uxtw 2]
	str	w1, [x20,w28,uxtw 2]
	b	.L515
.LVL517:
.L541:
	.loc 1 2771 0
	ldr	w0, [x19,20]
	cmp	w0, 1
	beq	.L543
.L519:
	.loc 1 2789 0
	str	w24, [x19,20]
	.loc 1 2792 0
	mov	w0, w26
.LVL518:
	.loc 1 2790 0
	str	w25, [x20,w27,uxtw 2]
	.loc 1 2791 0
	ldr	x1, [x19,8]
	ldr	w1, [x1,w28,uxtw 2]
	str	w1, [x20,w28,uxtw 2]
	b	.L515
.LVL519:
.L510:
	.loc 1 2720 0 discriminator 1
	mov	w0, -7
	b	.L507
.L543:
	.loc 1 2783 0
	ldr	w0, [x19,24]
	add	w0, w0, 1
	str	w0, [x19,24]
	.loc 1 2785 0
	cmp	w0, 12
	ble	.L516
	.loc 1 2787 0
	adrp	x0, g_event_report
	ldr	x6, [x0,#:lo12:g_event_report]
	cbz	x6, .L519
	.loc 1 2787 0 is_stmt 0 discriminator 1
	adrp	x0, .LANCHOR0
	mov	w1, 102
	add	x0, x0, :lo12:.LANCHOR0
	mov	x2, 0
	mov	w3, 0
	ldr	w0, [x0,2140]
	blr	x6
.LVL520:
	b	.L519
.L522:
	.loc 1 2735 0 is_stmt 1
	mov	w0, 0
.LVL521:
.L511:
	.loc 1 2815 0
	str	w0, [x21]
	.loc 1 2823 0
	mov	w0, 0
.LVL522:
	b	.L507
	.cfi_endproc
.LFE2697:
	.size	ScdReturnSegFilter, .-ScdReturnSegFilter
	.align	2
	.global	CheckSegValid
	.type	CheckSegValid, %function
CheckSegValid:
.LFB2698:
	.loc 1 2837 0
	.cfi_startproc
.LVL523:
	.loc 1 2838 0
	cbz	x0, .L546
	.loc 1 2840 0
	ldr	w2, [x0,4]
	cbz	w2, .L548
	.loc 1 2841 0
	ldr	x2, [x0,64]
	cbz	x2, .L548
	.loc 1 2843 0
	ldr	w0, [x0,8]
.LVL524:
	.loc 1 2845 0
	cmp	w0, w1
	mov	w0, -7
	csel	w0, w0, wzr, gt
	.loc 1 2846 0
	ret
.LVL525:
.L548:
	.loc 1 2840 0 discriminator 1
	mov	w0, -7
.LVL526:
	.loc 1 2846 0
	ret
.LVL527:
.L546:
	.loc 1 2838 0 discriminator 1
	mov	w0, -1
.LVL528:
	.loc 1 2846 0
	ret
	.cfi_endproc
.LFE2698:
	.size	CheckSegValid, .-CheckSegValid
	.align	2
	.global	GetSegPts
	.type	GetSegPts, %function
GetSegPts:
.LFB2699:
	.loc 1 2859 0
	.cfi_startproc
.LVL529:
	sub	sp, sp, #96
	.cfi_def_cfa_offset 96
	.loc 1 2864 0
	add	x8, x3, 24
.LVL530:
	.loc 1 2867 0
	add	x11, x3, 52
.LVL531:
	.loc 1 2868 0
	add	x10, x3, 56
.LVL532:
	.loc 1 2869 0
	add	x9, x3, 60
.LVL533:
	.loc 1 2859 0
	stp	x29, x30, [sp,32]
	.cfi_offset 29, -64
	.cfi_offset 30, -56
	add	x29, sp, 32
	.cfi_def_cfa 29, 64
	stp	x19, x20, [sp,48]
	.cfi_offset 19, -48
	.cfi_offset 20, -40
	mov	x19, x3
	.loc 1 2873 0
	mov	x20, -1
	.loc 1 2859 0
	stp	x21, x22, [sp,64]
	.cfi_offset 21, -32
	.cfi_offset 22, -24
	.loc 1 2859 0
	adrp	x21, __stack_chk_guard
	.loc 1 2873 0
	str	x20, [x3,16]
	.loc 1 2874 0
	str	x20, [x3,32]
	.loc 1 2859 0
	mov	x22, x2
	.loc 1 2875 0
	str	x20, [x3,24]
	.loc 1 2882 0
	add	x2, x29, 48
.LVL534:
	.loc 1 2876 0
	str	x20, [x3,40]
	.loc 1 2882 0
	add	x4, x19, 16
	.loc 1 2877 0
	str	w20, [x19,48]
	.loc 1 2882 0
	add	x3, x29, 52
.LVL535:
	.loc 1 2878 0
	str	w20, [x19,52]
	.loc 1 2882 0
	add	x5, x19, 32
	.loc 1 2879 0
	str	w20, [x19,56]
	.loc 1 2882 0
	add	x6, x19, 40
	.loc 1 2880 0
	str	w20, [x19,60]
	.loc 1 2882 0
	add	x7, x19, 48
	str	x8, [sp,24]
	.loc 1 2859 0
	ldr	x8, [x21,#:lo12:__stack_chk_guard]
.LVL536:
	.loc 1 2882 0
	str	x11, [sp]
	str	x10, [sp,8]
	str	x9, [sp,16]
	.loc 1 2859 0
	str	x8, [x29,56]
	.loc 1 2871 0
	str	wzr, [x29,48]
.LVL537:
	.loc 1 2872 0
	str	wzr, [x29,52]
.LVL538:
	.loc 1 2882 0
	bl	GetRawNumOffsert
.LVL539:
	.loc 1 2885 0
	ldr	x0, [x19,16]
	ldr	x1, [x22]
	cmp	x1, x0
	beq	.L554
	.loc 1 2891 0
	str	x0, [x22]
.L550:
	.loc 1 2895 0
	ldr	x1, [x29,56]
	ldr	x0, [x21,#:lo12:__stack_chk_guard]
	cmp	x1, x0
	bne	.L555
	sub	sp, x29, #32
	.cfi_remember_state
	.cfi_def_cfa 31, 96
	ldp	x19, x20, [sp,48]
	.cfi_restore 20
	.cfi_restore 19
.LVL540:
	ldp	x21, x22, [sp,64]
	.cfi_restore 22
	.cfi_restore 21
.LVL541:
	ldp	x29, x30, [sp,32]
	.cfi_restore 30
	.cfi_restore 29
	add	sp, sp, 96
	.cfi_def_cfa_offset 0
	ret
.LVL542:
.L554:
	.cfi_restore_state
	.loc 1 2887 0
	str	x20, [x19,16]
	b	.L550
.L555:
	.loc 1 2895 0
	bl	__stack_chk_fail
.LVL543:
	.cfi_endproc
.LFE2699:
	.size	GetSegPts, .-GetSegPts
	.align	2
	.global	IsVopHeader
	.type	IsVopHeader, %function
IsVopHeader:
.LFB2700:
	.loc 1 2899 0
	.cfi_startproc
.LVL544:
	.loc 1 2904 0
	cmp	w0, 1
	beq	.L562
	.loc 1 2911 0
	cmp	w0, 2
	.loc 1 2900 0
	mov	w0, 0
.LVL545:
	.loc 1 2911 0
	beq	.L563
.L559:
	.loc 1 2920 0
	mov	w2, -33488896
	.loc 1 2922 0
	cmp	w1, w2
	csinc	w0, w0, wzr, ne
.LVL546:
.L558:
.LVL547:
	.loc 1 2926 0
	ret
.LVL548:
.L562:
	.loc 1 2906 0
	mov	w2, -1241448448
	cmp	w1, w2
	beq	.L558
	.loc 1 2900 0
	mov	w0, 0
.LVL549:
	b	.L559
.L563:
	.loc 1 2913 0
	ubfx	x0, x1, 16, 8
.LVL550:
	.loc 1 2914 0
	sub	w0, w0, #128
	.loc 1 2913 0
	cmp	w0, 3
	cset	w0, ls
.LVL551:
	b	.L559
	.cfi_endproc
.LFE2700:
	.size	IsVopHeader, .-IsVopHeader
	.align	2
	.global	FillEosRawStream
	.type	FillEosRawStream, %function
FillEosRawStream:
.LFB2704:
	.loc 1 3593 0
	.cfi_startproc
.LVL552:
	stp	x29, x30, [sp, -160]!
	.cfi_def_cfa_offset 160
	.cfi_offset 29, -160
	.cfi_offset 30, -152
	.loc 1 3594 0
	adrp	x3, .LANCHOR0
	.loc 1 3596 0
	mov	x2, 100
	.loc 1 3593 0
	add	x29, sp, 0
	.cfi_def_cfa_register 29
	stp	x19, x20, [sp,16]
	.cfi_offset 19, -144
	.cfi_offset 20, -136
	adrp	x20, __stack_chk_guard
	mov	x19, x1
	.loc 1 3596 0
	adrp	x1, .LANCHOR1
.LVL553:
	.loc 1 3593 0
	str	x21, [sp,32]
	.cfi_offset 21, -128
	.loc 1 3596 0
	add	x1, x1, :lo12:.LANCHOR1
	.loc 1 3594 0
	add	x3, x3, :lo12:.LANCHOR0
	.loc 1 3593 0
	ldr	x4, [x20,#:lo12:__stack_chk_guard]
	.loc 1 3594 0
	add	x3, x3, x0, sxtw 3
	.loc 1 3596 0
	add	x1, x1, 80
	add	x0, x29, 48
.LVL554:
	.loc 1 3593 0
	str	x4, [x29,152]
	.loc 1 3594 0
	ldr	x21, [x3,1880]
.LVL555:
	.loc 1 3596 0
	bl	memcpy
.LVL556:
	.loc 1 3627 0
	cbz	x19, .L585
	.loc 1 3634 0
	ldr	w3, [x21,60]
	cmp	w3, 16
	bls	.L586
.L567:
	.loc 1 3686 0
	adrp	x1, .LC30
	adrp	x2, .LANCHOR2
	mov	w0, 0
	add	x1, x1, :lo12:.LC30
	add	x2, x2, :lo12:.LANCHOR2
	bl	dprint_linux_kernel
.LVL557:
	.loc 1 3687 0
	mov	w0, -7
	b	.L566
.L586:
	.loc 1 3634 0
	adrp	x0, .L569
	add	x0, x0, :lo12:.L569
	ldrb	w0, [x0,w3,uxtw]
	adr	x1, .Lrtx569
	add	x0, x1, w0, sxtb #2
	br	x0
.Lrtx569:
	.section	.rodata
	.align	0
	.align	2
.L569:
	.byte	(.L568 - .Lrtx569) / 4
	.byte	(.L570 - .Lrtx569) / 4
	.byte	(.L571 - .Lrtx569) / 4
	.byte	(.L572 - .Lrtx569) / 4
	.byte	(.L578 - .Lrtx569) / 4
	.byte	(.L578 - .Lrtx569) / 4
	.byte	(.L580 - .Lrtx569) / 4
	.byte	(.L567 - .Lrtx569) / 4
	.byte	(.L578 - .Lrtx569) / 4
	.byte	(.L578 - .Lrtx569) / 4
	.byte	(.L578 - .Lrtx569) / 4
	.byte	(.L578 - .Lrtx569) / 4
	.byte	(.L578 - .Lrtx569) / 4
	.byte	(.L578 - .Lrtx569) / 4
	.byte	(.L578 - .Lrtx569) / 4
	.byte	(.L568 - .Lrtx569) / 4
	.byte	(.L574 - .Lrtx569) / 4
	.text
.L568:
	.loc 1 3643 0
	mov	w21, 15
.LVL558:
	.loc 1 3642 0
	add	x1, x29, 48
.LVL559:
.L573:
	.loc 1 3690 0
	ldr	w4, [x19,4]
	cmp	w21, w4
	bhi	.L587
	.loc 1 3698 0
	ldr	x0, [x19,40]
	and	x2, x21, 31
	bl	memcpy
.LVL560:
	.loc 1 3699 0
	str	w21, [x19,4]
	.loc 1 3702 0
	mov	w0, 0
.LVL561:
.L566:
	.loc 1 3703 0
	ldr	x2, [x29,152]
	ldr	x1, [x20,#:lo12:__stack_chk_guard]
	cmp	x2, x1
	bne	.L588
	ldp	x19, x20, [sp,16]
	.cfi_remember_state
	.cfi_restore 20
	.cfi_restore 19
.LVL562:
	ldr	x21, [sp,32]
	.cfi_restore 21
.LVL563:
	ldp	x29, x30, [sp], 160
	.cfi_restore 30
	.cfi_restore 29
	.cfi_def_cfa 31, 0
	ret
.LVL564:
.L570:
	.cfi_restore_state
	.loc 1 3667 0
	ldr	w0, [x21,96]
	cmp	w0, 1
	beq	.L580
.L578:
	.loc 1 3702 0
	mov	w0, 0
	b	.L566
.L580:
	.loc 1 3670 0
	mov	w21, 15
.LVL565:
	.loc 1 3669 0
	add	x1, x29, 68
.LVL566:
	b	.L573
.LVL567:
.L574:
	.loc 1 3638 0
	mov	w21, 16
.LVL568:
	.loc 1 3637 0
	add	x1, x29, 128
.LVL569:
	b	.L573
.LVL570:
.L572:
	.loc 1 3663 0
	mov	w21, 16
.LVL571:
	.loc 1 3662 0
	add	x1, x29, 108
.LVL572:
	.loc 1 3664 0
	b	.L573
.LVL573:
.L571:
	.loc 1 3658 0
	mov	w21, 19
.LVL574:
	.loc 1 3657 0
	add	x1, x29, 88
.LVL575:
	.loc 1 3659 0
	b	.L573
.L587:
	.loc 1 3692 0
	adrp	x1, .LC31
.LVL576:
	adrp	x2, .LANCHOR2
	mov	w0, 0
	add	x1, x1, :lo12:.LC31
	add	x2, x2, :lo12:.LANCHOR2
	mov	w3, w21
	bl	dprint_linux_kernel
.LVL577:
	.loc 1 3693 0
	mov	w0, -7
	b	.L566
.LVL578:
.L585:
	.loc 1 3629 0
	adrp	x1, .LC29
	adrp	x2, .LANCHOR2
	mov	w0, 0
	add	x1, x1, :lo12:.LC29
	add	x2, x2, :lo12:.LANCHOR2
	bl	dprint_linux_kernel
.LVL579:
	.loc 1 3630 0
	mov	w0, -7
	b	.L566
.LVL580:
.L588:
	.loc 1 3703 0
	bl	__stack_chk_fail
.LVL581:
	.cfi_endproc
.LFE2704:
	.size	FillEosRawStream, .-FillEosRawStream
	.align	2
	.global	BackUpCodecConfigData
	.type	BackUpCodecConfigData, %function
BackUpCodecConfigData:
.LFB2705:
	.loc 1 3706 0
	.cfi_startproc
.LVL582:
	stp	x29, x30, [sp, -16]!
	.cfi_def_cfa_offset 16
	.cfi_offset 29, -16
	.cfi_offset 30, -8
	mov	x2, x1
	add	x29, sp, 0
	.cfi_def_cfa_register 29
	.loc 1 3707 0
	ldr	w3, [x1,4]
	cmp	w3, 1152
	bgt	.L592
	.loc 1 3715 0
	add	x1, x0, 200704
	.loc 1 3716 0
	add	x0, x1, 3988
.LVL583:
	.loc 1 3715 0
	str	w3, [x1,3984]
	.loc 1 3716 0
	ldr	x1, [x2,40]
	ldrsw	x2, [x2,4]
.LVL584:
	bl	memcpy
.LVL585:
	.loc 1 3717 0
	mov	w0, 0
.L591:
	.loc 1 3718 0
	ldp	x29, x30, [sp], 16
	.cfi_remember_state
	.cfi_restore 30
	.cfi_restore 29
	.cfi_def_cfa 31, 0
	ret
.LVL586:
.L592:
	.cfi_restore_state
	.loc 1 3709 0
	adrp	x2, .LANCHOR2
	adrp	x1, .LC32
.LVL587:
	add	x2, x2, :lo12:.LANCHOR2
	mov	w0, 1
.LVL588:
	add	x1, x1, :lo12:.LC32
	add	x2, x2, 24
	mov	w4, 1152
	bl	dprint_linux_kernel
.LVL589:
	.loc 1 3711 0
	mov	w0, -2
	b	.L591
	.cfi_endproc
.LFE2705:
	.size	BackUpCodecConfigData, .-BackUpCodecConfigData
	.align	2
	.global	RestoreCodecConfigData
	.type	RestoreCodecConfigData, %function
RestoreCodecConfigData:
.LFB2706:
	.loc 1 3721 0
	.cfi_startproc
.LVL590:
	stp	x29, x30, [sp, -48]!
	.cfi_def_cfa_offset 48
	.cfi_offset 29, -48
	.cfi_offset 30, -40
	add	x29, sp, 0
	.cfi_def_cfa_register 29
	stp	x19, x20, [sp,16]
	.cfi_offset 19, -32
	.cfi_offset 20, -24
	.loc 1 3722 0
	add	x20, x0, 200704
	.loc 1 3721 0
	str	x21, [sp,32]
	.cfi_offset 21, -16
	.loc 1 3737 0
	mov	w21, 0
	.loc 1 3722 0
	ldr	w0, [x20,3984]
.LVL591:
	cbz	w0, .L594
	.loc 1 3724 0
	ldr	w2, [x1,4]
	mov	x19, x1
	ldr	w4, [x1,80]
	add	w3, w2, w0
	cmp	w3, w4
	bhi	.L598
	.loc 1 3732 0
	ldr	x1, [x1,40]
	sxtw	x2, w2
	add	x0, x1, x0, uxtw
	bl	memmove
.LVL592:
	.loc 1 3733 0
	ldr	x0, [x19,40]
	add	x1, x20, 3988
	ldr	w2, [x20,3984]
	bl	memcpy
.LVL593:
	.loc 1 3734 0
	ldr	w1, [x19,4]
	ldr	w0, [x20,3984]
	add	w0, w1, w0
	str	w0, [x19,4]
.LVL594:
.L594:
	.loc 1 3738 0
	mov	w0, w21
	ldr	x21, [sp,32]
	.cfi_remember_state
	.cfi_restore 21
	ldp	x19, x20, [sp,16]
	.cfi_restore 20
	.cfi_restore 19
.LVL595:
	ldp	x29, x30, [sp], 48
	.cfi_restore 30
	.cfi_restore 29
	.cfi_def_cfa 31, 0
	ret
.L598:
	.cfi_restore_state
	.loc 1 3726 0
	adrp	x2, .LANCHOR2
	adrp	x1, .LC33
.LVL596:
	add	x2, x2, :lo12:.LANCHOR2
	add	x1, x1, :lo12:.LC33
	add	x2, x2, 48
	mov	w0, 1
	.loc 1 3728 0
	mov	w21, -2
	.loc 1 3726 0
	bl	dprint_linux_kernel
.LVL597:
	.loc 1 3728 0
	b	.L594
	.cfi_endproc
.LFE2706:
	.size	RestoreCodecConfigData, .-RestoreCodecConfigData
	.align	2
	.global	FillExtraData
	.type	FillExtraData, %function
FillExtraData:
.LFB2707:
	.loc 1 3741 0
	.cfi_startproc
.LVL598:
	stp	x29, x30, [sp, -48]!
	.cfi_def_cfa_offset 48
	.cfi_offset 29, -48
	.cfi_offset 30, -40
	.loc 1 3746 0
	cmp	w0, 31
	.loc 1 3741 0
	add	x29, sp, 0
	.cfi_def_cfa_register 29
	stp	x19, x20, [sp,16]
	str	x21, [sp,32]
	.cfi_offset 19, -32
	.cfi_offset 20, -24
	.cfi_offset 21, -16
	.loc 1 3741 0
	mov	x19, x1
	.loc 1 3746 0
	bhi	.L616
	cbz	x1, .L616
	.loc 1 3748 0
	ldr	w6, [x1,4]
	cmp	w6, wzr
	ble	.L622
	.loc 1 3754 0
	adrp	x1, .LANCHOR0
	add	x1, x1, :lo12:.LANCHOR0
	add	x0, x1, x0, sxtw 3
.LVL599:
	ldr	x20, [x0,1880]
.LVL600:
	.loc 1 3757 0
	ldr	w0, [x20,60]
	cmp	w0, 16
	bls	.L623
.L617:
	.loc 1 3879 0
	mov	w21, 0
.LVL601:
.L600:
	.loc 1 3880 0
	mov	w0, w21
.LVL602:
	ldr	x21, [sp,32]
	.cfi_remember_state
	.cfi_restore 21
	ldp	x19, x20, [sp,16]
	.cfi_restore 20
	.cfi_restore 19
.LVL603:
	ldp	x29, x30, [sp], 48
	.cfi_restore 30
	.cfi_restore 29
	.cfi_def_cfa 31, 0
	ret
.LVL604:
.L623:
	.cfi_restore_state
	.loc 1 3757 0
	adrp	x1, .L603
	add	x1, x1, :lo12:.L603
	ldrb	w0, [x1,w0,uxtw]
	adr	x1, .Lrtx603
	add	x0, x1, w0, sxtb #2
	br	x0
.Lrtx603:
	.section	.rodata
	.align	0
	.align	2
.L603:
	.byte	(.L602 - .Lrtx603) / 4
	.byte	(.L604 - .Lrtx603) / 4
	.byte	(.L602 - .Lrtx603) / 4
	.byte	(.L602 - .Lrtx603) / 4
	.byte	(.L617 - .Lrtx603) / 4
	.byte	(.L605 - .Lrtx603) / 4
	.byte	(.L602 - .Lrtx603) / 4
	.byte	(.L617 - .Lrtx603) / 4
	.byte	(.L606 - .Lrtx603) / 4
	.byte	(.L617 - .Lrtx603) / 4
	.byte	(.L617 - .Lrtx603) / 4
	.byte	(.L617 - .Lrtx603) / 4
	.byte	(.L617 - .Lrtx603) / 4
	.byte	(.L617 - .Lrtx603) / 4
	.byte	(.L617 - .Lrtx603) / 4
	.byte	(.L602 - .Lrtx603) / 4
	.byte	(.L602 - .Lrtx603) / 4
	.text
.L602:
	.loc 1 3864 0
	ldr	w0, [x19,76]
	tbnz	x0, 7, .L624
	.loc 1 3868 0
	ldrb	w0, [x19,72]
	.loc 1 3879 0
	mov	w21, 0
	.loc 1 3868 0
	cbz	w0, .L600
	.loc 1 3870 0
	mov	x0, x20
	mov	x1, x19
	bl	RestoreCodecConfigData
.LVL605:
	b	.L600
.L606:
	.loc 1 3777 0
	ldr	w0, [x19,76]
	tbz	x0, 7, .L608
	.loc 1 3779 0
	cmp	w6, 1152
	bgt	.L625
	.loc 1 3788 0
	add	x20, x20, 200704
.LVL606:
	.loc 1 3879 0
	mov	w21, 0
	.loc 1 3789 0
	add	x0, x20, 3988
	.loc 1 3788 0
	str	w6, [x20,3984]
	.loc 1 3789 0
	ldr	x1, [x19,40]
	ldrsw	x2, [x19,4]
	bl	memcpy
.LVL607:
	b	.L600
.LVL608:
.L605:
	.loc 1 3760 0
	ldr	w5, [x19,80]
	add	w4, w6, 8
	cmp	w4, w5
	bhi	.L626
	.loc 1 3769 0
	ldr	x1, [x19,40]
	sxtw	x2, w6
	.loc 1 3879 0
	mov	w21, 0
	.loc 1 3769 0
	add	x0, x1, 8
	bl	memmove
.LVL609:
	.loc 1 3770 0
	ldr	x0, [x19,40]
	ldr	w1, [x19,84]
	str	w1, [x0]
	.loc 1 3771 0
	ldr	x0, [x19,40]
	ldr	w1, [x19,88]
	str	w1, [x0,4]
	.loc 1 3772 0
	ldr	w0, [x19,4]
	add	w0, w0, 8
	str	w0, [x19,4]
	.loc 1 3880 0
	mov	w0, w21
	ldp	x19, x20, [sp,16]
	.cfi_remember_state
	.cfi_restore 19
	.cfi_restore 20
.LVL610:
	ldr	x21, [sp,32]
	.cfi_restore 21
	ldp	x29, x30, [sp], 48
	.cfi_restore 29
	.cfi_restore 30
	.cfi_def_cfa 31, 0
	ret
.LVL611:
.L604:
	.cfi_restore_state
	.loc 1 3811 0
	ldr	w21, [x20,96]
	cbnz	w21, .L602
	.loc 1 3813 0
	ldr	w0, [x19,76]
	tbz	x0, 7, .L611
	.loc 1 3815 0
	ldr	w5, [x19,80]
	add	w4, w6, 12
	.loc 1 3815 0 is_stmt 0 discriminator 1
	cmp	w4, w5
	bhi	.L619
	cmp	w4, 1152
	bgt	.L619
	.loc 1 3824 0 is_stmt 1
	ldr	x0, [x19,40]
	sxtw	x2, w6
	.loc 1 3832 0
	add	x20, x20, 200704
.LVL612:
	.loc 1 3824 0
	mov	x1, x0
	add	x0, x0, 8
	bl	memmove
.LVL613:
	.loc 1 3825 0
	ldr	x2, [x19,40]
	.loc 1 3830 0
	mov	w1, 16
	.loc 1 3825 0
	ldr	w3, [x19,84]
	.loc 1 3833 0
	add	x0, x20, 3988
	.loc 1 3825 0
	str	w3, [x2]
	.loc 1 3826 0
	ldr	x2, [x19,40]
	ldr	w3, [x19,88]
	str	w3, [x2,4]
	.loc 1 3828 0
	ldr	x2, [x19,40]
	str	wzr, [x2,12]
	.loc 1 3830 0
	str	w1, [x19,4]
	.loc 1 3832 0
	str	w1, [x20,3984]
	.loc 1 3833 0
	ldr	x1, [x19,40]
	ldrsw	x2, [x19,4]
	bl	memcpy
.LVL614:
	b	.L600
.LVL615:
.L608:
	.loc 1 3794 0
	add	x20, x20, 200704
.LVL616:
	ldr	w5, [x19,80]
	ldr	w0, [x20,3984]
	add	w4, w6, w0
	cmp	w4, w5
	bhi	.L627
	.loc 1 3803 0
	sxtw	x2, w6
	.loc 1 3879 0
	mov	w21, 0
	.loc 1 3803 0
	ldr	x1, [x19,40]
	add	x0, x1, x0, uxtw
.L621:
	.loc 1 3847 0
	bl	memmove
.LVL617:
	.loc 1 3848 0
	ldr	w2, [x20,3984]
	add	x1, x20, 3988
	ldr	x0, [x19,40]
	bl	memcpy
.LVL618:
	.loc 1 3849 0
	ldr	w1, [x19,4]
	ldr	w0, [x20,3984]
	add	w0, w1, w0
	str	w0, [x19,4]
	.loc 1 3880 0
	mov	w0, w21
	ldp	x19, x20, [sp,16]
	.cfi_remember_state
	.cfi_restore 19
	.cfi_restore 20
.LVL619:
	ldr	x21, [sp,32]
	.cfi_restore 21
	ldp	x29, x30, [sp], 48
	.cfi_restore 29
	.cfi_restore 30
	.cfi_def_cfa 31, 0
	ret
.LVL620:
.L624:
	.cfi_restore_state
	.loc 1 3866 0
	mov	x0, x20
	mov	x1, x19
	.loc 1 3879 0
	mov	w21, 0
	.loc 1 3866 0
	bl	BackUpCodecConfigData
.LVL621:
	b	.L600
.L611:
	.loc 1 3838 0
	add	x20, x20, 200704
.LVL622:
	ldr	w5, [x19,80]
	ldr	w0, [x20,3984]
	add	w4, w6, w0
	cmp	w4, w5
	bhi	.L628
	.loc 1 3847 0
	ldr	x1, [x19,40]
	sxtw	x2, w6
	add	x0, x1, x0, uxtw
	b	.L621
.LVL623:
.L626:
	.loc 1 3762 0
	adrp	x2, .LANCHOR2
	adrp	x1, .LC35
	add	x2, x2, :lo12:.LANCHOR2
	add	x1, x1, :lo12:.LC35
	add	x2, x2, 72
	mov	w3, 5
	mov	w0, 1
	.loc 1 3764 0
	mov	w21, -2
	.loc 1 3762 0
	bl	dprint_linux_kernel
.LVL624:
	.loc 1 3764 0
	b	.L600
.LVL625:
.L616:
	.loc 1 3746 0 discriminator 1
	mov	w21, -1
	b	.L600
.L622:
	.loc 1 3750 0
	adrp	x2, .LANCHOR2
	adrp	x1, .LC34
	add	x2, x2, :lo12:.LANCHOR2
	add	x1, x1, :lo12:.LC34
	add	x2, x2, 72
	mov	w3, w6
	mov	w0, 1
.LVL626:
	.loc 1 3751 0
	mov	w21, -1
	.loc 1 3750 0
	bl	dprint_linux_kernel
.LVL627:
	.loc 1 3751 0
	b	.L600
.LVL628:
.L619:
	.loc 1 3817 0
	adrp	x2, .LANCHOR2
	mov	w0, 1
	adrp	x1, .LC38
	add	x2, x2, :lo12:.LANCHOR2
	add	x1, x1, :lo12:.LC38
	add	x2, x2, 72
	mov	w3, w0
	mov	w6, 1152
	.loc 1 3819 0
	mov	w21, -2
	.loc 1 3817 0
	bl	dprint_linux_kernel
.LVL629:
	.loc 1 3819 0
	b	.L600
.LVL630:
.L627:
	.loc 1 3796 0
	adrp	x2, .LANCHOR2
	adrp	x1, .LC37
	add	x2, x2, :lo12:.LANCHOR2
	add	x1, x1, :lo12:.LC37
	add	x2, x2, 72
	mov	w3, 8
	mov	w0, 1
	.loc 1 3798 0
	mov	w21, -2
	.loc 1 3796 0
	bl	dprint_linux_kernel
.LVL631:
	.loc 1 3798 0
	b	.L600
.LVL632:
.L625:
	.loc 1 3781 0
	adrp	x2, .LANCHOR2
	adrp	x1, .LC36
	add	x2, x2, :lo12:.LANCHOR2
	add	x1, x1, :lo12:.LC36
	add	x2, x2, 72
	mov	w3, 8
	mov	w4, w6
	mov	w5, 1152
	mov	w0, 1
	.loc 1 3783 0
	mov	w21, -2
	.loc 1 3781 0
	bl	dprint_linux_kernel
.LVL633:
	.loc 1 3783 0
	b	.L600
.LVL634:
.L628:
	.loc 1 3840 0
	adrp	x2, .LANCHOR2
	mov	w0, 1
	adrp	x1, .LC37
	add	x2, x2, :lo12:.LANCHOR2
	add	x1, x1, :lo12:.LC37
	add	x2, x2, 72
	mov	w3, w0
	.loc 1 3842 0
	mov	w21, -2
	.loc 1 3840 0
	bl	dprint_linux_kernel
.LVL635:
	.loc 1 3842 0
	b	.L600
	.cfi_endproc
.LFE2707:
	.size	FillExtraData, .-FillExtraData
	.align	2
	.global	ReleaseRawStreamData
	.type	ReleaseRawStreamData, %function
ReleaseRawStreamData:
.LFB2709:
	.loc 1 3945 0
	.cfi_startproc
.LVL636:
	stp	x29, x30, [sp, -80]!
	.cfi_def_cfa_offset 80
	.cfi_offset 29, -80
	.cfi_offset 30, -72
	add	x29, sp, 0
	.cfi_def_cfa_register 29
	stp	x19, x20, [sp,16]
	.cfi_offset 19, -64
	.cfi_offset 20, -56
	.loc 1 3945 0
	adrp	x19, __stack_chk_guard
	mov	w20, w0
	str	x1, [x29,40]
	ldr	x2, [x19,#:lo12:__stack_chk_guard]
	str	x2, [x29,72]
	.loc 1 3949 0
	bl	VCTRL_GetStreamInterface
.LVL637:
	.loc 1 3951 0
	str	xzr, [x29,64]
	stp	xzr, xzr, [x29,48]
	.loc 1 3952 0
	ldr	x1, [x29,40]
.LVL638:
	cbz	x0, .L638
	.loc 1 3958 0
	ldp	x2, x3, [x0]
	stp	x2, x3, [x29,48]
	ldr	x2, [x0,16]
	str	x2, [x29,64]
	.loc 1 3959 0
	ldr	x0, [x0,16]
.LVL639:
	cbz	x0, .L634
	.loc 1 3961 0
	ldr	w0, [x29,48]
	blr	x2
.LVL640:
	.loc 1 3962 0 discriminator 2
	cmp	w0, wzr
	mov	w1, -7
	csel	w0, w0, w1, eq
.LVL641:
.L632:
	.loc 1 3965 0
	adrp	x1, .LANCHOR0
.LVL642:
	add	x1, x1, :lo12:.LANCHOR0
	add	x1, x1, x20, sxtw 3
	ldr	x1, [x1,1880]
	cbz	x1, .L639
.L631:
	.loc 1 3972 0
	ldr	x2, [x29,72]
	ldr	x1, [x19,#:lo12:__stack_chk_guard]
	cmp	x2, x1
	bne	.L640
	ldp	x19, x20, [sp,16]
	.cfi_remember_state
	.cfi_restore 20
	.cfi_restore 19
.LVL643:
.LVL644:
	ldp	x29, x30, [sp], 80
	.cfi_restore 30
	.cfi_restore 29
	.cfi_def_cfa 31, 0
	ret
.LVL645:
.L634:
	.cfi_restore_state
	.loc 1 3948 0
	mov	w0, -7
.LVL646:
	b	.L632
.LVL647:
.L638:
	.loc 1 3954 0
	adrp	x1, .LC39
.LVL648:
	mov	w2, w20
	add	x1, x1, :lo12:.LC39
	bl	dprint_linux_kernel
.LVL649:
	.loc 1 3955 0
	mov	w0, -7
	b	.L631
.LVL650:
.L639:
.LBB207:
.LBB208:
	.loc 1 3967 0
	adrp	x1, .LC40
	mov	w0, 0
.LVL651:
	add	x1, x1, :lo12:.LC40
	mov	w2, 3967
	mov	w3, w20
	bl	dprint_linux_kernel
.LVL652:
	mov	w0, -7
	b	.L631
.LVL653:
.L640:
.LBE208:
.LBE207:
	.loc 1 3972 0
	bl	__stack_chk_fail
.LVL654:
	.cfi_endproc
.LFE2709:
	.size	ReleaseRawStreamData, .-ReleaseRawStreamData
	.align	2
	.global	DeleteRawPacketInBuffer
	.type	DeleteRawPacketInBuffer, %function
DeleteRawPacketInBuffer:
.LFB2649:
	.loc 1 504 0
	.cfi_startproc
.LVL655:
	stp	x29, x30, [sp, -80]!
	.cfi_def_cfa_offset 80
	.cfi_offset 29, -80
	.cfi_offset 30, -72
	.loc 1 511 0
	cmp	w0, 31
	.loc 1 504 0
	add	x29, sp, 0
	.cfi_def_cfa_register 29
	stp	x23, x24, [sp,48]
	stp	x19, x20, [sp,16]
	stp	x21, x22, [sp,32]
	str	x25, [sp,64]
	.cfi_offset 23, -32
	.cfi_offset 24, -24
	.cfi_offset 19, -64
	.cfi_offset 20, -56
	.cfi_offset 21, -48
	.cfi_offset 22, -40
	.cfi_offset 25, -16
	.loc 1 504 0
	mov	w24, w0
	.loc 1 511 0
	bhi	.L657
	.loc 1 517 0
	adrp	x0, .LANCHOR0
	add	x0, x0, :lo12:.LANCHOR0
	add	x0, x0, x24, sxtw 3
	ldr	x0, [x0,1880]
.LVL656:
	.loc 1 518 0
	cbz	x0, .L652
	.loc 1 523 0
	cbnz	w1, .L644
	.loc 1 525 0
	add	x1, x0, 188416
.LVL657:
	ldr	w1, [x1,2388]
	cbz	w1, .L652
.LVL658:
.L644:
	.loc 1 530 0
	add	x22, x0, 104
	ldr	w23, [x0,104]
	.loc 1 532 0
	ldr	w20, [x22,8]
.LVL659:
	.loc 1 533 0
	cmp	w23, w20
	blt	.L658
.L656:
	.loc 1 533 0 is_stmt 0 discriminator 2
	sub	w23, w23, w20
.LVL660:
	.loc 1 536 0 is_stmt 1
	cbz	w23, .L652
	.loc 1 545 0
	adrp	x25, .LC4
	.loc 1 543 0 discriminator 1
	mov	w21, 0
.LVL661:
	.loc 1 545 0
	add	x25, x25, :lo12:.LC4
.LVL662:
.L647:
	uxtw	x19, w20
.LVL663:
	mov	x1, x25
.LVL664:
	lsl	x2, x19, 7
	mov	w0, 26
.LVL665:
	sub	x19, x2, x19, lsl 5
.LVL666:
	.loc 1 543 0 discriminator 3
	add	w21, w21, 1
	.loc 1 545 0
	add	x3, x22, x19
.LVL667:
	.loc 1 547 0
	add	w20, w20, 1
.LVL668:
	and	w20, w20, 1023
.LVL669:
	.loc 1 545 0
	ldr	w2, [x3,56]
	ldr	w3, [x3,28]
	bl	dprint_linux_kernel
.LVL670:
	.loc 1 546 0
	add	x1, x22, x19
	mov	w0, w24
	add	x1, x1, 24
	bl	ReleaseRawStreamData
.LVL671:
	.loc 1 543 0 discriminator 1
	cmp	w21, w23
	bne	.L647
	.loc 1 550 0
	ldr	w0, [x22,8]
	add	w21, w21, w0
.LVL672:
	.loc 1 551 0
	cmp	w21, 1023
	ble	.L659
	.loc 1 553 0
	sub	w21, w21, #1024
	.loc 1 557 0
	mov	w0, 0
	.loc 1 553 0
	str	w21, [x22,8]
.LVL673:
.L654:
	.loc 1 558 0
	ldp	x19, x20, [sp,16]
	.cfi_remember_state
	.cfi_restore 20
	.cfi_restore 19
.LVL674:
	ldp	x21, x22, [sp,32]
	.cfi_restore 22
	.cfi_restore 21
	ldp	x23, x24, [sp,48]
	.cfi_restore 24
	.cfi_restore 23
.LVL675:
	ldr	x25, [sp,64]
	.cfi_restore 25
	ldp	x29, x30, [sp], 80
	.cfi_restore 30
	.cfi_restore 29
	.cfi_def_cfa 31, 0
	ret
.LVL676:
.L658:
	.cfi_restore_state
	.loc 1 534 0
	add	w23, w23, 1024
.LVL677:
	b	.L656
.LVL678:
.L659:
	.loc 1 550 0
	str	w21, [x22,8]
	.loc 1 557 0
	mov	w0, 0
	.loc 1 558 0
	ldp	x19, x20, [sp,16]
	.cfi_remember_state
	.cfi_restore 19
	.cfi_restore 20
.LVL679:
	ldp	x21, x22, [sp,32]
	.cfi_restore 21
	.cfi_restore 22
	ldp	x23, x24, [sp,48]
	.cfi_restore 23
	.cfi_restore 24
.LVL680:
	ldr	x25, [sp,64]
	.cfi_restore 25
	ldp	x29, x30, [sp], 80
	.cfi_restore 29
	.cfi_restore 30
	.cfi_def_cfa 31, 0
	ret
.LVL681:
.L652:
	.cfi_restore_state
	.loc 1 520 0
	mov	w0, -1
.LVL682:
	b	.L654
.LVL683:
.L657:
	.loc 1 513 0
	adrp	x1, .LC41
.LVL684:
	mov	w0, 0
	add	x1, x1, :lo12:.LC41
	mov	w2, w24
	bl	dprint_linux_kernel
.LVL685:
	.loc 1 514 0
	mov	w0, -1
	b	.L654
	.cfi_endproc
.LFE2649:
	.size	DeleteRawPacketInBuffer, .-DeleteRawPacketInBuffer
	.align	2
	.global	SM_Reset
	.type	SM_Reset, %function
SM_Reset:
.LFB2670:
	.loc 1 1213 0
	.cfi_startproc
.LVL686:
	sub	sp, sp, #1216
	.cfi_def_cfa_offset 1216
	.loc 1 1221 0
	cmp	w0, 31
	.loc 1 1213 0
	stp	x29, x30, [sp, -96]!
	.cfi_def_cfa_offset 1312
	.cfi_offset 29, -1312
	.cfi_offset 30, -1304
	add	x29, sp, 0
	.cfi_def_cfa_register 29
	stp	x23, x24, [sp,48]
	.cfi_offset 23, -1264
	.cfi_offset 24, -1256
	adrp	x24, __stack_chk_guard
	str	x27, [sp,80]
	stp	x19, x20, [sp,16]
	.cfi_offset 27, -1232
	.cfi_offset 19, -1296
	.cfi_offset 20, -1288
	mov	w20, w0
	ldr	x0, [x24,#:lo12:__stack_chk_guard]
.LVL687:
	stp	x21, x22, [sp,32]
	stp	x25, x26, [sp,64]
	.cfi_offset 21, -1280
	.cfi_offset 22, -1272
	.cfi_offset 25, -1248
	.cfi_offset 26, -1240
	.loc 1 1213 0
	str	x0, [x29,1304]
	.loc 1 1221 0
	bhi	.L665
	.loc 1 1223 0
	adrp	x0, .LANCHOR0
	add	x0, x0, :lo12:.LANCHOR0
	add	x0, x0, x20, sxtw 3
	ldr	x19, [x0,1880]
.LVL688:
	.loc 1 1224 0
	cbz	x19, .L666
	.loc 1 1231 0
	add	x3, x19, 56
	.loc 1 1235 0
	add	x21, x19, 200704
	.loc 1 1231 0
	add	x22, x29, 104
	.loc 1 1232 0
	add	x25, x19, 188416
	.loc 1 1236 0
	add	x26, x21, 3988
	mov	x2, 1152
	.loc 1 1231 0
	ldp	x8, x9, [x3]
	ldp	x6, x7, [x3,16]
	ldp	x4, x5, [x3,32]
	.loc 1 1236 0
	mov	x1, x26
	add	x0, x29, 152
	.loc 1 1231 0
	stp	x4, x5, [x22,32]
	stp	x8, x9, [x22]
	stp	x6, x7, [x22,16]
	.loc 1 1232 0
	ldr	w23, [x25,2388]
	.loc 1 1235 0
	ldr	w27, [x21,3984]
	.loc 1 1236 0
	bl	memcpy
.LVL689:
	.loc 1 1239 0
	mov	w0, w20
.LVL690:
	.loc 1 1256 0
	sub	w23, w23, #1
.LVL691:
	.loc 1 1239 0
	bl	SM_Stop
.LVL692:
.LBB209:
.LBB210:
	.loc 1 758 0
	ldr	w1, [x19,104]
.LBE210:
.LBE209:
	.loc 1 1242 0
	add	x2, x19, 104
.LBB213:
.LBB211:
	.loc 1 758 0
	ldr	w4, [x19,108]
.LBE211:
.LBE213:
	.loc 1 1246 0
	mov	x0, x2
.LBB214:
.LBB212:
	.loc 1 758 0
	sub	w4, w4, w1
.LVL693:
	.loc 1 762 0
	cmp	w4, wzr
	add	w1, w4, 1024
.LBE212:
.LBE214:
	.loc 1 1246 0
	csel	w1, w1, w4, lt
	bl	DeleteRawPacket
.LVL694:
	.loc 1 1247 0
	mov	w1, 1
	mov	w0, w20
	bl	DeleteRawPacketInBuffer
.LVL695:
	.loc 1 1250 0
	mov	x2, 9240
	mov	w1, 0
	movk	x2, 0x3, lsl 16
	mov	x0, x19
	bl	memset
.LVL696:
	.loc 1 1251 0
	mov	x0, -1
	.loc 1 1252 0
	mov	w2, 2
	.loc 1 1255 0
	mov	x1, x22
	.loc 1 1251 0
	str	x0, [x21,3936]
	.loc 1 1252 0
	str	w2, [x21,3972]
	.loc 1 1255 0
	mov	w0, w20
	bl	SM_Config
.LVL697:
	.loc 1 1256 0
	cmp	w23, 1
	.loc 1 1266 0
	mov	x0, x26
	.loc 1 1256 0
	cset	w1, ls
	str	w1, [x25,2388]
.LVL698:
	.loc 1 1265 0
	str	w27, [x21,3984]
	.loc 1 1266 0
	add	x1, x29, 152
	mov	x2, 1152
	bl	memcpy
.LVL699:
	.loc 1 1268 0
	mov	w0, 0
.L661:
	.loc 1 1269 0
	ldr	x2, [x29,1304]
	ldr	x1, [x24,#:lo12:__stack_chk_guard]
	cmp	x2, x1
	bne	.L667
	ldp	x19, x20, [sp,16]
	.cfi_remember_state
	.cfi_restore 20
	.cfi_restore 19
.LVL700:
	ldp	x21, x22, [sp,32]
	.cfi_restore 22
	.cfi_restore 21
	ldp	x23, x24, [sp,48]
	.cfi_restore 24
	.cfi_restore 23
	ldp	x25, x26, [sp,64]
	.cfi_restore 26
	.cfi_restore 25
	ldr	x27, [sp,80]
	.cfi_restore 27
.LVL701:
	ldp	x29, x30, [sp], 96
	.cfi_restore 30
	.cfi_restore 29
	.cfi_def_cfa 31, 1216
	add	sp, sp, 1216
	.cfi_def_cfa_offset 1120
	ret
.LVL702:
.L665:
	.cfi_restore_state
	.loc 1 1221 0 discriminator 1
	mov	w0, -1
	b	.L661
.LVL703:
.L666:
	.loc 1 1226 0
	adrp	x1, .LC42
	mov	w0, 0
	add	x1, x1, :lo12:.LC42
	mov	w2, 1226
	bl	dprint_linux_kernel
.LVL704:
	.loc 1 1227 0
	mov	w0, -1
	b	.L661
.LVL705:
.L667:
	.loc 1 1269 0
	bl	__stack_chk_fail
.LVL706:
	.cfi_endproc
.LFE2670:
	.size	SM_Reset, .-SM_Reset
	.align	2
	.global	ReadRawStreamData
	.type	ReadRawStreamData, %function
ReadRawStreamData:
.LFB2708:
	.loc 1 3883 0
	.cfi_startproc
.LVL707:
	stp	x29, x30, [sp, -96]!
	.cfi_def_cfa_offset 96
	.cfi_offset 29, -96
	.cfi_offset 30, -88
	add	x29, sp, 0
	.cfi_def_cfa_register 29
	stp	x19, x20, [sp,16]
	.cfi_offset 19, -80
	.cfi_offset 20, -72
	sxtw	x19, w0
	adrp	x20, __stack_chk_guard
	stp	x21, x22, [sp,32]
	stp	x23, x24, [sp,48]
	.cfi_offset 21, -64
	.cfi_offset 22, -56
	.cfi_offset 23, -48
	.cfi_offset 24, -40
	.loc 1 3883 0
	mov	x22, x1
	mov	x23, x19
	.loc 1 3887 0
	adrp	x1, .LANCHOR0
.LVL708:
	add	x19, x19, 234
	add	x1, x1, :lo12:.LANCHOR0
	.loc 1 3883 0
	ldr	x2, [x20,#:lo12:__stack_chk_guard]
	.loc 1 3887 0
	add	x19, x1, x19, lsl 3
	.loc 1 3889 0
	str	xzr, [x29,80]
	.loc 1 3883 0
	str	x2, [x29,88]
	.loc 1 3889 0
	stp	xzr, xzr, [x29,64]
	.loc 1 3887 0
	ldr	x21, [x19,8]
.LVL709:
	.loc 1 3890 0
	cbz	x21, .L694
	.loc 1 3895 0
	bl	VCTRL_GetStreamInterface
.LVL710:
	.loc 1 3896 0
	cbz	x0, .L697
	.loc 1 3902 0
	ldp	x2, x3, [x0]
	stp	x2, x3, [x29,64]
	ldr	x1, [x0,16]
	str	x1, [x29,80]
	.loc 1 3903 0
	ldr	x0, [x0,8]
.LVL711:
	cbz	x0, .L694
	.loc 1 3905 0
	ldr	x2, [x29,72]
	mov	x1, x22
	ldr	w0, [x29,64]
	blr	x2
.LVL712:
	.loc 1 3906 0
	cbnz	w0, .L694
	.loc 1 3911 0
	ldrb	w24, [x22,1]
	cmp	w24, 1
	beq	.L698
	.loc 1 3923 0
	ldr	x0, [x19,8]
	ldrsb	w1, [x0,57]
	cmp	w1, 1
	beq	.L699
.LVL713:
.L675:
	.loc 1 3938 0
	ldr	w2, [x21,124]
	mov	w0, 0
	ldr	w1, [x22,4]
	add	w1, w2, w1
	str	w1, [x21,124]
	b	.L670
.LVL714:
.L697:
	.loc 1 3898 0
	adrp	x1, .LC43
.LVL715:
	mov	w2, w23
	add	x1, x1, :lo12:.LC43
	bl	dprint_linux_kernel
.LVL716:
.L694:
	.loc 1 3899 0
	mov	w0, -7
.L670:
	.loc 1 3942 0
	ldr	x2, [x29,88]
	ldr	x1, [x20,#:lo12:__stack_chk_guard]
	cmp	x2, x1
	bne	.L700
	ldp	x19, x20, [sp,16]
	.cfi_remember_state
	.cfi_restore 20
	.cfi_restore 19
	ldp	x21, x22, [sp,32]
	.cfi_restore 22
	.cfi_restore 21
.LVL717:
	ldp	x23, x24, [sp,48]
	.cfi_restore 24
	.cfi_restore 23
.LVL718:
	ldp	x29, x30, [sp], 96
	.cfi_restore 30
	.cfi_restore 29
	.cfi_def_cfa 31, 0
	ret
.LVL719:
.L699:
	.cfi_restore_state
	.loc 1 3923 0 discriminator 1
	ldrsb	w0, [x0,58]
	cmp	w0, 1
	beq	.L675
.LVL720:
	.loc 1 3926 0
	mov	w0, w23
	mov	x1, x22
	bl	FillExtraData
.LVL721:
	cbz	w0, .L675
	.loc 1 3928 0
	adrp	x1, .LC45
	mov	w0, 0
	add	x1, x1, :lo12:.LC45
	mov	w2, w23
	bl	dprint_linux_kernel
.LVL722:
	.loc 1 3929 0
	ldr	w0, [x29,64]
	mov	x1, x22
	bl	ReleaseRawStreamData
.LVL723:
	.loc 1 3930 0
	cbz	w0, .L694
	.loc 1 3932 0
	adrp	x1, .LC46
	mov	w0, 0
	add	x1, x1, :lo12:.LC46
	bl	dprint_linux_kernel
.LVL724:
	.loc 1 3934 0
	mov	w0, -7
	b	.L670
.LVL725:
.L698:
	.loc 1 3913 0
	mov	w0, w23
	mov	x1, x22
	bl	FillEosRawStream
.LVL726:
	cbnz	w0, .L701
	.loc 1 3918 0
	mov	w0, w23
	mov	w1, w24
	bl	VCTRL_SetLastFrameState
.LVL727:
	b	.L675
.L701:
	.loc 1 3915 0
	adrp	x1, .LC44
	mov	w0, 0
	add	x1, x1, :lo12:.LC44
	mov	w2, w23
	bl	dprint_linux_kernel
.LVL728:
	.loc 1 3916 0
	mov	w0, -7
	b	.L670
.L700:
	.loc 1 3942 0
	bl	__stack_chk_fail
.LVL729:
	.cfi_endproc
.LFE2708:
	.size	ReadRawStreamData, .-ReadRawStreamData
	.align	2
	.global	SM_MoveRawData
	.type	SM_MoveRawData, %function
SM_MoveRawData:
.LFB2710:
	.loc 1 3975 0
	.cfi_startproc
.LVL730:
	stp	x29, x30, [sp, -80]!
	.cfi_def_cfa_offset 80
	.cfi_offset 29, -80
	.cfi_offset 30, -72
	add	x29, sp, 0
	.cfi_def_cfa_register 29
	stp	x21, x22, [sp,32]
	stp	x19, x20, [sp,16]
	stp	x23, x24, [sp,48]
	str	x25, [sp,64]
	.cfi_offset 21, -48
	.cfi_offset 22, -40
	.cfi_offset 19, -64
	.cfi_offset 20, -56
	.cfi_offset 23, -32
	.cfi_offset 24, -24
	.cfi_offset 25, -16
	.loc 1 3975 0
	mov	x21, x0
	.loc 1 3979 0
	ldr	w0, [x0,108]
.LVL731:
	.loc 1 3987 0
	ldr	w4, [x21,84]
	.loc 1 3980 0 discriminator 1
	add	w1, w0, 1023
	subs	w22, w0, #1
.LVL732:
	csel	w22, w1, w22, mi
	.loc 1 3982 0 discriminator 1
	add	w1, w0, 1022
	subs	w0, w0, #2
.LVL733:
	csel	w0, w1, w0, mi
	.loc 1 3984 0
	sxtw	x1, w22
.LVL734:
	lsl	x2, x1, 7
	.loc 1 3987 0
	sxtw	x0, w0
	.loc 1 3984 0
	sub	x1, x2, x1, lsl 5
.LVL735:
	.loc 1 3987 0
	lsl	x2, x0, 7
	add	x25, x21, x1
	sub	x0, x2, x0, lsl 5
.LVL736:
	.loc 1 3984 0
	add	x20, x25, 128
.LVL737:
	.loc 1 3987 0
	add	x0, x21, x0
	ldr	w3, [x25,132]
	add	x23, x0, 112
	ldr	w2, [x0,132]
	add	w1, w2, w3
	cmp	w1, w4
	bgt	.L705
	.loc 1 3989 0
	add	x19, x0, 144
	ldr	x0, [x0,168]
	cbz	x0, .L707
	.loc 1 3993 0
	adrp	x1, .LC47
	mov	w0, 1
	add	x1, x1, :lo12:.LC47
	bl	dprint_linux_kernel
.LVL738:
	.loc 1 3994 0
	ldrsw	x3, [x23,20]
	ldr	x0, [x19,24]
	ldr	x1, [x25,168]
	ldrsw	x2, [x25,132]
	add	x0, x3, x0
	bl	memcpy
.LVL739:
	.loc 1 3995 0
	ldr	w3, [x23,20]
	.loc 1 3997 0
	add	x2, x21, 188416
	.loc 1 3995 0
	ldr	w0, [x25,132]
	.loc 1 3997 0
	mov	x1, x20
	.loc 1 3995 0
	add	w0, w3, w0
	str	w0, [x23,20]
	.loc 1 3997 0
	ldr	w0, [x2,2384]
	bl	ReleaseRawStreamData
.LVL740:
	.loc 1 3998 0
	str	w22, [x21,108]
	.loc 1 4006 0
	mov	w0, 0
.L706:
	.loc 1 4007 0
	ldp	x19, x20, [sp,16]
	.cfi_remember_state
	.cfi_restore 20
	.cfi_restore 19
.LVL741:
	ldp	x21, x22, [sp,32]
	.cfi_restore 22
	.cfi_restore 21
.LVL742:
	ldp	x23, x24, [sp,48]
	.cfi_restore 24
	.cfi_restore 23
	ldr	x25, [sp,64]
	.cfi_restore 25
	ldp	x29, x30, [sp], 80
	.cfi_restore 30
	.cfi_restore 29
	.cfi_def_cfa 31, 0
	ret
.LVL743:
.L707:
	.cfi_restore_state
	.loc 1 3991 0
	mov	w0, -7
	b	.L706
.L705:
	.loc 1 4002 0
	adrp	x1, .LC48
	mov	w0, 1
	add	x1, x1, :lo12:.LC48
	bl	dprint_linux_kernel
.LVL744:
	.loc 1 4003 0
	mov	w0, -7
	b	.L706
	.cfi_endproc
.LFE2710:
	.size	SM_MoveRawData, .-SM_MoveRawData
	.align	2
	.global	SM_HandleBlockRawPacketArray
	.type	SM_HandleBlockRawPacketArray, %function
SM_HandleBlockRawPacketArray:
.LFB2712:
	.loc 1 4169 0
	.cfi_startproc
.LVL745:
	stp	x29, x30, [sp, -16]!
	.cfi_def_cfa_offset 16
	.cfi_offset 29, -16
	.cfi_offset 30, -8
	add	x29, sp, 0
	.cfi_def_cfa_register 29
	.loc 1 4176 0
	ldrsb	w1, [x0,2]
	cbz	w1, .L708
.LBB219:
.LBB220:
.LBB221:
.LBB222:
	.loc 1 756 0
	adds	x1, x0, 104
	beq	.L711
	.loc 1 758 0
	ldr	w2, [x0,104]
	ldr	w1, [x1,4]
	sub	w1, w1, w2
.LVL746:
	.loc 1 762 0
	add	w2, w1, 1024
	cmp	w1, wzr
	csel	w1, w2, w1, lt
.L710:
.LBE222:
.LBE221:
	.loc 1 4182 0
	ldr	w2, [x0,80]
	cmp	w2, w1
	ble	.L715
.L708:
.LBE220:
.LBE219:
	.loc 1 4198 0
	ldp	x29, x30, [sp], 16
	.cfi_remember_state
	.cfi_restore 30
	.cfi_restore 29
	.cfi_def_cfa 31, 0
	ret
.L715:
	.cfi_restore_state
.LBB225:
.LBB223:
	.loc 1 4187 0
	bl	SM_MoveRawData
.LVL747:
.LBE223:
.LBE225:
	.loc 1 4198 0
	ldp	x29, x30, [sp], 16
	.cfi_remember_state
	.cfi_restore 29
	.cfi_restore 30
	.cfi_def_cfa 31, 0
	ret
.LVL748:
.L711:
	.cfi_restore_state
.LBB226:
.LBB224:
	.loc 1 4171 0
	mov	w1, 0
.LVL749:
	b	.L710
.LBE224:
.LBE226:
	.cfi_endproc
.LFE2712:
	.size	SM_HandleBlockRawPacketArray, .-SM_HandleBlockRawPacketArray
	.align	2
	.global	WaitSCDFinish
	.type	WaitSCDFinish, %function
WaitSCDFinish:
.LFB2714:
	.loc 1 4297 0
	.cfi_startproc
	.loc 1 4300 0
	adrp	x0, .LANCHOR0+2144
	.loc 1 4297 0
	stp	x29, x30, [sp, -32]!
	.cfi_def_cfa_offset 32
	.cfi_offset 29, -32
	.cfi_offset 30, -24
	add	x29, sp, 0
	.cfi_def_cfa_register 29
	.loc 1 4300 0
	ldr	w0, [x0,#:lo12:.LANCHOR0+2144]
	.loc 1 4297 0
	stp	x19, x20, [sp,16]
	.cfi_offset 19, -16
	.cfi_offset 20, -8
	.loc 1 4300 0
	cmp	w0, 1
	beq	.L720
.L719:
	.loc 1 4318 0
	mov	w0, 0
.L718:
	.loc 1 4320 0
	ldp	x19, x20, [sp,16]
	.cfi_remember_state
	.cfi_restore 20
	.cfi_restore 19
	ldp	x29, x30, [sp], 32
	.cfi_restore 30
	.cfi_restore 29
	.cfi_def_cfa 31, 0
	ret
.L720:
	.cfi_restore_state
	.loc 1 4304 0
	adrp	x20, gScdRegBaseAddr
	mov	w19, 200
	add	x20, x20, :lo12:gScdRegBaseAddr
	b	.L717
.L723:
	.loc 1 4302 0 discriminator 1
	beq	.L722
.L717:
	.loc 1 4304 0
	ldr	w0, [x20]
	add	w0, w0, 2112
	bl	MEM_ReadPhyWord
.LVL750:
	.loc 1 4302 0 discriminator 1
	subs	w19, w19, #1
	.loc 1 4304 0
	tbz	x0, 0, .L723
	b	.L719
.L722:
	.loc 1 4314 0
	mov	w0, -7
	b	.L718
	.cfi_endproc
.LFE2714:
	.size	WaitSCDFinish, .-WaitSCDFinish
	.align	2
	.global	PrintScdVtrlReg
	.type	PrintScdVtrlReg, %function
PrintScdVtrlReg:
.LFB2716:
	.loc 1 4398 0
	.cfi_startproc
	stp	x29, x30, [sp, -96]!
	.cfi_def_cfa_offset 96
	.cfi_offset 29, -96
	.cfi_offset 30, -88
	add	x29, sp, 0
	.cfi_def_cfa_register 29
	stp	x19, x20, [sp,16]
	.cfi_offset 19, -80
	.cfi_offset 20, -72
	.loc 1 4402 0
	adrp	x19, gScdRegBaseAddr
	.loc 1 4398 0
	str	x25, [sp,64]
	stp	x21, x22, [sp,32]
	stp	x23, x24, [sp,48]
	.cfi_offset 25, -32
	.cfi_offset 21, -64
	.cfi_offset 22, -56
	.cfi_offset 23, -48
	.cfi_offset 24, -40
	.loc 1 4402 0
	ldr	w0, [x19,#:lo12:gScdRegBaseAddr]
	add	w0, w0, 2052
	bl	MEM_ReadPhyWord
.LVL751:
	mov	w2, w0
	.loc 1 4404 0
	ldr	w0, [x19,#:lo12:gScdRegBaseAddr]
	.loc 1 4402 0
	str	x2, [x29,88]
	.loc 1 4404 0
	add	w0, w0, 2056
	bl	MEM_ReadPhyWord
.LVL752:
	mov	w25, w0
	.loc 1 4407 0
	ldr	w0, [x19,#:lo12:gScdRegBaseAddr]
	add	w0, w0, 2060
	bl	MEM_ReadPhyWord
.LVL753:
	mov	w24, w0
	.loc 1 4410 0
	ldr	w0, [x19,#:lo12:gScdRegBaseAddr]
	add	w0, w0, 2064
	bl	MEM_ReadPhyWord
.LVL754:
	mov	w23, w0
	.loc 1 4413 0
	ldr	w0, [x19,#:lo12:gScdRegBaseAddr]
	add	w0, w0, 2068
	bl	MEM_ReadPhyWord
.LVL755:
	mov	w22, w0
	.loc 1 4416 0
	ldr	w0, [x19,#:lo12:gScdRegBaseAddr]
	add	w0, w0, 2072
	bl	MEM_ReadPhyWord
.LVL756:
	mov	w21, w0
	.loc 1 4419 0
	ldr	w0, [x19,#:lo12:gScdRegBaseAddr]
	add	w0, w0, 2080
	bl	MEM_ReadPhyWord
.LVL757:
	mov	w20, w0
	.loc 1 4422 0
	ldr	w0, [x19,#:lo12:gScdRegBaseAddr]
	add	w0, w0, 2048
	bl	MEM_ReadPhyWord
.LVL758:
	mov	w19, w0
	.loc 1 4424 0
	adrp	x1, .LC49
	mov	w0, 24
	add	x1, x1, :lo12:.LC49
	bl	dprint_linux_kernel
.LVL759:
	.loc 1 4425 0
	ldr	x2, [x29,88]
	adrp	x1, .LC50
	add	x1, x1, :lo12:.LC50
	mov	w0, 24
	bl	dprint_linux_kernel
.LVL760:
	.loc 1 4426 0
	adrp	x1, .LC51
	mov	w2, w25
	add	x1, x1, :lo12:.LC51
	mov	w0, 24
	bl	dprint_linux_kernel
.LVL761:
	.loc 1 4427 0
	adrp	x1, .LC52
	mov	w2, w24
	add	x1, x1, :lo12:.LC52
	mov	w0, 24
	bl	dprint_linux_kernel
.LVL762:
	.loc 1 4428 0
	adrp	x1, .LC53
	mov	w2, w23
	add	x1, x1, :lo12:.LC53
	mov	w0, 24
	bl	dprint_linux_kernel
.LVL763:
	.loc 1 4429 0
	adrp	x1, .LC54
	mov	w2, w22
	add	x1, x1, :lo12:.LC54
	mov	w0, 24
	bl	dprint_linux_kernel
.LVL764:
	.loc 1 4430 0
	adrp	x1, .LC55
	mov	w2, w21
	add	x1, x1, :lo12:.LC55
	mov	w0, 24
	bl	dprint_linux_kernel
.LVL765:
	.loc 1 4431 0
	adrp	x1, .LC56
	mov	w2, w20
	add	x1, x1, :lo12:.LC56
	mov	w0, 24
	bl	dprint_linux_kernel
.LVL766:
	.loc 1 4432 0
	adrp	x1, .LC57
	sxtb	w2, w19
	add	x1, x1, :lo12:.LC57
	mov	w0, 24
	bl	dprint_linux_kernel
.LVL767:
	.loc 1 4434 0
	ldr	x25, [sp,64]
	.cfi_restore 25
	ldp	x19, x20, [sp,16]
	.cfi_restore 20
	.cfi_restore 19
	ldp	x21, x22, [sp,32]
	.cfi_restore 22
	.cfi_restore 21
	ldp	x23, x24, [sp,48]
	.cfi_restore 24
	.cfi_restore 23
	ldp	x29, x30, [sp], 96
	.cfi_restore 30
	.cfi_restore 29
	.cfi_def_cfa 31, 0
	ret
	.cfi_endproc
.LFE2716:
	.size	PrintScdVtrlReg, .-PrintScdVtrlReg
	.align	2
	.global	WriteScdVtrlReg
	.type	WriteScdVtrlReg, %function
WriteScdVtrlReg:
.LFB2691:
	.loc 1 2418 0
	.cfi_startproc
.LVL768:
	stp	x29, x30, [sp, -32]!
	.cfi_def_cfa_offset 32
	.cfi_offset 29, -32
	.cfi_offset 30, -24
	.loc 1 2419 0
	mov	w1, 1
	.loc 1 2418 0
	add	x29, sp, 0
	.cfi_def_cfa_register 29
	stp	x19, x20, [sp,16]
	.cfi_offset 19, -16
	.cfi_offset 20, -8
	.loc 1 2419 0
	adrp	x19, gScdRegBaseAddr
	.loc 1 2418 0
	mov	x20, x0
	.loc 1 2419 0
	ldr	w0, [x19,#:lo12:gScdRegBaseAddr]
.LVL769:
	add	w0, w0, 2084
	bl	MEM_WritePhyWord
.LVL770:
	.loc 1 2422 0
	ldr	w0, [x19,#:lo12:gScdRegBaseAddr]
	ldr	w1, [x20,4]
	add	w0, w0, 2052
	bl	MEM_WritePhyWord
.LVL771:
	.loc 1 2425 0
	ldr	w0, [x19,#:lo12:gScdRegBaseAddr]
	ldr	w1, [x20,24]
	add	w0, w0, 2056
	bl	MEM_WritePhyWord
.LVL772:
	.loc 1 2428 0
	ldr	w0, [x19,#:lo12:gScdRegBaseAddr]
	ldr	w1, [x20,28]
	add	w0, w0, 2060
	bl	MEM_WritePhyWord
.LVL773:
	.loc 1 2431 0
	ldr	w0, [x19,#:lo12:gScdRegBaseAddr]
	ldr	w1, [x20,32]
	add	w0, w0, 2064
	bl	MEM_WritePhyWord
.LVL774:
	.loc 1 2434 0
	ldr	w0, [x19,#:lo12:gScdRegBaseAddr]
	ldr	w1, [x20,36]
	add	w0, w0, 2068
	bl	MEM_WritePhyWord
.LVL775:
	.loc 1 2437 0
	ldr	w0, [x19,#:lo12:gScdRegBaseAddr]
	ldr	w1, [x20,40]
	add	w0, w0, 2072
	bl	MEM_WritePhyWord
.LVL776:
	.loc 1 2440 0
	ldr	w0, [x19,#:lo12:gScdRegBaseAddr]
	ldr	w1, [x20,136]
	bl	MEM_WritePhyWord
.LVL777:
	.loc 1 2462 0
	ldr	w3, [x20,132]
	ldr	w1, [x20,44]
	ldrsb	w2, [x20,1]
	ldr	w0, [x19,#:lo12:gScdRegBaseAddr]
	and	w1, w1, 15
	orr	w1, w1, w3, lsl 8
	ubfiz	w2, w2, 4, 1
	orr	w1, w1, w2
	add	w0, w0, 2080
	bl	MEM_WritePhyWord
.LVL778:
	.loc 1 2466 0
	mov	w2, 1
	mov	w0, 2
	mov	w1, 0
	bl	SMMU_SetMasterReg
.LVL779:
	.loc 1 2472 0
	ldr	w0, [x19,#:lo12:gScdRegBaseAddr]
	mov	w1, 0
	add	w0, w0, 2076
	bl	MEM_WritePhyWord
.LVL780:
	.loc 1 2475 0
	bl	PrintScdVtrlReg
.LVL781:
	.loc 1 2478 0
	ldr	w0, [x19,#:lo12:gScdRegBaseAddr]
	mov	w1, 0
	add	w0, w0, 2048
	bl	MEM_WritePhyWord
.LVL782:
	.loc 1 2479 0
	ldr	w0, [x19,#:lo12:gScdRegBaseAddr]
	ldrb	w1, [x20,2]
	add	w0, w0, 2048
	and	w1, w1, 1
	bl	MEM_WritePhyWord
.LVL783:
	.loc 1 2480 0
	ldp	x19, x20, [sp,16]
	.cfi_restore 20
	.cfi_restore 19
.LVL784:
	ldp	x29, x30, [sp], 32
	.cfi_restore 30
	.cfi_restore 29
	.cfi_def_cfa 31, 0
	ret
	.cfi_endproc
.LFE2691:
	.size	WriteScdVtrlReg, .-WriteScdVtrlReg
	.align	2
	.global	ScdDriver
	.type	ScdDriver, %function
ScdDriver:
.LFB2693:
	.loc 1 2583 0
	.cfi_startproc
.LVL785:
	stp	x29, x30, [sp, -32]!
	.cfi_def_cfa_offset 32
	.cfi_offset 29, -32
	.cfi_offset 30, -24
	add	x29, sp, 0
	.cfi_def_cfa_register 29
	stp	x19, x20, [sp,16]
	.cfi_offset 19, -16
	.cfi_offset 20, -8
	.loc 1 2583 0
	mov	x20, x0
	.loc 1 2586 0
	mov	x0, x1
.LVL786:
	mov	w1, w2
.LVL787:
	mov	x2, x3
.LVL788:
	mov	x3, x4
.LVL789:
	mov	w4, w5
.LVL790:
	ldr	w5, [x20,132]
.LVL791:
	bl	WriteScdMsg
.LVL792:
	mov	w19, w0
.LVL793:
	.loc 1 2587 0
	cbnz	w0, .L727
	.loc 1 2591 0
	adrp	x1, .LANCHOR0+2144
	mov	w2, 1
	.loc 1 2592 0
	mov	x0, x20
	.loc 1 2591 0
	str	w2, [x1,#:lo12:.LANCHOR0+2144]
	.loc 1 2592 0
	bl	WriteScdVtrlReg
.LVL794:
.L727:
	.loc 1 2595 0
	mov	w0, w19
	ldp	x19, x20, [sp,16]
	.cfi_restore 20
	.cfi_restore 19
.LVL795:
	ldp	x29, x30, [sp], 32
	.cfi_restore 30
	.cfi_restore 29
	.cfi_def_cfa 31, 0
	ret
	.cfi_endproc
.LFE2693:
	.size	ScdDriver, .-ScdDriver
	.align	2
	.global	CutStreamWithSCD
	.type	CutStreamWithSCD, %function
CutStreamWithSCD:
.LFB2690:
	.loc 1 2245 0
	.cfi_startproc
.LVL796:
	stp	x29, x30, [sp, -272]!
	.cfi_def_cfa_offset 272
	.cfi_offset 29, -272
	.cfi_offset 30, -264
	add	x29, sp, 0
	.cfi_def_cfa_register 29
	stp	x23, x24, [sp,48]
	.cfi_offset 23, -224
	.cfi_offset 24, -216
	adrp	x24, __stack_chk_guard
	stp	x19, x20, [sp,16]
	.cfi_offset 19, -256
	.cfi_offset 20, -248
	mov	x19, x0
	.loc 1 2254 0
	str	wzr, [x29,116]
.LVL797:
	.loc 1 2245 0
	stp	x21, x22, [sp,32]
	stp	x25, x26, [sp,64]
	stp	x27, x28, [sp,80]
	.cfi_offset 21, -240
	.cfi_offset 22, -232
	.cfi_offset 25, -208
	.cfi_offset 26, -200
	.cfi_offset 27, -192
	.cfi_offset 28, -184
	.loc 1 2272 0
	adds	x26, x0, 104
	.loc 1 2267 0
	add	x27, x0, 98304
	.loc 1 2245 0
	ldr	x0, [x24,#:lo12:__stack_chk_guard]
.LVL798:
	.loc 1 2267 0
	add	x22, x27, 128
.LVL799:
	.loc 1 2245 0
	str	x0, [x29,264]
	.loc 1 2270 0
	ldr	w0, [x19,76]
	str	w0, [x29,108]
	.loc 1 2269 0
	ldr	w23, [x19,60]
	.loc 1 2273 0
	beq	.L733
	cbz	x22, .L733
	.loc 1 2281 0
	add	x28, x19, 188416
	.loc 1 2278 0
	str	wzr, [x29,112]
.LVL800:
	.loc 1 2281 0
	add	x25, x28, 2232
	.loc 1 2289 0
	adrp	x1, .LC58
	mov	w0, 26
	add	x1, x1, :lo12:.LC58
	.loc 1 2281 0
	str	xzr, [x28,2232]
	str	wzr, [x25,8]
.LBB237:
.LBB238:
	.loc 1 758 0
	ldr	w2, [x19,104]
	ldr	w20, [x26,4]
	sub	w20, w20, w2
	.loc 1 762 0
	cmp	w20, wzr
	add	w2, w20, 1024
	csel	w20, w2, w20, lt
.LBE238:
.LBE237:
	.loc 1 2289 0
	mov	w2, w20
	bl	dprint_linux_kernel
.LVL801:
.LBB239:
.LBB240:
	.loc 1 741 0
	ldr	w21, [x26,20]
	.loc 1 742 0
	ldr	w0, [x26,12]
	.loc 1 743 0
	subs	w21, w21, w0
	bmi	.L733
.LBE240:
.LBE239:
	.loc 1 2296 0
	adrp	x1, .LC61
	mov	w0, 26
	add	x1, x1, :lo12:.LC61
	mov	w2, w21
	bl	dprint_linux_kernel
.LVL802:
	.loc 1 2302 0 discriminator 1
	cmp	w20, wzr
	ble	.L746
	cmp	w21, 3
	ble	.L746
.LBB241:
.LBB242:
	.loc 1 1127 0
	ldr	w2, [x22,4]
.LBE242:
.LBE241:
	.loc 1 2315 0
	adrp	x1, .LC59
.LBB245:
.LBB243:
	.loc 1 1127 0
	ldr	w20, [x27,128]
.LBE243:
.LBE245:
	.loc 1 2315 0
	mov	w0, 26
	add	x1, x1, :lo12:.LC59
.LBB246:
.LBB244:
	.loc 1 1127 0
	sub	w20, w2, w20
	.loc 1 1131 0
	cmp	w20, wzr
	add	w2, w20, 1152
	csel	w20, w2, w20, lt
.LBE244:
.LBE246:
	.loc 1 2314 0
	mov	w2, 1152
	sub	w20, w2, w20
	.loc 1 2315 0
	mov	w2, w20
	bl	dprint_linux_kernel
.LVL803:
	.loc 1 2316 0
	cmp	w20, 288
	ble	.L737
	.loc 1 2319 0
	mov	x0, x22
	add	x1, x29, 116
	add	x2, x29, 112
	bl	GetFreeSegBuf
.LVL804:
	.loc 1 2323 0
	ldr	w5, [x29,112]
	.loc 1 2324 0
	adrp	x1, .LC60
	.loc 1 2322 0
	ldr	w4, [x29,116]
	.loc 1 2324 0
	mov	w0, 26
.LVL805:
	.loc 1 2323 0
	sub	w5, w5, #79
.LVL806:
	.loc 1 2324 0
	add	x1, x1, :lo12:.LC60
.LVL807:
	.loc 1 2322 0
	add	w4, w4, 15
.LVL808:
	.loc 1 2324 0
	mov	w2, w5
	.loc 1 2322 0
	and	w4, w4, -16
	.loc 1 2323 0
	str	w5, [x29,112]
	.loc 1 2322 0
	str	w4, [x29,116]
	.loc 1 2324 0
	bl	dprint_linux_kernel
.LVL809:
	.loc 1 2328 0
	ldr	w0, [x22,20]
	ldr	w2, [x29,112]
	cmp	w2, w0, asr 3
	ble	.L737
	.loc 1 2333 0
	add	x27, x19, 200704
.LBB247:
.LBB248:
.LBB249:
	.loc 1 853 0
	ldr	w7, [x22,16]
.LBE249:
.LBE248:
.LBE247:
	.loc 1 2332 0
	str	w20, [x28,2280]
.LVL810:
	.loc 1 2357 0
	cmp	w23, 6
.LVL811:
	.loc 1 2343 0
	add	w0, w0, w7
	str	w0, [x29,156]
	.loc 1 2333 0
	ldr	w10, [x27,3972]
	.loc 1 2363 0
	sub	w1, w23, #15
	.loc 1 2344 0
	ldr	w0, [x29,116]
	.loc 1 2335 0
	mov	w6, 1
	.loc 1 2336 0
	ldr	w5, [x28,2260]
	.loc 1 2357 0
	cset	w8, eq
	.loc 1 2333 0
	mul	w20, w20, w10
	.loc 1 2337 0
	ldr	x4, [x28,2248]
	.loc 1 2363 0 discriminator 1
	cmp	w1, 1
	.loc 1 2338 0
	ldr	w9, [x28,2272]
	.loc 1 2333 0
	lsl	w1, w20, 2
.LVL812:
	.loc 1 2344 0
	str	w0, [x29,160]
	.loc 1 2347 0
	ldr	w0, [x29,108]
.LVL813:
	.loc 1 2335 0
	strb	w6, [x29,122]
	.loc 1 2333 0
	str	w1, [x28,2276]
	.loc 1 2336 0
	str	w5, [x29,124]
	.loc 1 2337 0
	str	x4, [x29,128]
	.loc 1 2338 0
	str	w9, [x29,144]
	.loc 1 2341 0
	str	w20, [x29,148]
	.loc 1 2342 0
	str	w7, [x29,152]
	.loc 1 2345 0
	strb	w6, [x29,120]
	.loc 1 2347 0
	str	w0, [x29,252]
	.loc 1 2357 0
	str	w8, [x29,256]
	.loc 1 2363 0 discriminator 1
	bls	.L744
	cmp	w23, 1
	beq	.L744
	.loc 1 2368 0
	cbz	w8, .L739
	.loc 1 2370 0
	strb	w6, [x29,121]
	mov	w23, 6
.LVL814:
.L740:
	.loc 1 2385 0
	add	x0, x29, 120
	mov	x1, x25
	mov	x3, x26
	.loc 1 2382 0
	str	w23, [x29,164]
.LVL815:
	.loc 1 2383 0
	mov	w22, 1
.LVL816:
	str	w22, [x29,168]
	.loc 1 2385 0
	bl	ScdDriver
.LVL817:
	mov	w20, w0
	.loc 1 2386 0
	cbnz	w0, .L731
	.loc 1 2392 0
	ldr	w0, [x29,112]
	.loc 1 2390 0
	strb	w22, [x19,5]
	.loc 1 2394 0
	cmp	w0, w21
	.loc 1 2392 0
	str	w0, [x27,3948]
	.loc 1 2391 0
	str	w21, [x27,3944]
	.loc 1 2394 0
	cset	w0, ge
	strb	w0, [x19,2]
	.loc 1 2404 0
	adrp	x0, g_vfmw_osal_fun_ptr
	.loc 1 2403 0
	strb	wzr, [x19,4]
	.loc 1 2404 0
	ldr	x0, [x0,#:lo12:g_vfmw_osal_fun_ptr]
	blr	x0
.LVL818:
	str	w0, [x27,3968]
	.loc 1 2405 0
	strb	wzr, [x19,3]
	.loc 1 2407 0
	b	.L731
.LVL819:
.L733:
	.loc 1 2273 0 discriminator 1
	mov	w20, -1
.L731:
	.loc 1 2408 0
	ldr	x2, [x29,264]
	mov	w0, w20
	ldr	x1, [x24,#:lo12:__stack_chk_guard]
	cmp	x2, x1
	bne	.L751
	ldp	x19, x20, [sp,16]
	.cfi_remember_state
	.cfi_restore 20
	.cfi_restore 19
.LVL820:
	ldp	x21, x22, [sp,32]
	.cfi_restore 22
	.cfi_restore 21
.LVL821:
	ldp	x23, x24, [sp,48]
	.cfi_restore 24
	.cfi_restore 23
	ldp	x25, x26, [sp,64]
	.cfi_restore 26
	.cfi_restore 25
	ldp	x27, x28, [sp,80]
	.cfi_restore 28
	.cfi_restore 27
	ldp	x29, x30, [sp], 272
	.cfi_restore 30
	.cfi_restore 29
	.cfi_def_cfa 31, 0
	ret
.LVL822:
.L744:
	.cfi_restore_state
	mov	w23, 0
.LVL823:
.L738:
	.loc 1 2380 0
	strb	wzr, [x29,121]
	b	.L740
.LVL824:
.L737:
	.loc 1 2316 0 discriminator 1
	mov	w20, -6
	b	.L731
.LVL825:
.L739:
	.loc 1 2373 0
	sub	w0, w23, #2
	cmp	w0, 1
	bhi	.L738
	.loc 1 2375 0
	strb	w6, [x29,121]
	b	.L740
.LVL826:
.L746:
	.loc 1 2304 0
	mov	w20, -5
	b	.L731
.L751:
	.loc 1 2408 0
	bl	__stack_chk_fail
.LVL827:
	.cfi_endproc
.LFE2690:
	.size	CutStreamWithSCD, .-CutStreamWithSCD
	.align	2
	.global	PrintDownMsg
	.type	PrintDownMsg, %function
PrintDownMsg:
.LFB2717:
	.loc 1 4443 0
	.cfi_startproc
.LVL828:
	.loc 1 4444 0
	ret
	.cfi_endproc
.LFE2717:
	.size	PrintDownMsg, .-PrintDownMsg
	.align	2
	.global	PrintScdStateReg
	.type	PrintScdStateReg, %function
PrintScdStateReg:
.LFB2718:
	.loc 1 4453 0
	.cfi_startproc
.LVL829:
	stp	x29, x30, [sp, -32]!
	.cfi_def_cfa_offset 32
	.cfi_offset 29, -32
	.cfi_offset 30, -24
	.loc 1 4455 0
	adrp	x1, .LC62
	.loc 1 4453 0
	add	x29, sp, 0
	.cfi_def_cfa_register 29
	str	x19, [sp,16]
	.cfi_offset 19, -16
	.loc 1 4455 0
	add	x1, x1, :lo12:.LC62
	.loc 1 4453 0
	mov	x19, x0
	.loc 1 4455 0
	mov	w0, 24
.LVL830:
	bl	dprint_linux_kernel
.LVL831:
	.loc 1 4456 0
	ldr	w2, [x19]
	adrp	x1, .LC63
	add	x1, x1, :lo12:.LC63
	mov	w0, 24
	bl	dprint_linux_kernel
.LVL832:
	.loc 1 4457 0
	ldr	w2, [x19,4]
	adrp	x1, .LC64
	add	x1, x1, :lo12:.LC64
	mov	w0, 24
	bl	dprint_linux_kernel
.LVL833:
	.loc 1 4458 0
	ldr	w2, [x19,8]
	adrp	x1, .LC65
	add	x1, x1, :lo12:.LC65
	mov	w0, 24
	bl	dprint_linux_kernel
.LVL834:
	.loc 1 4459 0
	ldr	w2, [x19,12]
	adrp	x1, .LC66
	add	x1, x1, :lo12:.LC66
	mov	w0, 24
	bl	dprint_linux_kernel
.LVL835:
	.loc 1 4460 0
	ldr	w2, [x19,16]
	adrp	x1, .LC67
	add	x1, x1, :lo12:.LC67
	mov	w0, 24
	bl	dprint_linux_kernel
.LVL836:
	.loc 1 4461 0
	ldr	w2, [x19,20]
	adrp	x1, .LC68
	add	x1, x1, :lo12:.LC68
	mov	w0, 24
	bl	dprint_linux_kernel
.LVL837:
	.loc 1 4463 0
	ldr	x19, [sp,16]
	.cfi_restore 19
.LVL838:
	ldp	x29, x30, [sp], 32
	.cfi_restore 30
	.cfi_restore 29
	.cfi_def_cfa 31, 0
	ret
	.cfi_endproc
.LFE2718:
	.size	PrintScdStateReg, .-PrintScdStateReg
	.align	2
	.global	ReadScdStateReg
	.type	ReadScdStateReg, %function
ReadScdStateReg:
.LFB2694:
	.loc 1 2606 0
	.cfi_startproc
.LVL839:
	stp	x29, x30, [sp, -32]!
	.cfi_def_cfa_offset 32
	.cfi_offset 29, -32
	.cfi_offset 30, -24
	add	x29, sp, 0
	.cfi_def_cfa_register 29
	stp	x19, x20, [sp,16]
	.cfi_offset 19, -16
	.cfi_offset 20, -8
	.loc 1 2608 0
	adrp	x20, gScdRegBaseAddr
	.loc 1 2606 0
	mov	x19, x0
	.loc 1 2608 0
	ldr	w0, [x20,#:lo12:gScdRegBaseAddr]
.LVL840:
	add	w0, w0, 2112
	bl	MEM_ReadPhyWord
.LVL841:
	and	w0, w0, 1
	str	w0, [x19]
	.loc 1 2609 0
	ldr	w0, [x20,#:lo12:gScdRegBaseAddr]
	add	w0, w0, 2116
	bl	MEM_ReadPhyWord
.LVL842:
	and	w0, w0, 1
	.loc 1 2610 0
	ldr	w1, [x20,#:lo12:gScdRegBaseAddr]
	.loc 1 2609 0
	str	w0, [x19,4]
	.loc 1 2610 0
	add	w0, w1, 2124
	bl	MEM_ReadPhyWord
.LVL843:
	lsr	w0, w0, 22
	.loc 1 2611 0
	ldr	w1, [x20,#:lo12:gScdRegBaseAddr]
	.loc 1 2610 0
	str	w0, [x19,8]
	.loc 1 2611 0
	add	w0, w1, 2124
	bl	MEM_ReadPhyWord
.LVL844:
	and	w0, w0, 4194303
	.loc 1 2612 0
	ldr	w1, [x20,#:lo12:gScdRegBaseAddr]
	.loc 1 2611 0
	str	w0, [x19,12]
	.loc 1 2612 0
	add	w0, w1, 2128
	bl	MEM_ReadPhyWord
.LVL845:
	str	w0, [x19,16]
	.loc 1 2613 0
	ldr	w1, [x20,#:lo12:gScdRegBaseAddr]
	add	w0, w1, 2132
	bl	MEM_ReadPhyWord
.LVL846:
	str	w0, [x19,20]
	.loc 1 2615 0
	mov	x0, x19
	bl	PrintScdStateReg
.LVL847:
	.loc 1 2616 0
	ldp	x19, x20, [sp,16]
	.cfi_restore 20
	.cfi_restore 19
.LVL848:
	ldp	x29, x30, [sp], 32
	.cfi_restore 30
	.cfi_restore 29
	.cfi_def_cfa 31, 0
	ret
	.cfi_endproc
.LFE2694:
	.size	ReadScdStateReg, .-ReadScdStateReg
	.align	2
	.global	GetNextVop
	.type	GetNextVop, %function
GetNextVop:
.LFB2701:
	.loc 1 2929 0
	.cfi_startproc
.LVL849:
	stp	x29, x30, [sp, -96]!
	.cfi_def_cfa_offset 96
	.cfi_offset 29, -96
	.cfi_offset 30, -88
	add	x29, sp, 0
	.cfi_def_cfa_register 29
	stp	x21, x22, [sp,32]
	.cfi_offset 21, -64
	.cfi_offset 22, -56
	mov	x22, x0
	.loc 1 2941 0
	adrp	x0, gScdRegBaseAddr
.LVL850:
	.loc 1 2929 0
	stp	x23, x24, [sp,48]
	.cfi_offset 23, -48
	.cfi_offset 24, -40
	adrp	x23, __stack_chk_guard
	mov	x21, x2
	.loc 1 2941 0
	ldr	w0, [x0,#:lo12:gScdRegBaseAddr]
	.loc 1 2929 0
	mov	w24, w3
	stp	x19, x20, [sp,16]
	.cfi_offset 19, -80
	.cfi_offset 20, -72
	.loc 1 2929 0
	mov	x20, x1
	ldr	x1, [x23,#:lo12:__stack_chk_guard]
.LVL851:
	.loc 1 2941 0
	add	w0, w0, 2080
	.loc 1 2929 0
	str	x1, [x29,88]
.LBB250:
.LBB251:
	.loc 1 2630 0
	mov	w19, -7
.LBE251:
.LBE250:
	.loc 1 2941 0
	bl	MEM_ReadPhyWord
.LVL852:
	.loc 1 2944 0
	add	x0, x29, 64
	bl	ReadScdStateReg
.LVL853:
.LBB253:
.LBB252:
	.loc 1 2628 0
	ldr	w0, [x29,80]
	.loc 1 2630 0
	cmp	w0, wzr
	csel	w19, w19, wzr, eq
.LBE252:
.LBE253:
.LBB254:
.LBB255:
	.loc 1 1125 0
	cbz	x21, .L757
	.loc 1 1127 0
	ldr	w0, [x21,4]
	ldr	w10, [x21]
	.loc 1 1129 0
	subs	w10, w0, w10
	bmi	.L758
	mov	w13, 1152
	sub	w10, w13, w10
.L759:
.LBE255:
.LBE254:
	.loc 1 2953 0
	cbnz	w19, .L760
	.loc 1 2959 0 discriminator 1
	subs	w1, w24, #1
	bmi	.L769
	add	x0, x22, 200704
	ldr	x5, [x21,48]
	ldr	w9, [x21,16]
	mov	w11, 0
.LVL854:
	ldr	w7, [x22,28]
.LBB256:
.LBB257:
	.loc 1 2920 0
	mov	w12, -33488896
	ldr	w8, [x0,3972]
	.loc 1 2906 0
	mov	w13, -1241448448
	mul	w4, w1, w8
	b	.L766
.LVL855:
.L761:
	.loc 1 2911 0
	cmp	w7, 2
	beq	.L774
.L763:
	.loc 1 2920 0
	cmp	w0, w12
	beq	.L762
.L765:
	sub	w4, w4, w8
.LBE257:
.LBE256:
	.loc 1 2959 0 discriminator 1
	sub	w0, w1, #1
.LVL856:
	cbz	w1, .L772
	mov	w1, w0
.L766:
	.loc 1 2962 0
	ldr	w0, [x20,w4,uxtw 2]
.LBB261:
.LBB258:
	.loc 1 2904 0
	cmp	w7, 1
.LBE258:
.LBE261:
	.loc 1 2962 0
	sub	w0, w0, w9
	add	x2, x5, x0
.LVL857:
	.loc 1 2964 0
	ldrb	w6, [x5,x0]
	ldrb	w0, [x2,1]
	ldrb	w3, [x2,2]
	ldrb	w2, [x2,3]
.LVL858:
	add	w0, w6, w0, lsl 8
	add	w0, w0, w3, lsl 16
	add	w0, w0, w2, lsl 24
.LVL859:
.LBB262:
.LBB259:
	.loc 1 2904 0
	bne	.L761
	.loc 1 2906 0
	cmp	w0, w13
	bne	.L763
.L762:
.LBE259:
.LBE262:
	.loc 1 2968 0
	add	w11, w11, 1
	.loc 1 2969 0
	cmp	w11, wzr
	ble	.L765
	.loc 1 2973 0
	cmp	w1, w10
	bhi	.L765
.L772:
	mov	w19, w1
.L760:
	.loc 1 2984 0
	ldr	x2, [x29,88]
	mov	w0, w19
.LVL860:
	ldr	x1, [x23,#:lo12:__stack_chk_guard]
	cmp	x2, x1
	bne	.L775
	ldp	x19, x20, [sp,16]
	.cfi_remember_state
	.cfi_restore 20
	.cfi_restore 19
.LVL861:
	ldp	x21, x22, [sp,32]
	.cfi_restore 22
	.cfi_restore 21
.LVL862:
	ldp	x23, x24, [sp,48]
	.cfi_restore 24
	.cfi_restore 23
.LVL863:
	ldp	x29, x30, [sp], 96
	.cfi_restore 30
	.cfi_restore 29
	.cfi_def_cfa 31, 0
	ret
.LVL864:
.L774:
	.cfi_restore_state
.LBB263:
.LBB260:
	.loc 1 2913 0
	ubfx	x2, x0, 16, 8
	.loc 1 2914 0
	sub	w2, w2, #128
	.loc 1 2913 0
	cmp	w2, 3
	bhi	.L763
	b	.L762
.LVL865:
.L757:
.LBE260:
.LBE263:
	.loc 1 2948 0
	adrp	x2, .LANCHOR2
	adrp	x1, .LC69
	add	x2, x2, :lo12:.LANCHOR2
	mov	w0, 22
	add	x1, x1, :lo12:.LC69
	add	x2, x2, 88
	mov	w3, 2948
	bl	dprint_linux_kernel
.LVL866:
	mov	w10, 1152
	b	.L759
.L758:
	neg	w10, w10
	b	.L759
.L769:
	.loc 1 2957 0
	mov	w19, w24
	b	.L760
.LVL867:
.L775:
	.loc 1 2984 0
	bl	__stack_chk_fail
.LVL868:
	.cfi_endproc
.LFE2701:
	.size	GetNextVop, .-GetNextVop
	.align	2
	.global	ProcessScdReturn
	.type	ProcessScdReturn, %function
ProcessScdReturn:
.LFB2702:
	.loc 1 3001 0
	.cfi_startproc
.LVL869:
	stp	x29, x30, [sp, -400]!
	.cfi_def_cfa_offset 400
	.cfi_offset 29, -400
	.cfi_offset 30, -392
	add	x29, sp, 0
	.cfi_def_cfa_register 29
	stp	x21, x22, [sp,32]
	.cfi_offset 21, -368
	.cfi_offset 22, -360
	adrp	x22, __stack_chk_guard
	stp	x25, x26, [sp,64]
	stp	x19, x20, [sp,16]
	stp	x23, x24, [sp,48]
	stp	x27, x28, [sp,80]
	.cfi_offset 25, -336
	.cfi_offset 26, -328
	.cfi_offset 19, -384
	.cfi_offset 20, -376
	.cfi_offset 23, -352
	.cfi_offset 24, -344
	.cfi_offset 27, -320
	.cfi_offset 28, -312
	.loc 1 3001 0
	mov	x25, x0
	ldr	x1, [x22,#:lo12:__stack_chk_guard]
	.loc 1 3038 0
	ldrsb	w0, [x0,5]
.LVL870:
	.loc 1 3027 0
	str	wzr, [x29,196]
.LVL871:
	.loc 1 3028 0
	str	wzr, [x29,200]
.LVL872:
	.loc 1 3001 0
	str	x1, [x29,392]
	.loc 1 3038 0
	cbz	w0, .L880
	.loc 1 3042 0
	add	x20, x25, 188416
	ldr	w0, [x20,2240]
	cmp	w0, 3
	beq	.L886
	.loc 1 3050 0
	adrp	x23, gScdRegBaseAddr
	.loc 1 3066 0
	add	x0, x25, 200704
	mov	x21, x0
	str	x0, [x29,168]
	.loc 1 3055 0
	add	x19, x29, 312
	.loc 1 3054 0
	add	x26, x29, 232
	.loc 1 3050 0
	ldr	w0, [x23,#:lo12:gScdRegBaseAddr]
	add	w0, w0, 2080
	bl	MEM_ReadPhyWord
.LVL873:
	.loc 1 3056 0
	str	xzr, [x29,224]
	.loc 1 3070 0
	add	x0, x29, 208
	.loc 1 3052 0
	mov	w1, 2
	.loc 1 3055 0
	stp	xzr, xzr, [x19]
	.loc 1 3052 0
	str	w1, [x20,2240]
	.loc 1 3055 0
	stp	xzr, xzr, [x19,16]
	stp	xzr, xzr, [x19,32]
	stp	xzr, xzr, [x19,48]
	stp	xzr, xzr, [x19,64]
	.loc 1 3054 0
	stp	xzr, xzr, [x26]
	stp	xzr, xzr, [x26,16]
	stp	xzr, xzr, [x26,32]
	stp	xzr, xzr, [x26,48]
	stp	xzr, xzr, [x26,64]
	.loc 1 3056 0
	stp	xzr, xzr, [x29,208]
	.loc 1 3062 0
	str	wzr, [x29,196]
	.loc 1 3063 0
	str	wzr, [x29,200]
	.loc 1 3066 0
	ldr	w21, [x21,3972]
	.loc 1 3070 0
	bl	ReadScdStateReg
.LVL874:
.LBB279:
.LBB280:
	.loc 1 2628 0
	ldr	w0, [x29,224]
	cbz	w0, .L880
.LBE280:
.LBE279:
	.loc 1 3077 0
	ldr	w0, [x29,220]
	str	w0, [x29,148]
	mov	w1, w0
	.loc 1 3080 0
	mov	w0, 34464
	movk	w0, 0x1, lsl 16
	.loc 1 3077 0
	str	w1, [x29,192]
.LVL875:
	.loc 1 3080 0
	cmp	w1, w0
	.loc 1 3048 0
	add	x0, x25, 104
.LVL876:
	str	x0, [x29,152]
	.loc 1 3080 0
	bls	.L782
	.loc 1 3080 0 is_stmt 0 discriminator 1
	ldr	w0, [x25,60]
.LVL877:
	cbz	w0, .L887
.LVL878:
.L782:
	.loc 1 3049 0 is_stmt 1
	add	x0, x25, 98304
.LVL879:
	str	x0, [x29,184]
.LBB281:
.LBB282:
	.loc 1 850 0
	adds	x0, x0, 128
.LVL880:
	str	x0, [x29,160]
	beq	.L831
.LBB283:
.LBB284:
	.loc 1 853 0
	ldr	w1, [x0,16]
	.loc 1 854 0
	ldr	w28, [x0,20]
.LVL881:
	.loc 1 853 0
	str	w1, [x29,180]
.LVL882:
.L783:
.LBE284:
.LBE283:
.LBE282:
.LBE281:
	.loc 1 3090 0
	ldr	w0, [x23,#:lo12:gScdRegBaseAddr]
.LVL883:
	.loc 1 3091 0
	mov	w24, 1152
	.loc 1 3090 0
	add	w0, w0, 2080
	bl	MEM_ReadPhyWord
.LVL884:
	and	w0, w0, 15
	.loc 1 3091 0
	ldr	w1, [x29,192]
	ldr	w2, [x23,#:lo12:gScdRegBaseAddr]
.LVL885:
	cmp	w1, w24
	.loc 1 3090 0
	str	w0, [x25,24]
	.loc 1 3091 0
	add	w0, w2, 2060
	csel	w27, w1, w24, le
	bl	MEM_ReadPhyWord
.LVL886:
	udiv	w0, w0, w21
	cmp	w27, w0
	bhi	.L888
	.loc 1 3091 0 is_stmt 0 discriminator 2
	ldr	w3, [x29,192]
	cmp	w3, 1152
	csel	w2, w3, w24, le
.L785:
	.loc 1 3091 0 discriminator 5
	str	w2, [x25,48]
	.loc 1 3095 0 is_stmt 1
	cmp	w2, w3
	bge	.L786
	.loc 1 3095 0 is_stmt 0 discriminator 1
	ldrsb	w0, [x25,2]
	cmp	w0, 1
	beq	.L889
.L786:
	.loc 1 3103 0 is_stmt 1
	ldr	x1, [x29,184]
	.loc 1 3107 0
	add	x27, x20, 2392
	.loc 1 3101 0
	ldr	x0, [x20,2264]
	.loc 1 3103 0
	add	x2, x1, 128
	.loc 1 3102 0
	ldr	w5, [x29,180]
	.loc 1 3101 0
	str	x0, [x25,16]
	.loc 1 3107 0
	mov	x1, x27
.LVL887:
	.loc 1 3102 0
	str	w5, [x25,36]
	.loc 1 3107 0
	add	x0, x25, 8
	str	x0, [x29,136]
	.loc 1 3103 0
	ldr	w3, [x2,16]
	ldr	x4, [x2,48]
	.loc 1 3107 0
	add	x2, x29, 204
	.loc 1 3103 0
	sub	w3, w5, w3
	.loc 1 3104 0
	str	w28, [x25,40]
	.loc 1 3103 0
	add	x3, x4, x3
	.loc 1 3105 0
	ldr	w4, [x29,224]
	str	w4, [x25,44]
	.loc 1 3107 0
	mov	w4, w21
	.loc 1 3103 0
	str	x3, [x25,8]
	.loc 1 3107 0
	add	x3, x29, 192
	bl	ScdReturnSegFilter
.LVL888:
	.loc 1 3108 0
	cbnz	w0, .L880
	.loc 1 3114 0
	ldr	w24, [x29,192]
	cmp	w24, 1
	ble	.L890
	.loc 1 3169 0
	strb	wzr, [x25]
	.loc 1 3174 0
	ldr	w0, [x23,#:lo12:gScdRegBaseAddr]
	add	w0, w0, 2060
	bl	MEM_ReadPhyWord
.LVL889:
	udiv	w0, w0, w21
	cmp	w24, w0
	bcs	.L790
	.loc 1 3176 0
	ldr	w24, [x29,192]
.LVL890:
	sub	w24, w24, #1
.LVL891:
	str	w24, [x29,192]
	.loc 1 3181 0
	mul	w0, w24, w21
	add	w0, w0, 1
	ldr	w28, [x27,w0,uxtw 2]
.LVL892:
	and	w0, w28, 1073741823
	str	w0, [x29,128]
.L791:
	.loc 1 3202 0
	ldr	w0, [x25,60]
	cmp	w0, 2
	beq	.L891
.L794:
	.loc 1 3207 0
	ldr	x0, [x29,184]
	.loc 1 3210 0
	mov	w23, 0
	mov	w1, w24
	str	w24, [x29,144]
	.loc 1 3010 0
	str	wzr, [x29,124]
	.loc 1 3210 0
	mov	w28, 0
	.loc 1 3207 0
	ldr	w0, [x0,132]
	mov	w24, w21
.LVL893:
	str	w0, [x29,132]
	.loc 1 3355 0
	adrp	x0, .LANCHOR2
.LVL894:
	add	x0, x0, :lo12:.LANCHOR2
	add	x0, x0, 104
	str	x0, [x29,112]
	mov	w0, w23
	mov	x23, x25
.LVL895:
.L795:
	.loc 1 3210 0 discriminator 1
	cmp	w28, w1
	bge	.L892
	add	w21, w0, w24
	.loc 1 3214 0
	add	w25, w0, 1
	.loc 1 3212 0
	ldr	w4, [x27,w0,uxtw 2]
.LVL896:
	.loc 1 3213 0
	add	w0, w28, 1
	.loc 1 3215 0
	ldr	w2, [x29,180]
.LVL897:
	.loc 1 3213 0
	ldr	w5, [x27,w21,uxtw 2]
.LVL898:
	str	w0, [x29,176]
	.loc 1 3214 0
	ldr	w0, [x27,w25,uxtw 2]
.LVL899:
	.loc 1 3215 0
	cmp	w5, w2
.LVL900:
	.loc 1 3221 0
	sub	w20, w5, w4
	.loc 1 3214 0
	lsr	w0, w0, 31
	strb	w0, [x26,3]
	.loc 1 3215 0
	beq	.L893
.L797:
	.loc 1 3225 0
	cmp	w20, 3
	ble	.L798
	.loc 1 3227 0
	ldr	w0, [x19,4]
	cbnz	w0, .L894
	.loc 1 3263 0
	ldr	w0, [x23,60]
	cmp	w0, 2
	beq	.L895
.L804:
	.loc 1 3269 0
	ldr	x0, [x29,184]
	.loc 1 3271 0
	add	x1, x29, 200
	add	x2, x29, 196
.LVL901:
	.loc 1 3268 0
	str	w4, [x26,4]
	.loc 1 3270 0
	str	w20, [x26,8]
	.loc 1 3269 0
	ldr	w3, [x0,144]
	ldr	x5, [x0,176]
.LVL902:
	sub	w3, w4, w3
	.loc 1 3271 0
	ldr	x0, [x29,160]
	.loc 1 3269 0
	add	x3, x5, x3
	.loc 1 3267 0
	mov	w5, 1
	.loc 1 3269 0
	str	x3, [x26,64]
	.loc 1 3267 0
	strb	w5, [x26,1]
	.loc 1 3271 0
	bl	GetFreeSegBuf
.LVL903:
.LBB285:
.LBB286:
	.loc 1 2840 0
	ldr	w0, [x26,4]
.LBE286:
.LBE285:
	.loc 1 3273 0
	ldr	w1, [x29,196]
.LBB288:
.LBB287:
	.loc 1 2840 0
	cbz	w0, .L805
	.loc 1 2841 0
	ldr	x0, [x26,64]
	cbz	x0, .L805
	.loc 1 2843 0
	ldr	w0, [x26,8]
	cmp	w1, w0
	bge	.L896
.L805:
.LBE287:
.LBE288:
	.loc 1 3296 0
	adrp	x1, .LC82
	mov	w0, 0
	add	x1, x1, :lo12:.LC82
	mov	w21, w24
.LVL904:
	ldr	w24, [x29,144]
	mov	x25, x23
.LVL905:
	bl	dprint_linux_kernel
.LVL906:
	.loc 1 3299 0
	mov	w19, 1
.LVL907:
	.loc 1 3297 0
	ldr	w2, [x29,196]
	adrp	x1, .LC83
	ldr	w3, [x29,128]
	add	x1, x1, :lo12:.LC83
	mov	w0, 0
	bl	dprint_linux_kernel
.LVL908:
	.loc 1 3298 0
	adrp	x1, .LC74
	ldr	w2, [x29,236]
	ldr	w3, [x29,240]
	mov	w0, 0
	ldrb	w4, [x29,233]
	add	x1, x1, :lo12:.LC74
	bl	dprint_linux_kernel
.LVL909:
.L802:
	.loc 1 3416 0
	ldr	x0, [x29,184]
	ldr	w1, [x29,132]
	ldr	w0, [x0,132]
.LVL910:
	cmp	w1, w0
	cset	w0, ne
	.loc 1 3425 0
	cmp	w28, wzr
	.loc 1 3416 0
	strb	w0, [x25,3]
	.loc 1 3425 0
	ble	.L819
	.loc 1 3430 0
	mul	w8, w28, w21
	.loc 1 3432 0
	ldr	x0, [x29,152]
	.loc 1 3430 0
	add	w8, w8, 1
	ldr	w1, [x27,w8,uxtw 2]
.LVL911:
	.loc 1 3432 0
	and	w1, w1, 1073741823
	bl	DeleteRawLen
.LVL912:
	.loc 1 3434 0
	cbnz	w0, .L880
.LVL913:
.L820:
	.loc 1 3455 0
	cbnz	w19, .L880
.L822:
	.loc 1 3165 0
	mov	w0, 0
	b	.L778
.LVL914:
.L887:
	.loc 1 3082 0
	ldr	x0, [x29,152]
	mov	w1, 1
	bl	DeleteRawPacket
.LVL915:
.L880:
	.loc 1 3083 0
	mov	w0, -7
.LVL916:
.L778:
	.loc 1 3456 0
	ldr	x2, [x29,392]
.LVL917:
	ldr	x1, [x22,#:lo12:__stack_chk_guard]
.LVL918:
	cmp	x2, x1
	bne	.L897
	ldp	x19, x20, [sp,16]
	.cfi_remember_state
	.cfi_restore 20
	.cfi_restore 19
.LVL919:
	ldp	x21, x22, [sp,32]
	.cfi_restore 22
	.cfi_restore 21
	ldp	x23, x24, [sp,48]
	.cfi_restore 24
	.cfi_restore 23
.LVL920:
	ldp	x25, x26, [sp,64]
	.cfi_restore 26
	.cfi_restore 25
.LVL921:
	ldp	x27, x28, [sp,80]
	.cfi_restore 28
	.cfi_restore 27
.LVL922:
	ldp	x29, x30, [sp], 400
	.cfi_restore 30
	.cfi_restore 29
	.cfi_def_cfa 31, 0
	ret
.LVL923:
.L890:
	.cfi_restore_state
	.loc 1 3123 0
	ldr	x1, [x29,168]
	ldr	w2, [x1,3944]
	ldr	w1, [x1,3948]
	cmp	w2, w1
	cset	w1, gt
	strb	w1, [x25]
	.loc 1 3132 0
	cbz	w24, .L898
	.loc 1 3140 0
	cmp	w24, 1
	.loc 1 3138 0 discriminator 2
	mov	w1, 0
	.loc 1 3140 0
	beq	.L899
.L789:
	.loc 1 3160 0
	ldr	x0, [x29,152]
	bl	DeleteRawLen
.LVL924:
	.loc 1 3161 0
	cbnz	w0, .L880
	.loc 1 3165 0
	mov	w0, 0
	b	.L778
.L898:
	.loc 1 3136 0
	ldr	w0, [x20,2236]
	.loc 1 3138 0 discriminator 1
	sub	w1, w0, #3
	cmp	w0, 4
	csel	w1, w1, wzr, ge
	b	.L789
.L790:
	.loc 1 3187 0
	adrp	x0, gScdRegBaseAddr
	ldr	w0, [x0,#:lo12:gScdRegBaseAddr]
	add	w0, w0, 2060
	bl	MEM_ReadPhyWord
.LVL925:
	sub	w0, w0, w21
	udiv	w24, w0, w21
	.loc 1 3188 0
	subs	w24, w24, #1
	bmi	.L792
	mul	w0, w24, w21
	.loc 1 3187 0
	str	w24, [x29,192]
	add	w0, w0, 1
	lsl	x0, x0, 2
.L793:
	.loc 1 3196 0
	ldr	x1, [x25,16]
	ldr	w28, [x1,x0]
.LVL926:
	and	w0, w28, 1073741823
	str	w0, [x29,128]
	b	.L791
.LVL927:
.L798:
	.loc 1 3304 0
	sub	w0, w20, #1
	cmp	w0, 2
	bhi	.L807
	.loc 1 3309 0
	ldr	w0, [x23,60]
	cmp	w0, 2
	beq	.L900
.L803:
	.loc 1 3190 0
	mov	w0, w21
	ldr	w28, [x29,176]
	b	.L795
.L893:
	.loc 1 3217 0
	ldr	w20, [x29,224]
.LVL928:
	sub	w20, w20, w4
.LVL929:
	b	.L797
.LVL930:
.L831:
	.loc 1 3015 0
	mov	w28, 0
.LVL931:
	.loc 1 3014 0
	str	wzr, [x29,180]
	b	.L783
.LVL932:
.L888:
	.loc 1 3091 0 discriminator 1
	adrp	x0, gScdRegBaseAddr
	ldr	w0, [x0,#:lo12:gScdRegBaseAddr]
	.loc 1 3091 0 is_stmt 0 discriminator 3
	add	w0, w0, 2060
	bl	MEM_ReadPhyWord
.LVL933:
	ldr	w3, [x29,192]
	.loc 1 3091 0 discriminator 1
	udiv	w2, w0, w21
	b	.L785
.LVL934:
.L807:
	.loc 1 3336 0 is_stmt 1
	cbz	w20, .L803
	.loc 1 3339 0
	ldr	w0, [x23,60]
	cmp	w0, 2
	beq	.L901
.L809:
	.loc 1 3345 0
	ldr	x0, [x29,184]
	.loc 1 3349 0
	add	x1, x29, 200
	.loc 1 3346 0
	ldr	w3, [x29,224]
	.loc 1 3349 0
	add	x2, x29, 196
.LVL935:
	.loc 1 3345 0
	add	x9, x0, 128
	.loc 1 3348 0
	ldr	w6, [x29,180]
	.loc 1 3345 0
	ldr	w8, [x0,144]
	.loc 1 3346 0
	sub	w3, w3, w4
	.loc 1 3345 0
	ldr	x10, [x9,48]
.LVL936:
	.loc 1 3348 0
	sub	w20, w5, w6
.LVL937:
	.loc 1 3349 0
	ldr	x0, [x29,160]
	.loc 1 3345 0
	sub	w8, w4, w8
	add	x8, x10, x8
	.loc 1 3348 0
	add	w3, w3, w20
	.loc 1 3345 0
	str	x9, [x29,104]
	.loc 1 3343 0
	strb	wzr, [x26,1]
	.loc 1 3344 0
	str	w4, [x26,4]
	.loc 1 3345 0
	str	x8, [x26,64]
	.loc 1 3348 0
	str	w3, [x26,8]
	.loc 1 3349 0
	bl	GetFreeSegBuf
.LVL938:
	.loc 1 3351 0
	ldr	w0, [x26,8]
	ldr	x9, [x29,104]
	cmp	w0, 3
	ble	.L878
.LBB289:
.LBB290:
	.loc 1 1125 0
	ldr	x0, [x29,160]
.LVL939:
	cbz	x0, .L811
	.loc 1 1127 0
	ldr	x0, [x29,184]
.LVL940:
	ldr	w1, [x9,4]
	ldr	w0, [x0,128]
	sub	w0, w1, w0
.LVL941:
	mov	w1, w0
	.loc 1 1131 0
	add	w0, w0, 1152
.LVL942:
	cmp	w1, wzr
	csel	w0, w0, w1, lt
.LVL943:
	str	w0, [x29,124]
.L812:
.LBE290:
.LBE289:
	.loc 1 3357 0
	ldr	w1, [x29,124]
	mov	w0, 1152
.LVL944:
.LBB291:
.LBB292:
	.loc 1 2840 0
	ldr	w9, [x26,4]
.LVL945:
.LBE292:
.LBE291:
	.loc 1 3357 0
	sub	w0, w0, w1
.LVL946:
	str	w0, [x29,124]
	.loc 1 3358 0
	ldr	w0, [x29,196]
.LVL947:
.LBB294:
.LBB293:
	.loc 1 2840 0
	cbz	w9, .L813
	.loc 1 2841 0
	ldr	x1, [x26,64]
	cbz	x1, .L813
	.loc 1 2843 0
	ldr	w1, [x26,8]
	cmp	w0, w1
	blt	.L813
.LBE293:
.LBE294:
	.loc 1 3359 0
	ldr	w0, [x29,124]
.LVL948:
	cmp	w0, 1
	ble	.L902
	.loc 1 3366 0
	ldr	w1, [x27,w25,uxtw 2]
	mov	x3, x26
	.loc 1 3362 0
	ldr	w4, [x29,224]
	.loc 1 3366 0
	ldr	x2, [x29,168]
	and	w1, w1, 1073741823
	ldr	x0, [x29,152]
.LVL949:
	.loc 1 3362 0
	sub	w9, w4, w9
	.loc 1 3366 0
	add	x2, x2, 3936
	.loc 1 3362 0
	str	w9, [x26,8]
	.loc 1 3366 0
	bl	GetSegPts
.LVL950:
	.loc 1 3368 0
	ldr	x0, [x29,160]
	mov	x1, x26
	bl	InsertStreamSeg
.LVL951:
	.loc 1 3369 0
	cbnz	w0, .L879
	.loc 1 3378 0
	ldr	w2, [x27,w25,uxtw 2]
	adrp	x1, .LC75
	ldr	x3, [x26,16]
	add	x1, x1, :lo12:.LC75
	and	w2, w2, 1073741823
	mov	w0, 26
	.loc 1 3380 0
	adrp	x25, .LC74
	.loc 1 3378 0
	bl	dprint_linux_kernel
.LVL952:
	.loc 1 3380 0
	add	x25, x25, :lo12:.LC74
	ldr	w2, [x26,4]
	mov	x1, x25
	ldr	w3, [x26,8]
	mov	w0, 26
	ldrb	w4, [x26,1]
	bl	dprint_linux_kernel
.LVL953:
	.loc 1 3385 0
	str	w20, [x26,8]
	.loc 1 3384 0
	ldr	x0, [x29,184]
	ldr	w4, [x29,180]
	add	x1, x0, 128
.LVL954:
	.loc 1 3383 0
	str	w4, [x26,4]
	.loc 1 3384 0
	ldr	w2, [x0,144]
	ldr	x3, [x1,48]
	.loc 1 3387 0
	mov	x1, x26
	.loc 1 3384 0
	sub	w2, w4, w2
	.loc 1 3387 0
	ldr	x0, [x29,160]
	.loc 1 3384 0
	add	x2, x3, x2
	.loc 1 3382 0
	mov	w3, 1
	.loc 1 3384 0
	str	x2, [x26,64]
	.loc 1 3382 0
	strb	w3, [x26,1]
	.loc 1 3387 0
	bl	InsertStreamSeg
.LVL955:
	.loc 1 3388 0
	cbnz	w0, .L879
	.loc 1 3394 0
	ldr	w2, [x26,4]
	mov	w0, 26
	ldr	w3, [x26,8]
	mov	x1, x25
	ldrb	w4, [x26,1]
	bl	dprint_linux_kernel
.LVL956:
.L878:
	ldr	w1, [x29,192]
	b	.L803
.LVL957:
.L819:
	.loc 1 3442 0
	cbnz	w24, .L820
	ldr	w0, [x29,148]
	cmp	w0, 1152
	bls	.L820
	.loc 1 3444 0
	ldr	w0, [x25,60]
	cmp	w0, 2
	bne	.L820
	.loc 1 3446 0
	adrp	x1, .LC80
.LVL958:
	ldr	w2, [x29,148]
.LVL959:
	add	x1, x1, :lo12:.LC80
	mov	w0, 0
	bl	dprint_linux_kernel
.LVL960:
	.loc 1 3448 0
	ldr	x0, [x29,152]
	mov	w1, 1
	bl	DeleteRawPacket
.LVL961:
	.loc 1 3455 0
	cbz	w19, .L822
	b	.L880
.LVL962:
.L894:
	.loc 1 3230 0
	ldr	w3, [x19,8]
	.loc 1 3231 0
	add	x1, x29, 200
	ldr	x0, [x29,160]
	add	x2, x29, 196
.LVL963:
	.loc 1 3230 0
	add	w20, w3, w20
.LVL964:
	str	w20, [x19,8]
	.loc 1 3231 0
	bl	GetFreeSegBuf
.LVL965:
.LBB295:
.LBB296:
	.loc 1 2840 0
	ldr	w0, [x19,4]
.LBE296:
.LBE295:
	.loc 1 3232 0
	ldr	w1, [x29,196]
.LBB298:
.LBB297:
	.loc 1 2840 0
	cbz	w0, .L800
	.loc 1 2841 0
	ldr	x0, [x19,64]
	cbz	x0, .L800
	.loc 1 2843 0
	ldr	w0, [x19,8]
	cmp	w1, w0
	blt	.L800
.LBE297:
.LBE298:
	.loc 1 3234 0
	ldr	x0, [x29,160]
	mov	x1, x19
	bl	InsertStreamSeg
.LVL966:
	.loc 1 3235 0
	stp	xzr, xzr, [x19]
	stp	xzr, xzr, [x19,16]
	stp	xzr, xzr, [x19,32]
	stp	xzr, xzr, [x19,48]
	stp	xzr, xzr, [x19,64]
	.loc 1 3237 0
	cbnz	w0, .L903
	.loc 1 3246 0
	ldr	w2, [x27,w25,uxtw 2]
	adrp	x1, .LC73
	add	x1, x1, :lo12:.LC73
	mov	x3, 0
	and	w2, w2, 1073741823
	mov	w0, 26
	bl	dprint_linux_kernel
.LVL967:
	.loc 1 3248 0
	ldr	w2, [x19,4]
	adrp	x1, .LC74
	ldr	w3, [x19,8]
	add	x1, x1, :lo12:.LC74
	ldrb	w4, [x19,1]
	mov	w0, 26
	bl	dprint_linux_kernel
.LVL968:
	ldr	w1, [x29,192]
	b	.L803
.L800:
	.loc 1 3252 0
	adrp	x1, .LC77
	mov	w2, 3252
	add	x1, x1, :lo12:.LC77
	mov	w0, 1
	.loc 1 3255 0
	mov	w19, w0
.LVL969:
	mov	w21, w24
	ldr	w24, [x29,144]
.LVL970:
	.loc 1 3252 0
	bl	dprint_linux_kernel
.LVL971:
	.loc 1 3253 0
	ldr	w3, [x29,196]
	adrp	x1, .LC81
	ldr	w4, [x29,128]
	add	x1, x1, :lo12:.LC81
	mov	w2, 3253
	mov	w0, w19
	mov	x25, x23
	bl	dprint_linux_kernel
.LVL972:
	.loc 1 3254 0
	ldr	w3, [x29,316]
	adrp	x1, .LC79
	ldr	w4, [x29,320]
	mov	w0, w19
	ldrb	w5, [x29,313]
	add	x1, x1, :lo12:.LC79
	mov	w2, 3254
	bl	dprint_linux_kernel
.LVL973:
	.loc 1 3256 0
	b	.L802
.LVL974:
.L896:
	.loc 1 3278 0
	ldr	w1, [x27,w25,uxtw 2]
	mov	x3, x26
	ldr	x2, [x29,168]
	ldr	x0, [x29,152]
	and	w1, w1, 1073741823
	add	x2, x2, 3936
	bl	GetSegPts
.LVL975:
	.loc 1 3280 0
	ldr	x0, [x29,160]
	mov	x1, x26
	bl	InsertStreamSeg
.LVL976:
	.loc 1 3281 0
	cbnz	w0, .L879
	.loc 1 3290 0
	ldr	w2, [x27,w25,uxtw 2]
	adrp	x1, .LC75
	ldr	x3, [x26,16]
	add	x1, x1, :lo12:.LC75
	and	w2, w2, 1073741823
	mov	w0, 26
	bl	dprint_linux_kernel
.LVL977:
	.loc 1 3292 0
	ldr	w2, [x26,4]
	adrp	x1, .LC74
	ldr	w3, [x26,8]
	add	x1, x1, :lo12:.LC74
	ldrb	w4, [x26,1]
	mov	w0, 26
	bl	dprint_linux_kernel
.LVL978:
	ldr	w1, [x29,192]
	b	.L803
.LVL979:
.L889:
	.loc 1 3097 0
	adrp	x1, .LC70
	add	x1, x1, :lo12:.LC70
	bl	dprint_linux_kernel
.LVL980:
	.loc 1 3098 0
	strb	wzr, [x25,2]
	b	.L786
.L792:
	.loc 1 3190 0
	str	wzr, [x29,192]
	mov	x0, 4
	mov	w24, 0
	b	.L793
.LVL981:
.L886:
	.loc 1 3044 0
	mov	w1, 2
	.loc 1 3045 0
	mov	w0, -7
	.loc 1 3044 0
	str	w1, [x20,2240]
	.loc 1 3045 0
	b	.L778
.LVL982:
.L891:
	.loc 1 3204 0
	ldr	x2, [x29,160]
	mov	w3, w24
	mov	x0, x25
	mov	x1, x27
	bl	GetNextVop
.LVL983:
	mov	w24, w0
	str	w0, [x29,192]
	b	.L794
.LVL984:
.L899:
.LBB299:
	.loc 1 3146 0
	ldr	x1, [x29,184]
	.loc 1 3154 0
	ldr	w3, [x20,2236]
	.loc 1 3146 0
	ldr	w2, [x1,148]
	.loc 1 3150 0
	ldr	w1, [x20,2396]
	.loc 1 3146 0
	add	w2, w2, w2, lsl 1
	.loc 1 3150 0
	and	w1, w1, 1073741823
	.loc 1 3146 0
	cmp	w2, wzr
	add	w4, w2, 3
	csel	w2, w4, w2, lt
	.loc 1 3154 0
	sub	w3, w3, w1
	cmp	w3, w2, asr 2
	ble	.L789
	.loc 1 3156 0
	adrp	x1, .LC71
	add	x1, x1, :lo12:.LC71
	bl	dprint_linux_kernel
.LVL985:
	.loc 1 3157 0
	ldr	w1, [x20,2236]
	b	.L789
.LVL986:
.L895:
.LBE299:
	.loc 1 3265 0
	ldr	x0, [x29,136]
	mov	x1, x26
	mov	w2, w28
.LVL987:
	mov	w3, w24
	str	x4, [x29,104]
	bl	ScdParseUpMsgInfo
.LVL988:
	ldr	x4, [x29,104]
.LVL989:
	b	.L804
.LVL990:
.L900:
	.loc 1 3311 0
	mov	w0, w5
	str	x4, [x29,104]
	bl	MEM_Phy2Vir
.LVL991:
	.loc 1 3312 0
	cbz	x0, .L880
	.loc 1 3314 0
	ldrb	w2, [x0]
	.loc 1 3315 0
	ldrb	w1, [x0,1]
	.loc 1 3316 0
	ldrb	w0, [x0,2]
.LVL992:
	.loc 1 3315 0
	lsl	w1, w1, 16
	.loc 1 3319 0
	ldr	x4, [x29,104]
.LVL993:
	.loc 1 3315 0
	orr	w1, w1, w2, lsl 24
	.loc 1 3319 0
	orr	w0, w1, w0, lsl 8
	cmp	w0, 256
	beq	.L878
	.loc 1 3321 0
	ldr	x0, [x29,136]
	mov	x1, x19
	mov	w3, w24
	mov	w2, w28
	str	x4, [x29,104]
	bl	ScdParseUpMsgInfo
.LVL994:
	.loc 1 3325 0
	str	w20, [x19,8]
	.loc 1 3324 0
	ldr	x0, [x29,184]
	.loc 1 3326 0
	add	x2, x29, 196
	.loc 1 3324 0
	ldr	x4, [x29,104]
.LVL995:
	add	x1, x0, 128
	.loc 1 3323 0
	str	w4, [x19,4]
	.loc 1 3324 0
	ldr	w3, [x0,144]
	ldr	x5, [x1,48]
	.loc 1 3326 0
	add	x1, x29, 200
	ldr	x0, [x29,160]
	.loc 1 3324 0
	sub	w3, w4, w3
	add	x3, x5, x3
	.loc 1 3322 0
	mov	w4, 1
.LVL996:
	.loc 1 3324 0
	str	x3, [x19,64]
	.loc 1 3322 0
	strb	w4, [x19,1]
	.loc 1 3326 0
	bl	GetFreeSegBuf
.LVL997:
	.loc 1 3330 0
	ldr	w1, [x27,w25,uxtw 2]
	mov	x3, x19
	ldr	x2, [x29,168]
	ldr	x0, [x29,152]
	and	w1, w1, 1073741823
	add	x2, x2, 3936
	bl	GetSegPts
.LVL998:
	ldr	w1, [x29,192]
	b	.L803
.LVL999:
.L813:
	.loc 1 3399 0
	ldr	w0, [x29,124]
	mov	w21, w24
	mov	x25, x23
	ldr	w24, [x29,144]
.LVL1000:
	cmp	w0, 1
	ble	.L829
	.loc 1 3405 0
	adrp	x1, .LC77
	mov	w2, 3405
	add	x1, x1, :lo12:.LC77
	mov	w0, 1
.LVL1001:
	.loc 1 3408 0
	mov	w19, w0
.LVL1002:
	.loc 1 3405 0
	bl	dprint_linux_kernel
.LVL1003:
	.loc 1 3406 0
	ldr	w3, [x29,196]
	adrp	x1, .LC78
	ldr	w4, [x29,128]
	add	x1, x1, :lo12:.LC78
	mov	w2, 3406
	mov	w0, w19
	bl	dprint_linux_kernel
.LVL1004:
	.loc 1 3407 0
	ldr	w3, [x29,316]
	adrp	x1, .LC79
	ldr	w4, [x29,320]
	mov	w0, w19
	ldrb	w5, [x29,313]
	add	x1, x1, :lo12:.LC79
	mov	w2, 3407
	bl	dprint_linux_kernel
.LVL1005:
	b	.L802
.LVL1006:
.L892:
	mov	w21, w24
	mov	x25, x23
.LVL1007:
	ldr	w24, [x29,144]
.LVL1008:
	.loc 1 3064 0
	mov	w19, 0
.LVL1009:
	b	.L802
.LVL1010:
.L901:
	.loc 1 3341 0
	ldr	x0, [x29,136]
	mov	x1, x26
	mov	w2, w28
.LVL1011:
	mov	w3, w24
	str	x5, [x29,96]
	str	x4, [x29,104]
	bl	ScdParseUpMsgInfo
.LVL1012:
	ldr	x5, [x29,96]
.LVL1013:
	ldr	x4, [x29,104]
.LVL1014:
	b	.L809
.LVL1015:
.L811:
	.loc 1 3355 0
	adrp	x0, .LC84
.LVL1016:
	ldr	x2, [x29,112]
	add	x1, x0, :lo12:.LC84
	mov	w3, 3355
	mov	w0, 22
	bl	dprint_linux_kernel
.LVL1017:
	b	.L812
.LVL1018:
.L879:
	.loc 1 3284 0
	ldr	w2, [x26,4]
	adrp	x1, .LC72
	ldr	w3, [x26,8]
	add	x1, x1, :lo12:.LC72
	ldrb	w4, [x26,1]
	mov	w0, 26
	mov	w21, w24
	mov	x25, x23
	ldr	w24, [x29,144]
.LVL1019:
	.loc 1 3064 0
	mov	w19, 0
.LVL1020:
	.loc 1 3284 0
	bl	dprint_linux_kernel
.LVL1021:
	.loc 1 3285 0
	b	.L802
.LVL1022:
.L897:
	.loc 1 3456 0
	bl	__stack_chk_fail
.LVL1023:
.L903:
	.loc 1 3240 0
	adrp	x1, .LC72
	mov	w2, 0
	add	x1, x1, :lo12:.LC72
	mov	w3, 0
	mov	w4, 0
	mov	w0, 26
	mov	w21, w24
	mov	x25, x23
	ldr	w24, [x29,144]
.LVL1024:
	.loc 1 3064 0
	mov	w19, 0
.LVL1025:
	.loc 1 3240 0
	bl	dprint_linux_kernel
.LVL1026:
	.loc 1 3241 0
	b	.L802
.LVL1027:
.L902:
	mov	w21, w24
	ldr	w24, [x29,144]
.LVL1028:
	mov	x25, x23
.L829:
	.loc 1 3401 0
	ldr	w3, [x29,240]
	adrp	x1, .LC76
	ldrb	w4, [x29,233]
	add	x1, x1, :lo12:.LC76
	mov	w2, w9
	mov	w0, 26
.LVL1029:
	.loc 1 3064 0
	mov	w19, 0
.LVL1030:
	.loc 1 3401 0
	bl	dprint_linux_kernel
.LVL1031:
	b	.L802
	.cfi_endproc
.LFE2702:
	.size	ProcessScdReturn, .-ProcessScdReturn
	.align	2
	.global	PrintScdRawState
	.type	PrintScdRawState, %function
PrintScdRawState:
.LFB2719:
	.loc 1 4472 0
	.cfi_startproc
.LVL1032:
	stp	x29, x30, [sp, -96]!
	.cfi_def_cfa_offset 96
	.cfi_offset 29, -96
	.cfi_offset 30, -88
	add	x29, sp, 0
	.cfi_def_cfa_register 29
	stp	x19, x20, [sp,16]
	.cfi_offset 19, -80
	.cfi_offset 20, -72
	mov	w19, w0
	.loc 1 4480 0
	mov	w0, 26
.LVL1033:
	.loc 1 4472 0
	stp	x21, x22, [sp,32]
	stp	x23, x24, [sp,48]
	stp	x25, x26, [sp,64]
	str	x27, [sp,80]
	.cfi_offset 21, -64
	.cfi_offset 22, -56
	.cfi_offset 23, -48
	.cfi_offset 24, -40
	.cfi_offset 25, -32
	.cfi_offset 26, -24
	.cfi_offset 27, -16
	.loc 1 4472 0
	mov	w20, w1
	.loc 1 4480 0
	bl	IsDprintTypeEnable
.LVL1034:
	cbnz	w0, .L912
.LVL1035:
.L904:
	.loc 1 4506 0
	ldp	x19, x20, [sp,16]
	.cfi_remember_state
	.cfi_restore 20
	.cfi_restore 19
.LVL1036:
	ldp	x21, x22, [sp,32]
	.cfi_restore 22
	.cfi_restore 21
.LVL1037:
	ldp	x23, x24, [sp,48]
	.cfi_restore 24
	.cfi_restore 23
	ldp	x25, x26, [sp,64]
	.cfi_restore 26
	.cfi_restore 25
	ldr	x27, [sp,80]
	.cfi_restore 27
	ldp	x29, x30, [sp], 96
	.cfi_restore 30
	.cfi_restore 29
	.cfi_def_cfa 31, 0
	ret
.LVL1038:
.L912:
	.cfi_restore_state
.LBB304:
.LBB305:
	.loc 1 4482 0
	adrp	x0, .LANCHOR0
	.loc 1 4484 0
	adrp	x1, .LC85
	.loc 1 4482 0
	add	x0, x0, :lo12:.LANCHOR0
	add	x19, x0, x19, sxtw 3
.LVL1039:
	ldr	x19, [x19,1880]
	.loc 1 4484 0
	add	x1, x1, :lo12:.LC85
	mov	w0, 26
	add	x21, x19, 104
	ldr	w2, [x19,104]
	bl	dprint_linux_kernel
.LVL1040:
	.loc 1 4485 0
	ldr	w2, [x21,4]
	adrp	x1, .LC86
	add	x1, x1, :lo12:.LC86
	mov	w0, 26
	bl	dprint_linux_kernel
.LVL1041:
	.loc 1 4486 0
	ldr	w2, [x21,8]
	adrp	x1, .LC87
	add	x1, x1, :lo12:.LC87
	mov	w0, 26
	bl	dprint_linux_kernel
.LVL1042:
	.loc 1 4487 0
	ldr	w2, [x21,12]
	adrp	x1, .LC88
	add	x1, x1, :lo12:.LC88
	mov	w0, 26
	bl	dprint_linux_kernel
.LVL1043:
	.loc 1 4488 0
	ldr	w2, [x21,16]
	adrp	x1, .LC89
	mov	w0, 26
	add	x1, x1, :lo12:.LC89
	bl	dprint_linux_kernel
.LVL1044:
	.loc 1 4490 0
	cmp	w20, 1
	bne	.L904
.LBB306:
.LBB307:
	.loc 1 756 0
	cbz	x21, .L908
	.loc 1 758 0
	ldr	w20, [x19,104]
.LVL1045:
	ldr	w22, [x21,4]
.LVL1046:
	sub	w22, w22, w20
.LVL1047:
	.loc 1 762 0
	cmp	w22, wzr
	add	w0, w22, 1024
	csel	w22, w0, w22, lt
.LBE307:
.LBE306:
	.loc 1 4497 0 discriminator 1
	cmp	w22, wzr
	ble	.L904
	.loc 1 4499 0
	adrp	x26, .LC90
	.loc 1 4500 0
	adrp	x25, .LC91
	.loc 1 4501 0
	adrp	x24, .LC92
	.loc 1 4502 0
	adrp	x23, .LC93
	add	w22, w22, w20
.LVL1048:
	.loc 1 4499 0
	add	x26, x26, :lo12:.LC90
	.loc 1 4500 0
	add	x25, x25, :lo12:.LC91
	.loc 1 4501 0
	add	x24, x24, :lo12:.LC92
	.loc 1 4502 0
	add	x23, x23, :lo12:.LC93
.L910:
	.loc 1 4499 0
	sxtw	x2, w20
.LVL1049:
	mov	x1, x26
	lsl	x3, x2, 7
	mov	w0, 26
	sub	x2, x3, x2, lsl 5
.LVL1050:
	.loc 1 4497 0 discriminator 3
	add	w20, w20, 1
	.loc 1 4499 0
	add	x19, x21, x2
	ldr	w2, [x19,56]
	bl	dprint_linux_kernel
.LVL1051:
	.loc 1 4500 0
	ldr	x2, [x19,64]
	mov	x1, x25
	mov	w0, 26
	bl	dprint_linux_kernel
.LVL1052:
	.loc 1 4501 0
	ldr	w2, [x19,28]
	mov	x1, x24
	mov	w0, 26
	bl	dprint_linux_kernel
.LVL1053:
	.loc 1 4502 0
	ldr	x2, [x19,88]
	mov	w0, 26
	mov	x1, x23
	bl	dprint_linux_kernel
.LVL1054:
	.loc 1 4497 0 discriminator 1
	cmp	w20, w22
	bne	.L910
.LBE305:
.LBE304:
	.loc 1 4506 0
	ldp	x19, x20, [sp,16]
	.cfi_remember_state
	.cfi_restore 19
	.cfi_restore 20
.LVL1055:
	ldp	x21, x22, [sp,32]
	.cfi_restore 21
	.cfi_restore 22
	ldp	x23, x24, [sp,48]
	.cfi_restore 23
	.cfi_restore 24
	ldp	x25, x26, [sp,64]
	.cfi_restore 25
	.cfi_restore 26
	ldr	x27, [sp,80]
	.cfi_restore 27
	ldp	x29, x30, [sp], 96
	.cfi_restore 29
	.cfi_restore 30
	.cfi_def_cfa 31, 0
	ret
.LVL1056:
.L908:
	.cfi_restore_state
.LBB309:
.LBB308:
	.loc 1 4494 0
	adrp	x2, .LANCHOR2
	adrp	x1, .LC94
	add	x2, x2, :lo12:.LANCHOR2
	add	x1, x1, :lo12:.LC94
	add	x2, x2, 128
	mov	w3, 4494
	mov	w0, 22
	bl	dprint_linux_kernel
.LVL1057:
	b	.L904
.LBE308:
.LBE309:
	.cfi_endproc
.LFE2719:
	.size	PrintScdRawState, .-PrintScdRawState
	.align	2
	.global	FillRawData
	.type	FillRawData, %function
FillRawData:
.LFB2703:
	.loc 1 3465 0
	.cfi_startproc
.LVL1058:
	stp	x29, x30, [sp, -240]!
	.cfi_def_cfa_offset 240
	.cfi_offset 29, -240
	.cfi_offset 30, -232
	add	x29, sp, 0
	.cfi_def_cfa_register 29
	stp	x23, x24, [sp,48]
	.cfi_offset 23, -192
	.cfi_offset 24, -184
	sxtw	x24, w0
	adrp	x23, __stack_chk_guard
	stp	x21, x22, [sp,32]
	.loc 1 3471 0
	add	x1, x24, 234
	.cfi_offset 21, -208
	.cfi_offset 22, -200
	adrp	x21, .LANCHOR0
	add	x22, x21, :lo12:.LANCHOR0
	.loc 1 3465 0
	ldr	x0, [x23,#:lo12:__stack_chk_guard]
.LVL1059:
	stp	x19, x20, [sp,16]
	.cfi_offset 19, -224
	.cfi_offset 20, -216
	.loc 1 3471 0
	add	x20, x22, x1, lsl 3
	.loc 1 3473 0
	add	x19, x29, 136
	.loc 1 3465 0
	stp	x27, x28, [sp,80]
	stp	x25, x26, [sp,64]
	.cfi_offset 27, -160
	.cfi_offset 28, -152
	.cfi_offset 25, -176
	.cfi_offset 26, -168
	.loc 1 3473 0
	stp	xzr, xzr, [x19]
	.loc 1 3471 0
	ldr	x27, [x20,8]
.LVL1060:
	.loc 1 3465 0
	mov	x28, x24
.LVL1061:
	.loc 1 3473 0
	stp	xzr, xzr, [x19,16]
	.loc 1 3465 0
	str	x0, [x29,232]
	.loc 1 3473 0
	stp	xzr, xzr, [x19,32]
	stp	xzr, xzr, [x19,48]
	stp	xzr, xzr, [x19,64]
	stp	xzr, xzr, [x19,80]
	.loc 1 3474 0
	cbz	x27, .L913
	.loc 1 3502 0
	add	x26, x27, 200704
.LBB317:
.LBB318:
	.loc 1 317 0
	str	x22, [x29,120]
.LBE318:
.LBE317:
	.loc 1 3503 0
	add	x25, x26, 3980
.LVL1062:
.L915:
	.loc 1 3482 0
	ldrsb	w0, [x27,57]
	cmp	w0, 1
	beq	.L952
.L916:
.LBB320:
.LBB319:
	.loc 1 316 0
	cmp	w28, 31
	bhi	.L917
	.loc 1 317 0
	ldr	x1, [x20,8]
	cbz	x1, .L917
	.loc 1 321 0
	ldr	w0, [x1,108]
	ldr	w2, [x1,112]
	add	w0, w0, 1
	asr	w1, w0, 31
	lsr	w1, w1, 22
	add	w0, w0, w1
	and	w0, w0, 1023
	sub	w0, w0, w1
	cmp	w0, w2
	beq	.L917
.LBE319:
.LBE320:
	.loc 1 3496 0
	mov	w0, w28
	mov	x1, x19
	bl	ReadRawStreamData
.LVL1063:
	cbnz	w0, .L913
	.loc 1 3502 0
	ldr	w0, [x26,3952]
	.loc 1 3505 0
	adrp	x22, g_vfmw_osal_fun_ptr
	.loc 1 3502 0
	ldr	w1, [x19,4]
	add	w0, w0, w1
	str	w0, [x26,3952]
	.loc 1 3505 0
	ldr	x2, [x22,#:lo12:g_vfmw_osal_fun_ptr]
	.loc 1 3503 0
	ldr	w0, [x25]
	add	w0, w0, 1
	str	w0, [x25]
	.loc 1 3504 0
	ldr	w0, [x26,3976]
	add	w0, w1, w0
	str	w0, [x26,3976]
	.loc 1 3505 0
	blr	x2
.LVL1064:
	.loc 1 3506 0
	ldr	w1, [x26,3956]
	cbz	w1, .L953
	.loc 1 3512 0
	sub	w1, w0, w1
.LVL1065:
	.loc 1 3513 0
	cmp	w1, 2000
	bls	.L920
	.loc 1 3515 0
	ldr	w2, [x26,3952]
	.loc 1 3517 0
	str	w0, [x26,3956]
	.loc 1 3515 0
	mov	w0, 1000
	lsl	w2, w2, 3
	.loc 1 3516 0
	str	wzr, [x26,3952]
	.loc 1 3515 0
	udiv	w1, w2, w1
.LVL1066:
	mul	w1, w1, w0
	lsr	w1, w1, 10
	str	w1, [x26,3960]
.LVL1067:
.L920:
	.loc 1 3522 0
	ldr	x2, [x19,64]
	adrp	x1, .LC95
.LVL1068:
	add	x1, x1, :lo12:.LC95
	mov	w0, 29
	bl	dprint_linux_kernel
.LVL1069:
	.loc 1 3523 0
	ldr	w2, [x19,32]
	adrp	x1, .LC96
	ldr	w3, [x19,4]
	add	x1, x1, :lo12:.LC96
	mov	w0, 26
	bl	dprint_linux_kernel
.LVL1070:
	.loc 1 3524 0
	ldr	x1, [x19,64]
	mov	x0, 4294967295
	cmp	x1, x0
	beq	.L954
.L921:
.LBB321:
.LBB322:
	.loc 1 1832 0
	ldr	w0, [x19,32]
	.loc 1 1830 0
	ldr	x5, [x20,8]
.LVL1071:
	.loc 1 1832 0
	cbz	w0, .L922
	.loc 1 1833 0
	ldr	x0, [x19,40]
	.loc 1 1834 0
	cbz	x0, .L922
	cbz	x5, .L922
.LBB323:
.LBB324:
	.loc 1 287 0
	ldr	w1, [x5,108]
	add	x5, x5, 104
.LVL1072:
	ldr	w3, [x5,8]
	add	w0, w1, 1
	asr	w2, w0, 31
	lsr	w2, w2, 22
	add	w0, w0, w2
	and	w0, w0, 1023
	sub	w0, w0, w2
	cmp	w0, w3
	beq	.L922
	.loc 1 294 0
	sxtw	x1, w1
	lsl	x0, x1, 7
	sub	x1, x0, x1, lsl 5
.LBE324:
.LBE323:
.LBE322:
.LBE321:
	.loc 1 3540 0
	mov	w0, 0
.LBB328:
.LBB327:
.LBB326:
.LBB325:
	.loc 1 294 0
	add	x1, x5, x1
.LVL1073:
	add	x1, x1, 24
	ldp	x2, x3, [x19]
	stp	x2, x3, [x1]
	ldp	x2, x3, [x19,16]
	stp	x2, x3, [x1,16]
	ldp	x2, x3, [x19,32]
	stp	x2, x3, [x1,32]
	ldp	x2, x3, [x19,48]
	stp	x2, x3, [x1,48]
	ldp	x2, x3, [x19,64]
	stp	x2, x3, [x1,64]
	ldp	x2, x3, [x19,80]
	stp	x2, x3, [x1,80]
	.loc 1 295 0
	ldr	w1, [x5,4]
	add	w1, w1, 1
	asr	w2, w1, 31
	lsr	w2, w2, 22
	add	w1, w1, w2
	and	w1, w1, 1023
	sub	w1, w1, w2
	str	w1, [x5,4]
.LBE325:
.LBE326:
.LBE327:
.LBE328:
	.loc 1 3536 0
	mov	w1, 1
	strb	w1, [x27,4]
	.loc 1 3540 0
	bl	CHECK_REC_POS_ENABLE
.LVL1074:
	cbnz	w0, .L955
.L924:
	.loc 1 3562 0
	adrp	x0, save_str_chan_num
	ldr	w0, [x0,#:lo12:save_str_chan_num]
	cmp	w0, w28
	bne	.L915
	.loc 1 3562 0 is_stmt 0 discriminator 1
	adrp	x3, vfmw_save_str_file
	str	x3, [x29,112]
	ldr	x0, [x3,#:lo12:vfmw_save_str_file]
	cbz	x0, .L915
.LBB329:
	.loc 1 3565 0 is_stmt 1
	add	x1, x22, :lo12:g_vfmw_osal_fun_ptr
	.loc 1 3564 0
	ldr	w2, [x27,60]
	.loc 1 3565 0
	mov	w0, 0
.LVL1075:
	.loc 1 3564 0
	str	x2, [x29,104]
	.loc 1 3565 0
	ldr	x1, [x1,32]
	blr	x1
.LVL1076:
	.loc 1 3568 0
	ldr	x2, [x29,104]
.LVL1077:
	.loc 1 3567 0
	ldr	x3, [x29,112]
	.loc 1 3568 0
	sub	w0, w2, #4
	.loc 1 3567 0
	cmp	w0, 1
	bls	.L927
	.loc 1 3568 0
	cmp	w2, 17
	beq	.L927
	.loc 1 3569 0
	sub	w0, w2, #8
	.loc 1 3569 0 is_stmt 0 discriminator 1
	cmp	w0, 6
	bls	.L927
	.loc 1 3570 0 is_stmt 1
	cmp	w2, 1
	bne	.L928
	.loc 1 3570 0 is_stmt 0 discriminator 1
	ldr	w0, [x27,96]
	cmp	w0, 1
	beq	.L928
.L927:
	.loc 1 3572 0 is_stmt 1
	ldr	x2, [x3,#:lo12:vfmw_save_str_file]
.LVL1078:
	add	x0, x19, 4
	mov	w1, 4
	str	x3, [x29,112]
	bl	OSAL_FileWrite
.LVL1079:
	ldr	x3, [x29,112]
.LVL1080:
.L928:
	.loc 1 3574 0
	ldr	w1, [x19,4]
	ldr	x0, [x19,40]
	ldr	x2, [x3,#:lo12:vfmw_save_str_file]
.LVL1081:
	bl	OSAL_FileWrite
.LVL1082:
	.loc 1 3575 0
	add	x1, x22, :lo12:g_vfmw_osal_fun_ptr
	mov	w0, 0
	ldr	x1, [x1,24]
	blr	x1
.LVL1083:
	b	.L915
.L917:
.LBE329:
	.loc 1 3583 0
	adrp	x1, .LC97
	mov	w2, w28
	add	x1, x1, :lo12:.LC97
	mov	w0, 23
	.loc 1 3584 0
	add	x21, x21, :lo12:.LANCHOR0
	.loc 1 3583 0
	bl	dprint_linux_kernel
.LVL1084:
	.loc 1 3584 0
	mov	w1, 0
	ldr	w0, [x21,2140]
	bl	PrintScdRawState
.LVL1085:
.L913:
	.loc 1 3590 0
	ldr	x1, [x29,232]
	ldr	x0, [x23,#:lo12:__stack_chk_guard]
	cmp	x1, x0
	bne	.L956
	ldp	x19, x20, [sp,16]
	.cfi_remember_state
	.cfi_restore 20
	.cfi_restore 19
	ldp	x21, x22, [sp,32]
	.cfi_restore 22
	.cfi_restore 21
	ldp	x23, x24, [sp,48]
	.cfi_restore 24
	.cfi_restore 23
	ldp	x25, x26, [sp,64]
	.cfi_restore 26
	.cfi_restore 25
	ldp	x27, x28, [sp,80]
	.cfi_restore 28
	.cfi_restore 27
.LVL1086:
	ldp	x29, x30, [sp], 240
	.cfi_restore 30
	.cfi_restore 29
	.cfi_def_cfa 31, 0
	ret
.LVL1087:
.L952:
	.cfi_restore_state
	.loc 1 3485 0
	add	x0, x27, 98304
	ldr	w0, [x0,168]
	cmp	w0, 8
	ble	.L916
	b	.L913
.L953:
	.loc 1 3508 0
	str	w0, [x26,3956]
	b	.L920
.L955:
	.loc 1 3542 0
	ldr	x0, [x22,#:lo12:g_vfmw_osal_fun_ptr]
	blr	x0
.LVL1088:
	.loc 1 3543 0
	ldr	x1, [x29,120]
	adrp	x3, g_TraceBsPeriod
	add	x2, x1, 2160
	ldr	w3, [x3,#:lo12:g_TraceBsPeriod]
	ldr	w1, [x2,x24,lsl 2]
	sub	w1, w0, w1
	cmp	w1, w3
	bls	.L924
	.loc 1 3546 0
	str	w0, [x2,x24,lsl 2]
	b	.L924
.L954:
	.loc 1 3526 0
	mov	x0, -1
	str	x0, [x19,64]
	b	.L921
.LVL1089:
.L922:
	.loc 1 3531 0
	adrp	x1, .LC98
	mov	w0, 0
	add	x1, x1, :lo12:.LC98
	bl	dprint_linux_kernel
.LVL1090:
	.loc 1 3532 0
	b	.L913
.L956:
	.loc 1 3590 0
	bl	__stack_chk_fail
.LVL1091:
	.cfi_endproc
.LFE2703:
	.size	FillRawData, .-FillRawData
	.align	2
	.global	SM_DoNextInstance
	.type	SM_DoNextInstance, %function
SM_DoNextInstance:
.LFB2711:
	.loc 1 4018 0
	.cfi_startproc
.LVL1092:
	stp	x29, x30, [sp, -160]!
	.cfi_def_cfa_offset 160
	.cfi_offset 29, -160
	.cfi_offset 30, -152
	add	x29, sp, 0
	.cfi_def_cfa_register 29
	stp	x21, x22, [sp,32]
	.cfi_offset 21, -128
	.cfi_offset 22, -120
	.loc 1 4034 0
	adrp	x22, .LANCHOR0
	.loc 1 4018 0
	stp	x25, x26, [sp,64]
	.loc 1 4034 0
	add	x1, x22, :lo12:.LANCHOR0
	.cfi_offset 25, -96
	.cfi_offset 26, -88
	.loc 1 4018 0
	adrp	x25, __stack_chk_guard
	stp	x19, x20, [sp,16]
	stp	x23, x24, [sp,48]
	stp	x27, x28, [sp,80]
	.cfi_offset 19, -144
	.cfi_offset 20, -136
	.cfi_offset 23, -112
	.cfi_offset 24, -104
	.cfi_offset 27, -80
	.cfi_offset 28, -72
	.loc 1 4018 0
	str	x0, [x29,104]
	ldr	x2, [x25,#:lo12:__stack_chk_guard]
	.loc 1 4034 0
	ldr	w0, [x1,2152]
.LVL1093:
	.loc 1 4018 0
	str	x2, [x29,152]
	.loc 1 4034 0
	cbnz	w0, .L1007
.LBB350:
.LBB351:
.LBB352:
.LBB353:
	.loc 1 4617 0
	adrp	x24, .LC100
	.loc 1 4618 0
	adrp	x23, .LC101
	.loc 1 4619 0
	adrp	x0, .LC102
.LBE353:
.LBE352:
.LBE351:
.LBE350:
	.loc 1 4045 0
	ldr	w28, [x1,2140]
	mov	w19, 32
	.loc 1 4026 0
	str	wzr, [x29,124]
	str	wzr, [x29,120]
.LBB363:
.LBB360:
.LBB357:
.LBB354:
	.loc 1 4617 0
	add	x24, x24, :lo12:.LC100
.LBE354:
.LBE357:
.LBE360:
.LBE363:
	.loc 1 4026 0
	str	wzr, [x29,116]
.LBB364:
.LBB361:
.LBB358:
.LBB355:
	.loc 1 4618 0
	add	x23, x23, :lo12:.LC101
	.loc 1 4619 0
	add	x27, x0, :lo12:.LC102
	b	.L976
.LVL1094:
.L962:
.LBE355:
.LBE358:
.LBE361:
.LBE364:
	.loc 1 4066 0
	sub	w0, w0, #10
	.loc 1 4067 0
	cmp	w0, 3
	bhi	.L963
.LVL1095:
.L961:
	.loc 1 4047 0 discriminator 1
	subs	w19, w19, #1
	beq	.L1008
.L976:
	.loc 1 4049 0
	add	w26, w28, 1
	.loc 1 4052 0
	add	x2, x22, :lo12:.LANCHOR0
	.loc 1 4049 0
	asr	w3, w26, 31
	.loc 1 4054 0
	add	x1, x29, 128
	.loc 1 4049 0
	lsr	w3, w3, 27
	add	w0, w26, w3
.LVL1096:
	and	w0, w0, 31
	sub	w28, w0, w3
.LVL1097:
	.loc 1 4054 0
	mov	w0, w28
	.loc 1 4052 0
	sxtw	x20, w28
.LVL1098:
	add	x2, x2, x20, lsl 3
	ldr	x21, [x2,1880]
	.loc 1 4054 0
	bl	SM_GetInfo
.LVL1099:
	.loc 1 4055 0
	ldrsb	w0, [x29,128]
	cbz	w0, .L961
	.loc 1 4061 0
	ldr	w0, [x21,60]
	.loc 1 4062 0
	sub	w1, w0, #8
	.loc 1 4061 0
	cmp	w1, 1
	bls	.L961
	cmp	w0, 5
	beq	.L961
	.loc 1 4063 0
	cmp	w0, 1
	bne	.L962
	.loc 1 4064 0
	ldr	w0, [x21,96]
	cbz	w0, .L961
.L963:
	.loc 1 4073 0
	mov	w0, w28
	mov	w1, 0
	bl	PrintScdRawState
.LVL1100:
.LBB365:
.LBB366:
	.loc 1 4613 0
	mov	w0, 26
	bl	IsDprintTypeEnable
.LVL1101:
	cbz	w0, .L964
.LBB367:
.LBB368:
	.loc 1 4615 0
	add	x2, x22, :lo12:.LANCHOR0
	.loc 1 4617 0
	mov	x1, x24
	.loc 1 4615 0
	add	x2, x2, x20, lsl 3
	.loc 1 4617 0
	mov	w0, 26
	.loc 1 4615 0
	ldr	x2, [x2,1880]
	.loc 1 4617 0
	add	x2, x2, 98304
	add	x26, x2, 128
	ldr	w2, [x2,128]
	bl	dprint_linux_kernel
.LVL1102:
	.loc 1 4618 0
	ldr	w2, [x26,4]
	mov	x1, x23
	mov	w0, 26
	bl	dprint_linux_kernel
.LVL1103:
	.loc 1 4619 0
	ldr	w2, [x26,12]
	mov	x1, x27
	mov	w0, 26
	bl	dprint_linux_kernel
.LVL1104:
	.loc 1 4620 0
	adrp	x1, .LC103
	ldr	w2, [x26,20]
	mov	w0, 26
	add	x1, x1, :lo12:.LC103
	bl	dprint_linux_kernel
.LVL1105:
.L964:
.LBE368:
.LBE367:
.LBE366:
.LBE365:
	.loc 1 4076 0
	adrp	x26, g_vfmw_osal_fun_ptr
	ldr	x0, [x26,#:lo12:g_vfmw_osal_fun_ptr]
	blr	x0
.LVL1106:
	.loc 1 4077 0
	add	x2, x21, 200704
	ldr	w1, [x2,3968]
.LVL1107:
	.loc 1 4078 0
	subs	w1, w0, w1
.LVL1108:
	bmi	.L965
	.loc 1 4086 0
	cmp	w1, 499
	bgt	.L965
	.loc 1 4085 0
	ldr	x4, [x21]
	mov	x1, 16711680
.LVL1109:
	movk	x1, 0xff, lsl 32
	and	x1, x4, x1
	.loc 1 4086 0
	cmp	x1, 65536
	beq	.L961
.LVL1110:
.L965:
	.loc 1 4091 0
	str	w0, [x2,3968]
	.loc 1 4093 0
	ldrsb	w0, [x21]
.LVL1111:
	cmp	w0, 1
	beq	.L1009
	.loc 1 4128 0
	strb	wzr, [x21,1]
.LVL1112:
.L971:
	.loc 1 4132 0
	mov	x0, x21
.LVL1113:
	bl	CutStreamWithSCD
.LVL1114:
	.loc 1 4133 0
	cmn	w0, #6
	beq	.L1010
	.loc 1 4139 0
	strb	wzr, [x21]
	.loc 1 4142 0
	cbnz	w0, .L961
	.loc 1 4145 0
	ldr	x1, [x29,104]
.LVL1115:
.LBB369:
.LBB370:
	.loc 1 2214 0
	add	x0, x22, :lo12:.LANCHOR0
.LVL1116:
	add	x20, x0, x20, lsl 3
.LVL1117:
.LBE370:
.LBE369:
	.loc 1 4145 0
	str	w28, [x1]
.LBB372:
.LBB371:
	.loc 1 2214 0
	ldr	x0, [x20,1880]
.LVL1118:
	.loc 1 2216 0
	cbz	x0, .L973
	.loc 1 2218 0
	add	x0, x0, 188416
.LVL1119:
	mov	w1, 1
.LVL1120:
	str	w1, [x0,2388]
.LVL1121:
.L973:
.LBE371:
.LBE372:
	.loc 1 4150 0
	mov	w0, 1
.LVL1122:
	bl	CHECK_REC_POS_ENABLE
.LVL1123:
	cbnz	w0, .L1011
.L1006:
	.loc 1 4161 0
	mov	w0, 0
	b	.L960
.LVL1124:
.L1008:
	.loc 1 4165 0
	mov	w0, -3
.LVL1125:
.L960:
	.loc 1 4166 0
	ldr	x2, [x29,152]
	ldr	x1, [x25,#:lo12:__stack_chk_guard]
	cmp	x2, x1
	bne	.L1012
	ldp	x19, x20, [sp,16]
	.cfi_remember_state
	.cfi_restore 20
	.cfi_restore 19
	ldp	x21, x22, [sp,32]
	.cfi_restore 22
	.cfi_restore 21
.LVL1126:
	ldp	x23, x24, [sp,48]
	.cfi_restore 24
	.cfi_restore 23
	ldp	x25, x26, [sp,64]
	.cfi_restore 26
	.cfi_restore 25
	ldp	x27, x28, [sp,80]
	.cfi_restore 28
	.cfi_restore 27
.LVL1127:
	ldp	x29, x30, [sp], 160
	.cfi_restore 30
	.cfi_restore 29
	.cfi_def_cfa 31, 0
	ret
.LVL1128:
.L1010:
	.cfi_restore_state
	.loc 1 4135 0
	mov	w0, 1
.LVL1129:
	strb	w0, [x21]
	b	.L961
.LVL1130:
.L1009:
	.loc 1 4095 0
	mov	w0, w28
	mov	w1, 0
.LVL1131:
	bl	PrintScdRawState
.LVL1132:
.LBB373:
.LBB362:
	.loc 1 4613 0
	mov	w0, 26
	bl	IsDprintTypeEnable
.LVL1133:
	cbz	w0, .L968
.LBB359:
.LBB356:
	.loc 1 4615 0
	add	x2, x22, :lo12:.LANCHOR0
	.loc 1 4617 0
	mov	x1, x24
.LVL1134:
	.loc 1 4615 0
	add	x2, x2, x20, lsl 3
	.loc 1 4617 0
	mov	w0, 26
	.loc 1 4615 0
	ldr	x2, [x2,1880]
	.loc 1 4617 0
	add	x2, x2, 98304
	add	x3, x2, 128
	str	x3, [x29,96]
	ldr	w2, [x2,128]
	bl	dprint_linux_kernel
.LVL1135:
	.loc 1 4618 0
	ldr	x3, [x29,96]
	mov	x1, x23
	mov	w0, 26
	ldr	w2, [x3,4]
	bl	dprint_linux_kernel
.LVL1136:
	.loc 1 4619 0
	ldr	x3, [x29,96]
	mov	x1, x27
	mov	w0, 26
	ldr	w2, [x3,12]
	bl	dprint_linux_kernel
.LVL1137:
	.loc 1 4620 0
	ldr	x3, [x29,96]
	adrp	x1, .LC103
	mov	w0, 26
	add	x1, x1, :lo12:.LC103
	ldr	w2, [x3,20]
	bl	dprint_linux_kernel
.LVL1138:
.L968:
.LBE356:
.LBE359:
.LBE362:
.LBE373:
	.loc 1 4098 0
	add	x0, x21, 98304
.LBB374:
.LBB375:
	.loc 1 1144 0
	adds	x0, x0, 128
	beq	.L969
	.loc 1 1146 0
	ldr	w1, [x0,40]
.LVL1139:
	str	w1, [x29,116]
	.loc 1 1147 0
	ldr	w1, [x0,36]
.LVL1140:
.LBE375:
.LBE374:
.LBB377:
.LBB378:
.LBB379:
	.loc 1 854 0
	ldr	w0, [x0,20]
.LVL1141:
.LBE379:
.LBE378:
.LBE377:
.LBB382:
.LBB376:
	.loc 1 1147 0
	str	w1, [x29,120]
.LVL1142:
.LBE376:
.LBE382:
.LBB383:
.LBB381:
.LBB380:
	.loc 1 854 0
	str	w0, [x29,124]
.L969:
.LBE380:
.LBE381:
.LBE383:
	.loc 1 4101 0
	ldrsb	w0, [x21,1]
.LVL1143:
	cbnz	w0, .L970
	.loc 1 4103 0
	ldr	w0, [x29,124]
	.loc 1 4103 0 is_stmt 0 discriminator 1
	ldr	w1, [x29,120]
.LVL1144:
	.loc 1 4103 0
	add	w0, w0, w0, lsr 31
.LVL1145:
	.loc 1 4103 0 discriminator 1
	cmp	w1, w0, asr 1
	bge	.L971
	ldr	w0, [x29,116]
.LVL1146:
	cmp	w0, 127
	bgt	.L971
	.loc 1 4106 0 is_stmt 1
	mov	w1, 1
.LVL1147:
	.loc 1 4107 0
	mov	w0, w28
.LVL1148:
	.loc 1 4106 0
	strb	w1, [x21,1]
	.loc 1 4107 0
	mov	w1, 1
	bl	CalcInstBlockTime
.LVL1149:
	b	.L971
.L1011:
	.loc 1 4152 0
	ldr	x0, [x26,#:lo12:g_vfmw_osal_fun_ptr]
	.loc 1 4153 0
	add	x22, x22, :lo12:.LANCHOR0
	add	x22, x22, 2288
	.loc 1 4152 0
	blr	x0
.LVL1150:
	.loc 1 4153 0
	adrp	x1, g_TraceBsPeriod
	ldr	w2, [x1,#:lo12:g_TraceBsPeriod]
	ldr	w1, [x22,w28,sxtw 2]
	sub	w1, w0, w1
	cmp	w1, w2
	bls	.L1006
	.loc 1 4155 0
	str	w0, [x22,w28,sxtw 2]
	.loc 1 4161 0
	mov	w0, 0
	b	.L960
.LVL1151:
.L970:
	.loc 1 4113 0
	mov	w0, w28
	mov	w1, 0
.LVL1152:
	bl	CalcInstBlockTime
.LVL1153:
	b	.L971
.LVL1154:
.L1007:
	.loc 1 4036 0
	cmp	w0, 1
	bne	.L959
	.loc 1 4038 0
	mov	w0, 2
	str	w0, [x1,2152]
.L959:
	.loc 1 4040 0
	adrp	x1, .LC99
	mov	w0, 1
	add	x1, x1, :lo12:.LC99
	bl	dprint_linux_kernel
.LVL1155:
	.loc 1 4041 0
	mov	w0, -3
	b	.L960
.LVL1156:
.L1012:
	.loc 1 4166 0
	bl	__stack_chk_fail
.LVL1157:
	.cfi_endproc
.LFE2711:
	.size	SM_DoNextInstance, .-SM_DoNextInstance
	.align	2
	.global	SM_Wakeup
	.type	SM_Wakeup, %function
SM_Wakeup:
.LFB2715:
	.loc 1 4332 0
	.cfi_startproc
	stp	x29, x30, [sp, -64]!
	.cfi_def_cfa_offset 64
	.cfi_offset 29, -64
	.cfi_offset 30, -56
	.loc 1 4335 0
	adrp	x0, gIsFPGA
	.loc 1 4332 0
	add	x29, sp, 0
	.cfi_def_cfa_register 29
	stp	x21, x22, [sp,32]
	.cfi_offset 21, -32
	.cfi_offset 22, -24
	adrp	x21, __stack_chk_guard
	.loc 1 4335 0
	ldr	w0, [x0,#:lo12:gIsFPGA]
	.loc 1 4332 0
	stp	x19, x20, [sp,16]
	.cfi_offset 19, -48
	.cfi_offset 20, -40
	.loc 1 4332 0
	ldr	x1, [x21,#:lo12:__stack_chk_guard]
	str	x1, [x29,56]
	.loc 1 4335 0
	cbz	w0, .L1014
	.loc 1 4335 0 is_stmt 0 discriminator 2
	mov	w22, 3392
.LVL1158:
	.loc 1 4338 0 is_stmt 1
	str	wzr, [x29,52]
.LVL1159:
	.loc 1 4335 0 discriminator 2
	movk	w22, 0x3, lsl 16
.L1022:
	adrp	x20, .LANCHOR0
	.loc 1 4335 0 is_stmt 0 discriminator 1
	mov	w0, 0
	.loc 1 4340 0 is_stmt 1
	add	x19, x20, :lo12:.LANCHOR0
	b	.L1016
.L1015:
	.loc 1 4338 0 discriminator 2
	ldr	w0, [x29,52]
.LVL1160:
	add	w0, w0, 1
.LVL1161:
	str	w0, [x29,52]
	.loc 1 4338 0 is_stmt 0 discriminator 1
	cmp	w0, 31
	bgt	.L1028
.L1016:
	.loc 1 4340 0 is_stmt 1
	add	x1, x19, x0, sxtw 3
	ldr	x1, [x1,1880]
	cbz	x1, .L1015
	.loc 1 4341 0
	add	x1, x1, 188416
	ldr	w1, [x1,2388]
	cmp	w1, 1
	bne	.L1015
	.loc 1 4344 0
	bl	FillRawData
.LVL1162:
	.loc 1 4338 0 discriminator 2
	ldr	w0, [x29,52]
.LVL1163:
	add	w0, w0, 1
.LVL1164:
	str	w0, [x29,52]
	.loc 1 4338 0 is_stmt 0 discriminator 1
	cmp	w0, 31
	ble	.L1016
.L1028:
	.loc 1 4349 0 is_stmt 1
	add	x20, x20, :lo12:.LANCHOR0
	ldr	w0, [x20,2144]
	cbnz	w0, .L1017
	.loc 1 4351 0
	add	x0, x29, 52
	bl	SM_DoNextInstance
.LVL1165:
	cbz	w0, .L1029
.LVL1166:
.L1013:
	.loc 1 4388 0
	ldr	x1, [x29,56]
	ldr	x0, [x21,#:lo12:__stack_chk_guard]
.LVL1167:
	cmp	x1, x0
	bne	.L1030
	ldp	x19, x20, [sp,16]
	.cfi_remember_state
	.cfi_restore 20
	.cfi_restore 19
	ldp	x21, x22, [sp,32]
	.cfi_restore 22
	.cfi_restore 21
.LVL1168:
	ldp	x29, x30, [sp], 64
	.cfi_restore 30
	.cfi_restore 29
	.cfi_def_cfa 31, 0
	ret
.LVL1169:
.L1017:
	.cfi_restore_state
	.loc 1 4368 0
	adrp	x0, g_vfmw_osal_fun_ptr
	ldr	x0, [x0,#:lo12:g_vfmw_osal_fun_ptr]
	blr	x0
.LVL1170:
	.loc 1 4369 0
	ldr	w2, [x20,2148]
.LVL1171:
	.loc 1 4370 0
	cmp	w0, w2
	bcs	.L1020
	.loc 1 4373 0
	str	w0, [x20,2148]
	b	.L1013
.LVL1172:
.L1014:
	.loc 1 4338 0
	str	wzr, [x29,52]
.LVL1173:
	.loc 1 4335 0 discriminator 1
	mov	w22, 2000
.LVL1174:
	b	.L1022
.LVL1175:
.L1020:
	.loc 1 4369 0
	sub	w2, w0, w2
.LVL1176:
	.loc 1 4376 0
	cmp	w2, w22
	bls	.L1013
	.loc 1 4378 0
	adrp	x1, .LC104
	mov	w3, w22
	add	x1, x1, :lo12:.LC104
	mov	w0, 1
.LVL1177:
	bl	dprint_linux_kernel
.LVL1178:
	.loc 1 4380 0
	bl	ResetSCD
.LVL1179:
	.loc 1 4381 0
	str	wzr, [x20,2144]
	.loc 1 4382 0
	ldr	w0, [x20,2140]
	bl	DeleteLastSendRaw
.LVL1180:
	.loc 1 4383 0
	b	.L1013
.L1029:
	.loc 1 4353 0
	ldr	w0, [x29,52]
.LVL1181:
	str	w0, [x20,2140]
	.loc 1 4354 0
	adrp	x0, g_vfmw_osal_fun_ptr
.LVL1182:
	ldr	x0, [x0,#:lo12:g_vfmw_osal_fun_ptr]
	blr	x0
.LVL1183:
	str	w0, [x20,2148]
	b	.L1013
.LVL1184:
.L1030:
	.loc 1 4388 0
	bl	__stack_chk_fail
.LVL1185:
	.cfi_endproc
.LFE2715:
	.size	SM_Wakeup, .-SM_Wakeup
	.align	2
	.global	SM_SCDIntServeProc
	.type	SM_SCDIntServeProc, %function
SM_SCDIntServeProc:
.LFB2713:
	.loc 1 4207 0
	.cfi_startproc
	stp	x29, x30, [sp, -96]!
	.cfi_def_cfa_offset 96
	.cfi_offset 29, -96
	.cfi_offset 30, -88
	.loc 1 4216 0
	mov	w0, 0
	.loc 1 4207 0
	add	x29, sp, 0
	.cfi_def_cfa_register 29
	stp	x19, x20, [sp,16]
	.cfi_offset 19, -80
	.cfi_offset 20, -72
	.loc 1 4216 0
	adrp	x19, g_vfmw_osal_fun_ptr
	.loc 1 4207 0
	str	x25, [sp,64]
	stp	x21, x22, [sp,32]
	.cfi_offset 25, -32
	.cfi_offset 21, -64
	.cfi_offset 22, -56
	adrp	x21, __stack_chk_guard
	.loc 1 4216 0
	add	x22, x19, :lo12:g_vfmw_osal_fun_ptr
	.loc 1 4207 0
	stp	x23, x24, [sp,48]
	.cfi_offset 23, -48
	.cfi_offset 24, -40
	.loc 1 4217 0
	adrp	x20, gScdRegBaseAddr
	.loc 1 4207 0
	ldr	x2, [x21,#:lo12:__stack_chk_guard]
	.loc 1 4216 0
	ldr	x1, [x22,24]
	.loc 1 4207 0
	str	x2, [x29,88]
	.loc 1 4216 0
	blr	x1
.LVL1186:
	.loc 1 4217 0
	ldr	w0, [x20,#:lo12:gScdRegBaseAddr]
	add	w0, w0, 2112
	bl	MEM_ReadPhyWord
.LVL1187:
	.loc 1 4218 0
	tbz	x0, 0, .L1058
	.loc 1 4226 0
	ldr	w0, [x20,#:lo12:gScdRegBaseAddr]
	mov	w1, 1
	.loc 1 4228 0
	adrp	x20, .LANCHOR0
	.loc 1 4226 0
	add	w0, w0, 2084
	.loc 1 4228 0
	add	x22, x20, :lo12:.LANCHOR0
	.loc 1 4226 0
	bl	MEM_WritePhyWord
.LVL1188:
	.loc 1 4228 0
	mov	w1, 1
	.loc 1 4230 0
	mov	w0, 2
	.loc 1 4228 0
	str	w1, [x22,2416]
	.loc 1 4230 0
	bl	CHECK_REC_POS_ENABLE
.LVL1189:
	cbnz	w0, .L1034
	ldr	w23, [x22,2140]
.LVL1190:
.L1035:
	.loc 1 4241 0
	add	x22, x20, :lo12:.LANCHOR0
	add	x0, x22, x23, sxtw 3
.LVL1191:
	ldr	x24, [x0,1880]
.LVL1192:
	.loc 1 4244 0 discriminator 1
	cbz	x24, .L1048
	.loc 1 4244 0 is_stmt 0
	ldr	w0, [x22,2136]
	.loc 1 4244 0 discriminator 1
	cbz	w0, .L1048
	.loc 1 4255 0 is_stmt 1
	ldr	w0, [x22,2144]
	cmp	w0, 1
	beq	.L1059
.LVL1193:
.L1039:
	.loc 1 4285 0
	add	x20, x20, :lo12:.LANCHOR0
	.loc 1 4286 0
	mov	w0, w23
	.loc 1 4289 0
	add	x19, x19, :lo12:g_vfmw_osal_fun_ptr
	.loc 1 4285 0
	str	wzr, [x20,2416]
	.loc 1 4286 0
	bl	SM_GiveThreadEvent
.LVL1194:
	.loc 1 4289 0
	ldr	x1, [x19,32]
	mov	w0, 0
	blr	x1
.LVL1195:
.L1031:
	.loc 1 4293 0
	ldr	x1, [x29,88]
	ldr	x0, [x21,#:lo12:__stack_chk_guard]
	cmp	x1, x0
	bne	.L1060
	ldp	x19, x20, [sp,16]
	.cfi_remember_state
	.cfi_restore 20
	.cfi_restore 19
	ldp	x21, x22, [sp,32]
	.cfi_restore 22
	.cfi_restore 21
	ldp	x23, x24, [sp,48]
	.cfi_restore 24
	.cfi_restore 23
.LVL1196:
	ldr	x25, [sp,64]
	.cfi_restore 25
	ldp	x29, x30, [sp], 96
	.cfi_restore 30
	.cfi_restore 29
	.cfi_def_cfa 31, 0
	ret
.LVL1197:
.L1058:
	.cfi_restore_state
	.loc 1 4220 0
	ldr	x1, [x22,32]
	mov	w0, 0
	blr	x1
.LVL1198:
	.loc 1 4221 0
	b	.L1031
.L1034:
	.loc 1 4232 0
	ldr	x0, [x19,#:lo12:g_vfmw_osal_fun_ptr]
	blr	x0
.LVL1199:
	.loc 1 4233 0
	ldr	w23, [x22,2140]
	add	x22, x22, 2424
	adrp	x2, g_TraceBsPeriod
	ldr	w1, [x22,w23,sxtw 2]
	ldr	w2, [x2,#:lo12:g_TraceBsPeriod]
.LVL1200:
	sub	w1, w0, w1
	cmp	w1, w2
	bls	.L1035
	.loc 1 4235 0
	str	w0, [x22,w23,sxtw 2]
	b	.L1035
.LVL1201:
.L1048:
	.loc 1 4249 0
	add	x19, x19, :lo12:g_vfmw_osal_fun_ptr
	.loc 1 4246 0
	add	x20, x20, :lo12:.LANCHOR0
	.loc 1 4249 0
	mov	w0, 0
	ldr	x1, [x19,32]
	.loc 1 4247 0
	str	wzr, [x20,2144]
	.loc 1 4246 0
	str	wzr, [x20,2416]
	.loc 1 4249 0
	blr	x1
.LVL1202:
	.loc 1 4251 0
	b	.L1031
.L1059:
	.loc 1 4258 0
	add	x0, x24, 188416
	ldr	w0, [x0,2388]
	cmp	w0, 1
	beq	.L1061
.L1041:
	.loc 1 4277 0
	add	x22, x20, :lo12:.LANCHOR0
	.loc 1 4278 0
	add	x0, x29, 84
	.loc 1 4277 0
	str	wzr, [x22,2144]
	.loc 1 4278 0
	bl	SM_DoNextInstance
.LVL1203:
	cbnz	w0, .L1039
.LVL1204:
	.loc 1 4280 0
	ldr	w1, [x29,84]
	.loc 1 4281 0
	ldr	x0, [x19,#:lo12:g_vfmw_osal_fun_ptr]
	.loc 1 4280 0
	str	w1, [x22,2140]
	.loc 1 4281 0
	blr	x0
.LVL1205:
	str	w0, [x22,2148]
	b	.L1039
.LVL1206:
.L1061:
	.loc 1 4260 0
	mov	w0, w23
	mov	w1, 0
	bl	PrintScdRawState
.LVL1207:
	.loc 1 4261 0
	ldr	w25, [x22,2140]
.LBB402:
.LBB403:
	.loc 1 4613 0
	mov	w0, 26
	bl	IsDprintTypeEnable
.LVL1208:
	cbz	w0, .L1042
.LBB404:
.LBB405:
	.loc 1 4615 0
	add	x22, x22, x25, sxtw 3
	ldr	x2, [x22,1880]
	.loc 1 4617 0
	adrp	x1, .LC100
	mov	w0, 26
	add	x2, x2, 98304
	add	x1, x1, :lo12:.LC100
	add	x22, x2, 128
	ldr	w2, [x2,128]
	bl	dprint_linux_kernel
.LVL1209:
	.loc 1 4618 0
	ldr	w2, [x22,4]
	adrp	x1, .LC101
	add	x1, x1, :lo12:.LC101
	mov	w0, 26
	bl	dprint_linux_kernel
.LVL1210:
	.loc 1 4619 0
	ldr	w2, [x22,12]
	adrp	x1, .LC102
	add	x1, x1, :lo12:.LC102
	mov	w0, 26
	bl	dprint_linux_kernel
.LVL1211:
	.loc 1 4620 0
	adrp	x1, .LC103
	ldr	w2, [x22,20]
	mov	w0, 26
	add	x1, x1, :lo12:.LC103
	bl	dprint_linux_kernel
.LVL1212:
.L1042:
.LBE405:
.LBE404:
.LBE403:
.LBE402:
	.loc 1 4265 0
	mov	x0, x24
	bl	ProcessScdReturn
.LVL1213:
	.loc 1 4268 0
	ldrsb	w0, [x24,57]
	cmp	w0, 1
	beq	.L1062
.LVL1214:
.L1043:
	.loc 1 4274 0
	add	x22, x20, :lo12:.LANCHOR0
	mov	w1, 0
	ldr	w0, [x22,2140]
.LVL1215:
	bl	PrintScdRawState
.LVL1216:
	.loc 1 4275 0
	ldr	w24, [x22,2140]
.LVL1217:
.LBB406:
.LBB407:
	.loc 1 4613 0
	mov	w0, 26
	bl	IsDprintTypeEnable
.LVL1218:
	cbz	w0, .L1041
.LBB408:
.LBB409:
	.loc 1 4615 0
	add	x22, x22, x24, sxtw 3
	ldr	x2, [x22,1880]
	.loc 1 4617 0
	adrp	x1, .LC100
	mov	w0, 26
	add	x2, x2, 98304
	add	x1, x1, :lo12:.LC100
	add	x22, x2, 128
	ldr	w2, [x2,128]
	bl	dprint_linux_kernel
.LVL1219:
	.loc 1 4618 0
	ldr	w2, [x22,4]
	adrp	x1, .LC101
	add	x1, x1, :lo12:.LC101
	mov	w0, 26
	bl	dprint_linux_kernel
.LVL1220:
	.loc 1 4619 0
	ldr	w2, [x22,12]
	adrp	x1, .LC102
	add	x1, x1, :lo12:.LC102
	mov	w0, 26
	bl	dprint_linux_kernel
.LVL1221:
	.loc 1 4620 0
	ldr	w2, [x22,20]
	adrp	x1, .LC103
	add	x1, x1, :lo12:.LC103
	mov	w0, 26
	bl	dprint_linux_kernel
.LVL1222:
	b	.L1041
.LVL1223:
.L1062:
.LBE409:
.LBE408:
.LBE407:
.LBE406:
.LBB410:
.LBB411:
	.loc 1 4176 0
	ldrsb	w0, [x24,2]
	cbz	w0, .L1043
.LBB412:
.LBB413:
.LBB414:
.LBB415:
	.loc 1 758 0
	ldr	w2, [x24,104]
	ldr	w0, [x24,108]
.LBE415:
.LBE414:
	.loc 1 4182 0
	ldr	w1, [x24,80]
.LBB417:
.LBB416:
	.loc 1 758 0
	sub	w0, w0, w2
.LVL1224:
	.loc 1 762 0
	cmp	w0, wzr
	add	w2, w0, 1024
	csel	w0, w2, w0, lt
.LBE416:
.LBE417:
	.loc 1 4182 0
	cmp	w1, w0
	bgt	.L1043
	.loc 1 4187 0
	mov	x0, x24
.LVL1225:
	bl	SM_MoveRawData
.LVL1226:
	b	.L1043
.LVL1227:
.L1060:
.LBE413:
.LBE412:
.LBE411:
.LBE410:
	.loc 1 4293 0
	bl	__stack_chk_fail
.LVL1228:
	.cfi_endproc
.LFE2713:
	.size	SM_SCDIntServeProc, .-SM_SCDIntServeProc
	.align	2
	.global	PrintSmInfo
	.type	PrintSmInfo, %function
PrintSmInfo:
.LFB2720:
	.loc 1 4516 0
	.cfi_startproc
.LVL1229:
	stp	x29, x30, [sp, -128]!
	.cfi_def_cfa_offset 128
	.cfi_offset 29, -128
	.cfi_offset 30, -120
	add	x29, sp, 0
	.cfi_def_cfa_register 29
	stp	x21, x22, [sp,32]
	.cfi_offset 21, -96
	.cfi_offset 22, -88
	adrp	x21, __stack_chk_guard
	stp	x19, x20, [sp,16]
	stp	x27, x28, [sp,80]
	stp	x23, x24, [sp,48]
	stp	x25, x26, [sp,64]
	.cfi_offset 19, -112
	.cfi_offset 20, -104
	.cfi_offset 27, -48
	.cfi_offset 28, -40
	.cfi_offset 23, -80
	.cfi_offset 24, -72
	.cfi_offset 25, -64
	.cfi_offset 26, -56
	.loc 1 4520 0
	adrp	x27, .LANCHOR0
	.loc 1 4516 0
	mov	w19, w0
	.loc 1 4520 0
	add	x27, x27, :lo12:.LANCHOR0
	.loc 1 4516 0
	ldr	x2, [x21,#:lo12:__stack_chk_guard]
	.loc 1 4520 0
	add	x1, x27, x19, sxtw 3
	ldr	x24, [x1,1880]
.LVL1230:
	.loc 1 4522 0
	add	x1, x29, 96
	.loc 1 4516 0
	str	x2, [x29,120]
	.loc 1 4518 0
	stp	xzr, xzr, [x29,96]
	str	xzr, [x29,112]
	.loc 1 4522 0
	bl	SM_GetInfo
.LVL1231:
	.loc 1 4523 0
	cbz	x24, .L1063
	.loc 1 4527 0
	adrp	x1, .LC105
	.loc 1 4529 0
	add	x26, x24, 188416
	.loc 1 4527 0
	mov	w2, w19
	add	x1, x1, :lo12:.LC105
	mov	w0, 32
	.loc 1 4529 0
	adrp	x19, .LC106
.LVL1232:
	add	x19, x19, :lo12:.LC106
	.loc 1 4532 0
	adrp	x25, .LC110
	.loc 1 4527 0
	bl	dprint_linux_kernel
.LVL1233:
	.loc 1 4532 0
	add	x25, x25, :lo12:.LC110
	.loc 1 4529 0
	ldr	w3, [x26,2388]
	adrp	x2, .LC107
	.loc 1 4576 0
	adrp	x4, .LC9
	.loc 1 4529 0
	mov	x1, x19
	add	x2, x2, :lo12:.LC107
	mov	w0, 32
	.loc 1 4576 0
	add	x20, x4, :lo12:.LC9
	.loc 1 4561 0
	add	x28, x24, 200704
	.loc 1 4529 0
	bl	dprint_linux_kernel
.LVL1234:
	.loc 1 4569 0
	add	x22, x24, 104
	.loc 1 4530 0
	ldrb	w3, [x24,56]
	adrp	x2, .LC108
	mov	x1, x19
	add	x2, x2, :lo12:.LC108
	mov	w0, 32
	.loc 1 4572 0
	mov	w23, 0
.LVL1235:
	.loc 1 4530 0
	bl	dprint_linux_kernel
.LVL1236:
	.loc 1 4531 0
	ldr	w3, [x24,60]
	adrp	x2, .LC109
	mov	x1, x19
	add	x2, x2, :lo12:.LC109
	mov	w0, 32
	bl	dprint_linux_kernel
.LVL1237:
	.loc 1 4532 0
	ldr	w3, [x24,64]
	adrp	x2, .LC111
	mov	x1, x25
	add	x2, x2, :lo12:.LC111
	mov	w0, 32
	bl	dprint_linux_kernel
.LVL1238:
	.loc 1 4533 0
	ldr	x3, [x24,88]
	adrp	x1, .LC112
	adrp	x2, .LC113
	add	x1, x1, :lo12:.LC112
	add	x2, x2, :lo12:.LC113
	mov	w0, 32
	bl	dprint_linux_kernel
.LVL1239:
	.loc 1 4534 0
	ldr	w3, [x24,68]
	adrp	x2, .LC114
	mov	x1, x19
	add	x2, x2, :lo12:.LC114
	mov	w0, 32
	bl	dprint_linux_kernel
.LVL1240:
	.loc 1 4536 0
	adrp	x3, gScdRegBaseAddr
	adrp	x2, .LC115
	mov	x1, x25
	add	x2, x2, :lo12:.LC115
	mov	w0, 32
	ldr	w3, [x3,#:lo12:gScdRegBaseAddr]
	bl	dprint_linux_kernel
.LVL1241:
	.loc 1 4537 0
	ldr	w3, [x26,2232]
	adrp	x2, .LC116
	mov	x1, x19
	add	x2, x2, :lo12:.LC116
	mov	w0, 32
	bl	dprint_linux_kernel
.LVL1242:
	.loc 1 4538 0
	ldr	w3, [x26,2236]
	adrp	x2, .LC117
	mov	x1, x19
	add	x2, x2, :lo12:.LC117
	mov	w0, 32
	bl	dprint_linux_kernel
.LVL1243:
	.loc 1 4539 0
	ldr	w3, [x26,2260]
	adrp	x2, .LC118
	mov	x1, x25
	add	x2, x2, :lo12:.LC118
	mov	w0, 32
	bl	dprint_linux_kernel
.LVL1244:
	.loc 1 4540 0
	ldr	w3, [x26,2256]
	adrp	x2, .LC119
	mov	x1, x19
	add	x2, x2, :lo12:.LC119
	mov	w0, 32
	bl	dprint_linux_kernel
.LVL1245:
	.loc 1 4541 0
	ldr	w3, [x26,2272]
	adrp	x2, .LC120
	mov	x1, x25
	add	x2, x2, :lo12:.LC120
	mov	w0, 32
	bl	dprint_linux_kernel
.LVL1246:
	.loc 1 4542 0
	ldr	w3, [x26,2280]
	adrp	x2, .LC121
	mov	x1, x19
	add	x2, x2, :lo12:.LC121
	mov	w0, 32
	bl	dprint_linux_kernel
.LVL1247:
	.loc 1 4543 0
	ldr	w3, [x26,2276]
	adrp	x2, .LC122
	mov	x1, x19
	add	x2, x2, :lo12:.LC122
	mov	w0, 32
	bl	dprint_linux_kernel
.LVL1248:
	.loc 1 4545 0
	ldr	w3, [x26,2364]
	adrp	x2, .LC123
	mov	x1, x25
	add	x2, x2, :lo12:.LC123
	mov	w0, 32
	bl	dprint_linux_kernel
.LVL1249:
	.loc 1 4546 0
	ldr	w3, [x26,2368]
	adrp	x2, .LC124
	mov	x1, x19
	add	x2, x2, :lo12:.LC124
	mov	w0, 32
	bl	dprint_linux_kernel
.LVL1250:
	.loc 1 4547 0
	ldr	w3, [x29,112]
	adrp	x2, .LC125
	mov	x1, x19
	add	x2, x2, :lo12:.LC125
	mov	w0, 32
	bl	dprint_linux_kernel
.LVL1251:
	.loc 1 4548 0
	ldr	w3, [x29,104]
	adrp	x2, .LC126
	mov	x1, x19
	add	x2, x2, :lo12:.LC126
	mov	w0, 32
	bl	dprint_linux_kernel
.LVL1252:
	.loc 1 4550 0
	ldr	w3, [x29,108]
	adrp	x2, .LC127
	mov	x1, x19
	add	x2, x2, :lo12:.LC127
	mov	w0, 32
	bl	dprint_linux_kernel
.LVL1253:
	.loc 1 4551 0
	ldr	w3, [x29,100]
	adrp	x2, .LC128
	mov	x1, x19
	add	x2, x2, :lo12:.LC128
	mov	w0, 32
	bl	dprint_linux_kernel
.LVL1254:
	.loc 1 4553 0
	ldr	w3, [x24,24]
	adrp	x2, .LC129
	mov	x1, x19
	add	x2, x2, :lo12:.LC129
	mov	w0, 32
	bl	dprint_linux_kernel
.LVL1255:
	.loc 1 4554 0
	ldr	w3, [x24,28]
	adrp	x2, .LC130
	mov	x1, x19
	add	x2, x2, :lo12:.LC130
	mov	w0, 32
	bl	dprint_linux_kernel
.LVL1256:
	.loc 1 4555 0
	ldr	w3, [x24,32]
	adrp	x2, .LC131
	mov	x1, x19
	add	x2, x2, :lo12:.LC131
	mov	w0, 32
	bl	dprint_linux_kernel
.LVL1257:
	.loc 1 4556 0
	ldr	w3, [x24,36]
	adrp	x2, .LC132
	mov	x1, x25
	add	x2, x2, :lo12:.LC132
	mov	w0, 32
	bl	dprint_linux_kernel
.LVL1258:
	.loc 1 4557 0
	ldr	w3, [x24,40]
	adrp	x2, .LC133
	mov	x1, x19
	add	x2, x2, :lo12:.LC133
	mov	w0, 32
	bl	dprint_linux_kernel
.LVL1259:
	.loc 1 4558 0
	ldr	w3, [x24,44]
	adrp	x2, .LC134
	mov	x1, x25
	add	x2, x2, :lo12:.LC134
	mov	w0, 32
	bl	dprint_linux_kernel
.LVL1260:
	.loc 1 4559 0
	ldr	x3, [x24,16]
	adrp	x2, .LC135
	mov	x1, x25
	add	x2, x2, :lo12:.LC135
	mov	w0, 32
	.loc 1 4565 0
	adrp	x25, .LC142
	add	x25, x25, :lo12:.LC142
	.loc 1 4559 0
	bl	dprint_linux_kernel
.LVL1261:
	.loc 1 4560 0
	ldr	w3, [x24,48]
	adrp	x2, .LC136
	mov	x1, x19
	add	x2, x2, :lo12:.LC136
	mov	w0, 32
	bl	dprint_linux_kernel
.LVL1262:
	.loc 1 4561 0
	ldr	w3, [x28,3928]
	adrp	x2, .LC137
	mov	x1, x19
	add	x2, x2, :lo12:.LC137
	mov	w0, 32
	bl	dprint_linux_kernel
.LVL1263:
	.loc 1 4562 0
	ldr	w3, [x28,3932]
	adrp	x2, .LC138
	mov	x1, x19
	add	x2, x2, :lo12:.LC138
	mov	w0, 32
	bl	dprint_linux_kernel
.LVL1264:
	.loc 1 4563 0
	ldr	x3, [x28,3936]
	adrp	x1, .LC139
	adrp	x2, .LC140
	add	x1, x1, :lo12:.LC139
	add	x2, x2, :lo12:.LC140
	mov	w0, 32
	bl	dprint_linux_kernel
.LVL1265:
	.loc 1 4564 0
	ldr	w3, [x27,2140]
	adrp	x2, .LC141
	mov	x1, x19
	add	x2, x2, :lo12:.LC141
	mov	w0, 32
	bl	dprint_linux_kernel
.LVL1266:
	.loc 1 4565 0
	ldr	w3, [x27,2144]
	mov	x1, x19
	mov	x2, x25
	mov	w0, 32
	.loc 1 4584 0
	adrp	x19, .LC145
	.loc 1 4565 0
	bl	dprint_linux_kernel
.LVL1267:
	.loc 1 4584 0
	add	x19, x19, :lo12:.LC145
	.loc 1 4569 0
	ldr	w3, [x24,104]
	adrp	x1, .LC143
	ldr	w4, [x22,8]
	add	x1, x1, :lo12:.LC143
	mov	x2, x25
	mov	w0, 32
	bl	dprint_linux_kernel
.LVL1268:
	.loc 1 4570 0
	ldr	w2, [x22,12]
	adrp	x1, .LC144
	mov	w0, 32
	add	x1, x1, :lo12:.LC144
	bl	dprint_linux_kernel
.LVL1269:
	.loc 1 4571 0
	ldr	w24, [x22,8]
.LVL1270:
.L1065:
	.loc 1 4578 0
	ldr	w0, [x22,4]
	cmp	w0, w24
	beq	.L1071
.L1067:
	.loc 1 4584 0
	sxtw	x2, w24
	mov	w0, 32
	lsl	x3, x2, 7
	mov	x1, x19
	sub	x2, x3, x2, lsl 5
	add	x2, x22, x2
	ldr	w2, [x2,28]
	bl	dprint_linux_kernel
.LVL1271:
	.loc 1 4587 0
	add	w0, w24, 1
	.loc 1 4588 0
	cmp	w0, 1023
	ble	.L1073
	.loc 1 4590 0
	sub	w24, w24, #1023
.L1069:
	.loc 1 4572 0 discriminator 2
	add	w23, w23, 1
	.loc 1 4572 0 is_stmt 0 discriminator 1
	cmp	w23, 1024
	beq	.L1071
	.loc 1 4574 0 is_stmt 1 discriminator 1
	mov	w0, 26215
	movk	w0, 0x6666, lsl 16
	smull	x0, w23, w0
	lsr	x0, x0, 32
	asr	w0, w0, 2
	sub	w0, w0, w23, asr 31
	lsl	w1, w0, 3
	add	w0, w1, w0, lsl 1
	cmp	w23, w0
	bne	.L1065
	.loc 1 4576 0
	mov	w0, 32
	mov	x1, x20
	bl	dprint_linux_kernel
.LVL1272:
	.loc 1 4578 0
	ldr	w0, [x22,4]
	cmp	w0, w24
	bne	.L1067
.L1071:
	.loc 1 4593 0
	adrp	x0, .LC9
	add	x1, x0, :lo12:.LC9
	mov	w0, 32
	bl	dprint_linux_kernel
.LVL1273:
.L1063:
	.loc 1 4595 0
	ldr	x1, [x29,120]
	ldr	x0, [x21,#:lo12:__stack_chk_guard]
	cmp	x1, x0
	bne	.L1077
	ldp	x19, x20, [sp,16]
	.cfi_remember_state
	.cfi_restore 20
	.cfi_restore 19
.LVL1274:
	ldp	x21, x22, [sp,32]
	.cfi_restore 22
	.cfi_restore 21
	ldp	x23, x24, [sp,48]
	.cfi_restore 24
	.cfi_restore 23
.LVL1275:
	ldp	x25, x26, [sp,64]
	.cfi_restore 26
	.cfi_restore 25
	ldp	x27, x28, [sp,80]
	.cfi_restore 28
	.cfi_restore 27
	ldp	x29, x30, [sp], 128
	.cfi_restore 30
	.cfi_restore 29
	.cfi_def_cfa 31, 0
	ret
.LVL1276:
.L1073:
	.cfi_restore_state
	mov	w24, w0
	b	.L1069
.LVL1277:
.L1077:
	bl	__stack_chk_fail
.LVL1278:
	.cfi_endproc
.LFE2720:
	.size	PrintSmInfo, .-PrintSmInfo
	.align	2
	.global	PrintScdSegState
	.type	PrintScdSegState, %function
PrintScdSegState:
.LFB2721:
	.loc 1 4605 0
	.cfi_startproc
.LVL1279:
	stp	x29, x30, [sp, -96]!
	.cfi_def_cfa_offset 96
	.cfi_offset 29, -96
	.cfi_offset 30, -88
	add	x29, sp, 0
	.cfi_def_cfa_register 29
	stp	x19, x20, [sp,16]
	.cfi_offset 19, -80
	.cfi_offset 20, -72
	mov	w19, w0
	.loc 1 4613 0
	mov	w0, 26
.LVL1280:
	.loc 1 4605 0
	stp	x21, x22, [sp,32]
	stp	x23, x24, [sp,48]
	stp	x25, x26, [sp,64]
	stp	x27, x28, [sp,80]
	.cfi_offset 21, -64
	.cfi_offset 22, -56
	.cfi_offset 23, -48
	.cfi_offset 24, -40
	.cfi_offset 25, -32
	.cfi_offset 26, -24
	.cfi_offset 27, -16
	.cfi_offset 28, -8
	.loc 1 4605 0
	mov	w21, w1
	.loc 1 4613 0
	bl	IsDprintTypeEnable
.LVL1281:
	cbnz	w0, .L1086
.LVL1282:
.L1078:
	.loc 1 4639 0
	ldp	x19, x20, [sp,16]
	.cfi_remember_state
	.cfi_restore 20
	.cfi_restore 19
.LVL1283:
	ldp	x21, x22, [sp,32]
	.cfi_restore 22
	.cfi_restore 21
.LVL1284:
	ldp	x23, x24, [sp,48]
	.cfi_restore 24
	.cfi_restore 23
	ldp	x25, x26, [sp,64]
	.cfi_restore 26
	.cfi_restore 25
	ldp	x27, x28, [sp,80]
	.cfi_restore 28
	.cfi_restore 27
.LVL1285:
	ldp	x29, x30, [sp], 96
	.cfi_restore 30
	.cfi_restore 29
	.cfi_def_cfa 31, 0
	ret
.LVL1286:
.L1086:
	.cfi_restore_state
.LBB422:
.LBB423:
	.loc 1 4615 0
	adrp	x0, .LANCHOR0
	.loc 1 4617 0
	adrp	x1, .LC100
	.loc 1 4615 0
	add	x0, x0, :lo12:.LANCHOR0
	add	x19, x0, x19, sxtw 3
.LVL1287:
	ldr	x19, [x19,1880]
	.loc 1 4617 0
	add	x1, x1, :lo12:.LC100
	mov	w0, 26
	add	x19, x19, 98304
	add	x20, x19, 128
	ldr	w2, [x19,128]
	bl	dprint_linux_kernel
.LVL1288:
	.loc 1 4618 0
	ldr	w2, [x20,4]
	adrp	x1, .LC101
	add	x1, x1, :lo12:.LC101
	mov	w0, 26
	bl	dprint_linux_kernel
.LVL1289:
	.loc 1 4619 0
	ldr	w2, [x20,12]
	adrp	x1, .LC102
	add	x1, x1, :lo12:.LC102
	mov	w0, 26
	bl	dprint_linux_kernel
.LVL1290:
	.loc 1 4620 0
	ldr	w2, [x20,20]
	adrp	x1, .LC103
	mov	w0, 26
	add	x1, x1, :lo12:.LC103
	bl	dprint_linux_kernel
.LVL1291:
	.loc 1 4622 0
	cmp	w21, 1
	bne	.L1078
.LBB424:
.LBB425:
	.loc 1 1125 0
	cbz	x20, .L1082
	.loc 1 1127 0
	ldr	w28, [x19,128]
	ldr	w21, [x20,4]
.LVL1292:
	sub	w21, w21, w28
.LVL1293:
	.loc 1 1131 0
	cmp	w21, wzr
	add	w0, w21, 1152
	csel	w21, w0, w21, lt
.LBE425:
.LBE424:
	.loc 1 4629 0 discriminator 1
	cmp	w21, wzr
	ble	.L1078
	.loc 1 4631 0
	adrp	x25, .LC146
	.loc 1 4632 0
	adrp	x24, .LC147
	.loc 1 4633 0
	adrp	x23, .LC148
	.loc 1 4634 0
	adrp	x22, .LC149
	add	w21, w21, w28
.LVL1294:
	adrp	x26, .LC150
	.loc 1 4631 0
	add	x25, x25, :lo12:.LC146
	.loc 1 4632 0
	add	x24, x24, :lo12:.LC147
	.loc 1 4633 0
	add	x23, x23, :lo12:.LC148
	.loc 1 4634 0
	add	x22, x22, :lo12:.LC149
.L1084:
	.loc 1 4631 0
	sxtw	x2, w28
.LVL1295:
	mov	x1, x25
	lsl	x3, x2, 6
	mov	w0, 26
	add	x2, x3, x2, lsl 4
.LVL1296:
	.loc 1 4629 0 discriminator 3
	add	w28, w28, 1
	.loc 1 4631 0
	add	x19, x20, x2
	ldr	w2, [x19,64]
	bl	dprint_linux_kernel
.LVL1297:
	.loc 1 4632 0
	ldr	w2, [x19,68]
	mov	x1, x24
	mov	w0, 26
	bl	dprint_linux_kernel
.LVL1298:
	.loc 1 4633 0
	ldrsb	w2, [x19,56]
	mov	x1, x23
	mov	w0, 26
	bl	dprint_linux_kernel
.LVL1299:
	.loc 1 4634 0
	ldrb	w2, [x19,57]
	mov	x1, x22
	mov	w0, 26
	bl	dprint_linux_kernel
.LVL1300:
	.loc 1 4635 0
	ldr	x2, [x19,72]
	mov	w0, 26
	add	x1, x26, :lo12:.LC150
	bl	dprint_linux_kernel
.LVL1301:
	.loc 1 4629 0 discriminator 1
	cmp	w28, w21
	bne	.L1084
.LBE423:
.LBE422:
	.loc 1 4639 0
	ldp	x19, x20, [sp,16]
	.cfi_remember_state
	.cfi_restore 19
	.cfi_restore 20
	ldp	x21, x22, [sp,32]
	.cfi_restore 21
	.cfi_restore 22
	ldp	x23, x24, [sp,48]
	.cfi_restore 23
	.cfi_restore 24
	ldp	x25, x26, [sp,64]
	.cfi_restore 25
	.cfi_restore 26
	ldp	x27, x28, [sp,80]
	.cfi_restore 27
	.cfi_restore 28
.LVL1302:
	ldp	x29, x30, [sp], 96
	.cfi_restore 29
	.cfi_restore 30
	.cfi_def_cfa 31, 0
	ret
.LVL1303:
.L1082:
	.cfi_restore_state
.LBB427:
.LBB426:
	.loc 1 4626 0
	adrp	x2, .LANCHOR2
	adrp	x1, .LC151
	add	x2, x2, :lo12:.LANCHOR2
	add	x1, x1, :lo12:.LC151
	add	x2, x2, 152
	mov	w3, 4626
	mov	w0, 22
	bl	dprint_linux_kernel
.LVL1304:
	b	.L1078
.LBE426:
.LBE427:
	.cfi_endproc
.LFE2721:
	.size	PrintScdSegState, .-PrintScdSegState
	.align	2
	.global	SCDDRV_IsScdIdle
	.type	SCDDRV_IsScdIdle, %function
SCDDRV_IsScdIdle:
.LFB2722:
	.loc 1 4642 0
	.cfi_startproc
	.loc 1 4646 0
	adrp	x0, .LANCHOR0+2144
	.loc 1 4642 0
	stp	x29, x30, [sp, -32]!
	.cfi_def_cfa_offset 32
	.cfi_offset 29, -32
	.cfi_offset 30, -24
	add	x29, sp, 0
	.cfi_def_cfa_register 29
	.loc 1 4646 0
	ldr	w3, [x0,#:lo12:.LANCHOR0+2144]
	.loc 1 4642 0
	str	x19, [sp,16]
	.cfi_offset 19, -16
	.loc 1 4648 0
	mov	w19, 0
.LVL1305:
	.loc 1 4646 0
	cbz	w3, .L1088
	.loc 1 4650 0
	cmp	w3, 1
	.loc 1 4652 0
	mov	w19, 1
	.loc 1 4650 0
	beq	.L1088
	.loc 1 4657 0
	adrp	x2, .LANCHOR2
	adrp	x1, .LC152
	add	x2, x2, :lo12:.LANCHOR2
	mov	w0, w19
	add	x1, x1, :lo12:.LC152
	add	x2, x2, 176
	bl	dprint_linux_kernel
.LVL1306:
.L1088:
	.loc 1 4660 0
	mov	w0, w19
	ldr	x19, [sp,16]
	.cfi_restore 19
.LVL1307:
	ldp	x29, x30, [sp], 32
	.cfi_restore 30
	.cfi_restore 29
	.cfi_def_cfa 31, 0
	ret
	.cfi_endproc
.LFE2722:
	.size	SCDDRV_IsScdIdle, .-SCDDRV_IsScdIdle
	.global	g_pSmIIS
	.global	s_SmIIS
	.section	.rodata
	.align	3
.LANCHOR1 = . + 0
	.type	__func__.42481, %object
	.size	__func__.42481, 9
__func__.42481:
	.string	"ResetSCD"
	.zero	7
	.type	__FUNCTION__.42644, %object
	.size	__FUNCTION__.42644, 17
__FUNCTION__.42644:
	.string	"ReleaseStreamSeg"
	.zero	7
	.type	__func__.42695, %object
	.size	__func__.42695, 18
__func__.42695:
	.string	"SM_AllocDSPCtxMem"
	.zero	6
	.type	__func__.42704, %object
	.size	__func__.42704, 14
__func__.42704:
	.string	"SM_OpenSCDDrv"
	.zero	2
.LC0:
	.byte	0
	.byte	0
	.byte	1
	.byte	11
	.byte	72
	.byte	83
	.byte	80
	.byte	73
	.byte	67
	.byte	69
	.byte	78
	.byte	68
	.byte	0
	.byte	0
	.byte	1
	.byte	0
	.byte	0
	.byte	0
	.byte	0
	.byte	0
	.byte	0
	.byte	0
	.byte	1
	.byte	-2
	.byte	72
	.byte	83
	.byte	80
	.byte	73
	.byte	67
	.byte	69
	.byte	78
	.byte	68
	.byte	0
	.byte	0
	.byte	1
	.byte	0
	.byte	0
	.byte	0
	.byte	0
	.byte	0
	.byte	0
	.byte	0
	.byte	1
	.byte	-2
	.byte	72
	.byte	83
	.byte	80
	.byte	73
	.byte	67
	.byte	69
	.byte	78
	.byte	68
	.byte	0
	.byte	0
	.byte	1
	.byte	-2
	.byte	0
	.byte	0
	.byte	1
	.byte	0
	.byte	0
	.byte	0
	.byte	1
	.byte	-73
	.byte	72
	.byte	83
	.byte	80
	.byte	73
	.byte	67
	.byte	69
	.byte	78
	.byte	68
	.byte	0
	.byte	0
	.byte	1
	.byte	-73
	.byte	0
	.byte	0
	.byte	0
	.byte	0
	.byte	0
	.byte	0
	.byte	1
	.byte	98
	.byte	0
	.byte	72
	.byte	83
	.byte	80
	.byte	73
	.byte	67
	.byte	69
	.byte	78
	.byte	68
	.byte	0
	.byte	0
	.byte	1
	.byte	0
	.byte	0
	.byte	0
	.byte	0
	.align	3
.LANCHOR2 = . + 0
	.type	__func__.43023, %object
	.size	__func__.43023, 17
__func__.43023:
	.string	"FillEosRawStream"
	.zero	7
	.type	__func__.43046, %object
	.size	__func__.43046, 22
__func__.43046:
	.string	"BackUpCodecConfigData"
	.zero	2
	.type	__func__.43051, %object
	.size	__func__.43051, 23
__func__.43051:
	.string	"RestoreCodecConfigData"
	.zero	1
	.type	__func__.43058, %object
	.size	__func__.43058, 14
__func__.43058:
	.string	"FillExtraData"
	.zero	2
	.type	__FUNCTION__.42957, %object
	.size	__FUNCTION__.42957, 11
__FUNCTION__.42957:
	.string	"GetNextVop"
	.zero	5
	.type	__FUNCTION__.42999, %object
	.size	__FUNCTION__.42999, 17
__FUNCTION__.42999:
	.string	"ProcessScdReturn"
	.zero	7
	.type	__FUNCTION__.43164, %object
	.size	__FUNCTION__.43164, 17
__FUNCTION__.43164:
	.string	"PrintScdRawState"
	.zero	7
	.type	__FUNCTION__.43187, %object
	.size	__FUNCTION__.43187, 17
__FUNCTION__.43187:
	.string	"PrintScdSegState"
	.zero	7
	.type	__func__.43195, %object
	.size	__func__.43195, 17
__func__.43195:
	.string	"SCDDRV_IsScdIdle"
	.data
	.align	3
	.type	g_pSmIIS, %object
	.size	g_pSmIIS, 8
g_pSmIIS:
	.xword	s_SmIIS
	.section	.rodata.str1.8,"aMS",%progbits,1
	.align	3
.LC1:
	.string	"scd reset register map fail!\n"
	.zero	2
.LC2:
	.string	"%s reset failed!\n"
	.zero	6
.LC3:
	.string	"DelRaw err PacketNum=%d,DelNum=%d\n"
	.zero	5
.LC4:
	.string	"Release RawPhyAddr=0x%x,Len=%d\n"
.LC5:
	.string	"line: %d Get SmID fail!"
.LC6:
	.string	"line: %d pSmInstArray is NULL!\n"
.LC7:
	.string	"Read_seg SegPacket.PhyAddr=0x%x, LenByte=%d, IsLastSeg=%d\n"
	.zero	5
.LC8:
	.string	"-------- forece release seg[%d] -----------\n"
	.zero	3
.LC9:
	.string	"\n"
	.zero	6
.LC10:
	.string	"0x%02x,"
.LC11:
	.string	"Array out of bound in function %s\n"
	.zero	5
.LC12:
	.string	"Release SegPacket.PhyAddr=0x%x,LenByte=%d,IsLastSeg=%d StreamID=%d\n"
	.zero	4
.LC13:
	.string	"DSP_CTX"
.LC14:
	.string	"%s %d MEM_AddMemRecord failed!\n"
.LC15:
	.string	"%s Alloc mem for DSP (SPS PPS) failed!\n"
.LC16:
	.string	"%s pDspSpsMsgMemVirAddr is NULL!\n"
	.zero	6
.LC17:
	.string	"%s pDspPpsMsgMemVirAddr is NULL!\n"
	.zero	6
.LC18:
	.string	"pstDSPMem->PhyAddr = 0 is not right address\n"
	.zero	3
.LC19:
	.string	"%s: pOpenParam = NULL\n"
	.zero	1
.LC20:
	.string	"ScdDrv has been opened.\n"
	.zero	7
.LC21:
	.string	"Invalid: Offset %d > MemSize %d, pDownMsgMemVirAddr = %pK, pUpMsgMemVirAddr = %pK\n"
	.zero	5
.LC22:
	.string	"SetMaxSegSize get eCapLevel failed!\n"
	.zero	3
.LC23:
	.string	"SetMaxSegSize VCTRL_GetChanResolution failed!\n"
	.zero	1
.LC24:
	.string	"line: %d, SmID = %d, pSmCfg = %pK is not expected!\n"
	.zero	4
.LC25:
	.string	"Raw packet TOO BIG! can't copy to seg! Len: %#x\n"
	.zero	7
.LC26:
	.string	"line: %d, delet raw failed!\n"
	.zero	3
.LC27:
	.string	"copy raw to seg fail\n"
	.zero	2
.LC28:
	.string	"***Print Up Msg Now\n"
	.zero	3
.LC29:
	.string	"%s: pRawPacket = NULL!\n"
.LC30:
	.string	"%s: unkown standard type = %d!\n"
.LC31:
	.string	"%s: FlagLen(%d) > RawPacketLength(%d)\n"
	.zero	1
.LC32:
	.string	"%s(): buffer has no enough space,(act:%d, header_buf:%d)\n"
	.zero	6
.LC33:
	.string	"%s(): buffer has no enough space,(act:%d, str_buf:%d)\n"
	.zero	1
.LC34:
	.string	"%s: RawPacket Length %d <= 0\n"
	.zero	2
.LC35:
	.string	"%s(): Std(%d) buffer has no enough space, (act:%d, str_buf:%d)\n"
.LC36:
	.string	"%s(): Std(%d) buffer has no enough space,(act:%d, header_buf:%d)\n"
	.zero	6
.LC37:
	.string	"%s(): Std(%d) buffer has no enough space,(act:%d, str_buf:%d)\n"
	.zero	1
.LC38:
	.string	"%s(): Std(%d) buffer has no enough space,(act:%d, str_buf:%d, header_buf:%d)\n"
	.zero	2
.LC39:
	.string	"Chan %d has been destroyed or the function pointer -- ReleaseRawStreamData pStreamIntf is NULL!"
.LC40:
	.string	"line: %d s_SmIIS.pSmInstArray[%d] is NULL\n"
	.zero	5
.LC41:
	.string	"SmID = %d is not expected!\n"
	.zero	4
.LC42:
	.string	"line: %d, pSmInstArray is NULL!\n"
	.zero	7
.LC43:
	.string	"Chan %d has been destroyed or the function pointer -- ReadRawStreamData pStreamIntf is NULL!"
	.zero	3
.LC44:
	.string	"Chan %d FillEosRawStream failed!\n"
	.zero	6
.LC45:
	.string	"Chan %d FillExtraData failed!\n"
	.zero	1
.LC46:
	.string	"Release this packet failed!\n"
	.zero	3
.LC47:
	.string	"Activate move raw data.\n"
	.zero	7
.LC48:
	.string	"No space for raw move, total:%d+%d > max:%d!\n"
	.zero	2
.LC49:
	.string	"***Print Scd Vtrl Reg Now\n"
	.zero	5
.LC50:
	.string	"DownMsgPhyAddr = %x\n"
	.zero	3
.LC51:
	.string	"UpMsgPhyAddr = %x\n"
	.zero	5
.LC52:
	.string	"UpLen = %x\n"
	.zero	4
.LC53:
	.string	"BufferFirst = %x\n"
	.zero	6
.LC54:
	.string	"BufferLast = %x\n"
	.zero	7
.LC55:
	.string	"BufferIni = %x\n"
.LC56:
	.string	"ScdProtocol = %x\n"
	.zero	6
.LC57:
	.string	"ScdStart = %x\n"
	.zero	1
.LC58:
	.string	"RawStreamNum=%d\n"
	.zero	7
.LC59:
	.string	"SegStreamNum=%d\n"
	.zero	7
.LC60:
	.string	"SegStreamSize=%d\n"
	.zero	6
.LC61:
	.string	"RawStreamSize=%d\n"
	.zero	6
.LC62:
	.string	"***Print Scd State Reg\n"
.LC63:
	.string	"Scdover = %d \n"
	.zero	1
.LC64:
	.string	"ScdInt = %d \n"
	.zero	2
.LC65:
	.string	"ShortScdNum = %d \n"
	.zero	5
.LC66:
	.string	"ScdNum = %d \n"
	.zero	2
.LC67:
	.string	"ScdRollAddr = %0x \n"
	.zero	4
.LC68:
	.string	"SrcEaten = %d \n"
.LC69:
	.string	"%s %d FMW_OK !=  GetSegStreamNum!!\n"
	.zero	4
.LC70:
	.string	"Set LastCfgAllRawFlag 1 -> 0, for SegFilter.SegNum %d < ScdSegNum %d\n"
	.zero	2
.LC71:
	.string	"Error! (PushRawTotalLen - SrcEaten) > SM_RAW_DISCARD_SIZE, packet discard...\n"
	.zero	2
.LC72:
	.string	"Insert err Scd SegPacket.PhyAddr=0x%x,LenByte=%d,IsLastSeg=%d\n"
	.zero	1
.LC73:
	.string	"RawLen = %d, Pts = %ld, \n"
	.zero	6
.LC74:
	.string	"Scd SegPacket.PhyAddr=0x%x,LenByte=%d,IsLastSeg=%d\n"
	.zero	4
.LC75:
	.string	"RawLen = %d, Pts =  %lld, \n"
	.zero	4
.LC76:
	.string	"Insert 2 err Scd SegPacket.PhyAddr=0x%x,LenByte=%d,IsLastSeg=%d\n"
	.zero	7
.LC77:
	.string	"line %d CheckSeg err\n"
	.zero	2
.LC78:
	.string	"line %d SegFreeBufLen=%d,SrcEaten=%d"
	.zero	3
.LC79:
	.string	"line %d Scd SegPacket.PhyAddr=0x%x,LenByte=%d,IsLastSeg=%d\n"
	.zero	4
.LC80:
	.string	"ReadScdSegNum = %d, FilterScdSegNum = 0 release raw packet anyway!\n"
	.zero	4
.LC81:
	.string	"line %d SegFreeBufLen=%d,SrcEaten=%d\n"
	.zero	2
.LC82:
	.string	"CheckSeg err\n"
	.zero	2
.LC83:
	.string	"SegFreeBufLen=%d,SrcEaten=%d\n"
	.zero	2
.LC84:
	.string	"%s %d FMW_OK != GetSegStreamNum!!\n"
	.zero	5
.LC85:
	.string	"RawHead=%d\n"
	.zero	4
.LC86:
	.string	"RawTail=%d\n"
	.zero	4
.LC87:
	.string	"RawHistory=%d\n"
	.zero	1
.LC88:
	.string	"RawFirstPacketOffset=%d\n"
	.zero	7
.LC89:
	.string	"CurShowIndex=%d\n"
	.zero	7
.LC90:
	.string	"RawPhyAddr=0x%x\n"
	.zero	7
.LC91:
	.string	"RawVirAddr=0x%x\n"
	.zero	7
.LC92:
	.string	"RawLength=%d\n"
	.zero	2
.LC93:
	.string	"RawPts=%lld\n"
	.zero	3
.LC94:
	.string	"%s %d FMW_OK !=  GetRawStreamNum!!\n"
	.zero	4
.LC95:
	.string	"raw_pts: %lld\n"
	.zero	1
.LC96:
	.string	"Get RawPhyAddr=0x%x,Len=%d\n"
	.zero	4
.LC97:
	.string	"Chan%d raw full\n"
	.zero	7
.LC98:
	.string	"!!!push raw err!!!\n"
	.zero	4
.LC99:
	.string	"s_eScdDrvSleepStage = SCDDRV_SLEEP_STAGE_SLEEP!\n"
	.zero	7
.LC100:
	.string	"SegHead=%d\n"
	.zero	4
.LC101:
	.string	"SegTail=%d\n"
	.zero	4
.LC102:
	.string	"SegCurrent=%d\n"
	.zero	1
.LC103:
	.string	"SegBufSize=%d\n"
	.zero	1
.LC104:
	.string	"SCD Time Out(%d/%d ms), Reset SCD!\n"
	.zero	4
.LC105:
	.string	"------------------ s_SmIIS.SmInstArray[%d] --------------------\n"
	.zero	7
.LC106:
	.string	"%-25s :%d\n"
	.zero	5
.LC107:
	.string	"Mode"
	.zero	3
.LC108:
	.string	"Priority"
	.zero	7
.LC109:
	.string	"VidStd"
	.zero	1
.LC110:
	.string	"%-25s :0x%x\n"
	.zero	3
.LC111:
	.string	"BufPhyAddr"
	.zero	5
.LC112:
	.string	"%-25s :%pK\n"
	.zero	4
.LC113:
	.string	"pBufVirAddr"
	.zero	4
.LC114:
	.string	"BufSize"
.LC115:
	.string	"ScdRegBaseAddr"
	.zero	1
.LC116:
	.string	"SmPushRaw.PushRawNum"
	.zero	3
.LC117:
	.string	"SmPushRaw.PushRawTotalLen"
	.zero	6
.LC118:
	.string	"DownMsgPhyAddr"
	.zero	1
.LC119:
	.string	"DownMsgSize"
	.zero	4
.LC120:
	.string	"UpMsgPhyAddr"
	.zero	3
.LC121:
	.string	"UpMsgNum"
	.zero	7
.LC122:
	.string	"UpMsgSize"
	.zero	6
.LC123:
	.string	"seg BufPhyAddr"
	.zero	1
.LC124:
	.string	"seg BufSize"
	.zero	4
.LC125:
	.string	"seg BufUsed"
	.zero	4
.LC126:
	.string	"seg BufItemNum"
	.zero	1
.LC127:
	.string	"raw StreamHold"
	.zero	1
.LC128:
	.string	"raw StreamPacketNum"
	.zero	4
.LC129:
	.string	"filter ProtocolType"
	.zero	4
.LC130:
	.string	"filter ModeFlag"
.LC131:
	.string	"filter LastH263Num"
	.zero	5
.LC132:
	.string	"filter SegBufPhyAddr"
	.zero	3
.LC133:
	.string	"filter SegBufSize"
	.zero	6
.LC134:
	.string	"filter SegBufRollAddr"
	.zero	2
.LC135:
	.string	"filter pScdUpMsg"
	.zero	7
.LC136:
	.string	"filter SegNum"
	.zero	2
.LC137:
	.string	"BlockTimeInMs"
	.zero	2
.LC138:
	.string	"LastBlockTime"
	.zero	2
.LC139:
	.string	"%-25s :%lld\n"
	.zero	3
.LC140:
	.string	"LastPts"
.LC141:
	.string	"ThisInstID"
	.zero	5
.LC142:
	.string	"SCDState"
	.zero	7
.LC143:
	.string	"\nraw packets Head : %d, Histroy : %d\n"
	.zero	2
.LC144:
	.string	"\nraw packets length is(first packet %d bytes used):\n"
	.zero	3
.LC145:
	.string	"%5d "
	.zero	3
.LC146:
	.string	"SegLength=%d\n"
	.zero	2
.LC147:
	.string	"SegStreamID=%d\n"
.LC148:
	.string	"SegState=%d\n"
	.zero	3
.LC149:
	.string	"SegIsLastSeg=%d\n"
	.zero	7
.LC150:
	.string	"SegPts=%lld\n"
	.zero	3
.LC151:
	.string	"%s %d FMW_OK !=  GetSegStreamNum\n"
	.zero	6
.LC152:
	.string	"%s(): s_SmIIS.SCDState(%d) is wrong.\n"
	.bss
	.align	3
.LANCHOR0 = . + 0
	.type	s_SmIIS, %object
	.size	s_SmIIS, 2152
s_SmIIS:
	.zero	2152
	.type	s_eScdDrvSleepStage, %object
	.size	s_eScdDrvSleepStage, 4
s_eScdDrvSleepStage:
	.zero	4
	.type	LastEventTime.42819, %object
	.size	LastEventTime.42819, 4
LastEventTime.42819:
	.zero	4
	.type	last_rec_pos_time.43008, %object
	.size	last_rec_pos_time.43008, 128
last_rec_pos_time.43008:
	.zero	128
	.type	last_rec_pos_time.43107, %object
	.size	last_rec_pos_time.43107, 128
last_rec_pos_time.43107:
	.zero	128
	.type	s_SCDInISR, %object
	.size	s_SCDInISR, 4
s_SCDInISR:
	.zero	4
	.zero	4
	.type	last_rec_pos_time.43127, %object
	.size	last_rec_pos_time.43127, 128
last_rec_pos_time.43127:
	.zero	128
	.text
.Letext0:
	.file 2 "/mnt/disk/jenkins/ci/workspace/chipset_release_960_xloader/opensource/component_code/vendor/huawei/extra/build/build_script/kirin_kernel_release/kernel/drivers/vcodec/hi_vcodec/vdec/include/hi_type.h"
	.file 3 "/mnt/disk/jenkins/ci/workspace/chipset_release_960_xloader/opensource/component_code/vendor/huawei/extra/build/build_script/kirin_kernel_release/kernel/drivers/vcodec/hi_vcodec/vdec/vfmw/vfmw_v4.0/vfmw.h"
	.file 4 "/mnt/disk/jenkins/ci/workspace/chipset_release_960_xloader/opensource/component_code/vendor/huawei/extra/build/build_script/kirin_kernel_release/kernel/drivers/vcodec/hi_vcodec/vdec/vfmw/vfmw_v4.0/firmware/product/HiVCodecV100/sysconfig.h"
	.file 5 "/mnt/disk/jenkins/ci/workspace/chipset_release_960_xloader/opensource/component_code/vendor/huawei/extra/build/build_script/kirin_kernel_release/kernel/include/uapi/asm-generic/int-ll64.h"
	.file 6 "/mnt/disk/jenkins/ci/workspace/chipset_release_960_xloader/opensource/component_code/vendor/huawei/extra/build/build_script/kirin_kernel_release/kernel/include/asm-generic/int-ll64.h"
	.file 7 "/mnt/disk/jenkins/ci/workspace/chipset_release_960_xloader/opensource/component_code/vendor/huawei/extra/build/build_script/kirin_kernel_release/kernel/include/uapi/asm-generic/posix_types.h"
	.file 8 "/mnt/disk/jenkins/ci/workspace/chipset_release_960_xloader/opensource/component_code/vendor/huawei/extra/build/build_script/kirin_kernel_release/kernel/include/linux/export.h"
	.file 9 "/mnt/disk/jenkins/ci/workspace/chipset_release_960_xloader/opensource/component_code/vendor/huawei/extra/build/build_script/kirin_kernel_release/kernel/include/linux/types.h"
	.file 10 "/mnt/disk/jenkins/ci/workspace/chipset_release_960_xloader/opensource/component_code/vendor/huawei/extra/build/build_script/kirin_kernel_release/kernel/include/asm-generic/bug.h"
	.file 11 "/mnt/disk/jenkins/ci/workspace/chipset_release_960_xloader/opensource/component_code/vendor/huawei/extra/build/build_script/kirin_kernel_release/kernel/include/linux/restart_block.h"
	.file 12 "/mnt/disk/jenkins/ci/workspace/chipset_release_960_xloader/opensource/component_code/vendor/huawei/extra/build/build_script/kirin_kernel_release/kernel/include/uapi/linux/time.h"
	.file 13 "/mnt/disk/jenkins/ci/workspace/chipset_release_960_xloader/opensource/component_code/vendor/huawei/extra/build/build_script/kirin_kernel_release/kernel/arch/arm64/include/asm/compat.h"
	.file 14 "/mnt/disk/jenkins/ci/workspace/chipset_release_960_xloader/opensource/component_code/vendor/huawei/extra/build/build_script/kirin_kernel_release/kernel/include/uapi/asm-generic/poll.h"
	.file 15 "/mnt/disk/jenkins/ci/workspace/chipset_release_960_xloader/opensource/component_code/vendor/huawei/extra/build/build_script/kirin_kernel_release/kernel/arch/arm64/include/asm/thread_info.h"
	.file 16 "/mnt/disk/jenkins/ci/workspace/chipset_release_960_xloader/opensource/component_code/vendor/huawei/extra/build/build_script/kirin_kernel_release/kernel/arch/arm64/include/uapi/asm/ptrace.h"
	.file 17 "/mnt/disk/jenkins/ci/workspace/chipset_release_960_xloader/opensource/component_code/vendor/huawei/extra/build/build_script/kirin_kernel_release/kernel/arch/arm64/include/asm/ptrace.h"
	.file 18 "/mnt/disk/jenkins/ci/workspace/chipset_release_960_xloader/opensource/component_code/vendor/huawei/extra/build/build_script/kirin_kernel_release/kernel/arch/arm64/include/asm/spinlock_types.h"
	.file 19 "/mnt/disk/jenkins/ci/workspace/chipset_release_960_xloader/opensource/component_code/vendor/huawei/extra/build/build_script/kirin_kernel_release/kernel/include/linux/spinlock_types.h"
	.file 20 "/mnt/disk/jenkins/ci/workspace/chipset_release_960_xloader/opensource/component_code/vendor/huawei/extra/build/build_script/kirin_kernel_release/kernel/include/linux/rwlock_types.h"
	.file 21 "/mnt/disk/jenkins/ci/workspace/chipset_release_960_xloader/opensource/component_code/vendor/huawei/extra/build/build_script/kirin_kernel_release/kernel/arch/arm64/include/asm/fpsimd.h"
	.file 22 "/mnt/disk/jenkins/ci/workspace/chipset_release_960_xloader/opensource/component_code/vendor/huawei/extra/build/build_script/kirin_kernel_release/kernel/include/linux/jump_label.h"
	.file 23 "/mnt/disk/jenkins/ci/workspace/chipset_release_960_xloader/opensource/component_code/vendor/huawei/extra/build/build_script/kirin_kernel_release/kernel/include/asm-generic/atomic-long.h"
	.file 24 "/mnt/disk/jenkins/ci/workspace/chipset_release_960_xloader/opensource/component_code/vendor/huawei/extra/build/build_script/kirin_kernel_release/kernel/arch/arm64/include/asm/hw_breakpoint.h"
	.file 25 "/mnt/disk/jenkins/ci/workspace/chipset_release_960_xloader/opensource/component_code/vendor/huawei/extra/build/build_script/kirin_kernel_release/kernel/arch/arm64/include/asm/processor.h"
	.file 26 "/mnt/disk/jenkins/ci/workspace/chipset_release_960_xloader/opensource/component_code/vendor/huawei/extra/build/build_script/kirin_kernel_release/kernel/include/linux/perf_event.h"
	.file 27 "/mnt/disk/jenkins/ci/workspace/chipset_release_960_xloader/opensource/component_code/vendor/huawei/extra/build/build_script/kirin_kernel_release/kernel/include/linux/wait.h"
	.file 28 "/mnt/disk/jenkins/ci/workspace/chipset_release_960_xloader/opensource/component_code/vendor/huawei/extra/build/build_script/kirin_kernel_release/kernel/include/linux/seqlock.h"
	.file 29 "/mnt/disk/jenkins/ci/workspace/chipset_release_960_xloader/opensource/component_code/vendor/huawei/extra/build/build_script/kirin_kernel_release/kernel/include/linux/nodemask.h"
	.file 30 "/mnt/disk/jenkins/ci/workspace/chipset_release_960_xloader/opensource/component_code/vendor/huawei/extra/build/build_script/kirin_kernel_release/kernel/include/linux/cpumask.h"
	.file 31 "/mnt/disk/jenkins/ci/workspace/chipset_release_960_xloader/opensource/component_code/vendor/huawei/extra/build/build_script/kirin_kernel_release/kernel/include/linux/completion.h"
	.file 32 "/mnt/disk/jenkins/ci/workspace/chipset_release_960_xloader/opensource/component_code/vendor/huawei/extra/build/build_script/kirin_kernel_release/kernel/include/linux/time64.h"
	.file 33 "/mnt/disk/jenkins/ci/workspace/chipset_release_960_xloader/opensource/component_code/vendor/huawei/extra/build/build_script/kirin_kernel_release/kernel/include/linux/ktime.h"
	.file 34 "/mnt/disk/jenkins/ci/workspace/chipset_release_960_xloader/opensource/component_code/vendor/huawei/extra/build/build_script/kirin_kernel_release/kernel/include/linux/rbtree.h"
	.file 35 "/mnt/disk/jenkins/ci/workspace/chipset_release_960_xloader/opensource/component_code/vendor/huawei/extra/build/build_script/kirin_kernel_release/kernel/include/linux/osq_lock.h"
	.file 36 "/mnt/disk/jenkins/ci/workspace/chipset_release_960_xloader/opensource/component_code/vendor/huawei/extra/build/build_script/kirin_kernel_release/kernel/include/linux/rwsem.h"
	.file 37 "/mnt/disk/jenkins/ci/workspace/chipset_release_960_xloader/opensource/component_code/vendor/huawei/extra/build/build_script/kirin_kernel_release/kernel/include/linux/sched.h"
	.file 38 "/mnt/disk/jenkins/ci/workspace/chipset_release_960_xloader/opensource/component_code/vendor/huawei/extra/build/build_script/kirin_kernel_release/kernel/include/linux/mm_types.h"
	.file 39 "/mnt/disk/jenkins/ci/workspace/chipset_release_960_xloader/opensource/component_code/vendor/huawei/extra/build/build_script/kirin_kernel_release/kernel/include/linux/lockdep.h"
	.file 40 "/mnt/disk/jenkins/ci/workspace/chipset_release_960_xloader/opensource/component_code/vendor/huawei/extra/build/build_script/kirin_kernel_release/kernel/include/linux/uprobes.h"
	.file 41 "/mnt/disk/jenkins/ci/workspace/chipset_release_960_xloader/opensource/component_code/vendor/huawei/extra/build/build_script/kirin_kernel_release/kernel/include/linux/timer.h"
	.file 42 "/mnt/disk/jenkins/ci/workspace/chipset_release_960_xloader/opensource/component_code/vendor/huawei/extra/build/build_script/kirin_kernel_release/kernel/include/linux/uidgid.h"
	.file 43 "/mnt/disk/jenkins/ci/workspace/chipset_release_960_xloader/opensource/component_code/vendor/huawei/extra/build/build_script/kirin_kernel_release/kernel/include/linux/sysctl.h"
	.file 44 "/mnt/disk/jenkins/ci/workspace/chipset_release_960_xloader/opensource/component_code/vendor/huawei/extra/build/build_script/kirin_kernel_release/kernel/include/linux/workqueue.h"
	.file 45 "/mnt/disk/jenkins/ci/workspace/chipset_release_960_xloader/opensource/component_code/vendor/huawei/extra/build/build_script/kirin_kernel_release/kernel/arch/arm64/include/asm/pgtable-types.h"
	.file 46 "/mnt/disk/jenkins/ci/workspace/chipset_release_960_xloader/opensource/component_code/vendor/huawei/extra/build/build_script/kirin_kernel_release/kernel/arch/arm64/include/asm/page.h"
	.file 47 "/mnt/disk/jenkins/ci/workspace/chipset_release_960_xloader/opensource/component_code/vendor/huawei/extra/build/build_script/kirin_kernel_release/kernel/include/linux/llist.h"
	.file 48 "/mnt/disk/jenkins/ci/workspace/chipset_release_960_xloader/opensource/component_code/vendor/huawei/extra/build/build_script/kirin_kernel_release/kernel/arch/arm64/include/asm/smp.h"
	.file 49 "/mnt/disk/jenkins/ci/workspace/chipset_release_960_xloader/opensource/component_code/vendor/huawei/extra/build/build_script/kirin_kernel_release/kernel/arch/arm64/include/asm/mmu.h"
	.file 50 "/mnt/disk/jenkins/ci/workspace/chipset_release_960_xloader/opensource/component_code/vendor/huawei/extra/build/build_script/kirin_kernel_release/kernel/include/linux/fs.h"
	.file 51 "/mnt/disk/jenkins/ci/workspace/chipset_release_960_xloader/opensource/component_code/vendor/huawei/extra/build/build_script/kirin_kernel_release/kernel/include/linux/mm.h"
	.file 52 "/mnt/disk/jenkins/ci/workspace/chipset_release_960_xloader/opensource/component_code/vendor/huawei/extra/build/build_script/kirin_kernel_release/kernel/include/linux/user_namespace.h"
	.file 53 "/mnt/disk/jenkins/ci/workspace/chipset_release_960_xloader/opensource/component_code/vendor/huawei/extra/build/build_script/kirin_kernel_release/kernel/include/linux/mmzone.h"
	.file 54 "/mnt/disk/jenkins/ci/workspace/chipset_release_960_xloader/opensource/component_code/vendor/huawei/extra/build/build_script/kirin_kernel_release/kernel/include/linux/mutex.h"
	.file 55 "/mnt/disk/jenkins/ci/workspace/chipset_release_960_xloader/opensource/component_code/vendor/huawei/extra/build/build_script/kirin_kernel_release/kernel/include/linux/percpu-refcount.h"
	.file 56 "/mnt/disk/jenkins/ci/workspace/chipset_release_960_xloader/opensource/component_code/vendor/huawei/extra/build/build_script/kirin_kernel_release/kernel/include/linux/shrinker.h"
	.file 57 "/mnt/disk/jenkins/ci/workspace/chipset_release_960_xloader/opensource/component_code/vendor/huawei/extra/build/build_script/kirin_kernel_release/kernel/include/uapi/linux/resource.h"
	.file 58 "/mnt/disk/jenkins/ci/workspace/chipset_release_960_xloader/opensource/component_code/vendor/huawei/extra/build/build_script/kirin_kernel_release/kernel/include/linux/tracepoint-defs.h"
	.file 59 "/mnt/disk/jenkins/ci/workspace/chipset_release_960_xloader/opensource/component_code/vendor/huawei/extra/build/build_script/kirin_kernel_release/kernel/include/linux/vmstat.h"
	.file 60 "/mnt/disk/jenkins/ci/workspace/chipset_release_960_xloader/opensource/component_code/vendor/huawei/extra/build/build_script/kirin_kernel_release/kernel/include/linux/capability.h"
	.file 61 "/mnt/disk/jenkins/ci/workspace/chipset_release_960_xloader/opensource/component_code/vendor/huawei/extra/build/build_script/kirin_kernel_release/kernel/include/linux/plist.h"
	.file 62 "/mnt/disk/jenkins/ci/workspace/chipset_release_960_xloader/opensource/component_code/vendor/huawei/extra/build/build_script/kirin_kernel_release/kernel/include/asm-generic/cputime_jiffies.h"
	.file 63 "/mnt/disk/jenkins/ci/workspace/chipset_release_960_xloader/opensource/component_code/vendor/huawei/extra/build/build_script/kirin_kernel_release/kernel/include/uapi/asm-generic/signal.h"
	.file 64 "/mnt/disk/jenkins/ci/workspace/chipset_release_960_xloader/opensource/component_code/vendor/huawei/extra/build/build_script/kirin_kernel_release/kernel/include/uapi/asm-generic/signal-defs.h"
	.file 65 "/mnt/disk/jenkins/ci/workspace/chipset_release_960_xloader/opensource/component_code/vendor/huawei/extra/build/build_script/kirin_kernel_release/kernel/include/uapi/asm-generic/siginfo.h"
	.file 66 "/mnt/disk/jenkins/ci/workspace/chipset_release_960_xloader/opensource/component_code/vendor/huawei/extra/build/build_script/kirin_kernel_release/kernel/include/linux/signal.h"
	.file 67 "/mnt/disk/jenkins/ci/workspace/chipset_release_960_xloader/opensource/component_code/vendor/huawei/extra/build/build_script/kirin_kernel_release/kernel/include/linux/pid.h"
	.file 68 "/mnt/disk/jenkins/ci/workspace/chipset_release_960_xloader/opensource/component_code/vendor/huawei/extra/build/build_script/kirin_kernel_release/kernel/include/linux/pid_namespace.h"
	.file 69 "/mnt/disk/jenkins/ci/workspace/chipset_release_960_xloader/opensource/component_code/vendor/huawei/extra/build/build_script/kirin_kernel_release/kernel/include/linux/seccomp.h"
	.file 70 "/mnt/disk/jenkins/ci/workspace/chipset_release_960_xloader/opensource/component_code/vendor/huawei/extra/build/build_script/kirin_kernel_release/kernel/include/linux/timerqueue.h"
	.file 71 "/mnt/disk/jenkins/ci/workspace/chipset_release_960_xloader/opensource/component_code/vendor/huawei/extra/build/build_script/kirin_kernel_release/kernel/include/linux/hrtimer.h"
	.file 72 "/mnt/disk/jenkins/ci/workspace/chipset_release_960_xloader/opensource/component_code/vendor/huawei/extra/build/build_script/kirin_kernel_release/kernel/include/linux/task_io_accounting.h"
	.file 73 "/mnt/disk/jenkins/ci/workspace/chipset_release_960_xloader/opensource/component_code/vendor/huawei/extra/build/build_script/kirin_kernel_release/kernel/include/linux/assoc_array.h"
	.file 74 "/mnt/disk/jenkins/ci/workspace/chipset_release_960_xloader/opensource/component_code/vendor/huawei/extra/build/build_script/kirin_kernel_release/kernel/include/linux/key.h"
	.file 75 "/mnt/disk/jenkins/ci/workspace/chipset_release_960_xloader/opensource/component_code/vendor/huawei/extra/build/build_script/kirin_kernel_release/kernel/include/linux/cred.h"
	.file 76 "/mnt/disk/jenkins/ci/workspace/chipset_release_960_xloader/opensource/component_code/vendor/huawei/extra/build/build_script/kirin_kernel_release/kernel/include/linux/idr.h"
	.file 77 "/mnt/disk/jenkins/ci/workspace/chipset_release_960_xloader/opensource/component_code/vendor/huawei/extra/build/build_script/kirin_kernel_release/kernel/include/linux/rcu_sync.h"
	.file 78 "/mnt/disk/jenkins/ci/workspace/chipset_release_960_xloader/opensource/component_code/vendor/huawei/extra/build/build_script/kirin_kernel_release/kernel/include/linux/percpu-rwsem.h"
	.file 79 "/mnt/disk/jenkins/ci/workspace/chipset_release_960_xloader/opensource/component_code/vendor/huawei/extra/build/build_script/kirin_kernel_release/kernel/include/linux/bpf-cgroup.h"
	.file 80 "/mnt/disk/jenkins/ci/workspace/chipset_release_960_xloader/opensource/component_code/vendor/huawei/extra/build/build_script/kirin_kernel_release/kernel/include/linux/cgroup-defs.h"
	.file 81 "/mnt/disk/jenkins/ci/workspace/chipset_release_960_xloader/opensource/component_code/vendor/huawei/extra/build/build_script/kirin_kernel_release/kernel/include/linux/kernfs.h"
	.file 82 "/mnt/disk/jenkins/ci/workspace/chipset_release_960_xloader/opensource/component_code/vendor/huawei/extra/build/build_script/kirin_kernel_release/kernel/include/linux/seq_file.h"
	.file 83 "/mnt/disk/jenkins/ci/workspace/chipset_release_960_xloader/opensource/component_code/vendor/huawei/extra/build/build_script/kirin_kernel_release/kernel/include/uapi/linux/taskstats.h"
	.file 84 "/mnt/disk/jenkins/ci/workspace/chipset_release_960_xloader/opensource/component_code/vendor/huawei/extra/build/build_script/kirin_kernel_release/kernel/include/linux/nsproxy.h"
	.file 85 "/mnt/disk/jenkins/ci/workspace/chipset_release_960_xloader/opensource/component_code/vendor/huawei/extra/build/build_script/kirin_kernel_release/kernel/include/linux/compat.h"
	.file 86 "/mnt/disk/jenkins/ci/workspace/chipset_release_960_xloader/opensource/component_code/vendor/huawei/extra/build/build_script/kirin_kernel_release/kernel/include/linux/stat.h"
	.file 87 "/mnt/disk/jenkins/ci/workspace/chipset_release_960_xloader/opensource/component_code/vendor/huawei/extra/build/build_script/kirin_kernel_release/kernel/include/uapi/linux/elf.h"
	.file 88 "/mnt/disk/jenkins/ci/workspace/chipset_release_960_xloader/opensource/component_code/vendor/huawei/extra/build/build_script/kirin_kernel_release/kernel/include/linux/kobject_ns.h"
	.file 89 "/mnt/disk/jenkins/ci/workspace/chipset_release_960_xloader/opensource/component_code/vendor/huawei/extra/build/build_script/kirin_kernel_release/kernel/include/linux/sysfs.h"
	.file 90 "/mnt/disk/jenkins/ci/workspace/chipset_release_960_xloader/opensource/component_code/vendor/huawei/extra/build/build_script/kirin_kernel_release/kernel/include/linux/kobject.h"
	.file 91 "/mnt/disk/jenkins/ci/workspace/chipset_release_960_xloader/opensource/component_code/vendor/huawei/extra/build/build_script/kirin_kernel_release/kernel/include/linux/kref.h"
	.file 92 "/mnt/disk/jenkins/ci/workspace/chipset_release_960_xloader/opensource/component_code/vendor/huawei/extra/build/build_script/kirin_kernel_release/kernel/include/linux/moduleparam.h"
	.file 93 "/mnt/disk/jenkins/ci/workspace/chipset_release_960_xloader/opensource/component_code/vendor/huawei/extra/build/build_script/kirin_kernel_release/kernel/include/linux/module.h"
	.file 94 "/mnt/disk/jenkins/ci/workspace/chipset_release_960_xloader/opensource/component_code/vendor/huawei/extra/build/build_script/kirin_kernel_release/kernel/include/linux/rbtree_latch.h"
	.file 95 "/mnt/disk/jenkins/ci/workspace/chipset_release_960_xloader/opensource/component_code/vendor/huawei/extra/build/build_script/kirin_kernel_release/kernel/arch/arm64/include/asm/module.h"
	.file 96 "/mnt/disk/jenkins/ci/workspace/chipset_release_960_xloader/opensource/component_code/vendor/huawei/extra/build/build_script/kirin_kernel_release/kernel/arch/arm64/include/asm/uaccess.h"
	.file 97 "/mnt/disk/jenkins/ci/workspace/chipset_release_960_xloader/opensource/component_code/vendor/huawei/extra/build/build_script/kirin_kernel_release/kernel/include/linux/trace_events.h"
	.file 98 "/mnt/disk/jenkins/ci/workspace/chipset_release_960_xloader/opensource/component_code/vendor/huawei/extra/build/build_script/kirin_kernel_release/kernel/include/linux/tracepoint.h"
	.file 99 "/mnt/disk/jenkins/ci/workspace/chipset_release_960_xloader/opensource/component_code/vendor/huawei/extra/build/build_script/kirin_kernel_release/kernel/include/linux/percpu_counter.h"
	.file 100 "/mnt/disk/jenkins/ci/workspace/chipset_release_960_xloader/opensource/component_code/vendor/huawei/extra/build/build_script/kirin_kernel_release/kernel/include/linux/quota.h"
	.file 101 "/mnt/disk/jenkins/ci/workspace/chipset_release_960_xloader/opensource/component_code/vendor/huawei/extra/build/build_script/kirin_kernel_release/kernel/include/linux/projid.h"
	.file 102 "/mnt/disk/jenkins/ci/workspace/chipset_release_960_xloader/opensource/component_code/vendor/huawei/extra/build/build_script/kirin_kernel_release/kernel/include/linux/path.h"
	.file 103 "/mnt/disk/jenkins/ci/workspace/chipset_release_960_xloader/opensource/component_code/vendor/huawei/extra/build/build_script/kirin_kernel_release/kernel/include/linux/list_bl.h"
	.file 104 "/mnt/disk/jenkins/ci/workspace/chipset_release_960_xloader/opensource/component_code/vendor/huawei/extra/build/build_script/kirin_kernel_release/kernel/include/linux/lockref.h"
	.file 105 "/mnt/disk/jenkins/ci/workspace/chipset_release_960_xloader/opensource/component_code/vendor/huawei/extra/build/build_script/kirin_kernel_release/kernel/include/linux/dcache.h"
	.file 106 "/mnt/disk/jenkins/ci/workspace/chipset_release_960_xloader/opensource/component_code/vendor/huawei/extra/build/build_script/kirin_kernel_release/kernel/include/linux/list_lru.h"
	.file 107 "/mnt/disk/jenkins/ci/workspace/chipset_release_960_xloader/opensource/component_code/vendor/huawei/extra/build/build_script/kirin_kernel_release/kernel/include/linux/radix-tree.h"
	.file 108 "/mnt/disk/jenkins/ci/workspace/chipset_release_960_xloader/opensource/component_code/vendor/huawei/extra/build/build_script/kirin_kernel_release/kernel/include/uapi/linux/fiemap.h"
	.file 109 "/mnt/disk/jenkins/ci/workspace/chipset_release_960_xloader/opensource/component_code/vendor/huawei/extra/build/build_script/kirin_kernel_release/kernel/include/linux/migrate_mode.h"
	.file 110 "/mnt/disk/jenkins/ci/workspace/chipset_release_960_xloader/opensource/component_code/vendor/huawei/extra/build/build_script/kirin_kernel_release/kernel/include/linux/bvec.h"
	.file 111 "/mnt/disk/jenkins/ci/workspace/chipset_release_960_xloader/opensource/component_code/vendor/huawei/extra/build/build_script/kirin_kernel_release/kernel/include/linux/delayed_call.h"
	.file 112 "/mnt/disk/jenkins/ci/workspace/chipset_release_960_xloader/opensource/component_code/vendor/huawei/extra/build/build_script/kirin_kernel_release/kernel/include/linux/uio.h"
	.file 113 "/mnt/disk/jenkins/ci/workspace/chipset_release_960_xloader/opensource/component_code/vendor/huawei/extra/build/build_script/kirin_kernel_release/kernel/include/linux/nfs_fs_i.h"
	.file 114 "/mnt/disk/jenkins/ci/workspace/chipset_release_960_xloader/opensource/component_code/vendor/huawei/extra/build/build_script/kirin_kernel_release/kernel/include/linux/poll.h"
	.file 115 "/mnt/disk/jenkins/ci/workspace/chipset_release_960_xloader/opensource/component_code/vendor/huawei/extra/build/build_script/kirin_kernel_release/kernel/include/linux/seq_buf.h"
	.file 116 "/mnt/disk/jenkins/ci/workspace/chipset_release_960_xloader/opensource/component_code/vendor/huawei/extra/build/build_script/kirin_kernel_release/kernel/include/linux/trace_seq.h"
	.file 117 "/mnt/disk/jenkins/ci/workspace/chipset_release_960_xloader/opensource/component_code/vendor/huawei/extra/build/build_script/kirin_kernel_release/kernel/include/uapi/linux/perf_event.h"
	.file 118 "/mnt/disk/jenkins/ci/workspace/chipset_release_960_xloader/opensource/component_code/vendor/huawei/extra/build/build_script/kirin_kernel_release/kernel/include/asm-generic/local.h"
	.file 119 "/mnt/disk/jenkins/ci/workspace/chipset_release_960_xloader/opensource/component_code/vendor/huawei/extra/build/build_script/kirin_kernel_release/kernel/include/asm-generic/local64.h"
	.file 120 "/mnt/disk/jenkins/ci/workspace/chipset_release_960_xloader/opensource/component_code/vendor/huawei/extra/build/build_script/kirin_kernel_release/kernel/include/linux/cgroup.h"
	.file 121 "/mnt/disk/jenkins/ci/workspace/chipset_release_960_xloader/opensource/component_code/vendor/huawei/extra/build/build_script/kirin_kernel_release/kernel/include/linux/ns_common.h"
	.file 122 "/mnt/disk/jenkins/ci/workspace/chipset_release_960_xloader/opensource/component_code/vendor/huawei/extra/build/build_script/kirin_kernel_release/kernel/include/uapi/linux/uio.h"
	.file 123 "/mnt/disk/jenkins/ci/workspace/chipset_release_960_xloader/opensource/component_code/vendor/huawei/extra/build/build_script/kirin_kernel_release/kernel/include/linux/ftrace.h"
	.file 124 "/mnt/disk/jenkins/ci/workspace/chipset_release_960_xloader/opensource/component_code/vendor/huawei/extra/build/build_script/kirin_kernel_release/kernel/include/linux/klist.h"
	.file 125 "/mnt/disk/jenkins/ci/workspace/chipset_release_960_xloader/opensource/component_code/vendor/huawei/extra/build/build_script/kirin_kernel_release/kernel/include/linux/pinctrl/devinfo.h"
	.file 126 "/mnt/disk/jenkins/ci/workspace/chipset_release_960_xloader/opensource/component_code/vendor/huawei/extra/build/build_script/kirin_kernel_release/kernel/include/linux/pm.h"
	.file 127 "/mnt/disk/jenkins/ci/workspace/chipset_release_960_xloader/opensource/component_code/vendor/huawei/extra/build/build_script/kirin_kernel_release/kernel/include/linux/device.h"
	.file 128 "/mnt/disk/jenkins/ci/workspace/chipset_release_960_xloader/opensource/component_code/vendor/huawei/extra/build/build_script/kirin_kernel_release/kernel/include/linux/pm_wakeup.h"
	.file 129 "/mnt/disk/jenkins/ci/workspace/chipset_release_960_xloader/opensource/component_code/vendor/huawei/extra/build/build_script/kirin_kernel_release/kernel/arch/arm64/include/asm/device.h"
	.file 130 "/mnt/disk/jenkins/ci/workspace/chipset_release_960_xloader/opensource/component_code/vendor/huawei/extra/build/build_script/kirin_kernel_release/kernel/include/linux/irq_work.h"
	.file 131 "/mnt/disk/jenkins/ci/workspace/chipset_release_960_xloader/opensource/component_code/vendor/huawei/extra/build/build_script/kirin_kernel_release/kernel/include/linux/perf_regs.h"
	.file 132 "/mnt/disk/jenkins/ci/workspace/chipset_release_960_xloader/opensource/component_code/vendor/huawei/extra/build/build_script/kirin_kernel_release/kernel/include/linux/interrupt.h"
	.file 133 "/mnt/disk/jenkins/ci/workspace/chipset_release_960_xloader/opensource/component_code/vendor/huawei/extra/build/build_script/kirin_kernel_release/kernel/drivers/vcodec/hi_vcodec/vdec/vfmw/vfmw_v4.0/firmware/common/mem_manage.h"
	.file 134 "/mnt/disk/jenkins/ci/workspace/chipset_release_960_xloader/opensource/component_code/vendor/huawei/extra/build/build_script/kirin_kernel_release/kernel/drivers/vcodec/hi_vcodec/vdec/vfmw/vfmw_v4.0/firmware/osal/vfmw_osal_ext.h"
	.file 135 "/mnt/disk/jenkins/ci/workspace/chipset_release_960_xloader/opensource/component_code/vendor/huawei/extra/build/build_script/kirin_kernel_release/kernel/drivers/vcodec/hi_vcodec/vdec/vfmw/vfmw_v4.0/firmware/osal/linux_kernel/linux_kernel_osal.h"
	.file 136 "/mnt/disk/jenkins/ci/workspace/chipset_release_960_xloader/opensource/component_code/vendor/huawei/extra/build/build_script/kirin_kernel_release/kernel/drivers/vcodec/hi_vcodec/vdec/vfmw/vfmw_v4.0/firmware/driver/HiSCDV200/scd_drv.h"
	.file 137 "/mnt/disk/jenkins/ci/workspace/chipset_release_960_xloader/opensource/component_code/vendor/huawei/extra/build/build_script/kirin_kernel_release/kernel/drivers/vcodec/hi_vcodec/vdec/vfmw/vfmw_v4.0/firmware/common/vdm_drv.h"
	.file 138 "/mnt/disk/jenkins/ci/workspace/chipset_release_960_xloader/opensource/component_code/vendor/huawei/extra/build/build_script/kirin_kernel_release/kernel/drivers/vcodec/hi_vcodec/vdec/vfmw/vfmw_v4.0/firmware/common/vdm_hal.h"
	.file 139 "/mnt/disk/jenkins/ci/workspace/chipset_release_960_xloader/opensource/component_code/vendor/huawei/extra/build/build_script/kirin_kernel_release/kernel/drivers/vcodec/hi_vcodec/vdec/vfmw/vfmw_v4.0/firmware/common/public.h"
	.file 140 "/mnt/disk/jenkins/ci/workspace/chipset_release_960_xloader/opensource/component_code/vendor/huawei/extra/build/build_script/kirin_kernel_release/kernel/drivers/vcodec/hi_vcodec/vdec/vfmw/vfmw_v4.0/firmware/common/syntax/hevc.h"
	.file 141 "/mnt/disk/jenkins/ci/workspace/chipset_release_960_xloader/opensource/component_code/vendor/huawei/extra/build/build_script/kirin_kernel_release/kernel/drivers/vcodec/hi_vcodec/vdec/vfmw/vfmw_v4.0/firmware/common/syntax/vp8.h"
	.file 142 "/mnt/disk/jenkins/ci/workspace/chipset_release_960_xloader/opensource/component_code/vendor/huawei/extra/build/build_script/kirin_kernel_release/kernel/drivers/vcodec/hi_vcodec/vdec/vfmw/vfmw_v4.0/firmware/common/vfmw_ctrl.h"
	.file 143 "/mnt/disk/jenkins/ci/workspace/chipset_release_960_xloader/opensource/component_code/vendor/huawei/extra/build/build_script/kirin_kernel_release/kernel/drivers/vcodec/hi_vcodec/vdec/vfmw/vfmw_v4.0/firmware/driver/HiSMMUV100/smmu.h"
	.file 144 "/mnt/disk/jenkins/ci/workspace/chipset_release_960_xloader/opensource/component_code/vendor/huawei/extra/build/build_script/kirin_kernel_release/kernel/arch/arm64/include/asm/cachetype.h"
	.file 145 "/mnt/disk/jenkins/ci/workspace/chipset_release_960_xloader/opensource/component_code/vendor/huawei/extra/build/build_script/kirin_kernel_release/kernel/include/linux/printk.h"
	.file 146 "/mnt/disk/jenkins/ci/workspace/chipset_release_960_xloader/opensource/component_code/vendor/huawei/extra/build/build_script/kirin_kernel_release/kernel/include/linux/kernel.h"
	.file 147 "/mnt/disk/jenkins/ci/workspace/chipset_release_960_xloader/opensource/component_code/vendor/huawei/extra/build/build_script/kirin_kernel_release/kernel/arch/arm64/include/asm/stack_pointer.h"
	.file 148 "/mnt/disk/jenkins/ci/workspace/chipset_release_960_xloader/opensource/component_code/vendor/huawei/extra/build/build_script/kirin_kernel_release/kernel/arch/arm64/include/asm/hwcap.h"
	.file 149 "/mnt/disk/jenkins/ci/workspace/chipset_release_960_xloader/opensource/component_code/vendor/huawei/extra/build/build_script/kirin_kernel_release/kernel/arch/arm64/include/asm/cpufeature.h"
	.file 150 "/mnt/disk/jenkins/ci/workspace/chipset_release_960_xloader/opensource/component_code/vendor/huawei/extra/build/build_script/kirin_kernel_release/kernel/arch/arm64/include/asm/virt.h"
	.file 151 "/mnt/disk/jenkins/ci/workspace/chipset_release_960_xloader/opensource/component_code/vendor/huawei/extra/build/build_script/kirin_kernel_release/kernel/include/linux/jiffies.h"
	.file 152 "/mnt/disk/jenkins/ci/workspace/chipset_release_960_xloader/opensource/component_code/vendor/huawei/extra/build/build_script/kirin_kernel_release/kernel/include/linux/highuid.h"
	.file 153 "/mnt/disk/jenkins/ci/workspace/chipset_release_960_xloader/opensource/component_code/vendor/huawei/extra/build/build_script/kirin_kernel_release/kernel/arch/arm64/include/asm/memory.h"
	.file 154 "/mnt/disk/jenkins/ci/workspace/chipset_release_960_xloader/opensource/component_code/vendor/huawei/extra/build/build_script/kirin_kernel_release/kernel/include/asm-generic/percpu.h"
	.file 155 "/mnt/disk/jenkins/ci/workspace/chipset_release_960_xloader/opensource/component_code/vendor/huawei/extra/build/build_script/kirin_kernel_release/kernel/include/linux/debug_locks.h"
	.file 156 "/mnt/disk/jenkins/ci/workspace/chipset_release_960_xloader/opensource/component_code/vendor/huawei/extra/build/build_script/kirin_kernel_release/kernel/include/asm-generic/pgtable.h"
	.file 157 "/mnt/disk/jenkins/ci/workspace/chipset_release_960_xloader/opensource/component_code/vendor/huawei/extra/build/build_script/kirin_kernel_release/kernel/arch/arm64/include/asm/irq.h"
	.file 158 "/mnt/disk/jenkins/ci/workspace/chipset_release_960_xloader/opensource/component_code/vendor/huawei/extra/build/build_script/kirin_kernel_release/kernel/arch/arm64/include/asm/hardirq.h"
	.file 159 "/mnt/disk/jenkins/ci/workspace/chipset_release_960_xloader/opensource/component_code/vendor/huawei/extra/build/build_script/kirin_kernel_release/kernel/include/linux/slab.h"
	.file 160 "/mnt/disk/jenkins/ci/workspace/chipset_release_960_xloader/opensource/component_code/vendor/huawei/extra/build/build_script/kirin_kernel_release/kernel/drivers/vcodec/hi_vcodec/vdec/vfmw/vfmw_v4.0/firmware/driver/HiVDHV400R004/vdm_hal_api.h"
	.file 161 "/mnt/disk/jenkins/ci/workspace/chipset_release_960_xloader/opensource/component_code/vendor/huawei/extra/build/build_script/kirin_kernel_release/kernel/arch/arm64/include/asm/string.h"
	.section	.note.GNU-stack,"",%progbits
