	.cpu generic+fp+simd
	.file	"linux_kernel_proc.c"
	.text
.Ltext0:
	.cfi_sections	.debug_frame
	.align	2
	.global	vfmw_proc_write
	.type	vfmw_proc_write, %function
vfmw_proc_write:
.LFB2657:
	.file 1 "/mnt/disk/jenkins/ci/workspace/chipset_release_960_xloader/opensource/component_code/vendor/huawei/extra/build/build_script/kirin_kernel_release/kernel/drivers/vcodec/hi_vcodec/vdec/vfmw/vfmw_v4.0/firmware/osal/linux_kernel/linux_kernel_proc.c"
	.loc 1 705 0
	.cfi_startproc
.LVL0:
	stp	x29, x30, [sp, -16]!
	.cfi_def_cfa_offset 16
	.cfi_offset 29, -16
	.cfi_offset 30, -8
	add	x29, sp, 0
	.cfi_def_cfa_register 29
	.loc 1 707 0
	ldr	x4, [x0,272]
	.loc 1 709 0
	ldr	x4, [x4,160]
	ldr	x4, [x4,24]
	cbz	x4, .L3
	.loc 1 711 0
	blr	x4
.LVL1:
	sxtw	x0, w0
.LVL2:
.L2:
	.loc 1 715 0
	ldp	x29, x30, [sp], 16
	.cfi_remember_state
	.cfi_restore 30
	.cfi_restore 29
	.cfi_def_cfa 31, 0
	ret
.LVL3:
.L3:
	.cfi_restore_state
	.loc 1 714 0
	mov	x0, -38
.LVL4:
	b	.L2
	.cfi_endproc
.LFE2657:
	.size	vfmw_proc_write, .-vfmw_proc_write
	.align	2
	.global	vfmw_read_proc
	.type	vfmw_read_proc, %function
vfmw_read_proc:
.LFB2648:
	.loc 1 56 0
	.cfi_startproc
.LVL5:
	stp	x29, x30, [sp, -32]!
	.cfi_def_cfa_offset 32
	.cfi_offset 29, -32
	.cfi_offset 30, -24
	.loc 1 57 0
	adrp	x1, .LC0
.LVL6:
	.loc 1 56 0
	add	x29, sp, 0
	.cfi_def_cfa_register 29
	.loc 1 57 0
	add	x1, x1, :lo12:.LC0
	.loc 1 56 0
	stp	x19, x20, [sp,16]
	.cfi_offset 19, -16
	.cfi_offset 20, -8
	.loc 1 56 0
	mov	x20, x0
	.loc 1 58 0
	adrp	x19, .LC1
	.loc 1 57 0
	bl	seq_printf
.LVL7:
	.loc 1 58 0
	add	x19, x19, :lo12:.LC1
	mov	w3, 61968
	adrp	x2, .LC2
	mov	x0, x20
	mov	x1, x19
	movk	w3, 0x782a, lsl 16
	add	x2, x2, :lo12:.LC2
	bl	seq_printf
.LVL8:
	.loc 1 60 0
	adrp	x3, extra_ref
	adrp	x2, .LC3
	mov	x0, x20
	mov	x1, x19
	add	x2, x2, :lo12:.LC3
	ldr	w3, [x3,#:lo12:extra_ref]
	bl	seq_printf
.LVL9:
	.loc 1 61 0
	adrp	x3, extra_disp
	adrp	x2, .LC4
	mov	x0, x20
	mov	x1, x19
	add	x2, x2, :lo12:.LC4
	ldr	w3, [x3,#:lo12:extra_disp]
	bl	seq_printf
.LVL10:
	.loc 1 62 0
	adrp	x3, extra_cmd
	adrp	x2, .LC5
	mov	x0, x20
	mov	x1, x19
	add	x2, x2, :lo12:.LC5
	ldr	w3, [x3,#:lo12:extra_cmd]
	bl	seq_printf
.LVL11:
	.loc 1 64 0
	adrp	x3, USE_FF_APT_EN
	adrp	x2, .LC6
	mov	x0, x20
	mov	x1, x19
	add	x2, x2, :lo12:.LC6
	ldr	w3, [x3,#:lo12:USE_FF_APT_EN]
	bl	seq_printf
.LVL12:
	.loc 1 65 0
	adrp	x3, g_FreqControlDisable
	adrp	x2, .LC7
	mov	x0, x20
	mov	x1, x19
	add	x2, x2, :lo12:.LC7
	ldrb	w3, [x3,#:lo12:g_FreqControlDisable]
	bl	seq_printf
.LVL13:
	.loc 1 68 0
	mov	w0, 0
	ldp	x19, x20, [sp,16]
	.cfi_restore 20
	.cfi_restore 19
.LVL14:
	ldp	x29, x30, [sp], 32
	.cfi_restore 30
	.cfi_restore 29
	.cfi_def_cfa 31, 0
	ret
	.cfi_endproc
.LFE2648:
	.size	vfmw_read_proc, .-vfmw_read_proc
	.align	2
	.global	vfmw_read_proc_dbg
	.type	vfmw_read_proc_dbg, %function
vfmw_read_proc_dbg:
.LFB2649:
	.loc 1 71 0
	.cfi_startproc
.LVL15:
	stp	x29, x30, [sp, -32]!
	.cfi_def_cfa_offset 32
	.cfi_offset 29, -32
	.cfi_offset 30, -24
	.loc 1 74 0
	adrp	x1, .LC8
.LVL16:
	.loc 1 71 0
	add	x29, sp, 0
	.cfi_def_cfa_register 29
	.loc 1 74 0
	add	x1, x1, :lo12:.LC8
	.loc 1 71 0
	stp	x19, x20, [sp,16]
	.cfi_offset 19, -16
	.cfi_offset 20, -8
	.loc 1 71 0
	mov	x19, x0
	.loc 1 74 0
	bl	seq_printf
.LVL17:
	.loc 1 76 0
	adrp	x1, TracerPhyAddr
	adrp	x20, .LC9
	add	x20, x20, :lo12:.LC9
	adrp	x2, .LC10
	mov	x0, x19
	add	x2, x2, :lo12:.LC10
	ldr	w3, [x1,#:lo12:TracerPhyAddr]
	mov	x1, x20
	bl	seq_printf
.LVL18:
	.loc 1 77 0
	adrp	x1, .LC11
	adrp	x2, .LC12
	adrp	x3, s_VfmwSavePath
	mov	x0, x19
	add	x1, x1, :lo12:.LC11
	add	x2, x2, :lo12:.LC12
	add	x3, x3, :lo12:s_VfmwSavePath
	bl	seq_printf
.LVL19:
	.loc 1 78 0
	adrp	x3, g_PrintEnable
	adrp	x2, .LC13
	mov	x0, x19
	mov	x1, x20
	add	x2, x2, :lo12:.LC13
	ldr	w3, [x3,#:lo12:g_PrintEnable]
	bl	seq_printf
.LVL20:
	.loc 1 79 0
	adrp	x3, g_TraceCtrl
	adrp	x2, .LC14
	mov	x0, x19
	mov	x1, x20
	add	x2, x2, :lo12:.LC14
	.loc 1 80 0
	adrp	x20, .LC15
	.loc 1 79 0
	ldr	w3, [x3,#:lo12:g_TraceCtrl]
	.loc 1 80 0
	add	x20, x20, :lo12:.LC15
	.loc 1 79 0
	bl	seq_printf
.LVL21:
	.loc 1 80 0
	adrp	x1, g_TraceBsPeriod
	adrp	x2, .LC16
	mov	x0, x19
	add	x2, x2, :lo12:.LC16
	ldr	w3, [x1,#:lo12:g_TraceBsPeriod]
	mov	x1, x20
	bl	seq_printf
.LVL22:
	.loc 1 81 0
	adrp	x3, g_TraceFramePeriod
	adrp	x2, .LC17
	mov	x0, x19
	mov	x1, x20
	add	x2, x2, :lo12:.LC17
	ldr	w3, [x3,#:lo12:g_TraceFramePeriod]
	bl	seq_printf
.LVL23:
	.loc 1 82 0
	adrp	x3, g_TraceImgPeriod
	adrp	x2, .LC18
	add	x2, x2, :lo12:.LC18
	mov	x0, x19
	mov	x1, x20
	.loc 1 84 0
	adrp	x20, .LC19
	.loc 1 82 0
	ldr	w3, [x3,#:lo12:g_TraceImgPeriod]
	.loc 1 84 0
	add	x20, x20, :lo12:.LC19
	.loc 1 82 0
	bl	seq_printf
.LVL24:
	.loc 1 84 0
	mov	x0, x19
	mov	x1, x20
	bl	seq_printf
.LVL25:
	.loc 1 85 0
	adrp	x1, .LC20
	mov	x0, x19
	add	x1, x1, :lo12:.LC20
	bl	seq_printf
.LVL26:
	.loc 1 86 0
	adrp	x1, .LC21
	mov	x0, x19
	add	x1, x1, :lo12:.LC21
	bl	seq_printf
.LVL27:
	.loc 1 87 0
	adrp	x1, .LC22
	mov	x0, x19
	add	x1, x1, :lo12:.LC22
	bl	seq_printf
.LVL28:
	.loc 1 88 0
	adrp	x1, .LC23
	mov	x0, x19
	add	x1, x1, :lo12:.LC23
	bl	seq_printf
.LVL29:
	.loc 1 89 0
	adrp	x1, .LC24
	mov	x0, x19
	add	x1, x1, :lo12:.LC24
	bl	seq_printf
.LVL30:
	.loc 1 90 0
	adrp	x1, .LC25
	mov	x0, x19
	add	x1, x1, :lo12:.LC25
	bl	seq_printf
.LVL31:
	.loc 1 91 0
	adrp	x1, .LC26
	mov	x0, x19
	add	x1, x1, :lo12:.LC26
	bl	seq_printf
.LVL32:
	.loc 1 92 0
	adrp	x1, .LC27
	mov	x0, x19
	add	x1, x1, :lo12:.LC27
	bl	seq_printf
.LVL33:
	.loc 1 93 0
	adrp	x1, .LC28
	mov	x0, x19
	add	x1, x1, :lo12:.LC28
	bl	seq_printf
.LVL34:
	.loc 1 94 0
	adrp	x1, .LC29
	mov	x0, x19
	add	x1, x1, :lo12:.LC29
	bl	seq_printf
.LVL35:
	.loc 1 95 0
	adrp	x1, .LC30
	mov	x0, x19
	add	x1, x1, :lo12:.LC30
	bl	seq_printf
.LVL36:
	.loc 1 96 0
	adrp	x1, .LC31
	mov	x0, x19
	add	x1, x1, :lo12:.LC31
	bl	seq_printf
.LVL37:
	.loc 1 97 0
	adrp	x2, .LC33
	adrp	x1, .LC32
	add	x2, x2, :lo12:.LC33
	mov	x0, x19
	mov	x3, x2
	mov	x4, x2
	mov	x5, x2
	mov	x6, x2
	add	x1, x1, :lo12:.LC32
	bl	seq_printf
.LVL38:
	.loc 1 98 0
	adrp	x1, .LC34
	mov	x0, x19
	add	x1, x1, :lo12:.LC34
	bl	seq_printf
.LVL39:
	.loc 1 99 0
	adrp	x1, .LC35
	mov	x0, x19
	add	x1, x1, :lo12:.LC35
	bl	seq_printf
.LVL40:
	.loc 1 100 0
	adrp	x1, .LC36
	mov	x0, x19
	add	x1, x1, :lo12:.LC36
	bl	seq_printf
.LVL41:
	.loc 1 101 0
	adrp	x1, .LC37
	mov	x0, x19
	add	x1, x1, :lo12:.LC37
	bl	seq_printf
.LVL42:
	.loc 1 102 0
	adrp	x1, .LC38
	mov	x0, x19
	add	x1, x1, :lo12:.LC38
	bl	seq_printf
.LVL43:
	.loc 1 103 0
	adrp	x1, .LC39
	mov	x0, x19
	add	x1, x1, :lo12:.LC39
	bl	seq_printf
.LVL44:
	.loc 1 104 0
	adrp	x1, .LC40
	mov	x0, x19
	add	x1, x1, :lo12:.LC40
	bl	seq_printf
.LVL45:
	.loc 1 105 0
	adrp	x1, .LC41
	mov	x0, x19
	add	x1, x1, :lo12:.LC41
	bl	seq_printf
.LVL46:
	.loc 1 106 0
	adrp	x1, .LC42
	mov	x0, x19
	add	x1, x1, :lo12:.LC42
	bl	seq_printf
.LVL47:
	.loc 1 107 0
	adrp	x1, .LC43
	mov	x0, x19
	add	x1, x1, :lo12:.LC43
	bl	seq_printf
.LVL48:
	.loc 1 108 0
	adrp	x1, .LC44
	mov	x0, x19
	add	x1, x1, :lo12:.LC44
	bl	seq_printf
.LVL49:
	.loc 1 109 0
	adrp	x1, .LC45
	mov	x0, x19
	add	x1, x1, :lo12:.LC45
	bl	seq_printf
.LVL50:
	.loc 1 110 0
	adrp	x1, .LC46
	mov	x0, x19
	add	x1, x1, :lo12:.LC46
	bl	seq_printf
.LVL51:
	.loc 1 111 0
	adrp	x1, .LC47
	mov	x0, x19
	add	x1, x1, :lo12:.LC47
	bl	seq_printf
.LVL52:
	.loc 1 112 0
	adrp	x1, .LC48
	mov	x0, x19
	add	x1, x1, :lo12:.LC48
	bl	seq_printf
.LVL53:
	.loc 1 113 0
	adrp	x1, .LC49
	mov	x0, x19
	add	x1, x1, :lo12:.LC49
	bl	seq_printf
.LVL54:
	.loc 1 114 0
	adrp	x1, .LC50
	mov	x0, x19
	add	x1, x1, :lo12:.LC50
	bl	seq_printf
.LVL55:
	.loc 1 115 0
	adrp	x1, .LC51
	mov	x0, x19
	add	x1, x1, :lo12:.LC51
	bl	seq_printf
.LVL56:
	.loc 1 116 0
	adrp	x1, .LC52
	mov	x0, x19
	add	x1, x1, :lo12:.LC52
	bl	seq_printf
.LVL57:
	.loc 1 117 0
	adrp	x1, .LC53
	mov	x0, x19
	add	x1, x1, :lo12:.LC53
	bl	seq_printf
.LVL58:
	.loc 1 119 0
	adrp	x2, g_u32Csd_Enable
	adrp	x1, .LC54
	mov	x0, x19
	add	x1, x1, :lo12:.LC54
	ldr	w2, [x2,#:lo12:g_u32Csd_Enable]
	bl	seq_printf
.LVL59:
	.loc 1 120 0
	adrp	x2, g_u32CsdDispMin
	adrp	x1, .LC55
	mov	x0, x19
	add	x1, x1, :lo12:.LC55
	ldr	w2, [x2,#:lo12:g_u32CsdDispMin]
	bl	seq_printf
.LVL60:
	.loc 1 121 0
	adrp	x2, g_u32CsdDispMax
	adrp	x1, .LC56
	mov	x0, x19
	add	x1, x1, :lo12:.LC56
	ldr	w2, [x2,#:lo12:g_u32CsdDispMax]
	bl	seq_printf
.LVL61:
	.loc 1 122 0
	adrp	x2, g_u32Csd_SetHighRate_Enable
	adrp	x1, .LC57
	mov	x0, x19
	add	x1, x1, :lo12:.LC57
	ldr	w2, [x2,#:lo12:g_u32Csd_SetHighRate_Enable]
	bl	seq_printf
.LVL62:
	.loc 1 123 0
	adrp	x2, g_u32Csd_num
	adrp	x1, .LC58
	mov	x0, x19
	add	x1, x1, :lo12:.LC58
	ldr	w2, [x2,#:lo12:g_u32Csd_num]
	bl	seq_printf
.LVL63:
	.loc 1 124 0
	adrp	x2, g_csdAddBufNum
	adrp	x1, .LC59
	mov	x0, x19
	add	x1, x1, :lo12:.LC59
	ldr	w2, [x2,#:lo12:g_csdAddBufNum]
	bl	seq_printf
.LVL64:
	.loc 1 126 0
	mov	x0, x19
	mov	x1, x20
	bl	seq_printf
.LVL65:
	.loc 1 129 0
	mov	w0, 0
	ldp	x19, x20, [sp,16]
	.cfi_restore 20
	.cfi_restore 19
.LVL66:
	ldp	x29, x30, [sp], 32
	.cfi_restore 30
	.cfi_restore 29
	.cfi_def_cfa 31, 0
	ret
	.cfi_endproc
.LFE2649:
	.size	vfmw_read_proc_dbg, .-vfmw_read_proc_dbg
	.align	2
	.global	vfmw_read_proc_prn
	.type	vfmw_read_proc_prn, %function
vfmw_read_proc_prn:
.LFB2650:
	.loc 1 132 0
	.cfi_startproc
.LVL67:
	stp	x29, x30, [sp, -48]!
	.cfi_def_cfa_offset 48
	.cfi_offset 29, -48
	.cfi_offset 30, -40
	.loc 1 133 0
	adrp	x1, .LC60
.LVL68:
	.loc 1 132 0
	add	x29, sp, 0
	.cfi_def_cfa_register 29
	.loc 1 133 0
	add	x1, x1, :lo12:.LC60
	.loc 1 132 0
	str	x21, [sp,32]
	.cfi_offset 21, -16
	.loc 1 134 0
	adrp	x21, .LC19
	add	x21, x21, :lo12:.LC19
	.loc 1 132 0
	stp	x19, x20, [sp,16]
	.cfi_offset 19, -32
	.cfi_offset 20, -24
	.loc 1 132 0
	mov	x19, x0
	.loc 1 133 0
	bl	seq_printf
.LVL69:
	.loc 1 134 0
	mov	x0, x19
	mov	x1, x21
	.loc 1 146 0
	adrp	x20, .LC70
	.loc 1 134 0
	bl	seq_printf
.LVL70:
	.loc 1 146 0
	add	x20, x20, :lo12:.LC70
	.loc 1 135 0
	adrp	x1, .LC61
	mov	x0, x19
	add	x1, x1, :lo12:.LC61
	bl	seq_printf
.LVL71:
	.loc 1 136 0
	adrp	x1, .LC62
	mov	x0, x19
	add	x1, x1, :lo12:.LC62
	bl	seq_printf
.LVL72:
	.loc 1 137 0
	adrp	x1, .LC63
	mov	x0, x19
	add	x1, x1, :lo12:.LC63
	bl	seq_printf
.LVL73:
	.loc 1 138 0
	adrp	x1, .LC64
	mov	x0, x19
	add	x1, x1, :lo12:.LC64
	bl	seq_printf
.LVL74:
	.loc 1 139 0
	adrp	x1, .LC65
	mov	x0, x19
	add	x1, x1, :lo12:.LC65
	bl	seq_printf
.LVL75:
	.loc 1 140 0
	adrp	x1, .LC66
	mov	x0, x19
	add	x1, x1, :lo12:.LC66
	bl	seq_printf
.LVL76:
	.loc 1 141 0
	adrp	x1, .LC67
	mov	x0, x19
	add	x1, x1, :lo12:.LC67
	bl	seq_printf
.LVL77:
	.loc 1 142 0
	adrp	x1, .LC68
	mov	x0, x19
	add	x1, x1, :lo12:.LC68
	bl	seq_printf
.LVL78:
	.loc 1 143 0
	mov	x0, x19
	mov	x1, x21
	bl	seq_printf
.LVL79:
	.loc 1 144 0
	adrp	x1, .LC69
	mov	x0, x19
	add	x1, x1, :lo12:.LC69
	bl	seq_printf
.LVL80:
	.loc 1 145 0
	mov	x0, x19
	mov	x1, x21
	bl	seq_printf
.LVL81:
	.loc 1 146 0
	mov	x0, x19
	mov	x1, x20
	bl	seq_printf
.LVL82:
	.loc 1 147 0
	mov	x0, x19
	mov	x1, x20
	bl	seq_printf
.LVL83:
	.loc 1 148 0
	mov	x0, x19
	mov	x1, x20
	bl	seq_printf
.LVL84:
	.loc 1 149 0
	adrp	x1, .LC71
	mov	x0, x19
	add	x1, x1, :lo12:.LC71
	bl	seq_printf
.LVL85:
	.loc 1 150 0
	adrp	x1, .LC72
	mov	x0, x19
	add	x1, x1, :lo12:.LC72
	bl	seq_printf
.LVL86:
	.loc 1 151 0
	adrp	x1, .LC73
	mov	x0, x19
	add	x1, x1, :lo12:.LC73
	bl	seq_printf
.LVL87:
	.loc 1 152 0
	mov	x0, x19
	mov	x1, x21
	bl	seq_printf
.LVL88:
	.loc 1 153 0
	adrp	x1, .LC74
	mov	x0, x19
	add	x1, x1, :lo12:.LC74
	bl	seq_printf
.LVL89:
	.loc 1 154 0
	mov	x0, x19
	mov	x1, x21
	bl	seq_printf
.LVL90:
	.loc 1 155 0
	mov	x0, x19
	mov	x1, x20
	bl	seq_printf
.LVL91:
	.loc 1 156 0
	mov	x0, x19
	mov	x1, x20
	bl	seq_printf
.LVL92:
	.loc 1 157 0
	mov	x0, x19
	mov	x1, x20
	bl	seq_printf
.LVL93:
	.loc 1 158 0
	mov	x0, x19
	mov	x1, x20
	bl	seq_printf
.LVL94:
	.loc 1 159 0
	mov	x0, x19
	mov	x1, x20
	bl	seq_printf
.LVL95:
	.loc 1 160 0
	adrp	x1, .LC75
	mov	x0, x19
	add	x1, x1, :lo12:.LC75
	bl	seq_printf
.LVL96:
	.loc 1 161 0
	mov	x0, x19
	mov	x1, x21
	bl	seq_printf
.LVL97:
	.loc 1 164 0
	ldr	x21, [sp,32]
	.cfi_restore 21
	mov	w0, 0
	ldp	x19, x20, [sp,16]
	.cfi_restore 20
	.cfi_restore 19
.LVL98:
	ldp	x29, x30, [sp], 48
	.cfi_restore 30
	.cfi_restore 29
	.cfi_def_cfa 31, 0
	ret
	.cfi_endproc
.LFE2650:
	.size	vfmw_read_proc_prn, .-vfmw_read_proc_prn
	.align	2
	.global	vfmw_read_proc_chn
	.type	vfmw_read_proc_chn, %function
vfmw_read_proc_chn:
.LFB2652:
	.loc 1 244 0
	.cfi_startproc
.LVL99:
	stp	x29, x30, [sp, -64]!
	.cfi_def_cfa_offset 64
	.cfi_offset 29, -64
	.cfi_offset 30, -56
	.loc 1 247 0
	adrp	x1, .LC76
.LVL100:
	.loc 1 244 0
	add	x29, sp, 0
	.cfi_def_cfa_register 29
	.loc 1 247 0
	add	x1, x1, :lo12:.LC76
	.loc 1 244 0
	stp	x19, x20, [sp,16]
	stp	x21, x22, [sp,32]
	stp	x23, x24, [sp,48]
	.cfi_offset 19, -48
	.cfi_offset 20, -40
	.cfi_offset 21, -32
	.cfi_offset 22, -24
	.cfi_offset 23, -16
	.cfi_offset 24, -8
	.loc 1 244 0
	mov	x19, x0
	.loc 1 247 0
	bl	seq_printf
.LVL101:
	adrp	x24, g_ChanCtx+256
	.loc 1 249 0
	adrp	x1, .LC77
	adrp	x22, g_ChanCtx+384
	.loc 1 253 0
	adrp	x20, .LC78
	.loc 1 249 0
	mov	x0, x19
	add	x1, x1, :lo12:.LC77
	add	x21, x24, :lo12:g_ChanCtx+256
	add	x22, x22, :lo12:g_ChanCtx+384
	.loc 1 253 0
	add	x20, x20, :lo12:.LC78
	.loc 1 249 0
	bl	seq_printf
.LVL102:
.L9:
	.loc 1 253 0
	ldr	w2, [x21],4
	mov	x0, x19
	mov	x1, x20
	sub	w2, w2, #1
	bl	seq_printf
.LVL103:
	.loc 1 251 0 discriminator 1
	cmp	x21, x22
	bne	.L9
	.loc 1 256 0
	adrp	x22, .LC79
	mov	x0, x19
	add	x1, x22, :lo12:.LC79
	adrp	x23, g_ChanCtx+128
	add	x21, x23, :lo12:g_ChanCtx+128
	add	x24, x24, :lo12:g_ChanCtx+256
	bl	seq_printf
.LVL104:
	.loc 1 258 0
	adrp	x1, .LC80
	mov	x0, x19
	add	x1, x1, :lo12:.LC80
	bl	seq_printf
.LVL105:
.L10:
	.loc 1 262 0
	ldr	w2, [x21],4
	mov	x0, x19
	mov	x1, x20
	bl	seq_printf
.LVL106:
	.loc 1 260 0 discriminator 1
	cmp	x21, x24
	bne	.L10
	.loc 1 265 0
	mov	x0, x19
	add	x1, x22, :lo12:.LC79
	adrp	x21, g_ChanCtx
	add	x23, x23, :lo12:g_ChanCtx+128
	bl	seq_printf
.LVL107:
	add	x21, x21, :lo12:g_ChanCtx
	.loc 1 267 0
	adrp	x1, .LC81
	mov	x0, x19
	add	x1, x1, :lo12:.LC81
	bl	seq_printf
.LVL108:
.L11:
	.loc 1 271 0
	ldr	w2, [x21],4
	mov	x0, x19
	mov	x1, x20
	bl	seq_printf
.LVL109:
	.loc 1 269 0 discriminator 1
	cmp	x21, x23
	bne	.L11
	.loc 1 274 0
	mov	x0, x19
	add	x1, x22, :lo12:.LC79
	adrp	x20, s_pstVfmwChan
	adrp	x23, s_pstVfmwChan+256
	bl	seq_printf
.LVL110:
	.loc 1 282 0
	adrp	x21, .LC83
	.loc 1 276 0
	adrp	x1, .LC82
	mov	x0, x19
	add	x1, x1, :lo12:.LC82
	add	x20, x20, :lo12:s_pstVfmwChan
	add	x23, x23, :lo12:s_pstVfmwChan+256
	.loc 1 282 0
	add	x21, x21, :lo12:.LC83
	.loc 1 276 0
	bl	seq_printf
.LVL111:
.L13:
	.loc 1 280 0
	ldr	x4, [x20]
	.loc 1 282 0
	mov	x0, x19
	add	x20, x20, 8
	mov	x1, x21
	.loc 1 280 0
	cbz	x4, .L12
	.loc 1 282 0
	ldr	w2, [x4,4]
	ldr	w3, [x4,8]
	ldr	w4, [x4,12]
	bl	seq_printf
.LVL112:
.L12:
	.loc 1 278 0 discriminator 1
	cmp	x20, x23
	bne	.L13
	.loc 1 286 0
	mov	x0, x19
	add	x1, x22, :lo12:.LC79
	bl	seq_printf
.LVL113:
	.loc 1 289 0
	mov	w0, 0
	ldp	x19, x20, [sp,16]
	.cfi_restore 20
	.cfi_restore 19
.LVL114:
	ldp	x21, x22, [sp,32]
	.cfi_restore 22
	.cfi_restore 21
	ldp	x23, x24, [sp,48]
	.cfi_restore 24
	.cfi_restore 23
	ldp	x29, x30, [sp], 64
	.cfi_restore 30
	.cfi_restore 29
	.cfi_def_cfa 31, 0
	ret
	.cfi_endproc
.LFE2652:
	.size	vfmw_read_proc_chn, .-vfmw_read_proc_chn
	.align	2
	.global	vfmw_read_proc_scd
	.type	vfmw_read_proc_scd, %function
vfmw_read_proc_scd:
.LFB2651:
	.loc 1 167 0
	.cfi_startproc
.LVL115:
	stp	x29, x30, [sp, -144]!
	.cfi_def_cfa_offset 144
	.cfi_offset 29, -144
	.cfi_offset 30, -136
	.loc 1 174 0
	adrp	x1, .LC84
.LVL116:
	.loc 1 167 0
	add	x29, sp, 0
	.cfi_def_cfa_register 29
	stp	x23, x24, [sp,48]
	.cfi_offset 23, -96
	.cfi_offset 24, -88
	adrp	x24, __stack_chk_guard
	.loc 1 174 0
	add	x1, x1, :lo12:.LC84
	.loc 1 167 0
	stp	x19, x20, [sp,16]
	.cfi_offset 19, -128
	.cfi_offset 20, -120
	.loc 1 175 0
	adrp	x20, g_pSmIIS
	.loc 1 167 0
	mov	x19, x0
	ldr	x2, [x24,#:lo12:__stack_chk_guard]
	.loc 1 179 0
	adrp	x23, .LC90
	.loc 1 167 0
	stp	x21, x22, [sp,32]
	stp	x25, x26, [sp,64]
	str	x2, [x29,136]
	.cfi_offset 21, -112
	.cfi_offset 22, -104
	.cfi_offset 25, -80
	.cfi_offset 26, -72
	.loc 1 175 0
	adrp	x25, .LC85
	.loc 1 167 0
	str	x27, [sp,80]
	.cfi_offset 27, -64
	.loc 1 174 0
	bl	seq_printf
.LVL117:
	.loc 1 175 0
	ldr	x3, [x20,#:lo12:g_pSmIIS]
	add	x21, x25, :lo12:.LC85
	adrp	x2, .LC86
	mov	x1, x21
	mov	x0, x19
	add	x2, x2, :lo12:.LC86
	ldr	w3, [x3,2136]
	.loc 1 179 0
	add	x22, x23, :lo12:.LC90
	.loc 1 175 0
	bl	seq_printf
.LVL118:
	.loc 1 176 0
	ldr	x3, [x20,#:lo12:g_pSmIIS]
	adrp	x2, .LC87
	mov	x1, x21
	mov	x0, x19
	add	x2, x2, :lo12:.LC87
	ldr	w3, [x3,2144]
	bl	seq_printf
.LVL119:
	.loc 1 177 0
	ldr	x3, [x20,#:lo12:g_pSmIIS]
	adrp	x2, .LC88
	mov	x1, x21
	mov	x0, x19
	add	x2, x2, :lo12:.LC88
	ldr	w3, [x3,2140]
	bl	seq_printf
.LVL120:
	.loc 1 178 0
	ldr	x3, [x20,#:lo12:g_pSmIIS]
	adrp	x2, .LC89
	mov	x1, x21
	mov	x0, x19
	add	x2, x2, :lo12:.LC89
	ldr	w3, [x3,2148]
	bl	seq_printf
.LVL121:
	.loc 1 179 0
	ldr	x3, [x20,#:lo12:g_pSmIIS]
	adrp	x2, .LC91
	mov	x1, x22
	mov	x0, x19
	add	x2, x2, :lo12:.LC91
	ldr	w3, [x3]
	bl	seq_printf
.LVL122:
	.loc 1 180 0
	ldr	x3, [x20,#:lo12:g_pSmIIS]
	adrp	x2, .LC92
	mov	x1, x21
	mov	x0, x19
	add	x2, x2, :lo12:.LC92
	ldr	w3, [x3,4]
	bl	seq_printf
.LVL123:
	.loc 1 181 0
	ldr	x3, [x20,#:lo12:g_pSmIIS]
	adrp	x2, .LC93
	mov	x1, x22
	mov	x0, x19
	add	x2, x2, :lo12:.LC93
	ldr	w3, [x3,16]
	bl	seq_printf
.LVL124:
	.loc 1 182 0
	ldr	x3, [x20,#:lo12:g_pSmIIS]
	adrp	x2, .LC94
	mov	x0, x19
	mov	x1, x22
	add	x2, x2, :lo12:.LC94
	ldr	w3, [x3,32]
	bl	seq_printf
.LVL125:
	.loc 1 186 0
	ldr	x21, [x20,#:lo12:g_pSmIIS]
	.loc 1 184 0
	adrp	x0, g_CurProcChan
	ldr	w22, [x0,#:lo12:g_CurProcChan]
.LVL126:
	.loc 1 186 0
	add	x21, x21, x22, sxtw 3
	ldr	x20, [x21,1880]
.LVL127:
	.loc 1 187 0
	cbz	x20, .L22
	.loc 1 187 0 is_stmt 0 discriminator 1
	add	x26, x20, 188416
	ldr	w0, [x26,2388]
	cbnz	w0, .L46
.LVL128:
.L22:
	.loc 1 241 0 is_stmt 1
	ldr	x2, [x29,136]
	mov	w0, 0
	ldr	x1, [x24,#:lo12:__stack_chk_guard]
	cmp	x2, x1
	bne	.L47
	ldp	x19, x20, [sp,16]
	.cfi_remember_state
	.cfi_restore 20
	.cfi_restore 19
.LVL129:
	ldp	x21, x22, [sp,32]
	.cfi_restore 22
	.cfi_restore 21
.LVL130:
	ldp	x23, x24, [sp,48]
	.cfi_restore 24
	.cfi_restore 23
	ldp	x25, x26, [sp,64]
	.cfi_restore 26
	.cfi_restore 25
	ldr	x27, [sp,80]
	.cfi_restore 27
	ldp	x29, x30, [sp], 144
	.cfi_restore 30
	.cfi_restore 29
	.cfi_def_cfa 31, 0
	ret
.LVL131:
.L46:
	.cfi_restore_state
	.loc 1 193 0
	add	x21, x20, 104
	add	x1, x29, 100
	mov	x0, x21
	bl	GetRawStreamSize
.LVL132:
	.loc 1 195 0
	cbnz	w0, .L48
	.loc 1 200 0
	mov	x0, x21
	add	x1, x29, 96
	bl	GetRawStreamNum
.LVL133:
	.loc 1 202 0
	cbnz	w0, .L49
.L24:
	.loc 1 207 0
	add	x27, x20, 98304
	add	x1, x29, 108
	add	x21, x27, 128
	mov	x0, x21
	bl	GetSegStreamSize
.LVL134:
	.loc 1 209 0
	cbnz	w0, .L50
.L25:
	.loc 1 214 0
	mov	x0, x21
	add	x1, x29, 104
	bl	GetSegStreamNum
.LVL135:
	.loc 1 216 0
	cbnz	w0, .L51
.L26:
	.loc 1 221 0
	ldr	w0, [x20,60]
	add	x1, x29, 112
	.loc 1 223 0
	add	x21, x25, :lo12:.LC85
	.loc 1 227 0
	add	x23, x23, :lo12:.LC90
	.loc 1 229 0
	add	x25, x20, 200704
	.loc 1 221 0
	bl	VCTRL_STD_Enum2Str
.LVL136:
	.loc 1 222 0
	adrp	x1, .LC96
	mov	x0, x19
	mov	w2, w22
	add	x1, x1, :lo12:.LC96
	bl	seq_printf
.LVL137:
	.loc 1 223 0
	ldr	w3, [x26,2388]
	adrp	x2, .LC97
	mov	x0, x19
	mov	x1, x21
	add	x2, x2, :lo12:.LC97
	bl	seq_printf
.LVL138:
	.loc 1 224 0
	adrp	x1, .LC98
	adrp	x2, .LC99
	mov	x0, x19
	add	x3, x29, 112
	add	x1, x1, :lo12:.LC98
	add	x2, x2, :lo12:.LC99
	bl	seq_printf
.LVL139:
	.loc 1 225 0
	ldrsb	w3, [x20,1]
	adrp	x2, .LC100
	mov	x0, x19
	mov	x1, x21
	add	x2, x2, :lo12:.LC100
	bl	seq_printf
.LVL140:
	.loc 1 226 0
	ldrsb	w3, [x20,57]
	adrp	x2, .LC101
	mov	x0, x19
	mov	x1, x21
	add	x2, x2, :lo12:.LC101
	bl	seq_printf
.LVL141:
	.loc 1 227 0
	ldr	w3, [x20,64]
	adrp	x2, .LC102
	mov	x0, x19
	mov	x1, x23
	add	x2, x2, :lo12:.LC102
	bl	seq_printf
.LVL142:
	.loc 1 228 0
	ldr	w3, [x20,68]
	adrp	x2, .LC103
	mov	x0, x19
	mov	x1, x21
	add	x2, x2, :lo12:.LC103
	bl	seq_printf
.LVL143:
	.loc 1 229 0
	ldr	w3, [x25,3976]
	adrp	x2, .LC104
	mov	x0, x19
	mov	x1, x21
	add	x2, x2, :lo12:.LC104
	bl	seq_printf
.LVL144:
	.loc 1 230 0
	ldr	w3, [x25,3980]
	adrp	x2, .LC105
	mov	x0, x19
	mov	x1, x21
	add	x2, x2, :lo12:.LC105
	bl	seq_printf
.LVL145:
	.loc 1 231 0
	ldr	w3, [x29,100]
	adrp	x2, .LC106
	mov	x0, x19
	mov	x1, x21
	add	x2, x2, :lo12:.LC106
	bl	seq_printf
.LVL146:
	.loc 1 232 0
	ldr	w3, [x29,96]
	adrp	x2, .LC107
	mov	x0, x19
	mov	x1, x21
	add	x2, x2, :lo12:.LC107
	bl	seq_printf
.LVL147:
	.loc 1 233 0
	ldr	w3, [x29,108]
	adrp	x2, .LC108
	mov	x0, x19
	mov	x1, x21
	add	x2, x2, :lo12:.LC108
	bl	seq_printf
.LVL148:
	.loc 1 234 0
	ldr	w3, [x29,104]
	adrp	x2, .LC109
	mov	x0, x19
	mov	x1, x21
	add	x2, x2, :lo12:.LC109
	bl	seq_printf
.LVL149:
	.loc 1 235 0
	ldr	w3, [x27,152]
	adrp	x2, .LC110
	mov	x0, x19
	mov	x1, x23
	add	x2, x2, :lo12:.LC110
	bl	seq_printf
.LVL150:
	.loc 1 236 0
	ldr	w3, [x27,156]
	adrp	x2, .LC111
	mov	x0, x19
	mov	x1, x23
	add	x2, x2, :lo12:.LC111
	bl	seq_printf
.LVL151:
	.loc 1 237 0
	ldr	w3, [x25,3960]
	adrp	x1, .LC112
	adrp	x2, .LC113
	mov	x0, x19
	add	x1, x1, :lo12:.LC112
	add	x2, x2, :lo12:.LC113
	bl	seq_printf
.LVL152:
	.loc 1 238 0
	adrp	x1, .LC79
	mov	x0, x19
	add	x1, x1, :lo12:.LC79
	bl	seq_printf
.LVL153:
	.loc 1 240 0
	b	.L22
.LVL154:
.L48:
	.loc 1 197 0
	adrp	x1, .LC95
	adrp	x2, .LANCHOR0
	add	x1, x1, :lo12:.LC95
	mov	w0, 22
	add	x2, x2, :lo12:.LANCHOR0
	mov	w3, 197
	bl	dprint_linux_kernel
.LVL155:
	.loc 1 200 0
	mov	x0, x21
	add	x1, x29, 96
	bl	GetRawStreamNum
.LVL156:
	.loc 1 202 0
	cbz	w0, .L24
.L49:
	.loc 1 204 0
	adrp	x1, .LC95
	adrp	x2, .LANCHOR0
	add	x1, x1, :lo12:.LC95
	mov	w0, 22
	add	x2, x2, :lo12:.LANCHOR0
	mov	w3, 204
	.loc 1 207 0
	add	x27, x20, 98304
	.loc 1 204 0
	bl	dprint_linux_kernel
.LVL157:
	.loc 1 207 0
	add	x21, x27, 128
	add	x1, x29, 108
	mov	x0, x21
	bl	GetSegStreamSize
.LVL158:
	.loc 1 209 0
	cbz	w0, .L25
.L50:
	.loc 1 211 0
	adrp	x1, .LC95
	adrp	x2, .LANCHOR0
	add	x1, x1, :lo12:.LC95
	mov	w0, 22
	add	x2, x2, :lo12:.LANCHOR0
	mov	w3, 211
	bl	dprint_linux_kernel
.LVL159:
	.loc 1 214 0
	mov	x0, x21
	add	x1, x29, 104
	bl	GetSegStreamNum
.LVL160:
	.loc 1 216 0
	cbz	w0, .L26
.L51:
	.loc 1 218 0
	adrp	x1, .LC95
	adrp	x2, .LANCHOR0
	add	x1, x1, :lo12:.LC95
	add	x2, x2, :lo12:.LANCHOR0
	mov	w3, 218
	mov	w0, 22
	bl	dprint_linux_kernel
.LVL161:
	b	.L26
.LVL162:
.L47:
	.loc 1 241 0
	bl	__stack_chk_fail
.LVL163:
	.cfi_endproc
.LFE2651:
	.size	vfmw_read_proc_scd, .-vfmw_read_proc_scd
	.align	2
	.global	vfmw_read_proc_dec
	.type	vfmw_read_proc_dec, %function
vfmw_read_proc_dec:
.LFB2653:
	.loc 1 292 0
	.cfi_startproc
.LVL164:
	stp	x29, x30, [sp, -192]!
	.cfi_def_cfa_offset 192
	.cfi_offset 29, -192
	.cfi_offset 30, -184
	adrp	x3, __stack_chk_guard
	.loc 1 307 0
	adrp	x1, .LC114
.LVL165:
	.loc 1 292 0
	add	x29, sp, 0
	.cfi_def_cfa_register 29
	stp	x19, x20, [sp,16]
	.cfi_offset 19, -176
	.cfi_offset 20, -168
	.loc 1 307 0
	adrp	x20, g_CurProcChan
	.loc 1 292 0
	ldr	x3, [x3,#:lo12:__stack_chk_guard]
	.loc 1 307 0
	add	x1, x1, :lo12:.LC114
	.loc 1 292 0
	mov	x19, x0
	stp	x21, x22, [sp,32]
	.loc 1 307 0
	ldr	w2, [x20,#:lo12:g_CurProcChan]
	.loc 1 292 0
	stp	x23, x24, [sp,48]
	stp	x25, x26, [sp,64]
	stp	x27, x28, [sp,80]
	.cfi_offset 21, -160
	.cfi_offset 22, -152
	.cfi_offset 23, -144
	.cfi_offset 24, -136
	.cfi_offset 25, -128
	.cfi_offset 26, -120
	.cfi_offset 27, -112
	.cfi_offset 28, -104
	.loc 1 300 0
	str	wzr, [x29,124]
.LVL166:
	.loc 1 292 0
	str	x3, [x29,184]
	.loc 1 300 0
	str	wzr, [x29,128]
.LVL167:
	str	wzr, [x29,132]
.LVL168:
	.loc 1 307 0
	bl	seq_printf
.LVL169:
	.loc 1 311 0
	adrp	x0, s_pFspInst
	.loc 1 309 0
	ldr	w22, [x20,#:lo12:g_CurProcChan]
	.loc 1 311 0
	add	x0, x0, :lo12:s_pFspInst
.LVL170:
	sxtw	x24, w22
.LVL171:
	ldr	x20, [x0,w22,sxtw 3]
.LVL172:
	.loc 1 312 0
	cbz	x20, .L53
	.loc 1 317 0
	adrp	x0, s_pstVfmwChan
	add	x0, x0, :lo12:s_pstVfmwChan
	ldr	x21, [x0,w22,sxtw 3]
.LVL173:
	.loc 1 318 0
	cbz	x21, .L53
	.loc 1 324 0
	adrp	x4, g_ChanCtx
	add	x5, x24, 64
	add	x4, x4, :lo12:g_ChanCtx
	.loc 1 326 0
	mov	w0, w22
	add	x1, x29, 124
	add	x2, x29, 128
	add	x3, x29, 132
	.loc 1 324 0
	ldr	w23, [x4,x5,lsl 2]
	.loc 1 326 0
	bl	VCTRL_GetChanImgNum
.LVL174:
	.loc 1 327 0
	mov	w0, w22
	.loc 1 324 0
	sub	w23, w23, #1
.LVL175:
	.loc 1 327 0
	bl	VCTRL_GetChanVoQue
.LVL176:
	cbz	x0, .L71
	.loc 1 329 0
	ldrh	w26, [x0,4]
.LVL177:
	.loc 1 330 0
	ldrh	w28, [x0,6]
.LVL178:
	.loc 1 331 0
	ldrh	w27, [x0,8]
.LVL179:
.L54:
	.loc 1 334 0
	ldr	w0, [x21,20]
.LVL180:
	add	x1, x29, 136
	bl	VCTRL_STD_Enum2Str
.LVL181:
	.loc 1 336 0
	adrp	x0, .LC85
	.loc 1 335 0
	add	x1, x29, 160
	.loc 1 336 0
	add	x22, x0, :lo12:.LC85
	.loc 1 335 0
	ldr	w0, [x21,304]
	bl	VCTRL_EofState_Enum2Str
.LVL182:
	.loc 1 336 0
	adrp	x2, .LC115
	mov	w3, w23
	mov	x0, x19
	mov	x1, x22
	add	x2, x2, :lo12:.LC115
	.loc 1 340 0
	adrp	x23, .LC98
.LVL183:
	add	x23, x23, :lo12:.LC98
	.loc 1 336 0
	bl	seq_printf
.LVL184:
	.loc 1 337 0
	ldr	w3, [x21,4]
	adrp	x2, .LC116
	mov	x0, x19
	mov	x1, x22
	add	x2, x2, :lo12:.LC116
	bl	seq_printf
.LVL185:
	.loc 1 338 0
	ldr	w3, [x21,8]
	adrp	x2, .LC117
	mov	x0, x19
	mov	x1, x22
	add	x2, x2, :lo12:.LC117
	bl	seq_printf
.LVL186:
	.loc 1 339 0
	ldr	w3, [x21,12]
	adrp	x2, .LC118
	mov	x0, x19
	mov	x1, x22
	add	x2, x2, :lo12:.LC118
	bl	seq_printf
.LVL187:
	.loc 1 340 0
	adrp	x2, .LC119
	mov	x0, x19
	mov	x1, x23
	add	x2, x2, :lo12:.LC119
	add	x3, x29, 136
	bl	seq_printf
.LVL188:
	.loc 1 341 0
	ldr	w3, [x21,28]
	adrp	x2, .LC120
	mov	x0, x19
	mov	x1, x22
	add	x2, x2, :lo12:.LC120
	bl	seq_printf
.LVL189:
	.loc 1 342 0
	adrp	x2, .LC121
	mov	x0, x19
	mov	x1, x23
	add	x2, x2, :lo12:.LC121
	add	x3, x29, 160
	bl	seq_printf
.LVL190:
	.loc 1 343 0
	ldrsb	w3, [x21,38]
	adrp	x2, .LC122
	mov	x0, x19
	mov	x1, x22
	add	x2, x2, :lo12:.LC122
	bl	seq_printf
.LVL191:
	.loc 1 344 0
	ldrsb	w3, [x21,39]
	adrp	x2, .LC123
	mov	x0, x19
	mov	x1, x22
	add	x2, x2, :lo12:.LC123
	bl	seq_printf
.LVL192:
	.loc 1 345 0
	ldr	w3, [x21,48]
	adrp	x2, .LC124
	mov	x0, x19
	mov	x1, x22
	add	x2, x2, :lo12:.LC124
	bl	seq_printf
.LVL193:
	.loc 1 346 0
	ldrsb	w3, [x21,41]
	adrp	x2, .LC125
	mov	x0, x19
	mov	x1, x22
	add	x2, x2, :lo12:.LC125
	bl	seq_printf
.LVL194:
	.loc 1 347 0
	ldr	w3, [x21,60]
	adrp	x2, .LC126
	mov	x0, x19
	mov	x1, x22
	add	x2, x2, :lo12:.LC126
	bl	seq_printf
.LVL195:
	.loc 1 348 0
	ldr	w3, [x21,64]
	adrp	x2, .LC127
	mov	x0, x19
	mov	x1, x22
	add	x2, x2, :lo12:.LC127
	bl	seq_printf
.LVL196:
	.loc 1 350 0
	ldr	w0, [x21,20]
	cmp	w0, 1
	beq	.L86
	.loc 1 357 0
	sub	w1, w0, #10
	cmp	w1, 2
	bls	.L87
	.loc 1 363 0
	cmp	w0, 2
	adrp	x0, g_VfmwChanStat
	str	x0, [x29,104]
	beq	.L88
.L56:
	.loc 1 371 0
	adrp	x1, .LC79
	mov	x0, x19
	add	x23, x1, :lo12:.LC79
	.loc 1 373 0
	adrp	x1, .LC85
	add	x22, x1, :lo12:.LC85
	.loc 1 371 0
	mov	x1, x23
	.loc 1 372 0
	adrp	x25, .LC90
	.loc 1 371 0
	bl	seq_printf
.LVL197:
	.loc 1 372 0
	add	x25, x25, :lo12:.LC90
	ldr	w3, [x21,168]
	adrp	x2, .LC134
	mov	x0, x19
	mov	x1, x25
	add	x2, x2, :lo12:.LC134
	bl	seq_printf
.LVL198:
	.loc 1 373 0
	ldr	w3, [x21,172]
	adrp	x2, .LC135
	mov	x0, x19
	mov	x1, x22
	add	x2, x2, :lo12:.LC135
	bl	seq_printf
.LVL199:
	.loc 1 374 0
	ldr	w3, [x21,192]
	adrp	x2, .LC136
	mov	x0, x19
	mov	x1, x25
	add	x2, x2, :lo12:.LC136
	bl	seq_printf
.LVL200:
	.loc 1 375 0
	ldr	w3, [x21,196]
	adrp	x2, .LC137
	mov	x0, x19
	mov	x1, x22
	add	x2, x2, :lo12:.LC137
	bl	seq_printf
.LVL201:
	.loc 1 376 0
	ldr	w3, [x21,216]
	adrp	x2, .LC138
	mov	x0, x19
	mov	x1, x25
	add	x2, x2, :lo12:.LC138
	bl	seq_printf
.LVL202:
	.loc 1 377 0
	ldr	w3, [x21,220]
	adrp	x2, .LC139
	add	x2, x2, :lo12:.LC139
	mov	x0, x19
	mov	x1, x22
	bl	seq_printf
.LVL203:
	.loc 1 379 0
	mov	x0, x19
	mov	x1, x23
	bl	seq_printf
.LVL204:
	.loc 1 380 0
	ldr	w3, [x29,124]
	adrp	x1, .LC140
	ldr	w4, [x29,128]
	adrp	x2, .LC141
	ldr	w5, [x29,132]
	mov	x0, x19
	add	x1, x1, :lo12:.LC140
	add	x2, x2, :lo12:.LC141
	bl	seq_printf
.LVL205:
	.loc 1 381 0
	adrp	x1, .LC142
	adrp	x2, .LC143
	mov	w4, w28
	mov	w5, w27
	mov	x0, x19
	add	x1, x1, :lo12:.LC142
	add	x2, x2, :lo12:.LC143
	mov	w3, w26
	bl	seq_printf
.LVL206:
	.loc 1 382 0
	ldr	w3, [x21,324]
	adrp	x2, .LC144
	mov	x0, x19
	mov	x1, x22
	add	x2, x2, :lo12:.LC144
	bl	seq_printf
.LVL207:
	.loc 1 383 0
	ldr	w3, [x21,328]
	adrp	x2, .LC145
	mov	x0, x19
	mov	x1, x22
	add	x2, x2, :lo12:.LC145
	bl	seq_printf
.LVL208:
	.loc 1 384 0
	ldr	w3, [x21,296]
	adrp	x2, .LC146
	mov	x0, x19
	mov	x1, x25
	add	x2, x2, :lo12:.LC146
	bl	seq_printf
.LVL209:
	.loc 1 385 0
	ldr	w3, [x21,300]
	adrp	x2, .LC147
	add	x2, x2, :lo12:.LC147
	mov	x0, x19
	mov	x1, x22
	bl	seq_printf
.LVL210:
	.loc 1 386 0
	mov	x0, x19
	mov	x1, x23
	bl	seq_printf
.LVL211:
	.loc 1 389 0
	adrp	x1, .LC148
	mov	x0, x19
	add	x1, x1, :lo12:.LC148
	bl	seq_printf
.LVL212:
	.loc 1 390 0
	ldr	w3, [x20,60]
	adrp	x2, .LC149
	mov	x0, x19
	mov	x1, x22
	add	x2, x2, :lo12:.LC149
	bl	seq_printf
.LVL213:
	.loc 1 391 0
	ldr	w3, [x20,64]
	adrp	x2, .LC150
	mov	x0, x19
	mov	x1, x22
	add	x2, x2, :lo12:.LC150
	bl	seq_printf
.LVL214:
	.loc 1 392 0
	ldr	w3, [x21,288]
	adrp	x2, .LC151
	mov	x0, x19
	mov	x1, x22
	add	x2, x2, :lo12:.LC151
	bl	seq_printf
.LVL215:
	.loc 1 393 0
	ldr	w3, [x21,292]
	adrp	x2, .LC152
	mov	x0, x19
	mov	x1, x22
	add	x2, x2, :lo12:.LC152
	bl	seq_printf
.LVL216:
	.loc 1 394 0
	ldrsb	w3, [x20,57]
	adrp	x2, .LC153
	mov	x0, x19
	mov	x1, x22
	add	x2, x2, :lo12:.LC153
	bl	seq_printf
.LVL217:
	.loc 1 395 0
	ldrsb	w3, [x20,9]
	adrp	x2, .LC154
	mov	x0, x19
	mov	x1, x22
	add	x2, x2, :lo12:.LC154
	bl	seq_printf
.LVL218:
	.loc 1 396 0
	ldrsb	w3, [x20,13]
	adrp	x2, .LC155
	mov	x0, x19
	mov	x1, x22
	add	x2, x2, :lo12:.LC155
	bl	seq_printf
.LVL219:
	.loc 1 397 0
	ldrsb	w3, [x20,10]
	adrp	x2, .LC156
	mov	x0, x19
	mov	x1, x22
	add	x2, x2, :lo12:.LC156
	bl	seq_printf
.LVL220:
	.loc 1 399 0 discriminator 1
	ldrsb	w0, [x20,10]
	cmp	w0, wzr
	ble	.L89
	add	x28, x20, 8192
.LVL221:
	adrp	x25, .LC158
	add	x28, x28, 2680
	mov	w27, 0
.LVL222:
	.loc 1 402 0
	add	x22, x25, :lo12:.LC158
.L60:
	ldrsb	w2, [x28]
	mov	x0, x19
	ldrsb	w3, [x28,1]
	mov	x1, x22
	.loc 1 399 0 discriminator 2
	add	w27, w27, 1
	.loc 1 402 0
	bl	seq_printf
.LVL223:
	.loc 1 399 0 discriminator 1
	ldrsb	w0, [x20,10]
	cmp	w0, w27
	ble	.L63
	.loc 1 401 0 discriminator 1
	mov	w0, 34953
	movk	w0, 0x8888, lsl 16
	smull	x0, w27, w0
	lsr	x0, x0, 32
	add	w0, w27, w0
	asr	w0, w0, 3
	sub	w0, w0, w27, asr 31
	lsl	w1, w0, 4
	sub	w0, w1, w0
	cmp	w27, w0
	beq	.L90
	add	x28, x28, 40
	b	.L60
.LVL224:
.L94:
	.loc 1 412 0
	adrp	x1, .LC79
	mov	x0, x19
	add	x1, x1, :lo12:.LC79
	bl	seq_printf
.LVL225:
	.loc 1 415 0
	ldr	w0, [x21,1104]
	cmp	w0, 1
	bne	.L67
	.loc 1 417 0
	adrp	x1, .LC159
	mov	x0, x19
	add	x1, x1, :lo12:.LC159
	.loc 1 420 0
	add	x23, x21, 217088
	adrp	x22, .LC160
	.loc 1 417 0
	bl	seq_printf
.LVL226:
	.loc 1 420 0
	add	x22, x22, :lo12:.LC160
	.loc 1 418 0
	ldr	w0, [x21,1112]
	.loc 1 420 0
	adrp	x2, .LC161
	mov	x1, x22
	ldr	w3, [x23,3576]
	.loc 1 418 0
	cmp	w0, 1
	.loc 1 420 0
	add	x2, x2, :lo12:.LC161
	mov	x0, x19
	.loc 1 418 0
	beq	.L91
	.loc 1 428 0
	bl	seq_printf
.LVL227:
	.loc 1 429 0
	adrp	x2, .LC162
	ldr	w3, [x23,3580]
	mov	x0, x19
	mov	x1, x22
	add	x2, x2, :lo12:.LC162
.L84:
	bl	seq_printf
.LVL228:
	.loc 1 431 0
	add	x21, x21, 221184
.LVL229:
	.loc 1 430 0
	adrp	x3, g_u32DFSMaxAllocTime
	adrp	x2, .LC164
	mov	x0, x19
	mov	x1, x22
	add	x2, x2, :lo12:.LC164
	ldr	w3, [x3,#:lo12:g_u32DFSMaxAllocTime]
	bl	seq_printf
.LVL230:
	.loc 1 431 0
	adrp	x1, .LC165
	adrp	x2, .LC166
	ldr	w3, [x23,3588]
	mov	x0, x19
	ldr	w4, [x21,1828]
	add	x1, x1, :lo12:.LC165
	add	x2, x2, :lo12:.LC166
	bl	seq_printf
.LVL231:
.L67:
	.loc 1 434 0
	adrp	x1, .LC79
	mov	x0, x19
	add	x1, x1, :lo12:.LC79
	.loc 1 441 0
	mov	w23, 52429
	movk	w23, 0xcccc, lsl 16
	.loc 1 439 0
	mov	w21, 0
.LVL232:
	.loc 1 434 0
	bl	seq_printf
.LVL233:
	.loc 1 436 0
	adrp	x1, .LC167
	mov	x0, x19
	add	x1, x1, :lo12:.LC167
	bl	seq_printf
.LVL234:
	.loc 1 441 0
	lsl	x6, x24, 4
	ldr	x0, [x29,104]
	add	x6, x6, x24, lsl 2
	.loc 1 440 0
	adrp	x2, g_VfmwGlobalStat
	.loc 1 441 0
	add	x0, x0, :lo12:g_VfmwChanStat
	.loc 1 440 0
	add	x2, x2, :lo12:g_VfmwGlobalStat
	.loc 1 441 0
	add	x0, x0, x6, lsl 4
	.loc 1 440 0
	mov	w1, 52429
	.loc 1 441 0
	sub	x0, x0, x6
	.loc 1 440 0
	movk	w1, 0xcccc, lsl 16
	ldr	w5, [x2,12]
	.loc 1 441 0
	ldr	w0, [x0,8]
	.loc 1 440 0
	umull	x6, w5, w1
	.loc 1 441 0
	umull	x23, w0, w23
	.loc 1 440 0
	lsr	x6, x6, 32
	.loc 1 441 0
	lsr	x23, x23, 32
	.loc 1 440 0
	lsr	w4, w6, 3
.LVL235:
	.loc 1 441 0
	lsr	w23, w23, 3
.LVL236:
	.loc 1 443 0
	cbz	w23, .L69
	.loc 1 443 0 is_stmt 0 discriminator 1
	ldr	w1, [x20,60]
	add	w0, w1, 15
	cmp	w0, 30
	bls	.L69
	.loc 1 443 0 discriminator 2
	ldr	w6, [x20,64]
	add	w3, w6, 15
	cmp	w3, 30
	bls	.L69
	.loc 1 445 0 is_stmt 1
	ldr	w2, [x2,24]
	mov	w21, 1000
.LVL237:
	cmp	w1, wzr
	csel	w20, w0, w1, lt
.LVL238:
	cmp	w6, wzr
	mul	w21, w2, w21
	asr	w20, w20, 4
	csel	w3, w3, w6, lt
	asr	w3, w3, 4
	udiv	w21, w21, w23
	udiv	w21, w21, w20
	udiv	w21, w21, w3
.LVL239:
.L69:
	.loc 1 448 0
	mov	w2, 52429
	adrp	x1, .LC168
	movk	w2, 0xcccc, lsl 16
	mov	x0, x19
	add	x1, x1, :lo12:.LC168
	mov	w3, 0
	umull	x6, w5, w2
	adrp	x2, .LC169
	.loc 1 449 0
	mov	w22, 52429
	.loc 1 448 0
	lsr	x6, x6, 32
	add	x2, x2, :lo12:.LC169
	lsr	w6, w6, 3
	.loc 1 449 0
	movk	w22, 0xcccc, lsl 16
	.loc 1 448 0
	lsl	w7, w6, 3
	add	w6, w7, w6, lsl 1
	sub	w5, w5, w6
	bl	seq_printf
.LVL240:
	.loc 1 449 0
	lsl	x0, x24, 4
	adrp	x1, .LC170
	add	x24, x0, x24, lsl 2
.LVL241:
	ldr	x0, [x29,104]
	adrp	x2, .LC171
	add	x1, x1, :lo12:.LC170
	add	x0, x0, :lo12:g_VfmwChanStat
	add	x2, x2, :lo12:.LC171
	add	x0, x0, x24, lsl 4
	mov	w3, w23
	sub	x24, x0, x24
	mov	x0, x19
	ldr	w4, [x24,8]
	umull	x5, w4, w22
	lsr	x5, x5, 32
	lsr	w5, w5, 3
	lsl	w6, w5, 3
	add	w5, w6, w5, lsl 1
	sub	w4, w4, w5
	bl	seq_printf
.LVL242:
	.loc 1 450 0
	adrp	x1, .LC172
	adrp	x2, .LC173
	add	x1, x1, :lo12:.LC172
	mov	x0, x19
	add	x2, x2, :lo12:.LC173
	mov	w3, w21
	bl	seq_printf
.LVL243:
	.loc 1 452 0
	adrp	x1, .LC79
	mov	x0, x19
	add	x1, x1, :lo12:.LC79
	bl	seq_printf
.LVL244:
.L53:
	.loc 1 455 0
	adrp	x1, __stack_chk_guard
	ldr	x2, [x29,184]
	mov	w0, 0
	ldr	x1, [x1,#:lo12:__stack_chk_guard]
	cmp	x2, x1
	bne	.L92
	ldp	x19, x20, [sp,16]
	.cfi_remember_state
	.cfi_restore 20
	.cfi_restore 19
.LVL245:
	ldp	x21, x22, [sp,32]
	.cfi_restore 22
	.cfi_restore 21
.LVL246:
	ldp	x23, x24, [sp,48]
	.cfi_restore 24
	.cfi_restore 23
.LVL247:
	ldp	x25, x26, [sp,64]
	.cfi_restore 26
	.cfi_restore 25
	ldp	x27, x28, [sp,80]
	.cfi_restore 28
	.cfi_restore 27
	ldp	x29, x30, [sp], 192
	.cfi_restore 30
	.cfi_restore 29
	.cfi_def_cfa 31, 0
	ret
.LVL248:
.L90:
	.cfi_restore_state
	.loc 1 401 0 discriminator 2
	mov	x0, x19
	mov	x1, x23
	add	x28, x28, 40
	bl	seq_printf
.LVL249:
	b	.L60
.LVL250:
.L89:
	adrp	x25, .LC158
.L63:
	.loc 1 404 0
	adrp	x0, .LC79
	add	x28, x20, 80
.LVL251:
	add	x22, x0, :lo12:.LC79
	mov	x0, x19
	mov	x1, x22
	.loc 1 406 0
	mov	w26, 1
.LVL252:
	mov	w23, 0
	.loc 1 410 0
	add	x27, x25, :lo12:.LC158
.LVL253:
	.loc 1 404 0
	bl	seq_printf
.LVL254:
	.loc 1 406 0
	adrp	x1, .LC85
	adrp	x2, .LC157
	mov	x0, x19
	add	x1, x1, :lo12:.LC85
	add	x2, x2, :lo12:.LC157
	mov	w3, 32
	bl	seq_printf
.LVL255:
.L59:
	.loc 1 409 0
	cbz	w23, .L64
	.loc 1 409 0 is_stmt 0 discriminator 1
	mov	w25, 34953
	movk	w25, 0x8888, lsl 16
	smull	x25, w23, w25
	lsr	x25, x25, 32
	add	w25, w23, w25
	asr	w25, w25, 3
	sub	w25, w25, w23, asr 31
	lsl	w0, w25, 4
	sub	w25, w0, w25
	cmp	w23, w25
	beq	.L93
.L65:
	.loc 1 410 0 is_stmt 1
	ldrsb	w2, [x28]
	mov	x0, x19
	ldrsb	w3, [x28,1]
	mov	x1, x27
	bl	seq_printf
.LVL256:
	.loc 1 407 0 discriminator 1
	cmp	w26, 32
	beq	.L94
.L66:
	add	w23, w23, 1
	add	w26, w26, 1
	add	x28, x28, 336
	b	.L59
.L93:
	.loc 1 409 0 discriminator 2
	mov	x0, x19
	mov	x1, x22
	bl	seq_printf
.LVL257:
	b	.L65
.LVL258:
.L87:
	.loc 1 359 0
	ldr	w3, [x21,96]
	adrp	x2, .LC130
	adrp	x4, g_VfmwChanStat
	mov	x0, x19
	mov	x1, x22
	add	x2, x2, :lo12:.LC130
	str	x4, [x29,104]
	bl	seq_printf
.LVL259:
	b	.L56
.LVL260:
.L91:
	.loc 1 420 0
	bl	seq_printf
.LVL261:
	.loc 1 421 0
	ldr	w3, [x23,3580]
	adrp	x2, .LC162
	mov	x0, x19
	mov	x1, x22
	add	x2, x2, :lo12:.LC162
	bl	seq_printf
.LVL262:
	.loc 1 422 0
	adrp	x2, .LC163
	ldr	w3, [x23,3584]
	mov	x0, x19
	mov	x1, x22
	add	x2, x2, :lo12:.LC163
	b	.L84
.LVL263:
.L71:
	.loc 1 301 0
	mov	w27, 0
.LVL264:
	mov	w28, 0
.LVL265:
	mov	w26, 0
.LVL266:
	b	.L54
.LVL267:
.L86:
	adrp	x3, g_VfmwChanStat
	str	x3, [x29,104]
	.loc 1 352 0
	adrp	x3, USE_FF_APT_EN
	adrp	x2, .LC6
	mov	x0, x19
	mov	x1, x22
	add	x2, x2, :lo12:.LC6
	ldr	w3, [x3,#:lo12:USE_FF_APT_EN]
	bl	seq_printf
.LVL268:
	.loc 1 353 0
	ldr	w3, [x21,96]
	adrp	x2, .LC128
	mov	x0, x19
	mov	x1, x22
	add	x2, x2, :lo12:.LC128
	bl	seq_printf
.LVL269:
	.loc 1 354 0
	ldr	w3, [x21,100]
	adrp	x2, .LC129
	mov	x0, x19
	mov	x1, x22
	add	x2, x2, :lo12:.LC129
	bl	seq_printf
.LVL270:
	b	.L56
.L88:
	.loc 1 365 0
	lsl	x23, x24, 4
	add	x3, x0, :lo12:g_VfmwChanStat
	add	x23, x23, x24, lsl 2
	adrp	x2, .LC131
	mov	x0, x19
	mov	x1, x22
	add	x3, x3, x23, lsl 4
	add	x2, x2, :lo12:.LC131
	sub	x23, x3, x23
	ldr	w3, [x23,12]
	bl	seq_printf
.LVL271:
	.loc 1 366 0
	ldr	w3, [x23,16]
	adrp	x2, .LC132
	mov	x0, x19
	mov	x1, x22
	add	x2, x2, :lo12:.LC132
	bl	seq_printf
.LVL272:
	.loc 1 367 0
	add	x3, x21, 221184
	adrp	x2, .LC133
	add	x3, x3, 1840
	mov	x0, x19
	add	x3, x3, 12288
	mov	x1, x22
	add	x2, x2, :lo12:.LC133
	ldrb	w3, [x3,3592]
	and	w3, w3, 1
	bl	seq_printf
.LVL273:
	b	.L56
.LVL274:
.L64:
	.loc 1 410 0
	ldrsb	w2, [x28]
	mov	x0, x19
	ldrsb	w3, [x28,1]
	mov	x1, x27
	bl	seq_printf
.LVL275:
	b	.L66
.LVL276:
.L92:
	.loc 1 455 0
	bl	__stack_chk_fail
.LVL277:
	.cfi_endproc
.LFE2653:
	.size	vfmw_read_proc_dec, .-vfmw_read_proc_dec
	.align	2
	.global	vfmw_proc_open
	.type	vfmw_proc_open, %function
vfmw_proc_open:
.LFB2656:
	.loc 1 682 0
	.cfi_startproc
.LVL278:
	stp	x29, x30, [sp, -32]!
	.cfi_def_cfa_offset 32
	.cfi_offset 29, -32
	.cfi_offset 30, -24
	add	x29, sp, 0
	.cfi_def_cfa_register 29
	.loc 1 682 0
	str	x1, [x29,24]
	.loc 1 688 0
	bl	PDE_DATA
.LVL279:
	mov	x2, x0
.LVL280:
	.loc 1 691 0
	cbz	x0, .L98
	.loc 1 696 0
	ldr	x3, [x0,16]
	cbz	x3, .L98
	.loc 1 698 0
	ldr	x1, [x29,24]
.LVL281:
	mov	x0, x1
	mov	x1, x3
.LVL282:
	bl	single_open
.LVL283:
.L96:
	.loc 1 702 0
	ldp	x29, x30, [sp], 32
	.cfi_remember_state
	.cfi_restore 30
	.cfi_restore 29
	.cfi_def_cfa 31, 0
	ret
.LVL284:
.L98:
	.cfi_restore_state
	.loc 1 693 0
	mov	w0, -38
.LVL285:
	b	.L96
	.cfi_endproc
.LFE2656:
	.size	vfmw_proc_open, .-vfmw_proc_open
	.align	2
	.global	str2val
	.type	str2val, %function
str2val:
.LFB2654:
	.loc 1 479 0
	.cfi_startproc
.LVL286:
	.loc 1 484 0
	ldrb	w2, [x0]
	cmp	w2, 48
	beq	.L111
	.loc 1 492 0
	mov	w4, 10
.LVL287:
	.loc 1 491 0
	mov	w3, 0
.LVL288:
.L100:
	mov	w5, 0
.LVL289:
	b	.L106
.L102:
	.loc 1 506 0
	sub	w2, w2, #48
	uxtb	w6, w2
	cmp	w6, 9
	bhi	.L109
.LVL290:
.L104:
	.loc 1 495 0
	add	w3, w3, 1
	.loc 1 495 0 is_stmt 0 discriminator 1
	cmp	w3, 10
	.loc 1 515 0 is_stmt 1
	madd	w5, w5, w4, w2
	.loc 1 495 0 discriminator 1
	beq	.L101
.L106:
	.loc 1 497 0
	ldrb	w2, [x0,w3,uxtw]
.LVL291:
	cmp	w2, 31
	bls	.L101
	.loc 1 498 0
	cmp	w4, 16
	bne	.L102
	.loc 1 498 0 is_stmt 0 discriminator 1
	cmp	w2, 96
	bls	.L103
	.loc 1 498 0 discriminator 2
	cmp	w2, 102
	bhi	.L102
	.loc 1 495 0 is_stmt 1
	add	w3, w3, 1
	.loc 1 500 0
	sub	w2, w2, #87
.LVL292:
	.loc 1 495 0 discriminator 1
	cmp	w3, 10
	.loc 1 515 0
	madd	w5, w5, w4, w2
	.loc 1 495 0 discriminator 1
	bne	.L106
.L101:
	.loc 1 518 0
	str	w5, [x1]
	.loc 1 520 0
	mov	w0, 0
.LVL293:
	.loc 1 521 0
	ret
.LVL294:
.L103:
	.loc 1 502 0 discriminator 1
	cmp	w2, 64
	bls	.L102
	.loc 1 502 0 is_stmt 0 discriminator 2
	cmp	w2, 70
	bhi	.L102
	.loc 1 504 0 is_stmt 1
	sub	w2, w2, #55
.LVL295:
	b	.L104
.LVL296:
.L109:
	.loc 1 512 0
	mov	w0, -1
.LVL297:
	.loc 1 521 0
	ret
.LVL298:
.L111:
	.loc 1 484 0 discriminator 1
	ldrb	w3, [x0,1]
	.loc 1 487 0
	mov	w4, 16
	mov	w2, 10
	.loc 1 484 0 discriminator 1
	and	w3, w3, -33
	uxtb	w3, w3
	.loc 1 487 0
	cmp	w3, 88
	csel	w4, w2, w4, ne
.LVL299:
	cmp	w3, 88
	mov	w3, 2
	csel	w3, wzr, w3, ne
.LVL300:
	b	.L100
	.cfi_endproc
.LFE2654:
	.size	str2val, .-str2val
	.align	2
	.global	vfmw_write_proc
	.type	vfmw_write_proc, %function
vfmw_write_proc:
.LFB2655:
	.loc 1 528 0
	.cfi_startproc
.LVL301:
	stp	x29, x30, [sp, -144]!
	.cfi_def_cfa_offset 144
	.cfi_offset 29, -144
	.cfi_offset 30, -136
	.loc 1 536 0
	cmp	x2, 255
	.loc 1 528 0
	add	x29, sp, 0
	.cfi_def_cfa_register 29
	stp	x21, x22, [sp,32]
	.cfi_offset 21, -112
	.cfi_offset 22, -104
	adrp	x22, __stack_chk_guard
	str	x25, [sp,64]
	stp	x19, x20, [sp,16]
	stp	x23, x24, [sp,48]
	.cfi_offset 25, -80
	.cfi_offset 19, -128
	.cfi_offset 20, -120
	.cfi_offset 23, -96
	.cfi_offset 24, -88
	.loc 1 528 0
	ldr	x0, [x22,#:lo12:__stack_chk_guard]
.LVL302:
	mov	x23, x2
	.loc 1 534 0
	str	wzr, [x29,100]
.LVL303:
	.loc 1 528 0
	mov	x20, x1
	.loc 1 534 0
	str	wzr, [x29,96]
.LVL304:
	.loc 1 528 0
	str	x0, [x29,136]
	.loc 1 534 0
	str	wzr, [x29,92]
.LVL305:
	str	wzr, [x29,88]
.LVL306:
	.loc 1 536 0
	bhi	.L217
	.loc 1 542 0
	adrp	x21, .LANCHOR1
	mov	w1, 0
	add	x19, x21, :lo12:.LANCHOR1
	mov	x2, 256
	mov	x0, x19
	bl	memset
.LVL307:
.LBB20:
.LBB21:
.LBB22:
.LBB23:
	.file 2 "/mnt/disk/jenkins/ci/workspace/chipset_release_960_xloader/opensource/component_code/vendor/huawei/extra/build/build_script/kirin_kernel_release/kernel/arch/arm64/include/asm/uaccess.h"
	.loc 2 115 0
	mov	x1, x20
.LVL308:
.LBB24:
.LBB25:
	.file 3 "/mnt/disk/jenkins/ci/workspace/chipset_release_960_xloader/opensource/component_code/vendor/huawei/extra/build/build_script/kirin_kernel_release/kernel/arch/arm64/include/asm/current.h"
	.loc 3 20 0
#APP
// 20 "/mnt/disk/jenkins/ci/workspace/chipset_release_960_xloader/opensource/component_code/vendor/huawei/extra/build/build_script/kirin_kernel_release/kernel/arch/arm64/include/asm/current.h" 1
	mrs x0, sp_el0
// 0 "" 2
.LVL309:
#NO_APP
.LBE25:
.LBE24:
	.loc 2 112 0
	ldr	x0, [x0,8]
.LVL310:
	.loc 2 115 0
#APP
// 115 "/mnt/disk/jenkins/ci/workspace/chipset_release_960_xloader/opensource/component_code/vendor/huawei/extra/build/build_script/kirin_kernel_release/kernel/arch/arm64/include/asm/uaccess.h" 1
		adds	x1, x1, x23
	csel	x0, xzr, x0, hi
	csinv	x1, x1, xzr, cc
	sbcs	xzr, x1, x0
	cset	x1, ls

// 0 "" 2
#NO_APP
.LBE23:
.LBE22:
	.loc 2 445 0
	mov	x0, x23
.LVL311:
	cbnz	x1, .L218
.L115:
	.loc 2 449 0
	cbnz	x0, .L219
.LBE21:
.LBE20:
	.loc 1 550 0
	add	x2, x21, :lo12:.LANCHOR1
	.loc 1 553 0
	mov	w19, 0
	.loc 1 554 0
	mov	w20, 0
.LVL312:
	.loc 1 550 0
	strb	wzr, [x2,x23]
	.loc 1 556 0 discriminator 1
	cbz	x23, .L124
	mov	w19, w23
	mov	w20, 0
	mov	w0, 0
	.loc 1 560 0 discriminator 1
	mov	x4, x2
	b	.L123
.LVL313:
.L220:
	.loc 1 560 0 is_stmt 0
	bls	.L121
	.loc 1 560 0 discriminator 1
	strb	w1, [x4,256]
	mov	w20, 1
.L167:
	.loc 1 562 0 is_stmt 1 discriminator 1
	cmp	w1, 32
	beq	.L122
.L119:
	.loc 1 556 0
	add	w0, w0, 1
	add	x2, x2, 1
	.loc 1 556 0 is_stmt 0 discriminator 1
	cmp	w0, w19
	beq	.L124
.LVL314:
.L123:
	.loc 1 558 0 is_stmt 1 discriminator 1
	ldrb	w1, [x2]
.LVL315:
	.loc 1 560 0
	cmp	w1, 32
	.loc 1 558 0
	cbz	w20, .L220
	.loc 1 560 0
	bls	.L167
	.loc 1 560 0 is_stmt 0 discriminator 1
	add	x3, x4, 256
	strb	w1, [x3,w20,sxtw]
	.loc 1 562 0 is_stmt 1
	adds	w20, w20, 1
	bne	.L119
.L121:
	.loc 1 556 0
	add	w0, w0, 1
	.loc 1 560 0 discriminator 1
	mov	w20, 0
	.loc 1 556 0 discriminator 1
	cmp	w0, w19
	add	x2, x2, 1
	bne	.L123
.LVL316:
.L124:
	.loc 1 565 0
	add	x2, x21, :lo12:.LANCHOR1
	.loc 1 567 0
	add	x1, x29, 88
.LVL317:
	.loc 1 565 0
	add	x2, x2, 256
	.loc 1 567 0
	mov	x0, x2
	.loc 1 565 0
	strb	wzr, [x2,w20,sxtw]
	.loc 1 567 0
	bl	str2val
.LVL318:
	cbnz	w0, .L134
	mov	w2, 0
.L127:
	.loc 1 585 0
	add	x25, x21, :lo12:.LANCHOR1
	.loc 1 587 0
	add	x1, x29, 92
	.loc 1 585 0
	add	x24, x25, 256
	.loc 1 587 0
	mov	x0, x24
	.loc 1 585 0
	strb	wzr, [x24,w2,sxtw]
	.loc 1 587 0
	bl	str2val
.LVL319:
	cbnz	w0, .L134
	.loc 1 594 0
	ldr	w2, [x29,88]
	sub	w0, w2, #512
	cmp	w0, 255
	bhi	.L135
	.loc 1 596 0
	cmp	w2, 516
	sxtw	x20, w19
	beq	.L221
.L136:
	.loc 1 639 0 discriminator 1
	cmp	x23, x20
	mov	w0, 0
	.loc 1 641 0 discriminator 1
	add	x1, x21, :lo12:.LANCHOR1
	.loc 1 639 0 discriminator 1
	bls	.L140
.L190:
	.loc 1 641 0
	cbnz	w0, .L155
	.loc 1 641 0 is_stmt 0 discriminator 1
	ldrb	w0, [x1,x20]
	.loc 1 643 0 is_stmt 1
	cmp	w0, 32
	bhi	.L156
.L174:
	.loc 1 639 0 discriminator 1
	mov	w0, 0
.L157:
	.loc 1 639 0 is_stmt 0
	add	w19, w19, 1
	.loc 1 639 0 discriminator 1
	sxtw	x20, w19
	cmp	x23, x20
	bhi	.L190
	.loc 1 648 0 is_stmt 1
	add	x1, x21, :lo12:.LANCHOR1
	add	x2, x1, 256
	strb	wzr, [x2,w0,sxtw]
	.loc 1 650 0
	ldrb	w1, [x1,256]
	cmp	w1, 47
	beq	.L222
.L209:
	ldr	w2, [x29,88]
.L135:
	.loc 1 671 0
	ldr	w3, [x29,92]
	adrp	x1, .LC179
	add	x1, x1, :lo12:.LC179
	mov	w0, 32
	bl	dprint_linux_kernel
.LVL320:
	.loc 1 673 0
	ldr	w2, [x29,92]
	.loc 1 676 0
	add	x1, x29, 104
.LVL321:
	.loc 1 673 0
	str	w2, [x29,104]
	.loc 1 674 0
	ldr	w2, [x29,96]
.LVL322:
	str	w2, [x29,108]
	.loc 1 676 0
	ldr	w0, [x29,88]
	.loc 1 675 0
	ldr	w2, [x29,100]
.LVL323:
	str	w2, [x29,112]
	.loc 1 676 0
	bl	VCTRL_SetDbgOption
.LVL324:
	.loc 1 678 0
	mov	w0, w23
.LVL325:
.L114:
	.loc 1 679 0
	ldr	x2, [x29,136]
	ldr	x1, [x22,#:lo12:__stack_chk_guard]
	cmp	x2, x1
	bne	.L223
	ldp	x19, x20, [sp,16]
	.cfi_remember_state
	.cfi_restore 20
	.cfi_restore 19
.LVL326:
	ldp	x21, x22, [sp,32]
	.cfi_restore 22
	.cfi_restore 21
	ldp	x23, x24, [sp,48]
	.cfi_restore 24
	.cfi_restore 23
.LVL327:
	ldr	x25, [sp,64]
	.cfi_restore 25
	ldp	x29, x30, [sp], 144
	.cfi_restore 30
	.cfi_restore 29
	.cfi_def_cfa 31, 0
	ret
.LVL328:
.L122:
	.cfi_restore_state
	.loc 1 565 0
	add	x24, x21, :lo12:.LANCHOR1
	mov	w19, w0
	add	x2, x24, 256
	.loc 1 567 0
	add	x1, x29, 88
	mov	x0, x2
	.loc 1 565 0
	strb	wzr, [x2,w20,sxtw]
	.loc 1 567 0
	bl	str2val
.LVL329:
	cbnz	w0, .L134
	.loc 1 576 0 discriminator 1
	sxtw	x20, w19
	mov	w2, 0
	cmp	x23, x20
	.loc 1 578 0 discriminator 1
	mov	x1, x24
	.loc 1 576 0 discriminator 1
	bhi	.L192
	b	.L127
.L224:
	.loc 1 580 0
	bls	.L132
	.loc 1 580 0 is_stmt 0 discriminator 1
	strb	w0, [x1,256]
	mov	w2, 1
.L169:
	.loc 1 582 0 is_stmt 1 discriminator 1
	cmp	w0, 32
	beq	.L127
.L130:
	.loc 1 576 0
	add	w19, w19, 1
	.loc 1 576 0 is_stmt 0 discriminator 1
	sxtw	x20, w19
	cmp	x23, x20
	bls	.L127
.L192:
	.loc 1 578 0 is_stmt 1 discriminator 1
	ldrb	w0, [x1,x20]
	.loc 1 580 0
	cmp	w0, 32
	.loc 1 578 0
	cbz	w2, .L224
	.loc 1 580 0
	bls	.L169
	.loc 1 580 0 is_stmt 0 discriminator 1
	add	x3, x1, 256
	strb	w0, [x3,w2,sxtw]
	.loc 1 582 0 is_stmt 1
	adds	w2, w2, 1
	bne	.L130
.L132:
	.loc 1 580 0 discriminator 1
	mov	w2, 0
	b	.L130
.L156:
	.loc 1 643 0 discriminator 1
	strb	w0, [x1,256]
	mov	w0, 1
	b	.L157
.L155:
	.loc 1 643 0 is_stmt 0
	ldrb	w2, [x1,x20]
	cmp	w2, 32
	bhi	.L158
	.loc 1 648 0 is_stmt 1
	add	x1, x21, :lo12:.LANCHOR1
	add	x2, x1, 256
	strb	wzr, [x2,w0,sxtw]
	.loc 1 650 0
	ldrb	w1, [x1,256]
	cmp	w1, 47
	bne	.L209
	b	.L164
.L158:
	.loc 1 643 0 discriminator 1
	add	x3, x1, 256
	strb	w2, [x3,w0,sxtw]
	.loc 1 645 0
	adds	w0, w0, 1
	bne	.L157
	b	.L174
.LVL330:
.L218:
.LBB30:
.LBB28:
.LBB26:
.LBB27:
	.file 4 "/mnt/disk/jenkins/ci/workspace/chipset_release_960_xloader/opensource/component_code/vendor/huawei/extra/build/build_script/kirin_kernel_release/kernel/include/linux/thread_info.h"
	.loc 4 91 0
	mov	x0, x19
.LVL331:
	mov	x1, x23
.LVL332:
	mov	w2, 0
	bl	__check_object_size
.LVL333:
.LBE27:
.LBE26:
	.loc 2 447 0
	mov	x0, x19
	mov	x1, x20
	mov	x2, x23
	bl	__arch_copy_from_user
.LVL334:
	b	.L115
.LVL335:
.L221:
.LBE28:
.LBE30:
	.loc 1 600 0 discriminator 1
	cmp	x23, x20
	mov	w2, 0
	.loc 1 602 0 discriminator 1
	mov	x0, x25
	.loc 1 600 0 discriminator 1
	bls	.L225
.L191:
	.loc 1 602 0 discriminator 1
	ldrb	w1, [x0,x20]
	.loc 1 604 0
	cmp	w1, 32
	.loc 1 602 0
	cbnz	w2, .L141
	.loc 1 604 0
	bhi	.L142
.L172:
	.loc 1 600 0 discriminator 1
	mov	w2, 0
.L143:
	.loc 1 600 0 is_stmt 0
	add	w19, w19, 1
	.loc 1 600 0 discriminator 1
	sxtw	x20, w19
	cmp	x23, x20
	bhi	.L191
	.loc 1 609 0 is_stmt 1
	add	x20, x21, :lo12:.LANCHOR1
	.loc 1 611 0
	add	x1, x29, 96
	.loc 1 609 0
	add	x19, x20, 256
	.loc 1 611 0
	mov	x0, x19
	.loc 1 609 0
	strb	wzr, [x19,w2,sxtw]
	.loc 1 611 0
	bl	str2val
.LVL336:
	cbnz	w0, .L134
	.loc 1 630 0
	mov	x0, x19
	add	x1, x29, 100
	.loc 1 628 0
	strb	wzr, [x20,256]
	.loc 1 630 0
	bl	str2val
.LVL337:
	cbnz	w0, .L134
.L140:
	.loc 1 648 0
	add	x21, x21, :lo12:.LANCHOR1
	ldr	w2, [x29,88]
	strb	wzr, [x21,256]
	b	.L135
.L142:
	.loc 1 604 0 discriminator 1
	strb	w1, [x0,256]
	mov	w2, 1
	b	.L143
.L222:
	.loc 1 652 0
	cbz	w0, .L162
.L164:
	.loc 1 654 0
	sub	w0, w0, #1
	add	x1, x21, :lo12:.LANCHOR1
	add	x1, x1, 256
	sxtw	x0, w0
	ldrb	w2, [x1,x0]
	cmp	w2, 47
	beq	.L226
.L163:
	.loc 1 659 0
	add	x21, x21, :lo12:.LANCHOR1
	adrp	x1, .LC177
	add	x21, x21, 256
	add	x1, x1, :lo12:.LC177
	mov	x2, x21
	mov	w0, 32
	.loc 1 660 0
	adrp	x20, s_VfmwSavePath
	.loc 1 659 0
	bl	dprint_linux_kernel
.LVL338:
	.loc 1 660 0
	add	x20, x20, :lo12:s_VfmwSavePath
	mov	x2, 64
	mov	x1, x21
	mov	x0, x20
	bl	strncpy
.LVL339:
	.loc 1 661 0
	strb	wzr, [x20,63]
	ldr	w2, [x29,88]
	b	.L135
.L141:
	.loc 1 604 0
	bhi	.L144
	.loc 1 609 0
	add	x24, x21, :lo12:.LANCHOR1
	.loc 1 611 0
	add	x1, x29, 96
	.loc 1 609 0
	add	x3, x24, 256
	.loc 1 611 0
	mov	x0, x3
	.loc 1 609 0
	strb	wzr, [x3,w2,sxtw]
	.loc 1 611 0
	bl	str2val
.LVL340:
	cbnz	w0, .L134
	.loc 1 619 0 discriminator 1
	cmp	x23, x20
	mov	w2, 0
	bls	.L148
	.loc 1 623 0
	mov	x0, x24
.L154:
	.loc 1 621 0 discriminator 1
	ldrb	w1, [x0,x20]
	.loc 1 623 0
	cmp	w1, 32
	.loc 1 621 0
	cbnz	w2, .L149
	.loc 1 623 0
	bhi	.L150
.L173:
	.loc 1 619 0 discriminator 1
	mov	w2, 0
.L151:
	.loc 1 619 0 is_stmt 0
	add	w19, w19, 1
	.loc 1 619 0 discriminator 1
	sxtw	x20, w19
	cmp	x23, x20
	bhi	.L154
.L148:
	.loc 1 628 0 is_stmt 1
	add	x19, x21, :lo12:.LANCHOR1
	.loc 1 630 0
	add	x1, x29, 100
	.loc 1 628 0
	add	x3, x19, 256
	.loc 1 630 0
	mov	x0, x3
	.loc 1 628 0
	strb	wzr, [x3,w2,sxtw]
	.loc 1 630 0
	bl	str2val
.LVL341:
	cbnz	w0, .L134
	.loc 1 648 0
	strb	wzr, [x19,256]
	b	.L209
.L150:
	.loc 1 623 0 discriminator 1
	strb	w1, [x0,256]
	mov	w2, 1
	b	.L151
.L149:
	.loc 1 623 0 is_stmt 0
	bhi	.L152
	.loc 1 628 0 is_stmt 1
	add	x3, x21, :lo12:.LANCHOR1
	.loc 1 630 0
	add	x1, x29, 100
	.loc 1 628 0
	add	x3, x3, 256
	.loc 1 630 0
	mov	x0, x3
	.loc 1 628 0
	strb	wzr, [x3,w2,sxtw]
	.loc 1 630 0
	bl	str2val
.LVL342:
	cbz	w0, .L136
.L134:
	.loc 1 569 0
	adrp	x1, .LC176
	mov	w0, 32
	add	x1, x1, :lo12:.LC176
	add	x2, x21, :lo12:.LANCHOR1
	bl	dprint_linux_kernel
.LVL343:
	.loc 1 570 0
	mov	w0, -1
	b	.L114
.L144:
	.loc 1 604 0 discriminator 1
	add	x3, x0, 256
	strb	w1, [x3,w2,sxtw]
	.loc 1 606 0
	adds	w2, w2, 1
	bne	.L143
	b	.L172
.L152:
	.loc 1 623 0 discriminator 1
	add	x3, x0, 256
	strb	w1, [x3,w2,sxtw]
	.loc 1 625 0
	adds	w2, w2, 1
	bne	.L151
	b	.L173
.LVL344:
.L219:
.LBB31:
.LBB29:
	.loc 2 450 0
	sub	x23, x23, x0
	add	x21, x21, :lo12:.LANCHOR1
	mov	x2, x0
	mov	w1, 0
.LVL345:
	add	x0, x21, x23
.LVL346:
	bl	memset
.LVL347:
.LBE29:
.LBE31:
	.loc 1 546 0
	adrp	x1, .LC175
	mov	w0, 32
	add	x1, x1, :lo12:.LC175
	bl	dprint_linux_kernel
.LVL348:
	.loc 1 547 0
	mov	w0, -5
	b	.L114
.LVL349:
.L226:
	.loc 1 656 0
	strb	wzr, [x1,x0]
	b	.L163
.LVL350:
.L217:
	.loc 1 538 0
	adrp	x1, .LC174
	mov	w0, 32
	add	x1, x1, :lo12:.LC174
	bl	dprint_linux_kernel
.LVL351:
	.loc 1 539 0
	mov	w0, -5
	b	.L114
.LVL352:
.L162:
	.loc 1 665 0
	adrp	x2, .LANCHOR0
	adrp	x1, .LC178
	add	x2, x2, :lo12:.LANCHOR0
	mov	w0, 32
	add	x1, x1, :lo12:.LC178
	add	x2, x2, 24
	mov	w3, 665
	bl	dprint_linux_kernel
.LVL353:
	.loc 1 666 0
	mov	w0, -1
	b	.L114
.L225:
	.loc 1 611 0
	mov	x0, x24
	add	x1, x29, 96
	.loc 1 609 0
	strb	wzr, [x25,256]
	.loc 1 611 0
	bl	str2val
.LVL354:
	cbnz	w0, .L134
	mov	w2, 0
	b	.L148
.LVL355:
.L223:
	.loc 1 679 0
	bl	__stack_chk_fail
.LVL356:
	.cfi_endproc
.LFE2655:
	.size	vfmw_write_proc, .-vfmw_write_proc
	.align	2
	.global	OSAL_ProcCreate
	.type	OSAL_ProcCreate, %function
OSAL_ProcCreate:
.LFB2658:
	.loc 1 720 0
	.cfi_startproc
.LVL357:
	stp	x29, x30, [sp, -48]!
	.cfi_def_cfa_offset 48
	.cfi_offset 29, -48
	.cfi_offset 30, -40
	adrp	x5, .LANCHOR1
	.loc 1 726 0
	mov	w3, 0
.LVL358:
	.loc 1 720 0
	add	x29, sp, 0
	.cfi_def_cfa_register 29
	stp	x19, x20, [sp,16]
	.cfi_offset 19, -32
	.cfi_offset 20, -24
	add	x19, x5, :lo12:.LANCHOR1
	stp	x21, x22, [sp,32]
	.cfi_offset 21, -16
	.cfi_offset 22, -8
	add	x19, x19, 528
	b	.L230
.L228:
	.loc 1 726 0 discriminator 2
	add	w3, w3, 1
	add	x19, x19, 32
	.loc 1 726 0 is_stmt 0 discriminator 1
	cmp	w3, 32
	beq	.L232
.L230:
	.loc 1 728 0 is_stmt 1
	ldr	x4, [x19]
	cbnz	x4, .L228
	.loc 1 728 0 is_stmt 0 discriminator 1
	ldr	x4, [x19,8]
	cbnz	x4, .L228
	.loc 1 730 0 is_stmt 1
	add	x5, x5, :lo12:.LANCHOR1
	ubfiz	x19, x3, 5, 32
	add	x4, x5, 512
	mov	x21, x2
	add	x19, x4, x19
.LVL359:
	mov	x22, x1
	mov	x20, x0
	.loc 1 732 0
	mov	x1, x0
.LVL360:
	mov	x2, 16
.LVL361:
	mov	x0, x19
.LVL362:
	bl	strncpy
.LVL363:
	.loc 1 735 0
	str	x22, [x19,16]
	.loc 1 757 0
	adrp	x3, .LANCHOR0
	mov	x4, x19
	add	x3, x3, :lo12:.LANCHOR0
	.loc 1 736 0
	str	x21, [x19,24]
	.loc 1 757 0
	mov	x0, x20
	mov	w1, 420
	mov	x2, 0
	add	x3, x3, 40
	.loc 1 733 0
	strb	wzr, [x19,15]
	.loc 1 757 0
	bl	proc_create_data
.LVL364:
	.loc 1 758 0
	cmp	x0, xzr
	csetm	w0, eq
	.loc 1 765 0
	ldp	x19, x20, [sp,16]
	.cfi_remember_state
	.cfi_restore 20
	.cfi_restore 19
.LVL365:
	ldp	x21, x22, [sp,32]
	.cfi_restore 22
	.cfi_restore 21
.LVL366:
	ldp	x29, x30, [sp], 48
	.cfi_restore 30
	.cfi_restore 29
	.cfi_def_cfa 31, 0
	ret
.LVL367:
.L232:
	.cfi_restore_state
	.loc 1 744 0
	mov	w0, -1
.LVL368:
	.loc 1 765 0
	ldp	x19, x20, [sp,16]
	.cfi_restore 19
	.cfi_restore 20
	ldp	x21, x22, [sp,32]
	.cfi_restore 21
	.cfi_restore 22
	ldp	x29, x30, [sp], 48
	.cfi_restore 29
	.cfi_restore 30
	.cfi_def_cfa 31, 0
	ret
	.cfi_endproc
.LFE2658:
	.size	OSAL_ProcCreate, .-OSAL_ProcCreate
	.align	2
	.global	OSAL_ProcDestroy
	.type	OSAL_ProcDestroy, %function
OSAL_ProcDestroy:
.LFB2659:
	.loc 1 768 0
	.cfi_startproc
.LVL369:
	stp	x29, x30, [sp, -48]!
	.cfi_def_cfa_offset 48
	.cfi_offset 29, -48
	.cfi_offset 30, -40
	add	x29, sp, 0
	.cfi_def_cfa_register 29
	stp	x21, x22, [sp,32]
	.cfi_offset 21, -16
	.cfi_offset 22, -8
	adrp	x22, .LANCHOR1
	mov	x21, x0
	stp	x19, x20, [sp,16]
	.cfi_offset 19, -32
	.cfi_offset 20, -24
	add	x20, x22, :lo12:.LANCHOR1
	.loc 1 772 0
	mov	w19, 0
.LVL370:
	add	x20, x20, 512
	b	.L236
.LVL371:
.L234:
	.loc 1 772 0 is_stmt 0 discriminator 2
	add	w19, w19, 1
	add	x20, x20, 32
	.loc 1 772 0 discriminator 1
	cmp	w19, 32
	beq	.L233
.L236:
.LBB32:
	.loc 1 776 0 is_stmt 1
	mov	x1, x20
	mov	x0, x21
	mov	x2, 16
	bl	strncmp
.LVL372:
	cbnz	w0, .L234
	.loc 1 782 0
	add	x22, x22, :lo12:.LANCHOR1
	ubfiz	x19, x19, 5, 32
.LVL373:
	add	x22, x22, 512
	.loc 1 778 0
	mov	x0, x21
	.loc 1 782 0
	add	x19, x22, x19
	.loc 1 778 0
	mov	x1, 0
	bl	remove_proc_entry
.LVL374:
	.loc 1 780 0
	stp	xzr, xzr, [x20]
	.loc 1 782 0
	str	xzr, [x19,16]
	.loc 1 783 0
	str	xzr, [x19,24]
.LVL375:
.L233:
.LBE32:
	.loc 1 788 0
	ldp	x19, x20, [sp,16]
	.cfi_restore 20
	.cfi_restore 19
.LVL376:
	ldp	x21, x22, [sp,32]
	.cfi_restore 22
	.cfi_restore 21
.LVL377:
	ldp	x29, x30, [sp], 48
	.cfi_restore 30
	.cfi_restore 29
	.cfi_def_cfa 31, 0
	ret
	.cfi_endproc
.LFE2659:
	.size	OSAL_ProcDestroy, .-OSAL_ProcDestroy
	.align	2
	.global	OSAL_ProcInit
	.type	OSAL_ProcInit, %function
OSAL_ProcInit:
.LFB2660:
	.loc 1 793 0
	.cfi_startproc
	stp	x29, x30, [sp, -32]!
	.cfi_def_cfa_offset 32
	.cfi_offset 29, -32
	.cfi_offset 30, -24
	.loc 1 797 0
	adrp	x0, .LC180
	adrp	x1, vfmw_read_proc
	.loc 1 793 0
	add	x29, sp, 0
	.cfi_def_cfa_register 29
	str	x19, [sp,16]
	.cfi_offset 19, -16
	.loc 1 797 0
	adrp	x19, vfmw_write_proc
	add	x19, x19, :lo12:vfmw_write_proc
	add	x0, x0, :lo12:.LC180
	add	x1, x1, :lo12:vfmw_read_proc
	mov	x2, x19
	bl	OSAL_ProcCreate
.LVL378:
	.loc 1 798 0
	cbnz	w0, .L241
	.loc 1 803 0
	adrp	x0, .LC181
	adrp	x1, vfmw_read_proc_dbg
	add	x0, x0, :lo12:.LC181
	add	x1, x1, :lo12:vfmw_read_proc_dbg
	mov	x2, x19
	bl	OSAL_ProcCreate
.LVL379:
	.loc 1 804 0
	cbnz	w0, .L241
	.loc 1 809 0
	adrp	x0, .LC182
	adrp	x1, vfmw_read_proc_prn
	add	x0, x0, :lo12:.LC182
	add	x1, x1, :lo12:vfmw_read_proc_prn
	mov	x2, x19
	bl	OSAL_ProcCreate
.LVL380:
	.loc 1 810 0
	cbnz	w0, .L241
	.loc 1 815 0
	adrp	x0, .LC183
	adrp	x1, vfmw_read_proc_scd
	add	x0, x0, :lo12:.LC183
	add	x1, x1, :lo12:vfmw_read_proc_scd
	mov	x2, x19
	bl	OSAL_ProcCreate
.LVL381:
	.loc 1 816 0
	cbnz	w0, .L241
	.loc 1 821 0
	adrp	x0, .LC184
	adrp	x1, vfmw_read_proc_dec
	add	x0, x0, :lo12:.LC184
	add	x1, x1, :lo12:vfmw_read_proc_dec
	mov	x2, x19
	bl	OSAL_ProcCreate
.LVL382:
	.loc 1 822 0
	cbnz	w0, .L241
	.loc 1 835 0
	adrp	x0, .LC185
	adrp	x1, vfmw_read_proc_chn
	mov	x2, x19
	add	x1, x1, :lo12:vfmw_read_proc_chn
	add	x0, x0, :lo12:.LC185
	bl	OSAL_ProcCreate
.LVL383:
	.loc 1 836 0
	cmp	w0, wzr
	csetm	w0, ne
	.loc 1 843 0
	ldr	x19, [sp,16]
	.cfi_remember_state
	.cfi_restore 19
	ldp	x29, x30, [sp], 32
	.cfi_restore 30
	.cfi_restore 29
	.cfi_def_cfa 31, 0
	ret
.L241:
	.cfi_restore_state
	.loc 1 800 0
	mov	w0, -1
	.loc 1 843 0
	ldr	x19, [sp,16]
	.cfi_restore 19
	ldp	x29, x30, [sp], 32
	.cfi_restore 29
	.cfi_restore 30
	.cfi_def_cfa 31, 0
	ret
	.cfi_endproc
.LFE2660:
	.size	OSAL_ProcInit, .-OSAL_ProcInit
	.align	2
	.global	OSAL_ProcExit
	.type	OSAL_ProcExit, %function
OSAL_ProcExit:
.LFB2661:
	.loc 1 847 0
	.cfi_startproc
	stp	x29, x30, [sp, -80]!
	.cfi_def_cfa_offset 80
	.cfi_offset 29, -80
	.cfi_offset 30, -72
	add	x29, sp, 0
	.cfi_def_cfa_register 29
	str	x21, [sp,32]
	.cfi_offset 21, -48
	adrp	x21, __stack_chk_guard
	stp	x19, x20, [sp,16]
	.cfi_offset 19, -64
	.cfi_offset 20, -56
	.loc 1 855 0
	adrp	x20, .LC186
	.loc 1 853 0
	mov	w19, 0
.LVL384:
	.loc 1 847 0
	ldr	x0, [x21,#:lo12:__stack_chk_guard]
	.loc 1 855 0
	add	x20, x20, :lo12:.LC186
	.loc 1 847 0
	str	x0, [x29,72]
.L243:
	.loc 1 855 0
	mov	w3, w19
	mov	x1, 16
	mov	x2, x20
	add	x0, x29, 56
	.loc 1 853 0 discriminator 3
	add	w19, w19, 1
	.loc 1 855 0
	bl	snprintf
.LVL385:
	.loc 1 856 0
	strb	wzr, [x29,71]
	.loc 1 858 0
	add	x0, x29, 56
	bl	OSAL_ProcDestroy
.LVL386:
	.loc 1 853 0 discriminator 1
	cmp	w19, 16
	bne	.L243
	.loc 1 861 0
	adrp	x0, .LC180
	add	x0, x0, :lo12:.LC180
	bl	OSAL_ProcDestroy
.LVL387:
	.loc 1 862 0
	adrp	x0, .LC181
	add	x0, x0, :lo12:.LC181
	bl	OSAL_ProcDestroy
.LVL388:
	.loc 1 863 0
	adrp	x0, .LC182
	add	x0, x0, :lo12:.LC182
	bl	OSAL_ProcDestroy
.LVL389:
	.loc 1 864 0
	adrp	x0, .LC183
	add	x0, x0, :lo12:.LC183
	bl	OSAL_ProcDestroy
.LVL390:
	.loc 1 865 0
	adrp	x0, .LC184
	add	x0, x0, :lo12:.LC184
	bl	OSAL_ProcDestroy
.LVL391:
	.loc 1 871 0
	adrp	x0, .LC185
	add	x0, x0, :lo12:.LC185
	bl	OSAL_ProcDestroy
.LVL392:
	.loc 1 873 0
	ldr	x1, [x29,72]
	ldr	x0, [x21,#:lo12:__stack_chk_guard]
	cmp	x1, x0
	bne	.L246
	ldp	x19, x20, [sp,16]
	.cfi_remember_state
	.cfi_restore 20
	.cfi_restore 19
.LVL393:
	ldr	x21, [sp,32]
	.cfi_restore 21
	ldp	x29, x30, [sp], 80
	.cfi_restore 30
	.cfi_restore 29
	.cfi_def_cfa 31, 0
	ret
.LVL394:
.L246:
	.cfi_restore_state
	bl	__stack_chk_fail
.LVL395:
	.cfi_endproc
.LFE2661:
	.size	OSAL_ProcExit, .-OSAL_ProcExit
	.section	.rodata
	.align	3
.LANCHOR0 = . + 0
	.type	__FUNCTION__.42421, %object
	.size	__FUNCTION__.42421, 19
__FUNCTION__.42421:
	.string	"vfmw_read_proc_scd"
	.zero	5
	.type	__FUNCTION__.42518, %object
	.size	__FUNCTION__.42518, 16
__FUNCTION__.42518:
	.string	"vfmw_write_proc"
	.type	vfmw_proc_fops, %object
	.size	vfmw_proc_fops, 240
vfmw_proc_fops:
	.xword	0
	.xword	seq_lseek
	.xword	seq_read
	.xword	vfmw_proc_write
	.zero	64
	.xword	vfmw_proc_open
	.zero	8
	.xword	single_release
	.zero	120
	.type	__param_str_extra_cmd, %object
	.size	__param_str_extra_cmd, 18
__param_str_extra_cmd:
	.string	"hi_vfmw.extra_cmd"
	.zero	6
	.type	__param_str_extra_disp, %object
	.size	__param_str_extra_disp, 19
__param_str_extra_disp:
	.string	"hi_vfmw.extra_disp"
	.zero	5
	.type	__param_str_extra_ref, %object
	.size	__param_str_extra_ref, 18
__param_str_extra_ref:
	.string	"hi_vfmw.extra_ref"
	.section	__param,"a",%progbits
	.align	3
	.type	__param_extra_cmd, %object
	.size	__param_extra_cmd, 40
__param_extra_cmd:
	.xword	__param_str_extra_cmd
	.xword	0
	.xword	param_ops_int
	.hword	0
	.byte	-1
	.byte	0
	.zero	4
	.xword	extra_cmd
	.type	__param_extra_disp, %object
	.size	__param_extra_disp, 40
__param_extra_disp:
	.xword	__param_str_extra_disp
	.xword	0
	.xword	param_ops_int
	.hword	0
	.byte	-1
	.byte	0
	.zero	4
	.xword	extra_disp
	.type	__param_extra_ref, %object
	.size	__param_extra_ref, 40
__param_extra_ref:
	.xword	__param_str_extra_ref
	.xword	0
	.xword	param_ops_int
	.hword	0
	.byte	-1
	.byte	0
	.zero	4
	.xword	extra_ref
	.section	.rodata.str1.8,"aMS",%progbits,1
	.align	3
.LC0:
	.string	"=============== vfmw info =============\n"
	.zero	7
.LC1:
	.string	"%-35s :%d\n"
	.zero	5
.LC2:
	.string	"version num"
	.zero	4
.LC3:
	.string	"extra_ref"
	.zero	6
.LC4:
	.string	"extra_disp"
	.zero	5
.LC5:
	.string	"extra_cmd"
	.zero	6
.LC6:
	.string	"USE_FF_APT_EN"
	.zero	2
.LC7:
	.string	"FreqControlDisable"
	.zero	5
.LC8:
	.string	"------------------------debug options--------------------------\n"
	.zero	7
.LC9:
	.string	"%-27s :%#x\n"
	.zero	4
.LC10:
	.string	"tracer address"
	.zero	1
.LC11:
	.string	"%-27s :%s\n"
	.zero	5
.LC12:
	.string	"path to save debug data"
.LC13:
	.string	"print enable word"
	.zero	6
.LC14:
	.string	"vfmw_state enable word"
	.zero	1
.LC15:
	.string	"%-27s :%d\n"
	.zero	5
.LC16:
	.string	"bitstream control period"
	.zero	7
.LC17:
	.string	"frame control period"
	.zero	3
.LC18:
	.string	"rcv/rls img control period"
	.zero	5
.LC19:
	.string	"---------------------------------------------------------------\n"
	.zero	7
.LC20:
	.string	"you can perform vfmw debug with such commond:\n"
	.zero	1
.LC21:
	.string	"echo [arg1] [arg2] > /proc/vfmw\n\n"
	.zero	6
.LC22:
	.string	"debug action                    arg1       arg2\n"
	.zero	7
.LC23:
	.string	"------------------------------  --------  ---------------------\n"
	.zero	7
.LC24:
	.string	"set print enable                0x0       print_enable_word\n"
	.zero	3
.LC25:
	.string	"set err_thr                     0x2       (chan_id<<24)|err_thr\n"
	.zero	7
.LC26:
	.string	"set dec order output            0x4       (chan_id<<24)|dec_order_output_enable\n"
	.zero	7
.LC27:
	.string	"set dec_mode(0/1/2=IPB/IP/I)    0x5       (chan_id<<24)|dec_mode\n"
	.zero	6
.LC28:
	.string	"set discard_before_dec_thr      0x7       (chan_id<<24)|stream_size_thr\n"
	.zero	7
.LC29:
	.string	"set postprocess options         0xa       (dc<<8)|(db<<4)|dr, 0000=auto,0001=on,0010=off\n"
	.zero	6
.LC30:
	.string	"set frame/adaptive storage      0xb       0:frame only, 1:adaptive\n"
	.zero	4
.LC31:
	.string	"pay attention to the channel    0xd       channel number\n"
	.zero	6
.LC32:
	.string	"channel vcmp config             0xe       chanId: arg2>>27,\n%42smirror_en: (arg2>>26)&1,\n%42svcmp_en: (arg2>>25)&1,\n%42swm_en: (arg2>>24)&1,\n%42swm_start: (arg2>>12)&0xfff,\n%42swm_end: (arg2)&0xfff\n"
	.zero	1
.LC33:
	.string	" "
	.zero	6
.LC34:
	.string	"set regulator enable or disable 0xf       disable:0, enable:1 \n"
.LC35:
	.string	"print tracer                    0x100     tracer address. do not care if vfmw still running\n"
	.zero	3
.LC36:
	.string	"start/stop raw stream saving    0x200     chan_id\n"
	.zero	5
.LC37:
	.string	"start/stop stream seg saving    0x201     chan_id\n"
	.zero	5
.LC38:
	.string	"start/stop 2D yuv saving        0x202     (chan_id<<24)|crop_enable\n"
	.zero	3
.LC39:
	.string	"save a single 2D frame          0x203     frame phy addr\n"
	.zero	6
.LC40:
	.string	"save a single 1D frame          0x204     frame phy addr width height=(height+PicStructure)\n"
	.zero	3
.LC41:
	.string	"set dec_task_schedule_delay     0x400     schedual_delay_time(ms)\n"
	.zero	5
.LC42:
	.string	"stop/start syntax dec           0x402     do not care\n"
	.zero	1
.LC43:
	.string	"set trace controller            0x500     vfmw_state_word in /proc/vfmw_prn\n"
	.zero	3
.LC44:
	.string	"set bitstream control period    0x501     period (ms)\n"
	.zero	1
.LC45:
	.string	"set frame control period        0x502     period (ms)\n"
	.zero	1
.LC46:
	.string	"set rcv/rls img control period  0x503     period (ms)\n"
	.zero	1
.LC47:
	.string	"set no stream report period     0x504     period (ms)\n"
	.zero	1
.LC48:
	.string	"set module lowdelay start       0x600     channel number\n"
	.zero	6
.LC49:
	.string	"set module lowdelay stop        0x601     channel number\n"
	.zero	6
.LC50:
	.string	"set tunnel line number          0x602     channel number\n"
	.zero	6
.LC51:
	.string	"set scd lowdelay start          0x603     channel number\n"
	.zero	6
.LC52:
	.string	"set scd lowdelay stop           0x604     channel number\n"
	.zero	6
.LC53:
	.string	"set VDH clock frequency         0x605     clock_sel\n"
	.zero	3
.LC54:
	.string	"set CSD Enable                  0x606     CSD set(%d)\n"
	.zero	1
.LC55:
	.string	"set CSD DispMin                 0x607     CSD set(%d)\n"
	.zero	1
.LC56:
	.string	"set CSD DispMax                 0x608     CSD set(%d)\n"
	.zero	1
.LC57:
	.string	"set CSD HighRate Enable         0x60B     CSD set(%d)\n"
	.zero	1
.LC58:
	.string	"set CSD g_u32Csd_num            0x60C     CSD set(%d)\n"
	.zero	1
.LC59:
	.string	"set CSD g_csdAddBufNum          0x60D     CSD set(%d)\n"
	.zero	1
.LC60:
	.string	"'print_enable_word' definition, from bit31 to bit0:\n"
	.zero	3
.LC61:
	.string	"<not used>  DEC_MODE    PTS         POST\n"
	.zero	6
.LC62:
	.string	"INT_TIME    SCD_INFO    SCD_STREAM  SCD_REGMSG\n"
.LC63:
	.string	"BLOCK       DBG         SE          SEI\n"
	.zero	7
.LC64:
	.string	"SLICE       PIC         SEQ         MARK_MMCO\n"
	.zero	1
.LC65:
	.string	"POC         DPB         REF         QUEUE\n"
	.zero	5
.LC66:
	.string	"IMAGE       STR_BODY    STR_TAIL    STR_HEAD\n"
	.zero	2
.LC67:
	.string	"STREAM      UPMSG       RPMSG       DNMSG\n"
	.zero	5
.LC68:
	.string	"VDMREG      CTRL        ERROR       FATAL\n"
	.zero	5
.LC69:
	.string	"'vfmw_state' definition, from bit31 to bit0:\n"
	.zero	2
.LC70:
	.string	"<not used>       <not used>       <not used>    <not used>\n"
	.zero	4
.LC71:
	.string	"<VO_REL_IMG>     <VO_RCV_IMG>     <2D_TO_QUEUE> <1D_TO_QUEUE>\n"
	.zero	1
.LC72:
	.string	"<VDH_REPAIR>     <VDH_INTERRUPT>  <VDH_START>   <GENERATE_DECPARAM>\n"
	.zero	3
.LC73:
	.string	"<DECSYNTAX_SEG>  <SCD_INTERRUPT>  <SCD_START>   <RCV_RAW>\n"
	.zero	5
.LC74:
	.string	"'extra_cmd' definition, from bit31 to bit0:\n"
	.zero	3
.LC75:
	.string	"<not used>       <not used>      <direct 8x8>   <B before P>\n"
	.zero	2
.LC76:
	.string	"=============== chn info ==============================\n"
	.zero	7
.LC77:
	.string	"=============== chn by vdh ============================\n"
	.zero	7
.LC78:
	.string	"%d "
	.zero	4
.LC79:
	.string	"\n"
	.zero	6
.LC80:
	.string	"=============== chanid by prior =======================\n"
	.zero	7
.LC81:
	.string	"=============== chan prior ============================\n"
	.zero	7
.LC82:
	.string	"=============== chan isopen isrun =====================\n"
	.zero	7
.LC83:
	.string	"%d %d %d\n"
	.zero	6
.LC84:
	.string	"=============== scd info ==============================\n"
	.zero	7
.LC85:
	.string	"%-25s :%d\n"
	.zero	5
.LC86:
	.string	"IsScdDrvOpen"
	.zero	3
.LC87:
	.string	"SCDState"
	.zero	7
.LC88:
	.string	"ThisInstID"
	.zero	5
.LC89:
	.string	"LastProcessTime"
.LC90:
	.string	"%-25s :%#x\n"
	.zero	4
.LC91:
	.string	"HwMemAddr"
	.zero	6
.LC92:
	.string	"HwMemSize"
	.zero	6
.LC93:
	.string	"DownMsgMemAddr"
	.zero	1
.LC94:
	.string	"UpMsgMemAddr"
	.zero	3
.LC95:
	.string	"fuction return value is null,%s %d unknow error!!\n"
	.zero	5
.LC96:
	.string	"--------------- inst[%d] -------------\n"
.LC97:
	.string	"Mode"
	.zero	3
.LC98:
	.string	"%-25s :%s\n"
	.zero	5
.LC99:
	.string	"cfg VidStd"
	.zero	5
.LC100:
	.string	"is wait seg ext"
.LC101:
	.string	"is_omx_path"
	.zero	4
.LC102:
	.string	"cfg BufPhyAddr"
	.zero	1
.LC103:
	.string	"cfg BufSize"
	.zero	4
.LC104:
	.string	"raw size count"
	.zero	1
.LC105:
	.string	"raw num count"
	.zero	2
.LC106:
	.string	"raw Total size"
	.zero	1
.LC107:
	.string	"raw Total num"
	.zero	2
.LC108:
	.string	"seg Total size"
	.zero	1
.LC109:
	.string	"seg Total num"
	.zero	2
.LC110:
	.string	"seg read_addr"
	.zero	2
.LC111:
	.string	"seg write_addr"
	.zero	1
.LC112:
	.string	"%-25s :%d Kbps\n"
.LC113:
	.string	"actual bitrate"
	.zero	1
.LC114:
	.string	"\n============== DEC INFO Chan [%d] ==============\n"
	.zero	5
.LC115:
	.string	"Dec by VDH"
	.zero	5
.LC116:
	.string	"IsOpen"
	.zero	1
.LC117:
	.string	"IsRun"
	.zero	2
.LC118:
	.string	"Priority"
	.zero	7
.LC119:
	.string	"eVidStd"
.LC120:
	.string	"ChanCapLevel"
	.zero	3
.LC121:
	.string	"LastFrameState"
	.zero	1
.LC122:
	.string	"IsOmxPath"
	.zero	6
.LC123:
	.string	"SpecMode"
	.zero	7
.LC124:
	.string	"DecMode"
.LC125:
	.string	"DecOrderOutput"
	.zero	1
.LC126:
	.string	"ErrorThred"
	.zero	5
.LC127:
	.string	"StreamThred"
	.zero	4
.LC128:
	.string	"StdExt AP"
	.zero	6
.LC129:
	.string	"StdExt CodecVer"
.LC130:
	.string	"StdExt Reversed"
.LC131:
	.string	"Skip Frame Found"
	.zero	7
.LC132:
	.string	"Skip Frame Discarded"
	.zero	3
.LC133:
	.string	"Is Short Headed"
.LC134:
	.string	"ChanMem VDH Mem Phy"
	.zero	4
.LC135:
	.string	"ChanMem VDH Mem Size"
	.zero	3
.LC136:
	.string	"ChanMem SCD Mem Phy"
	.zero	4
.LC137:
	.string	"ChanMem SCD Mem Size"
	.zero	3
.LC138:
	.string	"ChanMem CTX Mem Phy"
	.zero	4
.LC139:
	.string	"ChanMem CTX Mem Size"
	.zero	3
.LC140:
	.string	"%-25s :%d,%d,%d\n"
	.zero	7
.LC141:
	.string	"Ref,Read,New"
	.zero	3
.LC142:
	.string	"%-25s :(%d,%d,%d)\n"
	.zero	5
.LC143:
	.string	"VoQue Detail"
	.zero	3
.LC144:
	.string	"Actual DecMode"
	.zero	1
.LC145:
	.string	"Actual DecOrderOutput"
	.zero	2
.LC146:
	.string	"Image Format"
	.zero	3
.LC147:
	.string	"Frame Packing Type"
	.zero	5
.LC148:
	.string	"------------------- FSP INFO ------------------\n"
	.zero	7
.LC149:
	.string	"FSP DecFsWidth"
	.zero	1
.LC150:
	.string	"FSP DecFsHeight"
.LC151:
	.string	"FSP DispFsWidth"
.LC152:
	.string	"FSP DispFsHeight"
	.zero	7
.LC153:
	.string	"FSP ExpectedDecFsNum"
	.zero	3
.LC154:
	.string	"FSP TotalValidFSNum"
	.zero	4
.LC155:
	.string	"FSP ActualPmvNum"
	.zero	7
.LC156:
	.string	"FSP ActualDecFsNum"
	.zero	5
.LC157:
	.string	"FSP LogicFsNum"
	.zero	1
.LC158:
	.string	"%d%d "
	.zero	2
.LC159:
	.string	"--------------Dynamic Frame Store--------------\n"
	.zero	7
.LC160:
	.string	"%-25s : %d\n"
	.zero	4
.LC161:
	.string	"Ref Frame Num"
	.zero	2
.LC162:
	.string	"Frm Size(byte)"
	.zero	1
.LC163:
	.string	"Pmv Size(byte)"
	.zero	1
.LC164:
	.string	"Max Time(ms)"
	.zero	3
.LC165:
	.string	"%-25s : %d/%d\n"
	.zero	1
.LC166:
	.string	"Act Frame Num/Time(ms)"
	.zero	1
.LC167:
	.string	"------------------- VDH INFO ------------------\n"
	.zero	7
.LC168:
	.string	"%s%-21d :%d.%d%%\n"
	.zero	6
.LC169:
	.string	"VDH "
	.zero	3
.LC170:
	.string	"%-25s :%d.%d fps\n"
	.zero	6
.LC171:
	.string	"Frame Rate"
	.zero	5
.LC172:
	.string	"%-25s :%d/mb\n"
	.zero	2
.LC173:
	.string	"Cycle State"
	.zero	4
.LC174:
	.string	"MMZ: your parameter string is too long!\n"
	.zero	7
.LC175:
	.string	"MMZ: copy_from_user failed!\n"
	.zero	3
.LC176:
	.string	"error echo cmd '%s'!\n"
	.zero	2
.LC177:
	.string	"******* vfmw save path: %s ********\n"
	.zero	3
.LC178:
	.string	"%s %d j < 1!!\n"
	.zero	1
.LC179:
	.string	"\nvfmw debug: arg1=%#x, arg2=%#x\n"
	.zero	7
.LC180:
	.string	"vfmw"
	.zero	3
.LC181:
	.string	"vfmw_dbg"
	.zero	7
.LC182:
	.string	"vfmw_prn"
	.zero	7
.LC183:
	.string	"vfmw_scd"
	.zero	7
.LC184:
	.string	"vfmw_dec"
	.zero	7
.LC185:
	.string	"vfmw_chn"
	.zero	7
.LC186:
	.string	"vfmw%02d"
	.bss
	.align	3
.LANCHOR1 = . + 0
	.type	cmd.42489, %object
	.size	cmd.42489, 256
cmd.42489:
	.zero	256
	.type	str.42490, %object
	.size	str.42490, 256
str.42490:
	.zero	256
	.type	vfmw_proc, %object
	.size	vfmw_proc, 1024
vfmw_proc:
	.zero	1024
	.text
.Letext0:
	.file 5 "/mnt/disk/jenkins/ci/workspace/chipset_release_960_xloader/opensource/component_code/vendor/huawei/extra/build/build_script/kirin_kernel_release/kernel/include/uapi/asm-generic/int-ll64.h"
	.file 6 "/mnt/disk/jenkins/ci/workspace/chipset_release_960_xloader/opensource/component_code/vendor/huawei/extra/build/build_script/kirin_kernel_release/kernel/include/asm-generic/int-ll64.h"
	.file 7 "/mnt/disk/jenkins/ci/workspace/chipset_release_960_xloader/opensource/component_code/vendor/huawei/extra/build/build_script/kirin_kernel_release/kernel/include/uapi/asm-generic/posix_types.h"
	.file 8 "/mnt/disk/jenkins/ci/workspace/chipset_release_960_xloader/opensource/component_code/vendor/huawei/extra/build/build_script/kirin_kernel_release/kernel/include/linux/types.h"
	.file 9 "/mnt/disk/jenkins/ci/workspace/chipset_release_960_xloader/opensource/component_code/vendor/huawei/extra/build/build_script/kirin_kernel_release/kernel/include/linux/fs.h"
	.file 10 "/mnt/disk/jenkins/ci/workspace/chipset_release_960_xloader/opensource/component_code/vendor/huawei/extra/build/build_script/kirin_kernel_release/kernel/include/linux/export.h"
	.file 11 "/mnt/disk/jenkins/ci/workspace/chipset_release_960_xloader/opensource/component_code/vendor/huawei/extra/build/build_script/kirin_kernel_release/kernel/include/asm-generic/bug.h"
	.file 12 "/mnt/disk/jenkins/ci/workspace/chipset_release_960_xloader/opensource/component_code/vendor/huawei/extra/build/build_script/kirin_kernel_release/kernel/include/linux/restart_block.h"
	.file 13 "/mnt/disk/jenkins/ci/workspace/chipset_release_960_xloader/opensource/component_code/vendor/huawei/extra/build/build_script/kirin_kernel_release/kernel/include/uapi/linux/time.h"
	.file 14 "/mnt/disk/jenkins/ci/workspace/chipset_release_960_xloader/opensource/component_code/vendor/huawei/extra/build/build_script/kirin_kernel_release/kernel/arch/arm64/include/asm/compat.h"
	.file 15 "/mnt/disk/jenkins/ci/workspace/chipset_release_960_xloader/opensource/component_code/vendor/huawei/extra/build/build_script/kirin_kernel_release/kernel/include/uapi/asm-generic/poll.h"
	.file 16 "/mnt/disk/jenkins/ci/workspace/chipset_release_960_xloader/opensource/component_code/vendor/huawei/extra/build/build_script/kirin_kernel_release/kernel/arch/arm64/include/asm/thread_info.h"
	.file 17 "/mnt/disk/jenkins/ci/workspace/chipset_release_960_xloader/opensource/component_code/vendor/huawei/extra/build/build_script/kirin_kernel_release/kernel/arch/arm64/include/uapi/asm/ptrace.h"
	.file 18 "/mnt/disk/jenkins/ci/workspace/chipset_release_960_xloader/opensource/component_code/vendor/huawei/extra/build/build_script/kirin_kernel_release/kernel/arch/arm64/include/asm/ptrace.h"
	.file 19 "/mnt/disk/jenkins/ci/workspace/chipset_release_960_xloader/opensource/component_code/vendor/huawei/extra/build/build_script/kirin_kernel_release/kernel/arch/arm64/include/asm/spinlock_types.h"
	.file 20 "/mnt/disk/jenkins/ci/workspace/chipset_release_960_xloader/opensource/component_code/vendor/huawei/extra/build/build_script/kirin_kernel_release/kernel/include/linux/spinlock_types.h"
	.file 21 "/mnt/disk/jenkins/ci/workspace/chipset_release_960_xloader/opensource/component_code/vendor/huawei/extra/build/build_script/kirin_kernel_release/kernel/include/linux/rwlock_types.h"
	.file 22 "/mnt/disk/jenkins/ci/workspace/chipset_release_960_xloader/opensource/component_code/vendor/huawei/extra/build/build_script/kirin_kernel_release/kernel/arch/arm64/include/asm/fpsimd.h"
	.file 23 "/mnt/disk/jenkins/ci/workspace/chipset_release_960_xloader/opensource/component_code/vendor/huawei/extra/build/build_script/kirin_kernel_release/kernel/include/linux/jump_label.h"
	.file 24 "/mnt/disk/jenkins/ci/workspace/chipset_release_960_xloader/opensource/component_code/vendor/huawei/extra/build/build_script/kirin_kernel_release/kernel/include/asm-generic/atomic-long.h"
	.file 25 "/mnt/disk/jenkins/ci/workspace/chipset_release_960_xloader/opensource/component_code/vendor/huawei/extra/build/build_script/kirin_kernel_release/kernel/arch/arm64/include/asm/hw_breakpoint.h"
	.file 26 "/mnt/disk/jenkins/ci/workspace/chipset_release_960_xloader/opensource/component_code/vendor/huawei/extra/build/build_script/kirin_kernel_release/kernel/arch/arm64/include/asm/processor.h"
	.file 27 "/mnt/disk/jenkins/ci/workspace/chipset_release_960_xloader/opensource/component_code/vendor/huawei/extra/build/build_script/kirin_kernel_release/kernel/include/linux/perf_event.h"
	.file 28 "/mnt/disk/jenkins/ci/workspace/chipset_release_960_xloader/opensource/component_code/vendor/huawei/extra/build/build_script/kirin_kernel_release/kernel/include/linux/wait.h"
	.file 29 "/mnt/disk/jenkins/ci/workspace/chipset_release_960_xloader/opensource/component_code/vendor/huawei/extra/build/build_script/kirin_kernel_release/kernel/include/linux/seqlock.h"
	.file 30 "/mnt/disk/jenkins/ci/workspace/chipset_release_960_xloader/opensource/component_code/vendor/huawei/extra/build/build_script/kirin_kernel_release/kernel/include/linux/nodemask.h"
	.file 31 "/mnt/disk/jenkins/ci/workspace/chipset_release_960_xloader/opensource/component_code/vendor/huawei/extra/build/build_script/kirin_kernel_release/kernel/include/linux/cpumask.h"
	.file 32 "/mnt/disk/jenkins/ci/workspace/chipset_release_960_xloader/opensource/component_code/vendor/huawei/extra/build/build_script/kirin_kernel_release/kernel/include/linux/completion.h"
	.file 33 "/mnt/disk/jenkins/ci/workspace/chipset_release_960_xloader/opensource/component_code/vendor/huawei/extra/build/build_script/kirin_kernel_release/kernel/include/linux/time64.h"
	.file 34 "/mnt/disk/jenkins/ci/workspace/chipset_release_960_xloader/opensource/component_code/vendor/huawei/extra/build/build_script/kirin_kernel_release/kernel/include/linux/ktime.h"
	.file 35 "/mnt/disk/jenkins/ci/workspace/chipset_release_960_xloader/opensource/component_code/vendor/huawei/extra/build/build_script/kirin_kernel_release/kernel/include/linux/rbtree.h"
	.file 36 "/mnt/disk/jenkins/ci/workspace/chipset_release_960_xloader/opensource/component_code/vendor/huawei/extra/build/build_script/kirin_kernel_release/kernel/include/linux/osq_lock.h"
	.file 37 "/mnt/disk/jenkins/ci/workspace/chipset_release_960_xloader/opensource/component_code/vendor/huawei/extra/build/build_script/kirin_kernel_release/kernel/include/linux/rwsem.h"
	.file 38 "/mnt/disk/jenkins/ci/workspace/chipset_release_960_xloader/opensource/component_code/vendor/huawei/extra/build/build_script/kirin_kernel_release/kernel/include/linux/sched.h"
	.file 39 "/mnt/disk/jenkins/ci/workspace/chipset_release_960_xloader/opensource/component_code/vendor/huawei/extra/build/build_script/kirin_kernel_release/kernel/include/linux/mm_types.h"
	.file 40 "/mnt/disk/jenkins/ci/workspace/chipset_release_960_xloader/opensource/component_code/vendor/huawei/extra/build/build_script/kirin_kernel_release/kernel/include/linux/lockdep.h"
	.file 41 "/mnt/disk/jenkins/ci/workspace/chipset_release_960_xloader/opensource/component_code/vendor/huawei/extra/build/build_script/kirin_kernel_release/kernel/include/linux/uprobes.h"
	.file 42 "/mnt/disk/jenkins/ci/workspace/chipset_release_960_xloader/opensource/component_code/vendor/huawei/extra/build/build_script/kirin_kernel_release/kernel/include/linux/timer.h"
	.file 43 "/mnt/disk/jenkins/ci/workspace/chipset_release_960_xloader/opensource/component_code/vendor/huawei/extra/build/build_script/kirin_kernel_release/kernel/include/linux/uidgid.h"
	.file 44 "/mnt/disk/jenkins/ci/workspace/chipset_release_960_xloader/opensource/component_code/vendor/huawei/extra/build/build_script/kirin_kernel_release/kernel/include/linux/sysctl.h"
	.file 45 "/mnt/disk/jenkins/ci/workspace/chipset_release_960_xloader/opensource/component_code/vendor/huawei/extra/build/build_script/kirin_kernel_release/kernel/include/linux/workqueue.h"
	.file 46 "/mnt/disk/jenkins/ci/workspace/chipset_release_960_xloader/opensource/component_code/vendor/huawei/extra/build/build_script/kirin_kernel_release/kernel/arch/arm64/include/asm/pgtable-types.h"
	.file 47 "/mnt/disk/jenkins/ci/workspace/chipset_release_960_xloader/opensource/component_code/vendor/huawei/extra/build/build_script/kirin_kernel_release/kernel/arch/arm64/include/asm/page.h"
	.file 48 "/mnt/disk/jenkins/ci/workspace/chipset_release_960_xloader/opensource/component_code/vendor/huawei/extra/build/build_script/kirin_kernel_release/kernel/include/linux/llist.h"
	.file 49 "/mnt/disk/jenkins/ci/workspace/chipset_release_960_xloader/opensource/component_code/vendor/huawei/extra/build/build_script/kirin_kernel_release/kernel/arch/arm64/include/asm/smp.h"
	.file 50 "/mnt/disk/jenkins/ci/workspace/chipset_release_960_xloader/opensource/component_code/vendor/huawei/extra/build/build_script/kirin_kernel_release/kernel/arch/arm64/include/asm/mmu.h"
	.file 51 "/mnt/disk/jenkins/ci/workspace/chipset_release_960_xloader/opensource/component_code/vendor/huawei/extra/build/build_script/kirin_kernel_release/kernel/include/linux/mm.h"
	.file 52 "/mnt/disk/jenkins/ci/workspace/chipset_release_960_xloader/opensource/component_code/vendor/huawei/extra/build/build_script/kirin_kernel_release/kernel/include/linux/user_namespace.h"
	.file 53 "/mnt/disk/jenkins/ci/workspace/chipset_release_960_xloader/opensource/component_code/vendor/huawei/extra/build/build_script/kirin_kernel_release/kernel/include/linux/mmzone.h"
	.file 54 "/mnt/disk/jenkins/ci/workspace/chipset_release_960_xloader/opensource/component_code/vendor/huawei/extra/build/build_script/kirin_kernel_release/kernel/include/linux/mutex.h"
	.file 55 "/mnt/disk/jenkins/ci/workspace/chipset_release_960_xloader/opensource/component_code/vendor/huawei/extra/build/build_script/kirin_kernel_release/kernel/include/linux/percpu-refcount.h"
	.file 56 "/mnt/disk/jenkins/ci/workspace/chipset_release_960_xloader/opensource/component_code/vendor/huawei/extra/build/build_script/kirin_kernel_release/kernel/include/linux/shrinker.h"
	.file 57 "/mnt/disk/jenkins/ci/workspace/chipset_release_960_xloader/opensource/component_code/vendor/huawei/extra/build/build_script/kirin_kernel_release/kernel/include/uapi/linux/resource.h"
	.file 58 "/mnt/disk/jenkins/ci/workspace/chipset_release_960_xloader/opensource/component_code/vendor/huawei/extra/build/build_script/kirin_kernel_release/kernel/include/linux/tracepoint-defs.h"
	.file 59 "/mnt/disk/jenkins/ci/workspace/chipset_release_960_xloader/opensource/component_code/vendor/huawei/extra/build/build_script/kirin_kernel_release/kernel/include/linux/vmstat.h"
	.file 60 "/mnt/disk/jenkins/ci/workspace/chipset_release_960_xloader/opensource/component_code/vendor/huawei/extra/build/build_script/kirin_kernel_release/kernel/include/linux/capability.h"
	.file 61 "/mnt/disk/jenkins/ci/workspace/chipset_release_960_xloader/opensource/component_code/vendor/huawei/extra/build/build_script/kirin_kernel_release/kernel/include/linux/plist.h"
	.file 62 "/mnt/disk/jenkins/ci/workspace/chipset_release_960_xloader/opensource/component_code/vendor/huawei/extra/build/build_script/kirin_kernel_release/kernel/include/asm-generic/cputime_jiffies.h"
	.file 63 "/mnt/disk/jenkins/ci/workspace/chipset_release_960_xloader/opensource/component_code/vendor/huawei/extra/build/build_script/kirin_kernel_release/kernel/include/uapi/asm-generic/signal.h"
	.file 64 "/mnt/disk/jenkins/ci/workspace/chipset_release_960_xloader/opensource/component_code/vendor/huawei/extra/build/build_script/kirin_kernel_release/kernel/include/uapi/asm-generic/signal-defs.h"
	.file 65 "/mnt/disk/jenkins/ci/workspace/chipset_release_960_xloader/opensource/component_code/vendor/huawei/extra/build/build_script/kirin_kernel_release/kernel/include/uapi/asm-generic/siginfo.h"
	.file 66 "/mnt/disk/jenkins/ci/workspace/chipset_release_960_xloader/opensource/component_code/vendor/huawei/extra/build/build_script/kirin_kernel_release/kernel/include/linux/signal.h"
	.file 67 "/mnt/disk/jenkins/ci/workspace/chipset_release_960_xloader/opensource/component_code/vendor/huawei/extra/build/build_script/kirin_kernel_release/kernel/include/linux/pid.h"
	.file 68 "/mnt/disk/jenkins/ci/workspace/chipset_release_960_xloader/opensource/component_code/vendor/huawei/extra/build/build_script/kirin_kernel_release/kernel/include/linux/pid_namespace.h"
	.file 69 "/mnt/disk/jenkins/ci/workspace/chipset_release_960_xloader/opensource/component_code/vendor/huawei/extra/build/build_script/kirin_kernel_release/kernel/include/linux/seccomp.h"
	.file 70 "/mnt/disk/jenkins/ci/workspace/chipset_release_960_xloader/opensource/component_code/vendor/huawei/extra/build/build_script/kirin_kernel_release/kernel/include/linux/timerqueue.h"
	.file 71 "/mnt/disk/jenkins/ci/workspace/chipset_release_960_xloader/opensource/component_code/vendor/huawei/extra/build/build_script/kirin_kernel_release/kernel/include/linux/hrtimer.h"
	.file 72 "/mnt/disk/jenkins/ci/workspace/chipset_release_960_xloader/opensource/component_code/vendor/huawei/extra/build/build_script/kirin_kernel_release/kernel/include/linux/task_io_accounting.h"
	.file 73 "/mnt/disk/jenkins/ci/workspace/chipset_release_960_xloader/opensource/component_code/vendor/huawei/extra/build/build_script/kirin_kernel_release/kernel/include/linux/assoc_array.h"
	.file 74 "/mnt/disk/jenkins/ci/workspace/chipset_release_960_xloader/opensource/component_code/vendor/huawei/extra/build/build_script/kirin_kernel_release/kernel/include/linux/key.h"
	.file 75 "/mnt/disk/jenkins/ci/workspace/chipset_release_960_xloader/opensource/component_code/vendor/huawei/extra/build/build_script/kirin_kernel_release/kernel/include/linux/cred.h"
	.file 76 "/mnt/disk/jenkins/ci/workspace/chipset_release_960_xloader/opensource/component_code/vendor/huawei/extra/build/build_script/kirin_kernel_release/kernel/include/linux/idr.h"
	.file 77 "/mnt/disk/jenkins/ci/workspace/chipset_release_960_xloader/opensource/component_code/vendor/huawei/extra/build/build_script/kirin_kernel_release/kernel/include/linux/rcu_sync.h"
	.file 78 "/mnt/disk/jenkins/ci/workspace/chipset_release_960_xloader/opensource/component_code/vendor/huawei/extra/build/build_script/kirin_kernel_release/kernel/include/linux/percpu-rwsem.h"
	.file 79 "/mnt/disk/jenkins/ci/workspace/chipset_release_960_xloader/opensource/component_code/vendor/huawei/extra/build/build_script/kirin_kernel_release/kernel/include/linux/bpf-cgroup.h"
	.file 80 "/mnt/disk/jenkins/ci/workspace/chipset_release_960_xloader/opensource/component_code/vendor/huawei/extra/build/build_script/kirin_kernel_release/kernel/include/linux/cgroup-defs.h"
	.file 81 "/mnt/disk/jenkins/ci/workspace/chipset_release_960_xloader/opensource/component_code/vendor/huawei/extra/build/build_script/kirin_kernel_release/kernel/include/linux/kernfs.h"
	.file 82 "/mnt/disk/jenkins/ci/workspace/chipset_release_960_xloader/opensource/component_code/vendor/huawei/extra/build/build_script/kirin_kernel_release/kernel/include/linux/seq_file.h"
	.file 83 "/mnt/disk/jenkins/ci/workspace/chipset_release_960_xloader/opensource/component_code/vendor/huawei/extra/build/build_script/kirin_kernel_release/kernel/include/uapi/linux/taskstats.h"
	.file 84 "/mnt/disk/jenkins/ci/workspace/chipset_release_960_xloader/opensource/component_code/vendor/huawei/extra/build/build_script/kirin_kernel_release/kernel/include/linux/nsproxy.h"
	.file 85 "/mnt/disk/jenkins/ci/workspace/chipset_release_960_xloader/opensource/component_code/vendor/huawei/extra/build/build_script/kirin_kernel_release/kernel/include/linux/compat.h"
	.file 86 "/mnt/disk/jenkins/ci/workspace/chipset_release_960_xloader/opensource/component_code/vendor/huawei/extra/build/build_script/kirin_kernel_release/kernel/include/linux/stat.h"
	.file 87 "/mnt/disk/jenkins/ci/workspace/chipset_release_960_xloader/opensource/component_code/vendor/huawei/extra/build/build_script/kirin_kernel_release/kernel/include/uapi/linux/elf.h"
	.file 88 "/mnt/disk/jenkins/ci/workspace/chipset_release_960_xloader/opensource/component_code/vendor/huawei/extra/build/build_script/kirin_kernel_release/kernel/include/linux/kobject_ns.h"
	.file 89 "/mnt/disk/jenkins/ci/workspace/chipset_release_960_xloader/opensource/component_code/vendor/huawei/extra/build/build_script/kirin_kernel_release/kernel/include/linux/sysfs.h"
	.file 90 "/mnt/disk/jenkins/ci/workspace/chipset_release_960_xloader/opensource/component_code/vendor/huawei/extra/build/build_script/kirin_kernel_release/kernel/include/linux/kobject.h"
	.file 91 "/mnt/disk/jenkins/ci/workspace/chipset_release_960_xloader/opensource/component_code/vendor/huawei/extra/build/build_script/kirin_kernel_release/kernel/include/linux/kref.h"
	.file 92 "/mnt/disk/jenkins/ci/workspace/chipset_release_960_xloader/opensource/component_code/vendor/huawei/extra/build/build_script/kirin_kernel_release/kernel/include/linux/moduleparam.h"
	.file 93 "/mnt/disk/jenkins/ci/workspace/chipset_release_960_xloader/opensource/component_code/vendor/huawei/extra/build/build_script/kirin_kernel_release/kernel/include/linux/module.h"
	.file 94 "/mnt/disk/jenkins/ci/workspace/chipset_release_960_xloader/opensource/component_code/vendor/huawei/extra/build/build_script/kirin_kernel_release/kernel/include/linux/rbtree_latch.h"
	.file 95 "/mnt/disk/jenkins/ci/workspace/chipset_release_960_xloader/opensource/component_code/vendor/huawei/extra/build/build_script/kirin_kernel_release/kernel/arch/arm64/include/asm/module.h"
	.file 96 "/mnt/disk/jenkins/ci/workspace/chipset_release_960_xloader/opensource/component_code/vendor/huawei/extra/build/build_script/kirin_kernel_release/kernel/include/linux/trace_events.h"
	.file 97 "/mnt/disk/jenkins/ci/workspace/chipset_release_960_xloader/opensource/component_code/vendor/huawei/extra/build/build_script/kirin_kernel_release/kernel/include/linux/tracepoint.h"
	.file 98 "/mnt/disk/jenkins/ci/workspace/chipset_release_960_xloader/opensource/component_code/vendor/huawei/extra/build/build_script/kirin_kernel_release/kernel/include/linux/percpu_counter.h"
	.file 99 "/mnt/disk/jenkins/ci/workspace/chipset_release_960_xloader/opensource/component_code/vendor/huawei/extra/build/build_script/kirin_kernel_release/kernel/include/linux/quota.h"
	.file 100 "/mnt/disk/jenkins/ci/workspace/chipset_release_960_xloader/opensource/component_code/vendor/huawei/extra/build/build_script/kirin_kernel_release/kernel/include/linux/projid.h"
	.file 101 "/mnt/disk/jenkins/ci/workspace/chipset_release_960_xloader/opensource/component_code/vendor/huawei/extra/build/build_script/kirin_kernel_release/kernel/include/linux/path.h"
	.file 102 "/mnt/disk/jenkins/ci/workspace/chipset_release_960_xloader/opensource/component_code/vendor/huawei/extra/build/build_script/kirin_kernel_release/kernel/include/linux/list_bl.h"
	.file 103 "/mnt/disk/jenkins/ci/workspace/chipset_release_960_xloader/opensource/component_code/vendor/huawei/extra/build/build_script/kirin_kernel_release/kernel/include/linux/lockref.h"
	.file 104 "/mnt/disk/jenkins/ci/workspace/chipset_release_960_xloader/opensource/component_code/vendor/huawei/extra/build/build_script/kirin_kernel_release/kernel/include/linux/dcache.h"
	.file 105 "/mnt/disk/jenkins/ci/workspace/chipset_release_960_xloader/opensource/component_code/vendor/huawei/extra/build/build_script/kirin_kernel_release/kernel/include/linux/list_lru.h"
	.file 106 "/mnt/disk/jenkins/ci/workspace/chipset_release_960_xloader/opensource/component_code/vendor/huawei/extra/build/build_script/kirin_kernel_release/kernel/include/linux/radix-tree.h"
	.file 107 "/mnt/disk/jenkins/ci/workspace/chipset_release_960_xloader/opensource/component_code/vendor/huawei/extra/build/build_script/kirin_kernel_release/kernel/include/uapi/linux/fiemap.h"
	.file 108 "/mnt/disk/jenkins/ci/workspace/chipset_release_960_xloader/opensource/component_code/vendor/huawei/extra/build/build_script/kirin_kernel_release/kernel/include/linux/migrate_mode.h"
	.file 109 "/mnt/disk/jenkins/ci/workspace/chipset_release_960_xloader/opensource/component_code/vendor/huawei/extra/build/build_script/kirin_kernel_release/kernel/include/linux/bvec.h"
	.file 110 "/mnt/disk/jenkins/ci/workspace/chipset_release_960_xloader/opensource/component_code/vendor/huawei/extra/build/build_script/kirin_kernel_release/kernel/include/linux/delayed_call.h"
	.file 111 "/mnt/disk/jenkins/ci/workspace/chipset_release_960_xloader/opensource/component_code/vendor/huawei/extra/build/build_script/kirin_kernel_release/kernel/include/linux/uio.h"
	.file 112 "/mnt/disk/jenkins/ci/workspace/chipset_release_960_xloader/opensource/component_code/vendor/huawei/extra/build/build_script/kirin_kernel_release/kernel/include/linux/nfs_fs_i.h"
	.file 113 "/mnt/disk/jenkins/ci/workspace/chipset_release_960_xloader/opensource/component_code/vendor/huawei/extra/build/build_script/kirin_kernel_release/kernel/include/linux/poll.h"
	.file 114 "/mnt/disk/jenkins/ci/workspace/chipset_release_960_xloader/opensource/component_code/vendor/huawei/extra/build/build_script/kirin_kernel_release/kernel/include/linux/seq_buf.h"
	.file 115 "/mnt/disk/jenkins/ci/workspace/chipset_release_960_xloader/opensource/component_code/vendor/huawei/extra/build/build_script/kirin_kernel_release/kernel/include/linux/trace_seq.h"
	.file 116 "/mnt/disk/jenkins/ci/workspace/chipset_release_960_xloader/opensource/component_code/vendor/huawei/extra/build/build_script/kirin_kernel_release/kernel/include/uapi/linux/perf_event.h"
	.file 117 "/mnt/disk/jenkins/ci/workspace/chipset_release_960_xloader/opensource/component_code/vendor/huawei/extra/build/build_script/kirin_kernel_release/kernel/include/asm-generic/local.h"
	.file 118 "/mnt/disk/jenkins/ci/workspace/chipset_release_960_xloader/opensource/component_code/vendor/huawei/extra/build/build_script/kirin_kernel_release/kernel/include/asm-generic/local64.h"
	.file 119 "/mnt/disk/jenkins/ci/workspace/chipset_release_960_xloader/opensource/component_code/vendor/huawei/extra/build/build_script/kirin_kernel_release/kernel/include/linux/cgroup.h"
	.file 120 "/mnt/disk/jenkins/ci/workspace/chipset_release_960_xloader/opensource/component_code/vendor/huawei/extra/build/build_script/kirin_kernel_release/kernel/include/linux/ns_common.h"
	.file 121 "/mnt/disk/jenkins/ci/workspace/chipset_release_960_xloader/opensource/component_code/vendor/huawei/extra/build/build_script/kirin_kernel_release/kernel/include/uapi/linux/uio.h"
	.file 122 "/mnt/disk/jenkins/ci/workspace/chipset_release_960_xloader/opensource/component_code/vendor/huawei/extra/build/build_script/kirin_kernel_release/kernel/include/linux/stddef.h"
	.file 123 "/mnt/disk/jenkins/ci/workspace/chipset_release_960_xloader/opensource/component_code/vendor/huawei/extra/build/build_script/kirin_kernel_release/kernel/include/linux/ftrace.h"
	.file 124 "/mnt/disk/jenkins/ci/workspace/chipset_release_960_xloader/opensource/component_code/vendor/huawei/extra/build/build_script/kirin_kernel_release/kernel/include/linux/klist.h"
	.file 125 "/mnt/disk/jenkins/ci/workspace/chipset_release_960_xloader/opensource/component_code/vendor/huawei/extra/build/build_script/kirin_kernel_release/kernel/include/linux/pinctrl/devinfo.h"
	.file 126 "/mnt/disk/jenkins/ci/workspace/chipset_release_960_xloader/opensource/component_code/vendor/huawei/extra/build/build_script/kirin_kernel_release/kernel/include/linux/pm.h"
	.file 127 "/mnt/disk/jenkins/ci/workspace/chipset_release_960_xloader/opensource/component_code/vendor/huawei/extra/build/build_script/kirin_kernel_release/kernel/include/linux/device.h"
	.file 128 "/mnt/disk/jenkins/ci/workspace/chipset_release_960_xloader/opensource/component_code/vendor/huawei/extra/build/build_script/kirin_kernel_release/kernel/include/linux/pm_wakeup.h"
	.file 129 "/mnt/disk/jenkins/ci/workspace/chipset_release_960_xloader/opensource/component_code/vendor/huawei/extra/build/build_script/kirin_kernel_release/kernel/arch/arm64/include/asm/device.h"
	.file 130 "/mnt/disk/jenkins/ci/workspace/chipset_release_960_xloader/opensource/component_code/vendor/huawei/extra/build/build_script/kirin_kernel_release/kernel/include/linux/irq_work.h"
	.file 131 "/mnt/disk/jenkins/ci/workspace/chipset_release_960_xloader/opensource/component_code/vendor/huawei/extra/build/build_script/kirin_kernel_release/kernel/include/linux/perf_regs.h"
	.file 132 "/mnt/disk/jenkins/ci/workspace/chipset_release_960_xloader/opensource/component_code/vendor/huawei/extra/build/build_script/kirin_kernel_release/kernel/include/linux/interrupt.h"
	.file 133 "/mnt/disk/jenkins/ci/workspace/chipset_release_960_xloader/opensource/component_code/vendor/huawei/extra/build/build_script/kirin_kernel_release/kernel/drivers/vcodec/hi_vcodec/vdec/include/hi_type.h"
	.file 134 "/mnt/disk/jenkins/ci/workspace/chipset_release_960_xloader/opensource/component_code/vendor/huawei/extra/build/build_script/kirin_kernel_release/kernel/drivers/vcodec/hi_vcodec/vdec/vfmw/vfmw_v4.0/vfmw.h"
	.file 135 "/mnt/disk/jenkins/ci/workspace/chipset_release_960_xloader/opensource/component_code/vendor/huawei/extra/build/build_script/kirin_kernel_release/kernel/drivers/vcodec/hi_vcodec/vdec/vfmw/vfmw_v4.0/firmware/common/mem_manage.h"
	.file 136 "/mnt/disk/jenkins/ci/workspace/chipset_release_960_xloader/opensource/component_code/vendor/huawei/extra/build/build_script/kirin_kernel_release/kernel/drivers/vcodec/hi_vcodec/vdec/vfmw/vfmw_v4.0/firmware/osal/linux_kernel/linux_kernel_proc.h"
	.file 137 "/mnt/disk/jenkins/ci/workspace/chipset_release_960_xloader/opensource/component_code/vendor/huawei/extra/build/build_script/kirin_kernel_release/kernel/drivers/vcodec/hi_vcodec/vdec/vfmw/vfmw_v4.0/firmware/driver/HiSCDV200/scd_drv.h"
	.file 138 "/mnt/disk/jenkins/ci/workspace/chipset_release_960_xloader/opensource/component_code/vendor/huawei/extra/build/build_script/kirin_kernel_release/kernel/drivers/vcodec/hi_vcodec/vdec/vfmw/vfmw_v4.0/firmware/common/decparam.h"
	.file 139 "/mnt/disk/jenkins/ci/workspace/chipset_release_960_xloader/opensource/component_code/vendor/huawei/extra/build/build_script/kirin_kernel_release/kernel/drivers/vcodec/hi_vcodec/vdec/vfmw/vfmw_v4.0/firmware/common/vdm_drv.h"
	.file 140 "/mnt/disk/jenkins/ci/workspace/chipset_release_960_xloader/opensource/component_code/vendor/huawei/extra/build/build_script/kirin_kernel_release/kernel/drivers/vcodec/hi_vcodec/vdec/vfmw/vfmw_v4.0/firmware/common/vdm_hal.h"
	.file 141 "/mnt/disk/jenkins/ci/workspace/chipset_release_960_xloader/opensource/component_code/vendor/huawei/extra/build/build_script/kirin_kernel_release/kernel/drivers/vcodec/hi_vcodec/vdec/vfmw/vfmw_v4.0/firmware/common/public.h"
	.file 142 "/mnt/disk/jenkins/ci/workspace/chipset_release_960_xloader/opensource/component_code/vendor/huawei/extra/build/build_script/kirin_kernel_release/kernel/drivers/vcodec/hi_vcodec/vdec/vfmw/vfmw_v4.0/firmware/common/syn_cmn.h"
	.file 143 "/mnt/disk/jenkins/ci/workspace/chipset_release_960_xloader/opensource/component_code/vendor/huawei/extra/build/build_script/kirin_kernel_release/kernel/drivers/vcodec/hi_vcodec/vdec/vfmw/vfmw_v4.0/firmware/common/fsp.h"
	.file 144 "/mnt/disk/jenkins/ci/workspace/chipset_release_960_xloader/opensource/component_code/vendor/huawei/extra/build/build_script/kirin_kernel_release/kernel/drivers/vcodec/hi_vcodec/vdec/vfmw/vfmw_v4.0/firmware/common/bitstream.h"
	.file 145 "/mnt/disk/jenkins/ci/workspace/chipset_release_960_xloader/opensource/component_code/vendor/huawei/extra/build/build_script/kirin_kernel_release/kernel/drivers/vcodec/hi_vcodec/vdec/vfmw/vfmw_v4.0/firmware/common/syntax/mpeg2.h"
	.file 146 "/mnt/disk/jenkins/ci/workspace/chipset_release_960_xloader/opensource/component_code/vendor/huawei/extra/build/build_script/kirin_kernel_release/kernel/drivers/vcodec/hi_vcodec/vdec/vfmw/vfmw_v4.0/firmware/common/syntax/mpeg4.h"
	.file 147 "/mnt/disk/jenkins/ci/workspace/chipset_release_960_xloader/opensource/component_code/vendor/huawei/extra/build/build_script/kirin_kernel_release/kernel/drivers/vcodec/hi_vcodec/vdec/vfmw/vfmw_v4.0/firmware/common/syntax/h264.h"
	.file 148 "/mnt/disk/jenkins/ci/workspace/chipset_release_960_xloader/opensource/component_code/vendor/huawei/extra/build/build_script/kirin_kernel_release/kernel/drivers/vcodec/hi_vcodec/vdec/vfmw/vfmw_v4.0/firmware/common/syntax/hevc.h"
	.file 149 "/mnt/disk/jenkins/ci/workspace/chipset_release_960_xloader/opensource/component_code/vendor/huawei/extra/build/build_script/kirin_kernel_release/kernel/drivers/vcodec/hi_vcodec/vdec/vfmw/vfmw_v4.0/firmware/common/syntax/vc1.h"
	.file 150 "/mnt/disk/jenkins/ci/workspace/chipset_release_960_xloader/opensource/component_code/vendor/huawei/extra/build/build_script/kirin_kernel_release/kernel/drivers/vcodec/hi_vcodec/vdec/vfmw/vfmw_v4.0/firmware/common/syntax/real8.h"
	.file 151 "/mnt/disk/jenkins/ci/workspace/chipset_release_960_xloader/opensource/component_code/vendor/huawei/extra/build/build_script/kirin_kernel_release/kernel/drivers/vcodec/hi_vcodec/vdec/vfmw/vfmw_v4.0/firmware/common/syntax/real9.h"
	.file 152 "/mnt/disk/jenkins/ci/workspace/chipset_release_960_xloader/opensource/component_code/vendor/huawei/extra/build/build_script/kirin_kernel_release/kernel/drivers/vcodec/hi_vcodec/vdec/vfmw/vfmw_v4.0/firmware/common/syntax/divx3.h"
	.file 153 "/mnt/disk/jenkins/ci/workspace/chipset_release_960_xloader/opensource/component_code/vendor/huawei/extra/build/build_script/kirin_kernel_release/kernel/drivers/vcodec/hi_vcodec/vdec/vfmw/vfmw_v4.0/firmware/common/syntax/vp6.h"
	.file 154 "/mnt/disk/jenkins/ci/workspace/chipset_release_960_xloader/opensource/component_code/vendor/huawei/extra/build/build_script/kirin_kernel_release/kernel/drivers/vcodec/hi_vcodec/vdec/vfmw/vfmw_v4.0/firmware/common/syntax/vp8.h"
	.file 155 "/mnt/disk/jenkins/ci/workspace/chipset_release_960_xloader/opensource/component_code/vendor/huawei/extra/build/build_script/kirin_kernel_release/kernel/drivers/vcodec/hi_vcodec/vdec/vfmw/vfmw_v4.0/firmware/common/syntax/syntax.h"
	.file 156 "/mnt/disk/jenkins/ci/workspace/chipset_release_960_xloader/opensource/component_code/vendor/huawei/extra/build/build_script/kirin_kernel_release/kernel/drivers/vcodec/hi_vcodec/vdec/vfmw/vfmw_v4.0/firmware/common/vfmw_ctrl.h"
	.file 157 "/mnt/disk/jenkins/ci/workspace/chipset_release_960_xloader/opensource/component_code/vendor/huawei/extra/build/build_script/kirin_kernel_release/kernel/include/linux/kasan-checks.h"
	.file 158 "/mnt/disk/jenkins/ci/workspace/chipset_release_960_xloader/opensource/component_code/vendor/huawei/extra/build/build_script/kirin_kernel_release/kernel/arch/arm64/include/asm/cachetype.h"
	.file 159 "/mnt/disk/jenkins/ci/workspace/chipset_release_960_xloader/opensource/component_code/vendor/huawei/extra/build/build_script/kirin_kernel_release/kernel/include/linux/printk.h"
	.file 160 "/mnt/disk/jenkins/ci/workspace/chipset_release_960_xloader/opensource/component_code/vendor/huawei/extra/build/build_script/kirin_kernel_release/kernel/include/linux/kernel.h"
	.file 161 "/mnt/disk/jenkins/ci/workspace/chipset_release_960_xloader/opensource/component_code/vendor/huawei/extra/build/build_script/kirin_kernel_release/kernel/arch/arm64/include/asm/stack_pointer.h"
	.file 162 "/mnt/disk/jenkins/ci/workspace/chipset_release_960_xloader/opensource/component_code/vendor/huawei/extra/build/build_script/kirin_kernel_release/kernel/arch/arm64/include/asm/hwcap.h"
	.file 163 "/mnt/disk/jenkins/ci/workspace/chipset_release_960_xloader/opensource/component_code/vendor/huawei/extra/build/build_script/kirin_kernel_release/kernel/arch/arm64/include/asm/cpufeature.h"
	.file 164 "/mnt/disk/jenkins/ci/workspace/chipset_release_960_xloader/opensource/component_code/vendor/huawei/extra/build/build_script/kirin_kernel_release/kernel/arch/arm64/include/asm/virt.h"
	.file 165 "/mnt/disk/jenkins/ci/workspace/chipset_release_960_xloader/opensource/component_code/vendor/huawei/extra/build/build_script/kirin_kernel_release/kernel/include/linux/jiffies.h"
	.file 166 "/mnt/disk/jenkins/ci/workspace/chipset_release_960_xloader/opensource/component_code/vendor/huawei/extra/build/build_script/kirin_kernel_release/kernel/include/linux/highuid.h"
	.file 167 "/mnt/disk/jenkins/ci/workspace/chipset_release_960_xloader/opensource/component_code/vendor/huawei/extra/build/build_script/kirin_kernel_release/kernel/arch/arm64/include/asm/memory.h"
	.file 168 "/mnt/disk/jenkins/ci/workspace/chipset_release_960_xloader/opensource/component_code/vendor/huawei/extra/build/build_script/kirin_kernel_release/kernel/include/asm-generic/percpu.h"
	.file 169 "/mnt/disk/jenkins/ci/workspace/chipset_release_960_xloader/opensource/component_code/vendor/huawei/extra/build/build_script/kirin_kernel_release/kernel/include/linux/debug_locks.h"
	.file 170 "/mnt/disk/jenkins/ci/workspace/chipset_release_960_xloader/opensource/component_code/vendor/huawei/extra/build/build_script/kirin_kernel_release/kernel/include/asm-generic/pgtable.h"
	.file 171 "/mnt/disk/jenkins/ci/workspace/chipset_release_960_xloader/opensource/component_code/vendor/huawei/extra/build/build_script/kirin_kernel_release/kernel/arch/arm64/include/asm/irq.h"
	.file 172 "/mnt/disk/jenkins/ci/workspace/chipset_release_960_xloader/opensource/component_code/vendor/huawei/extra/build/build_script/kirin_kernel_release/kernel/arch/arm64/include/asm/hardirq.h"
	.file 173 "/mnt/disk/jenkins/ci/workspace/chipset_release_960_xloader/opensource/component_code/vendor/huawei/extra/build/build_script/kirin_kernel_release/kernel/include/linux/slab.h"
	.file 174 "/mnt/disk/jenkins/ci/workspace/chipset_release_960_xloader/opensource/component_code/vendor/huawei/extra/build/build_script/kirin_kernel_release/kernel/include/linux/proc_fs.h"
	.file 175 "/mnt/disk/jenkins/ci/workspace/chipset_release_960_xloader/opensource/component_code/vendor/huawei/extra/build/build_script/kirin_kernel_release/kernel/include/linux/string.h"
	.file 176 "/mnt/disk/jenkins/ci/workspace/chipset_release_960_xloader/opensource/component_code/vendor/huawei/extra/build/build_script/kirin_kernel_release/kernel/arch/arm64/include/asm/string.h"