	.cpu generic+fp+simd
	.file	"hisi-blk-iosched-ufs-mq.c"
	.text
.Ltext0:
	.cfi_sections	.debug_frame
	.align	2
	.type	ufs_mq_tag_update_depth, %function
ufs_mq_tag_update_depth:
.LFB3145:
	.file 1 "/mnt/disk/jenkins/ci/workspace/chipset_release_960_xloader/opensource/component_code/vendor/huawei/extra/build/build_script/kirin_kernel_release/kernel/block/hisi-blk-iosched-ufs-mq.c"
	.loc 1 447 0
	.cfi_startproc
.LVL0:
	.loc 1 449 0
	mov	w0, -22
.LVL1:
	ret
	.cfi_endproc
.LFE3145:
	.size	ufs_mq_tag_update_depth, .-ufs_mq_tag_update_depth
	.align	2
	.type	ufs_mq_async_sched_fifo_init, %function
ufs_mq_async_sched_fifo_init:
.LFB3178:
	.loc 1 1116 0
	.cfi_startproc
.LVL2:
	.loc 1 1117 0
	ldr	x1, [x0,13016]
.LVL3:
	.loc 1 1118 0
	add	x0, x1, 264
.LVL4:
.LBB1582:
.LBB1583:
.LBB1584:
.LBB1585:
.LBB1586:
	.file 2 "/mnt/disk/jenkins/ci/workspace/chipset_release_960_xloader/opensource/component_code/vendor/huawei/extra/build/build_script/kirin_kernel_release/kernel/include/linux/compiler.h"
	.loc 2 276 0
	str	x0, [x1,264]
.LBE1586:
.LBE1585:
.LBE1584:
	.file 3 "/mnt/disk/jenkins/ci/workspace/chipset_release_960_xloader/opensource/component_code/vendor/huawei/extra/build/build_script/kirin_kernel_release/kernel/include/linux/list.h"
	.loc 3 28 0
	str	x0, [x0,8]
.LBE1583:
.LBE1582:
	.loc 1 1119 0
	ret
	.cfi_endproc
.LFE3178:
	.size	ufs_mq_async_sched_fifo_init, .-ufs_mq_async_sched_fifo_init
	.align	2
	.type	ufs_mq_async_sched_fifo_insert, %function
ufs_mq_async_sched_fifo_insert:
.LFB3179:
	.loc 1 1122 0
	.cfi_startproc
.LVL5:
	.loc 1 1123 0
	ldr	x1, [x1,13016]
.LVL6:
	.loc 1 1124 0
	add	x2, x0, 440
.LBB1587:
.LBB1588:
	.loc 3 77 0
	add	x1, x1, 264
.LVL7:
	ldr	x3, [x1,8]
.LBB1589:
.LBB1590:
	.loc 3 42 0
	str	x2, [x1,8]
	.loc 3 43 0
	str	x1, [x0,440]
.LVL8:
	.loc 3 44 0
	str	x3, [x0,448]
.LBB1591:
.LBB1592:
.LBB1593:
	.loc 2 276 0
	str	x2, [x3]
.LBE1593:
.LBE1592:
.LBE1591:
.LBE1590:
.LBE1589:
.LBE1588:
.LBE1587:
	.loc 1 1125 0
	ret
	.cfi_endproc
.LFE3179:
	.size	ufs_mq_async_sched_fifo_insert, .-ufs_mq_async_sched_fifo_insert
	.align	2
	.type	ufs_mq_async_sched_fifo_seek, %function
ufs_mq_async_sched_fifo_seek:
.LFB3180:
	.loc 1 1128 0
	.cfi_startproc
.LVL9:
	.loc 1 1129 0
	ldr	x0, [x0,13016]
.LVL10:
	.loc 1 1130 0
	add	x2, x0, 264
.LBB1594:
.LBB1595:
	.loc 3 207 0
	ldr	x1, [x0,264]
.LVL11:
	.loc 3 208 0
	cmp	x2, x1
	beq	.L9
.L5:
.LBE1595:
.LBE1594:
.LBB1597:
.LBB1598:
.LBB1599:
.LBB1600:
	.loc 3 102 0
	ldr	x3, [x1]
.LBE1600:
.LBE1599:
.LBE1598:
	.loc 1 1133 0
	sub	x0, x1, #440
.LVL12:
.LBB1613:
.LBB1607:
.LBB1606:
	.loc 3 102 0
	ldr	x2, [x1,8]
.LBB1601:
.LBB1602:
	.loc 3 89 0
	str	x2, [x3,8]
.LBB1603:
.LBB1604:
.LBB1605:
	.loc 2 276 0
	str	x3, [x2]
.LBE1605:
.LBE1604:
.LBE1603:
.LBE1602:
.LBE1601:
.LBE1606:
.LBE1607:
.LBB1608:
.LBB1609:
.LBB1610:
.LBB1611:
.LBB1612:
	str	x1, [x1]
.LBE1612:
.LBE1611:
.LBE1610:
	.loc 3 28 0
	str	x1, [x1,8]
.LBE1609:
.LBE1608:
.LBE1613:
.LBE1597:
	.loc 1 1137 0
	ret
.LVL13:
.L9:
.LBB1614:
.LBB1596:
	.loc 3 208 0 discriminator 1
	ldr	x0, [x0,272]
.LVL14:
	cmp	x2, x0
	bne	.L5
.LBE1596:
.LBE1614:
	.loc 1 1135 0
	mov	x0, 0
	.loc 1 1137 0
	ret
	.cfi_endproc
.LFE3180:
	.size	ufs_mq_async_sched_fifo_seek, .-ufs_mq_async_sched_fifo_seek
	.align	2
	.type	ufs_mq_async_sched_fifo_requeue, %function
ufs_mq_async_sched_fifo_requeue:
.LFB3181:
	.loc 1 1140 0
	.cfi_startproc
.LVL15:
	.loc 1 1141 0
	ldr	x1, [x1,13016]
.LVL16:
	.loc 1 1142 0
	add	x2, x0, 440
.LBB1615:
.LBB1616:
	.loc 3 63 0
	add	x4, x1, 264
	ldr	x3, [x1,264]
.LBB1617:
.LBB1618:
	.loc 3 42 0
	str	x2, [x3,8]
	.loc 3 43 0
	str	x3, [x0,440]
	.loc 3 44 0
	str	x4, [x0,448]
.LBB1619:
.LBB1620:
.LBB1621:
	.loc 2 276 0
	str	x2, [x1,264]
.LBE1621:
.LBE1620:
.LBE1619:
.LBE1618:
.LBE1617:
.LBE1616:
.LBE1615:
	.loc 1 1143 0
	ret
	.cfi_endproc
.LFE3181:
	.size	ufs_mq_async_sched_fifo_requeue, .-ufs_mq_async_sched_fifo_requeue
	.align	2
	.type	ufs_mq_async_sched_fifo_is_empty, %function
ufs_mq_async_sched_fifo_is_empty:
.LFB3183:
	.loc 1 1166 0
	.cfi_startproc
.LVL17:
	.loc 1 1167 0
	ldr	x0, [x0,13016]
.LVL18:
	.loc 1 1168 0
	add	x1, x0, 264
.LBB1622:
.LBB1623:
.LBB1624:
.LBB1625:
.LBB1626:
	.loc 2 247 0 discriminator 5
	ldr	x0, [x0,264]
.LVL19:
.LBE1626:
.LBE1625:
.LBE1624:
	.loc 3 189 0 discriminator 5
	cmp	x1, x0
.LBE1623:
.LBE1622:
	.loc 1 1169 0
	cset	w0, eq
	ret
	.cfi_endproc
.LFE3183:
	.size	ufs_mq_async_sched_fifo_is_empty, .-ufs_mq_async_sched_fifo_is_empty
	.align	2
	.type	ufs_mq_req_alloc_prep, %function
ufs_mq_req_alloc_prep:
.LFB3212:
	.loc 1 1632 0
	.cfi_startproc
.LVL20:
	.loc 1 1632 0
	uxtb	w5, w5
	.loc 1 1633 0 discriminator 2
	orr	x1, x4, 8
.LVL21:
	cmp	w5, wzr
	csel	x4, x1, x4, eq
.LVL22:
	.loc 1 1633 0 is_stmt 0 discriminator 4
	str	x4, [x0,8]
	.loc 1 1635 0 is_stmt 1
	mov	w0, 0
.LVL23:
	ret
	.cfi_endproc
.LFE3212:
	.size	ufs_mq_req_alloc_prep, .-ufs_mq_req_alloc_prep
	.align	2
	.type	ufs_mq_req_init, %function
ufs_mq_req_init:
.LFB3213:
	.loc 1 1639 0
	.cfi_startproc
.LVL24:
	.loc 1 1648 0
	add	x3, x2, 472
	.loc 1 1650 0
	mov	w0, 0
.LVL25:
	.loc 1 1646 0
	str	x1, [x2,280]
	.loc 1 1647 0
	str	xzr, [x2,264]
	.loc 1 1648 0
	str	x3, [x2,472]
	.loc 1 1650 0
	ret
	.cfi_endproc
.LFE3213:
	.size	ufs_mq_req_init, .-ufs_mq_req_init
	.align	2
	.type	ufs_mq_req_deinit, %function
ufs_mq_req_deinit:
.LFB3215:
	.loc 1 1673 0
	.cfi_startproc
.LVL26:
	.loc 1 1678 0
	mov	w0, 0
.LVL27:
	ret
	.cfi_endproc
.LFE3215:
	.size	ufs_mq_req_deinit, .-ufs_mq_req_deinit
	.align	2
	.type	ufs_mq_ctx_put, %function
ufs_mq_ctx_put:
.LFB3219:
	.loc 1 1743 0
	.cfi_startproc
.LVL28:
	.loc 1 1745 0
.LBB1627:
.LBB1628:
.LBB1629:
.LBB1630:
.LBB1631:
	.file 4 "/mnt/disk/jenkins/ci/workspace/chipset_release_960_xloader/opensource/component_code/vendor/huawei/extra/build/build_script/kirin_kernel_release/kernel/arch/arm64/include/asm/current.h"
	.loc 4 20 0
#APP
// 20 "/mnt/disk/jenkins/ci/workspace/chipset_release_960_xloader/opensource/component_code/vendor/huawei/extra/build/build_script/kirin_kernel_release/kernel/arch/arm64/include/asm/current.h" 1
	mrs x2, sp_el0
// 0 "" 2
.LVL29:
#NO_APP
.LBE1631:
.LBE1630:
.LBE1629:
	.file 5 "/mnt/disk/jenkins/ci/workspace/chipset_release_960_xloader/opensource/component_code/vendor/huawei/extra/build/build_script/kirin_kernel_release/kernel/include/asm-generic/preempt.h"
	.loc 5 58 0
	ldr	w1, [x2,16]
.LBE1628:
.LBE1627:
	.loc 1 1749 0
	mov	w0, 0
.LVL30:
.LBB1633:
.LBB1632:
	.loc 5 58 0
	sub	w1, w1, #1
	str	w1, [x2,16]
.LBE1632:
.LBE1633:
	.loc 1 1749 0
	ret
	.cfi_endproc
.LFE3219:
	.size	ufs_mq_ctx_put, .-ufs_mq_ctx_put
	.align	2
	.type	ufs_mq_hctx_get_by_req, %function
ufs_mq_hctx_get_by_req:
.LFB3220:
	.loc 1 1752 0
	.cfi_startproc
.LVL31:
	.loc 1 1752 0
	mov	x3, x0
	.loc 1 1756 0
	mov	w0, 0
.LVL32:
	.loc 1 1753 0
	ldr	x2, [x3,64]
.LVL33:
	.loc 1 1754 0
	ldr	x4, [x3,280]
.LBB1634:
.LBB1635:
	.file 6 "/mnt/disk/jenkins/ci/workspace/chipset_release_960_xloader/opensource/component_code/vendor/huawei/extra/build/build_script/kirin_kernel_release/kernel/block/blk-mq.h"
	.loc 6 53 0
	ldr	x3, [x2,288]
.LVL34:
.LBE1635:
.LBE1634:
	.loc 1 1754 0
	ldr	w4, [x4,64]
.LBB1637:
.LBB1636:
	.loc 6 53 0
	ldr	x2, [x2,312]
.LVL35:
	ldr	w3, [x3,w4,sxtw 2]
	ldr	x2, [x2,w3,uxtw 3]
.LBE1636:
.LBE1637:
	.loc 1 1754 0
	str	x2, [x1]
	.loc 1 1756 0
	ret
	.cfi_endproc
.LFE3220:
	.size	ufs_mq_hctx_get_by_req, .-ufs_mq_hctx_get_by_req
	.align	2
	.type	ufs_mq_hctx_free_in_ctx_map, %function
ufs_mq_hctx_free_in_ctx_map:
.LFB3221:
	.loc 1 1759 0
	.cfi_startproc
.LVL36:
	.loc 1 1760 0
	str	xzr, [x1,184]
	.loc 1 1762 0
	mov	w0, 0
.LVL37:
	ret
	.cfi_endproc
.LFE3221:
	.size	ufs_mq_hctx_free_in_ctx_map, .-ufs_mq_hctx_free_in_ctx_map
	.align	2
	.type	ufs_mq_poll_enable, %function
ufs_mq_poll_enable:
.LFB3226:
	.loc 1 1797 0
	.cfi_startproc
.LVL38:
.LBB1638:
.LBB1639:
.LBB1640:
	.file 7 "/mnt/disk/jenkins/ci/workspace/chipset_release_960_xloader/opensource/component_code/vendor/huawei/extra/build/build_script/kirin_kernel_release/kernel/include/asm-generic/bitops/non-atomic.h"
	.loc 7 105 0
	adrp	x7, __cpu_online_mask
.LBE1640:
.LBE1639:
.LBE1638:
	.loc 1 1805 0
	mov	w0, 0
.LVL39:
.LBB1643:
.LBB1642:
.LBB1641:
	.loc 7 105 0
	ldr	x4, [x7,#:lo12:__cpu_online_mask]
	ldr	x3, [x7,#:lo12:__cpu_online_mask]
	ldr	x1, [x7,#:lo12:__cpu_online_mask]
.LVL40:
	and	w4, w4, 1
	ldr	x6, [x7,#:lo12:__cpu_online_mask]
	ubfx	x3, x3, 1, 1
	ldr	x5, [x7,#:lo12:__cpu_online_mask]
	add	w3, w3, w4
	ubfx	x1, x1, 2, 1
	ldr	x4, [x7,#:lo12:__cpu_online_mask]
	add	w1, w1, w3
	ubfx	x6, x6, 3, 1
	ldr	x3, [x7,#:lo12:__cpu_online_mask]
	add	w6, w6, w1
	ubfx	x5, x5, 4, 1
	ldr	x1, [x7,#:lo12:__cpu_online_mask]
	add	w5, w5, w6
	ubfx	x4, x4, 5, 1
	add	w4, w4, w5
	ubfx	x3, x3, 6, 1
	add	w3, w3, w4
	ubfx	x1, x1, 7, 1
	add	w1, w1, w3
.LBE1641:
.LBE1642:
.LBE1643:
	.loc 1 1803 0
	cmp	w1, 1
	cset	w1, gt
	strb	w1, [x2]
	.loc 1 1805 0
	ret
	.cfi_endproc
.LFE3226:
	.size	ufs_mq_poll_enable, .-ufs_mq_poll_enable
	.align	2
	.global	blk_mq_tagset_ufs_mq_iosched_enable
	.type	blk_mq_tagset_ufs_mq_iosched_enable, %function
blk_mq_tagset_ufs_mq_iosched_enable:
.LFB3231:
	.loc 1 1957 0
	.cfi_startproc
.LVL41:
	.loc 1 1959 0
	cbnz	w1, .L24
	.loc 1 1962 0
	ldr	x1, [x0,40]
.LVL42:
	add	x0, x0, 16
.LVL43:
	and	x1, x1, -65
	str	x1, [x0,24]
	.loc 1 1963 0
	ret
.LVL44:
.L24:
	.loc 1 1960 0
	add	x0, x0, 16
.LVL45:
	ldr	x1, [x0,24]
.LVL46:
	orr	x1, x1, 64
	str	x1, [x0,24]
	.loc 1 1963 0
	ret
	.cfi_endproc
.LFE3231:
	.size	blk_mq_tagset_ufs_mq_iosched_enable, .-blk_mq_tagset_ufs_mq_iosched_enable
	.align	2
	.type	ufs_mq_status_dump, %function
ufs_mq_status_dump:
.LFB3227:
	.loc 1 1808 0
	.cfi_startproc
.LVL47:
	stp	x29, x30, [sp, -32]!
	.cfi_def_cfa_offset 32
	.cfi_offset 29, -32
	.cfi_offset 30, -24
	add	x29, sp, 0
	.cfi_def_cfa_register 29
	stp	x19, x20, [sp,16]
	.cfi_offset 19, -16
	.cfi_offset 20, -8
	.loc 1 1809 0
	ldr	x19, [x0,13016]
.LVL48:
	.loc 1 1811 0
	cbz	x19, .L27
	mov	x4, x0
.LBB1644:
.LBB1645:
.LBB1646:
	.loc 2 247 0 discriminator 4
	ldr	w2, [x0,1164]
.LVL49:
.LBE1646:
.LBE1645:
.LBE1644:
.LBB1647:
.LBB1648:
.LBB1649:
	ldr	w3, [x0,1168]
.LBE1649:
.LBE1648:
.LBE1647:
	.loc 1 1814 0 discriminator 18
	adrp	x0, .LC0
.LVL50:
	add	x0, x0, :lo12:.LC0
	mov	x20, x1
.LBB1650:
.LBB1651:
.LBB1652:
	.loc 2 247 0 discriminator 4
	ldr	w4, [x4,1172]
.LVL51:
.LBE1652:
.LBE1651:
.LBE1650:
	.loc 1 1814 0 discriminator 18
	bl	printk
.LVL52:
.LBB1653:
.LBB1654:
.LBB1655:
	.loc 2 247 0 discriminator 4
	ldr	w2, [x19,8]
.LBE1655:
.LBE1654:
.LBE1653:
	.loc 1 1817 0 discriminator 18
	adrp	x0, .LC1
.LBB1656:
.LBB1657:
.LBB1658:
	.loc 2 247 0 discriminator 4
	ldr	w3, [x19,12]
.LBE1658:
.LBE1657:
.LBE1656:
	.loc 1 1817 0 discriminator 18
	mov	x1, x20
.LBB1659:
.LBB1660:
.LBB1661:
	.loc 2 247 0 discriminator 4
	ldr	w4, [x19,16]
.LBE1661:
.LBE1660:
.LBE1659:
	.loc 1 1817 0 discriminator 18
	add	x0, x0, :lo12:.LC1
	bl	printk
.LVL53:
	.loc 1 1820 0
	mov	w0, 0
	.loc 1 1821 0
	ldp	x19, x20, [sp,16]
	.cfi_remember_state
	.cfi_restore 20
	.cfi_restore 19
.LVL54:
	ldp	x29, x30, [sp], 32
	.cfi_restore 30
	.cfi_restore 29
	.cfi_def_cfa 31, 0
	ret
.LVL55:
.L27:
	.cfi_restore_state
	.loc 1 1812 0
	mov	w0, -22
.LVL56:
	.loc 1 1821 0
	ldp	x19, x20, [sp,16]
	.cfi_restore 19
	.cfi_restore 20
.LVL57:
	ldp	x29, x30, [sp], 32
	.cfi_restore 29
	.cfi_restore 30
	.cfi_def_cfa 31, 0
	ret
	.cfi_endproc
.LFE3227:
	.size	ufs_mq_status_dump, .-ufs_mq_status_dump
	.align	2
	.type	ufs_mq_queue_rq, %function
ufs_mq_queue_rq:
.LFB3162:
	.loc 1 753 0
	.cfi_startproc
.LVL58:
	stp	x29, x30, [sp, -48]!
	.cfi_def_cfa_offset 48
	.cfi_offset 29, -48
	.cfi_offset 30, -40
	add	x29, sp, 0
	.cfi_def_cfa_register 29
	stp	x19, x20, [sp,16]
	.cfi_offset 19, -32
	.cfi_offset 20, -24
	.loc 1 753 0
	mov	x19, x0
	mov	x0, x1
.LVL59:
	.loc 1 754 0
	ldr	w5, [x19,84]
	cmp	w5, 1
	bne	.L40
	ldr	x5, [x19,88]
.LBB1662:
.LBB1663:
.LBB1664:
.LBB1665:
	.loc 1 643 0
	tbz	x5, 3, .L31
	.loc 1 644 0
	tbnz	x5, 11, .L41
.LBB1666:
.LBB1667:
	.file 8 "/mnt/disk/jenkins/ci/workspace/chipset_release_960_xloader/opensource/component_code/vendor/huawei/extra/build/build_script/kirin_kernel_release/kernel/arch/arm64/include/asm/atomic_ll_sc.h"
	.loc 8 113 0
	add	x6, x2, 12
#APP
// 113 "/mnt/disk/jenkins/ci/workspace/chipset_release_960_xloader/opensource/component_code/vendor/huawei/extra/build/build_script/kirin_kernel_release/kernel/arch/arm64/include/asm/atomic_ll_sc.h" 1
	// atomic_add_return
	prfm	pstl1strm, [x6]
1:	ldxr	w5, [x6]
	add	w5, w5, 1
	stlxr	w1, w5, [x6]
	cbnz	w1, 1b
	dmb ish
// 0 "" 2
.LVL60:
#NO_APP
.LBE1667:
.LBE1666:
	.loc 1 653 0
	ldr	w1, [x2,328]
.LVL61:
	cmp	w5, w1
	bgt	.L36
.LVL62:
.L33:
.LBE1665:
.LBE1664:
	.loc 1 733 0
	ldr	x4, [x4,280]
.LVL63:
	mov	x1, x3
.LVL64:
	str	x2, [x29,40]
	ldr	x3, [x4]
.LVL65:
	blr	x3
.LVL66:
	mov	w20, w0
.LVL67:
	.loc 1 735 0
	mov	w1, 6
	mov	x0, x19
	bl	hisi_blk_latency_req_check
.LVL68:
	.loc 1 737 0
	ldr	x2, [x29,40]
.LVL69:
	cbnz	w20, .L39
	mov	w0, 0
.LVL70:
.L30:
.LBE1663:
.LBE1662:
	.loc 1 757 0
	ldp	x19, x20, [sp,16]
	.cfi_remember_state
	.cfi_restore 20
	.cfi_restore 19
.LVL71:
	ldp	x29, x30, [sp], 48
	.cfi_restore 30
	.cfi_restore 29
	.cfi_def_cfa 31, 0
	ret
.LVL72:
.L40:
	.cfi_restore_state
	.loc 1 755 0
	ldr	x2, [x4,280]
.LVL73:
	mov	x1, x3
	ldr	x2, [x2]
	blr	x2
.LVL74:
	.loc 1 757 0
	ldp	x19, x20, [sp,16]
	.cfi_remember_state
	.cfi_restore 19
	.cfi_restore 20
.LVL75:
	ldp	x29, x30, [sp], 48
	.cfi_restore 29
	.cfi_restore 30
	.cfi_def_cfa 31, 0
	ret
.LVL76:
.L31:
	.cfi_restore_state
.LBB1699:
.LBB1697:
.LBB1674:
.LBB1672:
.LBB1668:
.LBB1669:
	.loc 8 113 0
	add	x6, x2, 16
#APP
// 113 "/mnt/disk/jenkins/ci/workspace/chipset_release_960_xloader/opensource/component_code/vendor/huawei/extra/build/build_script/kirin_kernel_release/kernel/arch/arm64/include/asm/atomic_ll_sc.h" 1
	// atomic_add_return
	prfm	pstl1strm, [x6]
1:	ldxr	w5, [x6]
	add	w5, w5, 1
	stlxr	w1, w5, [x6]
	cbnz	w1, 1b
	dmb ish
// 0 "" 2
.LVL77:
#NO_APP
.LBE1669:
.LBE1668:
	.loc 1 668 0
	ldr	w1, [x2,332]
.LVL78:
	cmp	w5, w1
	ble	.L33
.LVL79:
.L36:
	.loc 1 658 0
	mov	w0, 2
.LVL80:
	mov	w20, 1
.LVL81:
	str	w0, [x19,276]
.L35:
	ldr	x0, [x19,88]
.LBE1672:
.LBE1674:
.LBB1675:
.LBB1676:
	.loc 1 695 0
	tbz	x0, 3, .L37
	.loc 1 696 0
	tbnz	x0, 11, .L42
.LBB1677:
.LBB1678:
	.loc 8 114 0
	add	x2, x2, 12
.LVL82:
#APP
// 114 "/mnt/disk/jenkins/ci/workspace/chipset_release_960_xloader/opensource/component_code/vendor/huawei/extra/build/build_script/kirin_kernel_release/kernel/arch/arm64/include/asm/atomic_ll_sc.h" 1
	// atomic_sub
	prfm	pstl1strm, [x2]
1:	ldxr	w0, [x2]
	sub	w0, w0, 1
	stxr	w1, w0, [x2]
	cbnz	w1, 1b
// 0 "" 2
.LVL83:
#NO_APP
.LBE1678:
.LBE1677:
.LBE1676:
.LBE1675:
	.loc 1 749 0
	mov	w0, w20
.LVL84:
.LBE1697:
.LBE1699:
	.loc 1 757 0
	ldp	x19, x20, [sp,16]
	.cfi_remember_state
	.cfi_restore 19
	.cfi_restore 20
.LVL85:
	ldp	x29, x30, [sp], 48
	.cfi_restore 29
	.cfi_restore 30
	.cfi_def_cfa 31, 0
	ret
.LVL86:
.L39:
	.cfi_restore_state
.LBB1700:
.LBB1698:
	.loc 1 740 0
	mov	w0, 1
	str	w0, [x19,276]
.LBB1685:
.LBB1686:
.LBB1687:
	.loc 2 247 0 discriminator 4
	ldr	w3, [x2,8]
.LBE1687:
.LBE1686:
.LBE1685:
.LBB1688:
.LBB1689:
.LBB1690:
	ldr	w0, [x2,12]
.LBE1690:
.LBE1689:
.LBE1688:
.LBB1691:
.LBB1692:
.LBB1693:
	ldr	w1, [x2,16]
.LBE1693:
.LBE1692:
.LBE1691:
	.loc 1 742 0 discriminator 11
	add	w0, w3, w0
	.loc 1 742 0 is_stmt 0 discriminator 17
	add	w0, w0, w1
	cmp	w0, 8
	bgt	.L35
	.loc 1 743 0 is_stmt 1
	mov	w0, 3
	str	w0, [x19,276]
	b	.L35
.LVL87:
.L41:
.LBB1694:
.LBB1673:
.LBB1670:
.LBB1671:
	.loc 8 113 0
	add	x6, x2, 8
#APP
// 113 "/mnt/disk/jenkins/ci/workspace/chipset_release_960_xloader/opensource/component_code/vendor/huawei/extra/build/build_script/kirin_kernel_release/kernel/arch/arm64/include/asm/atomic_ll_sc.h" 1
	// atomic_add
	prfm	pstl1strm, [x6]
1:	ldxr	w1, [x6]
	add	w1, w1, 1
	stxr	w5, w1, [x6]
	cbnz	w5, 1b
// 0 "" 2
.LVL88:
#NO_APP
	b	.L33
.LVL89:
.L37:
.LBE1671:
.LBE1670:
.LBE1673:
.LBE1694:
.LBB1695:
.LBB1683:
.LBB1679:
.LBB1680:
	.loc 8 114 0
	add	x2, x2, 16
.LVL90:
#APP
// 114 "/mnt/disk/jenkins/ci/workspace/chipset_release_960_xloader/opensource/component_code/vendor/huawei/extra/build/build_script/kirin_kernel_release/kernel/arch/arm64/include/asm/atomic_ll_sc.h" 1
	// atomic_sub
	prfm	pstl1strm, [x2]
1:	ldxr	w0, [x2]
	sub	w0, w0, 1
	stxr	w1, w0, [x2]
	cbnz	w1, 1b
// 0 "" 2
.LVL91:
#NO_APP
.LBE1680:
.LBE1679:
.LBE1683:
.LBE1695:
	.loc 1 749 0
	mov	w0, w20
.LVL92:
	b	.L30
.LVL93:
.L42:
.LBB1696:
.LBB1684:
.LBB1681:
.LBB1682:
	.loc 8 114 0
	add	x2, x2, 8
.LVL94:
#APP
// 114 "/mnt/disk/jenkins/ci/workspace/chipset_release_960_xloader/opensource/component_code/vendor/huawei/extra/build/build_script/kirin_kernel_release/kernel/arch/arm64/include/asm/atomic_ll_sc.h" 1
	// atomic_sub
	prfm	pstl1strm, [x2]
1:	ldxr	w0, [x2]
	sub	w0, w0, 1
	stxr	w1, w0, [x2]
	cbnz	w1, 1b
// 0 "" 2
.LVL95:
#NO_APP
.LBE1682:
.LBE1681:
.LBE1684:
.LBE1696:
	.loc 1 749 0
	mov	w0, w20
.LVL96:
	b	.L30
.LBE1698:
.LBE1700:
	.cfi_endproc
.LFE3162:
	.size	ufs_mq_queue_rq, .-ufs_mq_queue_rq
	.align	2
	.type	ufs_mq_insert_async_list, %function
ufs_mq_insert_async_list:
.LFB3195:
	.loc 1 1327 0
	.cfi_startproc
.LVL97:
	stp	x29, x30, [sp, -64]!
	.cfi_def_cfa_offset 64
	.cfi_offset 29, -64
	.cfi_offset 30, -56
	add	x29, sp, 0
	.cfi_def_cfa_register 29
	stp	x19, x20, [sp,16]
	.cfi_offset 19, -48
	.cfi_offset 20, -40
	mov	x19, x1
	str	x23, [sp,48]
	stp	x21, x22, [sp,32]
	.cfi_offset 23, -16
	.cfi_offset 21, -32
	.cfi_offset 22, -24
	.loc 1 1331 0
	mov	w1, 5
.LVL98:
	.loc 1 1327 0
	mov	x22, x0
	.loc 1 1329 0
	ldr	x20, [x19,13016]
.LVL99:
	.loc 1 1331 0
	bl	hisi_blk_latency_req_check
.LVL100:
	.loc 1 1332 0
	ldr	x0, [x19,13024]
	cbz	x0, .L43
	.loc 1 1332 0 is_stmt 0 discriminator 1
	ldr	x21, [x0,208]
	cbz	x21, .L43
.LBB1701:
	.loc 1 1334 0 is_stmt 1
	ldr	x0, [x21]
	ldr	x0, [x0,16]
	cbz	x0, .L43
.LBB1702:
.LBB1703:
	.file 9 "/mnt/disk/jenkins/ci/workspace/chipset_release_960_xloader/opensource/component_code/vendor/huawei/extra/build/build_script/kirin_kernel_release/kernel/include/linux/spinlock.h"
	.loc 9 291 0
	add	x20, x20, 304
.LVL101:
.LBE1703:
.LBE1702:
	.loc 1 1335 0 discriminator 1
	mov	x0, x20
	bl	_raw_spin_lock_irqsave
.LVL102:
	mov	x23, x0
.LVL103:
	.loc 1 1336 0
	ldr	x2, [x21]
	mov	x0, x22
	mov	x1, x19
	ldr	x2, [x2,16]
	blr	x2
.LVL104:
.LBB1704:
.LBB1705:
	.loc 9 362 0
	mov	x0, x20
	mov	x1, x23
	bl	_raw_spin_unlock_irqrestore
.LVL105:
.L43:
.LBE1705:
.LBE1704:
.LBE1701:
	.loc 1 1340 0
	ldp	x19, x20, [sp,16]
	.cfi_restore 20
	.cfi_restore 19
.LVL106:
	ldp	x21, x22, [sp,32]
	.cfi_restore 22
	.cfi_restore 21
.LVL107:
	ldr	x23, [sp,48]
	.cfi_restore 23
.LVL108:
	ldp	x29, x30, [sp], 64
	.cfi_restore 30
	.cfi_restore 29
	.cfi_def_cfa 31, 0
	ret
	.cfi_endproc
.LFE3195:
	.size	ufs_mq_insert_async_list, .-ufs_mq_insert_async_list
	.align	2
	.type	ufs_mq_run_delay_queue, %function
ufs_mq_run_delay_queue:
.LFB3224:
	.loc 1 1781 0
	.cfi_startproc
.LVL109:
	stp	x29, x30, [sp, -64]!
	.cfi_def_cfa_offset 64
	.cfi_offset 29, -64
	.cfi_offset 30, -56
.LBB1706:
.LBB1707:
.LBB1708:
.LBB1709:
	.file 10 "/mnt/disk/jenkins/ci/workspace/chipset_release_960_xloader/opensource/component_code/vendor/huawei/extra/build/build_script/kirin_kernel_release/kernel/include/linux/workqueue.h"
	.loc 10 492 0
	mov	x3, 0
.LBE1709:
.LBE1708:
.LBE1707:
.LBE1706:
	.loc 1 1781 0
	add	x29, sp, 0
	.cfi_def_cfa_register 29
	stp	x19, x20, [sp,16]
	.cfi_offset 19, -48
	.cfi_offset 20, -40
	mov	x19, x0
.LBB1716:
.LBB1714:
.LBB1712:
.LBB1710:
	.loc 10 492 0
	mov	w0, 8
.LVL110:
.LBE1710:
.LBE1712:
.LBE1714:
.LBE1716:
	.loc 1 1781 0
	stp	x21, x22, [sp,32]
	.cfi_offset 21, -32
	.cfi_offset 22, -24
.LBB1717:
.LBB1715:
	.loc 1 762 0
	adrp	x22, .LANCHOR0
	ldr	x2, [x19,13016]
.LBB1713:
.LBB1711:
	.loc 10 492 0
	ldr	x1, [x22,#:lo12:.LANCHOR0]
	add	x2, x2, 24
	bl	queue_delayed_work_on
.LVL111:
.LBE1711:
.LBE1713:
.LBE1715:
.LBE1717:
.LBB1718:
.LBB1719:
	.loc 1 1363 0
	ldr	x0, [x19,13024]
	.loc 1 1362 0
	ldr	x2, [x19,13016]
.LVL112:
	.loc 1 1363 0
	cbz	x0, .L55
	.loc 1 1363 0 is_stmt 0 discriminator 1
	ldr	x21, [x0,208]
	cbz	x21, .L55
.LBB1720:
	.loc 1 1365 0 is_stmt 1
	ldr	x0, [x21]
	ldr	x0, [x0,48]
	cbz	x0, .L55
.LBB1721:
.LBB1722:
	.loc 9 291 0
	add	x20, x2, 304
.LBE1722:
.LBE1721:
	.loc 1 1366 0 discriminator 1
	mov	x0, x20
	bl	_raw_spin_lock_irqsave
.LVL113:
	str	x0, [x29,56]
	.loc 1 1367 0
	ldr	x2, [x21]
	mov	x0, x19
.LVL114:
	ldr	x2, [x2,48]
	blr	x2
.LVL115:
	uxtb	w21, w0
.LVL116:
.LBB1723:
.LBB1724:
	.loc 9 362 0
	ldr	x1, [x29,56]
.LVL117:
	mov	x0, x20
	bl	_raw_spin_unlock_irqrestore
.LVL118:
.LBE1724:
.LBE1723:
.LBE1720:
.LBE1719:
.LBE1718:
	.loc 1 1783 0
	cbz	w21, .L60
	.loc 1 1786 0
	ldp	x19, x20, [sp,16]
	.cfi_remember_state
	.cfi_restore 20
	.cfi_restore 19
.LVL119:
	ldp	x21, x22, [sp,32]
	.cfi_restore 22
	.cfi_restore 21
.LVL120:
	mov	w0, 0
	ldp	x29, x30, [sp], 64
	.cfi_restore 30
	.cfi_restore 29
	.cfi_def_cfa 31, 0
	ret
.LVL121:
.L60:
	.cfi_restore_state
	ldr	x2, [x19,13016]
.LVL122:
.L55:
.LBB1725:
.LBB1726:
	.loc 1 1317 0
	add	x22, x22, :lo12:.LANCHOR0
.LBB1727:
.LBB1728:
	.loc 10 492 0
	add	x2, x2, 128
.LVL123:
	mov	x3, 0
	mov	w0, 8
	ldr	x1, [x22,8]
	bl	queue_delayed_work_on
.LVL124:
.LBE1728:
.LBE1727:
.LBE1726:
.LBE1725:
	.loc 1 1786 0
	mov	w0, 0
	ldp	x19, x20, [sp,16]
	.cfi_restore 19
	.cfi_restore 20
.LVL125:
	ldp	x21, x22, [sp,32]
	.cfi_restore 21
	.cfi_restore 22
.LVL126:
	ldp	x29, x30, [sp], 64
	.cfi_restore 29
	.cfi_restore 30
	.cfi_def_cfa 31, 0
	ret
	.cfi_endproc
.LFE3224:
	.size	ufs_mq_run_delay_queue, .-ufs_mq_run_delay_queue
	.align	2
	.type	ufs_mq_async_io_dispatch_work_fn, %function
ufs_mq_async_io_dispatch_work_fn:
.LFB3206:
	.loc 1 1569 0
	.cfi_startproc
.LVL127:
	stp	x29, x30, [sp, -144]!
	.cfi_def_cfa_offset 144
	.cfi_offset 29, -144
	.cfi_offset 30, -136
	add	x29, sp, 0
	.cfi_def_cfa_register 29
	stp	x23, x24, [sp,48]
	stp	x25, x26, [sp,64]
	str	x27, [sp,80]
	.cfi_offset 23, -96
	.cfi_offset 24, -88
	.cfi_offset 25, -80
	.cfi_offset 26, -72
	.cfi_offset 27, -64
	adrp	x26, __stack_chk_guard
	stp	x19, x20, [sp,16]
	stp	x21, x22, [sp,32]
	.cfi_offset 19, -128
	.cfi_offset 20, -120
	.cfi_offset 21, -112
	.cfi_offset 22, -104
.LBB1780:
.LBB1781:
	.loc 1 1536 0
	str	xzr, [x29,120]
.LBB1782:
.LBB1783:
.LBB1784:
.LBB1785:
.LBB1786:
	.loc 1 1413 0 discriminator 5
	adrp	x23, .L65
.LBE1786:
.LBE1785:
.LBE1784:
.LBE1783:
.LBE1782:
.LBE1781:
.LBE1780:
	.loc 1 1571 0
	ldr	x19, [x0,96]
.LBB1883:
.LBB1879:
.LBB1873:
.LBB1836:
.LBB1829:
.LBB1822:
.LBB1815:
	.loc 1 1432 0 discriminator 7
	mov	w25, 16
.LBE1815:
.LBE1822:
.LBE1829:
.LBE1836:
.LBE1873:
.LBE1879:
.LBE1883:
	.loc 1 1569 0
	ldr	x0, [x26,#:lo12:__stack_chk_guard]
.LVL128:
.LBB1884:
.LBB1880:
.LBB1874:
.LBB1837:
.LBB1830:
.LBB1823:
.LBB1816:
	.loc 1 1432 0 discriminator 7
	mov	w24, 12
.LBE1816:
.LBE1823:
.LBE1830:
.LBE1837:
.LBE1874:
.LBE1880:
.LBE1884:
	.loc 1 1569 0
	str	x0, [x29,136]
.LBB1885:
.LBB1881:
.LBB1875:
.LBB1838:
.LBB1831:
.LBB1824:
.LBB1817:
	.loc 1 1413 0 discriminator 5
	add	x23, x23, :lo12:.L65
.LBE1817:
.LBE1824:
.LBE1831:
.LBE1838:
.LBE1875:
	.loc 1 1535 0
	ldr	x22, [x19,13016]
.LVL129:
.LBB1876:
.LBB1839:
.LBB1832:
.LBB1825:
.LBB1818:
	.loc 1 1425 0 discriminator 7
	mov	w27, 8
.LBE1818:
.LBE1825:
.LBE1832:
.LBE1839:
.LBE1876:
	.loc 1 1536 0
	mov	x0, x22
.LBB1877:
.LBB1840:
.LBB1833:
	.loc 1 1500 0
	str	wzr, [x0,428]
.LBB1826:
.LBB1819:
	.loc 1 1412 0
	ldr	x20, [x19,13016]
.LVL130:
.LBB1787:
.LBB1788:
.LBB1789:
	.loc 2 247 0 discriminator 4
	ldr	w0, [x20,424]
.LBE1789:
.LBE1788:
.LBE1787:
	.loc 1 1413 0 discriminator 5
	cmp	w0, 3
	bls	.L110
.L63:
	.loc 1 1432 0 discriminator 5
	ldr	x0, [x19,14920]
.LBB1792:
.LBB1793:
	.loc 1 1404 0
	mov	x21, x20
.LBE1793:
.LBE1792:
.LBB1796:
.LBB1797:
.LBB1798:
	.loc 2 247 0 discriminator 4
	ldr	w2, [x19,1168]
.LBE1798:
.LBE1797:
.LBE1796:
.LBB1799:
.LBB1794:
	.loc 1 1404 0
	ldr	w1, [x20,332]
.LBE1794:
.LBE1799:
	.loc 1 1432 0 discriminator 5
	ldr	w0, [x0,1356]
	sub	w0, w0, #4
	.loc 1 1432 0 is_stmt 0 discriminator 7
	cmp	w2, w0
	csel	w0, w25, w24, hi
.LBB1800:
.LBB1795:
	.loc 1 1404 0 is_stmt 1
	cmp	w1, w0
	beq	.L70
.L109:
	.loc 1 1406 0
	str	w0, [x20,332]
	.loc 1 1407 0
	bl	ktime_get
.LVL131:
	str	x0, [x20,368]
	ldr	x21, [x19,13016]
.L70:
.LBE1795:
.LBE1800:
.LBE1819:
.LBE1826:
.LBE1833:
.LBE1840:
.LBB1841:
.LBB1842:
	.loc 1 1383 0
	ldr	x0, [x19,13024]
	cbz	x0, .L61
.L111:
	.loc 1 1383 0 is_stmt 0 discriminator 1
	ldr	x20, [x0,208]
.LVL132:
	cbz	x20, .L61
.LBB1843:
	.loc 1 1385 0 is_stmt 1
	ldr	x0, [x20]
	ldr	x0, [x0,24]
	cbz	x0, .L61
.LBB1844:
.LBB1845:
	.loc 9 291 0
	add	x21, x21, 304
.LBE1845:
.LBE1844:
	.loc 1 1386 0 discriminator 1
	mov	x0, x21
	bl	_raw_spin_lock_irqsave
.LVL133:
	str	x0, [x29,104]
	.loc 1 1387 0
	ldr	x2, [x20]
	mov	x0, x19
.LVL134:
	ldr	x2, [x2,24]
	blr	x2
.LVL135:
	mov	x20, x0
.LVL136:
.LBB1846:
.LBB1847:
	.loc 9 362 0
	ldr	x1, [x29,104]
.LVL137:
	mov	x0, x21
	bl	_raw_spin_unlock_irqrestore
.LVL138:
.LBE1847:
.LBE1846:
.LBE1843:
.LBE1842:
.LBE1841:
	.loc 1 1544 0
	cbz	x20, .L61
	.loc 1 1547 0
	ldr	x4, [x20,72]
	.loc 1 1550 0
	mov	x0, x20
.LBB1849:
.LBB1850:
	.loc 6 53 0
	ldr	x5, [x19,288]
.LBE1850:
.LBE1849:
	.loc 1 1550 0
	mov	x2, x22
.LBB1853:
.LBB1851:
	.loc 6 53 0
	ldr	x1, [x19,312]
.LBE1851:
.LBE1853:
	.loc 1 1550 0
	add	x3, x29, 112
	.loc 1 1547 0
	ldr	w6, [x4,64]
	.loc 1 1550 0
	mov	x4, x19
.LBB1854:
.LBB1852:
	.loc 6 53 0
	ldr	w5, [x5,w6,sxtw 2]
	ldr	x1, [x1,w5,uxtw 3]
.LBE1852:
.LBE1854:
	.loc 1 1548 0
	str	x20, [x29,112]
	.loc 1 1550 0
	bl	ufs_mq_queue_rq
.LVL139:
	.loc 1 1552 0
	cbnz	w0, .L76
.LBB1855:
.LBB1856:
	.file 11 "/mnt/disk/jenkins/ci/workspace/chipset_release_960_xloader/opensource/component_code/vendor/huawei/extra/build/build_script/kirin_kernel_release/kernel/include/linux/blkdev.h"
	.loc 11 1263 0
	ldr	w0, [x20,104]
.LVL140:
.LBE1856:
.LBE1855:
	.loc 1 1553 0
	ldr	x20, [x20,112]
.LVL141:
	ubfx	x0, x0, 9, 23
	add	x0, x0, x20
	str	x0, [x19,328]
	ldr	x0, [x19,13016]
.LVL142:
.L114:
.LBB1857:
.LBB1834:
	.loc 1 1500 0
	str	wzr, [x0,428]
.LBB1827:
.LBB1820:
	.loc 1 1412 0
	ldr	x20, [x19,13016]
.LVL143:
.LBB1801:
.LBB1791:
.LBB1790:
	.loc 2 247 0 discriminator 4
	ldr	w0, [x20,424]
.LBE1790:
.LBE1791:
.LBE1801:
	.loc 1 1413 0 discriminator 5
	cmp	w0, 3
	bhi	.L63
.L110:
	ldrb	w0, [x23,w0,uxtw]
	adr	x1, .Lrtx65
	add	x0, x1, w0, sxtb #2
	br	x0
.Lrtx65:
	.section	.rodata
	.align	0
	.align	2
.L65:
	.byte	(.L63 - .Lrtx65) / 4
	.byte	(.L66 - .Lrtx65) / 4
	.byte	(.L67 - .Lrtx65) / 4
	.byte	(.L68 - .Lrtx65) / 4
	.text
.L67:
.LBB1802:
.LBB1803:
	.loc 1 1404 0
	ldr	w0, [x20,332]
	mov	x21, x20
	cmp	w0, 1
	beq	.L70
	.loc 1 1406 0
	mov	w0, 1
	str	w0, [x20,332]
	.loc 1 1407 0
	bl	ktime_get
.LVL144:
	str	x0, [x20,368]
.LBE1803:
.LBE1802:
.LBE1820:
.LBE1827:
.LBE1834:
.LBE1857:
.LBB1858:
.LBB1848:
	.loc 1 1383 0
	ldr	x0, [x19,13024]
	ldr	x21, [x19,13016]
	cbnz	x0, .L111
.LVL145:
.L61:
.LBE1848:
.LBE1858:
.LBE1877:
.LBE1881:
.LBE1885:
	.loc 1 1572 0
	ldr	x1, [x29,136]
	ldr	x0, [x26,#:lo12:__stack_chk_guard]
	cmp	x1, x0
	bne	.L112
	ldp	x19, x20, [sp,16]
	.cfi_remember_state
	.cfi_restore 20
	.cfi_restore 19
.LVL146:
	ldp	x21, x22, [sp,32]
	.cfi_restore 22
	.cfi_restore 21
.LVL147:
	ldp	x23, x24, [sp,48]
	.cfi_restore 24
	.cfi_restore 23
.LVL148:
	ldp	x25, x26, [sp,64]
	.cfi_restore 26
	.cfi_restore 25
	ldr	x27, [sp,80]
	.cfi_restore 27
	ldp	x29, x30, [sp], 144
	.cfi_restore 30
	.cfi_restore 29
	.cfi_def_cfa 31, 0
	ret
.LVL149:
.L66:
	.cfi_restore_state
.LBB1886:
.LBB1882:
.LBB1878:
.LBB1859:
.LBB1835:
.LBB1828:
.LBB1821:
.LBB1804:
.LBB1805:
	.loc 1 1404 0
	ldr	w0, [x20,332]
	mov	x21, x20
	cmp	w0, 2
	beq	.L70
	.loc 1 1406 0
	mov	w0, 2
	str	w0, [x20,332]
	.loc 1 1407 0
	bl	ktime_get
.LVL150:
	str	x0, [x20,368]
	ldr	x21, [x19,13016]
	b	.L70
.L68:
.LBE1805:
.LBE1804:
	.loc 1 1425 0 discriminator 5
	ldr	x0, [x19,14920]
.LBB1806:
.LBB1807:
	.loc 1 1404 0
	mov	x21, x20
.LBE1807:
.LBE1806:
.LBB1810:
.LBB1811:
.LBB1812:
	.loc 2 247 0 discriminator 4
	ldr	w2, [x19,1168]
.LBE1812:
.LBE1811:
.LBE1810:
.LBB1813:
.LBB1808:
	.loc 1 1404 0
	ldr	w1, [x20,332]
.LBE1808:
.LBE1813:
	.loc 1 1425 0 discriminator 5
	ldr	w0, [x0,1356]
	sub	w0, w0, #4
	.loc 1 1425 0 is_stmt 0 discriminator 7
	cmp	w2, w0
	csel	w0, w24, w27, hi
.LBB1814:
.LBB1809:
	.loc 1 1404 0 is_stmt 1
	cmp	w1, w0
	bne	.L109
	b	.L70
.LVL151:
.L76:
.LBE1809:
.LBE1814:
.LBE1821:
.LBE1828:
.LBE1835:
.LBE1859:
	.loc 1 1555 0
	cmp	w0, 2
	beq	.L113
	.loc 1 1560 0
	mov	x0, x20
.LVL152:
	bl	__blk_mq_requeue_request
.LVL153:
.LBB1860:
.LBB1861:
	.loc 1 1345 0
	ldr	x21, [x19,13016]
.LVL154:
	.loc 1 1347 0
	mov	x0, x20
	mov	w1, 5
	bl	hisi_blk_latency_req_check
.LVL155:
	.loc 1 1348 0
	ldr	x0, [x19,13024]
	cbz	x0, .L79
	.loc 1 1348 0 is_stmt 0 discriminator 1
	ldr	x22, [x0,208]
.LVL156:
	cbz	x22, .L79
.LBB1862:
	.loc 1 1350 0 is_stmt 1
	ldr	x0, [x22]
	ldr	x0, [x0,32]
	cbz	x0, .L79
.LBB1863:
.LBB1864:
	.loc 9 291 0
	add	x21, x21, 304
.LVL157:
.LBE1864:
.LBE1863:
	.loc 1 1351 0 discriminator 1
	mov	x0, x21
	bl	_raw_spin_lock_irqsave
.LVL158:
	mov	x23, x0
.LVL159:
	.loc 1 1352 0
	ldr	x2, [x22]
	mov	x0, x20
	mov	x1, x19
	ldr	x2, [x2,32]
	blr	x2
.LVL160:
.LBB1865:
.LBB1866:
	.loc 9 362 0
	mov	x0, x21
	mov	x1, x23
	bl	_raw_spin_unlock_irqrestore
.LVL161:
.L79:
.LBE1866:
.LBE1865:
.LBE1862:
.LBE1861:
.LBE1860:
.LBB1867:
.LBB1868:
.LBB1869:
.LBB1870:
	.loc 10 492 0
	adrp	x1, .LANCHOR0+8
.LBE1870:
.LBE1869:
	.loc 1 1317 0
	ldr	x2, [x19,13016]
.LBB1872:
.LBB1871:
	.loc 10 492 0
	mov	x3, 3
	mov	w0, 8
	add	x2, x2, 128
	ldr	x1, [x1,#:lo12:.LANCHOR0+8]
	bl	queue_delayed_work_on
.LVL162:
	b	.L61
.LVL163:
.L113:
.LBE1871:
.LBE1872:
.LBE1868:
.LBE1867:
	.loc 1 1556 0
	mov	w1, -5
	.loc 1 1557 0
	mov	x0, x20
.LVL164:
	.loc 1 1556 0
	str	w1, [x20,564]
	.loc 1 1557 0
	bl	blk_mq_end_request
.LVL165:
	ldr	x0, [x19,13016]
	b	.L114
.LVL166:
.L112:
.LBE1878:
.LBE1882:
.LBE1886:
	.loc 1 1572 0
	bl	__stack_chk_fail
.LVL167:
	.cfi_endproc
.LFE3206:
	.size	ufs_mq_async_io_dispatch_work_fn, .-ufs_mq_async_io_dispatch_work_fn
	.align	2
	.type	ufs_mq_async_sched_fifo_attempt_merge_bio, %function
ufs_mq_async_sched_fifo_attempt_merge_bio:
.LFB3182:
	.loc 1 1146 0
	.cfi_startproc
.LVL168:
	stp	x29, x30, [sp, -64]!
	.cfi_def_cfa_offset 64
	.cfi_offset 29, -64
	.cfi_offset 30, -56
	add	x29, sp, 0
	.cfi_def_cfa_register 29
	stp	x21, x22, [sp,32]
	str	x23, [sp,48]
	.cfi_offset 21, -32
	.cfi_offset 22, -24
	.cfi_offset 23, -16
	mov	x21, x0
	stp	x19, x20, [sp,16]
	.cfi_offset 19, -48
	.cfi_offset 20, -40
	.loc 1 1146 0
	mov	x23, x1
	.loc 1 1148 0
	ldr	x0, [x1,13016]
.LVL169:
	.loc 1 1149 0 discriminator 1
	add	x22, x0, 264
.LBB1887:
	.loc 1 1149 0 is_stmt 0
	ldr	x19, [x0,272]
.LVL170:
.LBE1887:
	.loc 1 1149 0 discriminator 1
	cmp	x22, x19
.LBB1888:
	.loc 1 1149 0
	sub	x19, x19, #440
.LVL171:
.LBE1888:
	.loc 1 1149 0 discriminator 1
	bne	.L126
	b	.L120
.LVL172:
.L122:
.LBB1889:
	.loc 1 1149 0 discriminator 2
	ldr	x19, [x19,448]
.LVL173:
.LBE1889:
	.loc 1 1149 0 discriminator 1
	cmp	x22, x19
.LBB1890:
	.loc 1 1149 0 discriminator 2
	sub	x19, x19, #440
.LVL174:
.LBE1890:
	.loc 1 1149 0 discriminator 1
	beq	.L120
.LVL175:
.L126:
.LBB1891:
	.loc 1 1151 0 is_stmt 1
	mov	x0, x19
.LVL176:
	mov	x1, x21
	bl	blk_rq_merge_ok
.LVL177:
	uxtb	w20, w0
	cbz	w20, .L122
	.loc 1 1153 0
	mov	x1, x21
	mov	x0, x19
	bl	blk_try_merge
.LVL178:
	.loc 1 1154 0
	cmp	w0, 2
	beq	.L130
	.loc 1 1157 0
	cmp	w0, 1
	bne	.L122
	.loc 1 1158 0
	mov	x1, x19
	mov	x0, x23
.LVL179:
	mov	x2, x21
	bl	bio_attempt_front_merge
.LVL180:
	uxtb	w0, w0
	cbz	w0, .L122
.L117:
.LBE1891:
	.loc 1 1163 0
	mov	w0, w20
	ldr	x23, [sp,48]
	.cfi_remember_state
	.cfi_restore 23
.LVL181:
	ldp	x19, x20, [sp,16]
	.cfi_restore 20
	.cfi_restore 19
.LVL182:
	ldp	x21, x22, [sp,32]
	.cfi_restore 22
	.cfi_restore 21
.LVL183:
	ldp	x29, x30, [sp], 64
	.cfi_restore 30
	.cfi_restore 29
	.cfi_def_cfa 31, 0
	ret
.LVL184:
.L130:
	.cfi_restore_state
.LBB1892:
	.loc 1 1155 0
	mov	x1, x19
	mov	x0, x23
.LVL185:
	mov	x2, x21
	bl	bio_attempt_back_merge
.LVL186:
	uxtb	w0, w0
	cbnz	w0, .L117
.LBE1892:
.LBB1893:
	.loc 1 1149 0 discriminator 2
	ldr	x19, [x19,448]
.LVL187:
.LBE1893:
	.loc 1 1149 0 is_stmt 0 discriminator 1
	cmp	x22, x19
.LBB1894:
	.loc 1 1149 0 discriminator 2
	sub	x19, x19, #440
.LVL188:
.LBE1894:
	.loc 1 1149 0 discriminator 1
	bne	.L126
.LVL189:
.L120:
	.loc 1 1162 0 is_stmt 1
	mov	w20, 0
	.loc 1 1163 0
	ldr	x23, [sp,48]
	.cfi_restore 23
.LVL190:
	mov	w0, w20
.LVL191:
	ldp	x19, x20, [sp,16]
	.cfi_restore 19
	.cfi_restore 20
.LVL192:
	ldp	x21, x22, [sp,32]
	.cfi_restore 21
	.cfi_restore 22
.LVL193:
	ldp	x29, x30, [sp], 64
	.cfi_restore 29
	.cfi_restore 30
	.cfi_def_cfa 31, 0
	ret
	.cfi_endproc
.LFE3182:
	.size	ufs_mq_async_sched_fifo_attempt_merge_bio, .-ufs_mq_async_sched_fifo_attempt_merge_bio
	.align	2
	.type	ufs_mq_dump_request, %function
ufs_mq_dump_request:
.LFB3228:
	.loc 1 1824 0
	.cfi_startproc
.LVL194:
	stp	x29, x30, [sp, -48]!
	.cfi_def_cfa_offset 48
	.cfi_offset 29, -48
	.cfi_offset 30, -40
	add	x29, sp, 0
	.cfi_def_cfa_register 29
	stp	x19, x20, [sp,16]
	stp	x21, x22, [sp,32]
	.cfi_offset 19, -32
	.cfi_offset 20, -24
	.cfi_offset 21, -16
	.cfi_offset 22, -8
	.loc 1 1825 0
	ldr	x19, [x0,13016]
.LVL195:
	.loc 1 1827 0
	cbz	x19, .L131
.LBB1895:
.LBB1896:
.LBB1897:
.LBB1898:
	.loc 2 247 0 discriminator 5
	ldr	x0, [x19,232]
.LVL196:
.LBE1898:
.LBE1897:
.LBE1896:
.LBE1895:
	.loc 1 1830 0
	add	x21, x19, 232
	mov	x20, x1
	cmp	x21, x0
	bne	.L133
.LVL197:
.L136:
.LBB1899:
.LBB1900:
.LBB1901:
.LBB1902:
	.loc 2 247 0 discriminator 5
	ldr	x0, [x19,248]
.LBE1902:
.LBE1901:
.LBE1900:
.LBE1899:
	.loc 1 1837 0
	add	x21, x19, 248
	cmp	x21, x0
	bne	.L147
.LVL198:
.L135:
.LBB1903:
.LBB1904:
.LBB1905:
.LBB1906:
	.loc 2 247 0 discriminator 5
	ldr	x0, [x19,264]
.LBE1906:
.LBE1905:
.LBE1904:
.LBE1903:
	.loc 1 1844 0
	add	x21, x19, 264
	cmp	x21, x0
	bne	.L148
.LVL199:
.L131:
	.loc 1 1851 0
	ldp	x19, x20, [sp,16]
	.cfi_remember_state
	.cfi_restore 20
	.cfi_restore 19
.LVL200:
	ldp	x21, x22, [sp,32]
	.cfi_restore 22
	.cfi_restore 21
.LVL201:
	ldp	x29, x30, [sp], 48
	.cfi_restore 30
	.cfi_restore 29
	.cfi_def_cfa 31, 0
	ret
.LVL202:
.L133:
	.cfi_restore_state
.LBB1907:
	.loc 1 1832 0
	adrp	x0, .LC2
	add	x0, x0, :lo12:.LC2
	bl	printk
.LVL203:
.LBB1908:
	.loc 1 1833 0
	ldr	x22, [x19,232]
.LVL204:
.LBE1908:
	.loc 1 1833 0 is_stmt 0 discriminator 1
	cmp	x21, x22
	beq	.L136
.L137:
	.loc 1 1834 0 is_stmt 1
	mov	x0, x22
	mov	x1, x20
	bl	hisi_blk_dump_request
.LVL205:
.LBB1909:
	.loc 1 1833 0 discriminator 3
	ldr	x22, [x22]
.LBE1909:
	.loc 1 1833 0 is_stmt 0 discriminator 1
	cmp	x21, x22
	bne	.L137
	b	.L136
.LVL206:
.L148:
.LBE1907:
.LBB1910:
	.loc 1 1846 0 is_stmt 1
	adrp	x0, .LC4
	add	x0, x0, :lo12:.LC4
	bl	printk
.LVL207:
.LBB1911:
	.loc 1 1847 0
	ldr	x19, [x19,264]
.LVL208:
.LBE1911:
	.loc 1 1847 0 is_stmt 0 discriminator 1
	cmp	x21, x19
.LBB1912:
	.loc 1 1847 0
	sub	x19, x19, #440
.LVL209:
.LBE1912:
	.loc 1 1847 0 discriminator 1
	beq	.L131
.L141:
	.loc 1 1848 0 is_stmt 1
	mov	x0, x19
	mov	x1, x20
	bl	hisi_blk_dump_request
.LVL210:
.LBB1913:
	.loc 1 1847 0 discriminator 3
	ldr	x19, [x19,440]
.LVL211:
.LBE1913:
	.loc 1 1847 0 is_stmt 0 discriminator 1
	cmp	x21, x19
.LBB1914:
	.loc 1 1847 0 discriminator 3
	sub	x19, x19, #440
.LVL212:
.LBE1914:
	.loc 1 1847 0 discriminator 1
	bne	.L141
	b	.L131
.LVL213:
.L147:
.LBE1910:
.LBB1915:
	.loc 1 1839 0 is_stmt 1
	adrp	x0, .LC3
	add	x0, x0, :lo12:.LC3
	bl	printk
.LVL214:
.LBB1916:
	.loc 1 1840 0
	ldr	x22, [x19,248]
.LVL215:
.LBE1916:
	.loc 1 1840 0 is_stmt 0 discriminator 1
	cmp	x21, x22
	beq	.L135
.L140:
	.loc 1 1841 0 is_stmt 1
	mov	x0, x22
	mov	x1, x20
	bl	hisi_blk_dump_request
.LVL216:
.LBB1917:
	.loc 1 1840 0 discriminator 3
	ldr	x22, [x22]
.LBE1917:
	.loc 1 1840 0 is_stmt 0 discriminator 1
	cmp	x21, x22
	bne	.L140
	b	.L135
.LBE1915:
	.cfi_endproc
.LFE3228:
	.size	ufs_mq_dump_request, .-ufs_mq_dump_request
	.align	2
	.type	ufs_mq_tag_sysfs_show, %function
ufs_mq_tag_sysfs_show:
.LFB3148:
	.loc 1 486 0 is_stmt 1
	.cfi_startproc
.LVL217:
	stp	x29, x30, [sp, -96]!
	.cfi_def_cfa_offset 96
	.cfi_offset 29, -96
	.cfi_offset 30, -88
	add	x29, sp, 0
	.cfi_def_cfa_register 29
	stp	x19, x20, [sp,16]
	stp	x21, x22, [sp,32]
	stp	x23, x24, [sp,48]
	stp	x25, x26, [sp,64]
	.cfi_offset 19, -80
	.cfi_offset 20, -72
	.cfi_offset 21, -64
	.cfi_offset 22, -56
	.cfi_offset 23, -48
	.cfi_offset 24, -40
	.cfi_offset 25, -32
	.cfi_offset 26, -24
	.loc 1 490 0
	cbz	x1, .L151
	.loc 1 493 0
	ldr	w0, [x1,60]
.LVL218:
	mov	x21, x2
	ldr	w5, [x1,8]
	mov	x26, x3
	ldr	w4, [x1,4]
	mov	w6, 1
	ldr	w3, [x1]
.LVL219:
	adrp	x2, .LC5
.LVL220:
	mov	x19, x1
	lsl	w6, w6, w0
	mov	x1, 4096
.LVL221:
	add	x2, x2, :lo12:.LC5
	mov	x0, x21
	.loc 1 501 0
	mov	x24, x1
	.loc 1 493 0
	bl	snprintf
.LVL222:
	mov	w20, w0
.LBB1918:
.LBB1919:
	.loc 1 157 0
	add	x0, x19, 56
	ldr	w25, [x19,56]
	bl	sbitmap_weight
.LVL223:
	sub	w3, w25, w0
.LBE1919:
.LBE1918:
.LBB1921:
.LBB1922:
	add	x0, x19, 112
	ldr	w23, [x19,112]
.LBE1922:
.LBE1921:
.LBB1925:
.LBB1920:
	str	x3, [x29,80]
.LBE1920:
.LBE1925:
.LBB1926:
.LBB1923:
	bl	sbitmap_weight
.LVL224:
	sub	w4, w23, w0
.LBE1923:
.LBE1926:
.LBB1927:
.LBB1928:
	add	x0, x19, 168
	ldr	w22, [x19,168]
.LBE1928:
.LBE1927:
.LBB1930:
.LBB1924:
	str	x4, [x29,88]
.LBE1924:
.LBE1930:
	.loc 1 501 0
	uxtw	x23, w20
.LBB1931:
.LBB1929:
	.loc 1 157 0
	bl	sbitmap_weight
.LVL225:
	sub	w5, w22, w0
.LBE1929:
.LBE1931:
	.loc 1 501 0
	ldr	x4, [x29,88]
	adrp	x2, .LC6
	ldr	x3, [x29,80]
	sub	x1, x24, x23
	add	x0, x21, x23
	add	x2, x2, :lo12:.LC6
	.loc 1 506 0
	mov	w23, 0
	.loc 1 501 0
	bl	snprintf
.LVL226:
	add	w1, w0, w20
.LBB1932:
.LBB1933:
.LBB1934:
	.loc 2 247 0 discriminator 4
	ldr	w3, [x19,48]
.LBE1934:
.LBE1933:
.LBE1932:
	.loc 1 502 0 discriminator 6
	adrp	x2, .LC7
	.loc 1 501 0
	mov	x20, x1
	.loc 1 502 0 discriminator 6
	add	x0, x21, x1
	add	x2, x2, :lo12:.LC7
	sub	x1, x24, x1
	bl	snprintf
.LVL227:
	.loc 1 504 0
	add	w0, w20, w0
	str	x0, [x26]
	.loc 1 507 0
	mov	w0, w23
	ldp	x19, x20, [sp,16]
	.cfi_remember_state
	.cfi_restore 20
	.cfi_restore 19
.LVL228:
	ldp	x21, x22, [sp,32]
	.cfi_restore 22
	.cfi_restore 21
.LVL229:
	ldp	x23, x24, [sp,48]
	.cfi_restore 24
	.cfi_restore 23
	ldp	x25, x26, [sp,64]
	.cfi_restore 26
	.cfi_restore 25
.LVL230:
	ldp	x29, x30, [sp], 96
	.cfi_restore 30
	.cfi_restore 29
	.cfi_def_cfa 31, 0
	ret
.LVL231:
.L151:
	.cfi_restore_state
	.loc 1 491 0
	mov	w23, -22
	.loc 1 507 0
	mov	w0, w23
.LVL232:
	ldp	x19, x20, [sp,16]
	.cfi_restore 19
	.cfi_restore 20
	ldp	x21, x22, [sp,32]
	.cfi_restore 21
	.cfi_restore 22
	ldp	x23, x24, [sp,48]
	.cfi_restore 23
	.cfi_restore 24
	ldp	x25, x26, [sp,64]
	.cfi_restore 25
	.cfi_restore 26
	ldp	x29, x30, [sp], 96
	.cfi_restore 29
	.cfi_restore 30
	.cfi_def_cfa 31, 0
	ret
	.cfi_endproc
.LFE3148:
	.size	ufs_mq_tag_sysfs_show, .-ufs_mq_tag_sysfs_show
	.align	2
	.type	ufs_mq_tag_wakeup_all, %function
ufs_mq_tag_wakeup_all:
.LFB3147:
	.loc 1 477 0
	.cfi_startproc
.LVL233:
	stp	x29, x30, [sp, -32]!
	.cfi_def_cfa_offset 32
	.cfi_offset 29, -32
	.cfi_offset 30, -24
	add	x29, sp, 0
	.cfi_def_cfa_register 29
	str	x19, [sp,16]
	.cfi_offset 19, -16
	.loc 1 477 0
	mov	x19, x0
	.loc 1 479 0
	add	x0, x0, 56
.LVL234:
	bl	sbitmap_queue_wake_all
.LVL235:
	.loc 1 480 0
	add	x0, x19, 112
	bl	sbitmap_queue_wake_all
.LVL236:
	.loc 1 481 0
	add	x0, x19, 168
	bl	sbitmap_queue_wake_all
.LVL237:
	.loc 1 483 0
	ldr	x19, [sp,16]
	.cfi_restore 19
.LVL238:
	mov	w0, 0
	ldp	x29, x30, [sp], 32
	.cfi_restore 30
	.cfi_restore 29
	.cfi_def_cfa 31, 0
	ret
	.cfi_endproc
.LFE3147:
	.size	ufs_mq_tag_wakeup_all, .-ufs_mq_tag_wakeup_all
	.align	2
	.type	ufs_tagset_bt_for_each, %function
ufs_tagset_bt_for_each:
.LFB3133:
	.loc 1 198 0
	.cfi_startproc
.LVL239:
	stp	x29, x30, [sp, -96]!
	.cfi_def_cfa_offset 96
	.cfi_offset 29, -96
	.cfi_offset 30, -88
	add	x29, sp, 0
	.cfi_def_cfa_register 29
	stp	x21, x22, [sp,32]
	stp	x23, x24, [sp,48]
	stp	x25, x26, [sp,64]
	stp	x27, x28, [sp,80]
	stp	x19, x20, [sp,16]
	.cfi_offset 21, -64
	.cfi_offset 22, -56
	.cfi_offset 23, -48
	.cfi_offset 24, -40
	.cfi_offset 25, -32
	.cfi_offset 26, -24
	.cfi_offset 27, -16
	.cfi_offset 28, -8
	.cfi_offset 19, -80
	.cfi_offset 20, -72
	.loc 1 198 0
	mov	x26, x2
	mov	x24, x1
.LBB1940:
.LBB1941:
	.file 12 "/mnt/disk/jenkins/ci/workspace/chipset_release_960_xloader/opensource/component_code/vendor/huawei/extra/build/build_script/kirin_kernel_release/kernel/include/linux/sbitmap.h"
	.loc 12 211 0 discriminator 1
	ldr	w2, [x1,8]
.LVL240:
.LBE1941:
.LBE1940:
	.loc 1 198 0
	mov	x28, x0
	mov	x25, x3
	uxtb	w21, w4
.LVL241:
	uxtb	w22, w5
.LVL242:
.LBB1952:
.LBB1950:
	.loc 12 211 0 discriminator 1
	mov	w23, 0
.LVL243:
	cbz	w2, .L153
.LVL244:
.L170:
.LBB1942:
	.loc 12 212 0
	ubfiz	x0, x23, 6, 32
	ldr	x1, [x24,16]
	add	x27, x1, x0
	.loc 12 215 0
	ldr	x0, [x1,x0]
	cbz	x0, .L155
	ldr	x1, [x27,8]
	.loc 12 218 0
	mov	x2, 0
	.loc 12 221 0
	mov	x0, x27
	.loc 12 219 0
	ldr	w20, [x24,4]
.LVL245:
	.loc 12 221 0
	bl	find_next_bit
.LVL246:
	.loc 12 219 0
	lsl	w20, w23, w20
.LVL247:
	.loc 12 222 0
	ldr	x1, [x27,8]
	.loc 12 221 0
	mov	x19, x0
	.loc 12 222 0
	cmp	x1, x0, uxtw
	bls	.L176
.L175:
.LBB1943:
.LBB1944:
	.loc 1 164 0
	ldr	x2, [x28,184]
.LVL248:
.LBE1944:
.LBE1943:
	.loc 12 225 0
	add	w0, w20, w0
.LVL249:
.LBB1947:
.LBB1945:
	.loc 1 167 0
	cbz	w21, .L156
	.loc 1 168 0
	ldr	w3, [x2,16]
	add	w0, w0, w3
.L156:
	.loc 1 169 0
	cbz	w22, .L157
	.loc 1 170 0
	ldr	w3, [x2,20]
	add	w0, w0, w3
.L157:
	.loc 1 172 0
	ldr	x2, [x2,224]
.LVL250:
	.loc 1 174 0
	ldr	x3, [x28,120]
	.loc 1 172 0
	ldr	x2, [x2,w0,uxtw 3]
.LVL251:
	.loc 1 174 0
	ldr	x0, [x2,64]
.LVL252:
	cmp	x0, x3
	beq	.L177
.LBE1945:
.LBE1947:
	.loc 12 228 0
	add	w2, w19, 1
.LVL253:
.L178:
	.loc 12 221 0
	mov	x0, x27
	bl	find_next_bit
.LVL254:
	mov	x19, x0
	.loc 12 222 0
	ldr	x1, [x27,8]
	cmp	x1, x0, uxtw
	bhi	.L175
.L176:
	ldr	w2, [x24,8]
.LVL255:
.L155:
.LBE1942:
	.loc 12 211 0 discriminator 2
	add	w23, w23, 1
	.loc 12 211 0 is_stmt 0 discriminator 1
	cmp	w23, w2
	bcc	.L170
.LVL256:
.L153:
.LBE1950:
.LBE1952:
	.loc 1 208 0 is_stmt 1
	ldp	x19, x20, [sp,16]
	.cfi_remember_state
	.cfi_restore 20
	.cfi_restore 19
.LVL257:
	ldp	x21, x22, [sp,32]
	.cfi_restore 22
	.cfi_restore 21
.LVL258:
	ldp	x23, x24, [sp,48]
	.cfi_restore 24
	.cfi_restore 23
.LVL259:
	ldp	x25, x26, [sp,64]
	.cfi_restore 26
	.cfi_restore 25
.LVL260:
	ldp	x27, x28, [sp,80]
	.cfi_restore 28
	.cfi_restore 27
.LVL261:
	ldp	x29, x30, [sp], 96
	.cfi_restore 30
	.cfi_restore 29
	.cfi_def_cfa 31, 0
	ret
.LVL262:
.L177:
	.cfi_restore_state
.LBB1953:
.LBB1951:
.LBB1949:
.LBB1948:
.LBB1946:
	.loc 1 175 0
	mov	x1, x2
	mov	x0, x28
	mov	x2, x25
.LVL263:
	mov	w3, w21
	blr	x26
.LVL264:
	ldr	x1, [x27,8]
.LBE1946:
.LBE1948:
	.loc 12 228 0
	add	w2, w19, 1
	b	.L178
.LBE1949:
.LBE1951:
.LBE1953:
	.cfi_endproc
.LFE3133:
	.size	ufs_tagset_bt_for_each, .-ufs_tagset_bt_for_each
	.align	2
	.type	ufs_mq_tag_busy_iter, %function
ufs_mq_tag_busy_iter:
.LFB3146:
	.loc 1 452 0
	.cfi_startproc
.LVL265:
	stp	x29, x30, [sp, -64]!
	.cfi_def_cfa_offset 64
	.cfi_offset 29, -64
	.cfi_offset 30, -56
	add	x29, sp, 0
	.cfi_def_cfa_register 29
	stp	x23, x24, [sp,48]
	stp	x19, x20, [sp,16]
	stp	x21, x22, [sp,32]
	.cfi_offset 23, -16
	.cfi_offset 24, -8
	.cfi_offset 19, -48
	.cfi_offset 20, -40
	.cfi_offset 21, -32
	.cfi_offset 22, -24
	.loc 1 452 0
	mov	x24, x1
	mov	x22, x0
	.loc 1 456 0 discriminator 1
	ldr	w1, [x0,320]
.LVL266:
	.loc 1 452 0
	mov	x23, x2
	.loc 1 456 0 discriminator 1
	mov	w19, 0
.LVL267:
	cbnz	w1, .L196
	b	.L191
.LVL268:
.L187:
.LBB1954:
	.loc 1 468 0
	ldr	w0, [x21,4]
	cbnz	w0, .L198
.L182:
	.loc 1 470 0
	add	x1, x21, 56
	mov	x0, x20
	mov	x2, x24
	mov	x3, x23
	mov	w4, 0
	mov	w5, 0
	bl	ufs_tagset_bt_for_each
.LVL269:
	ldr	w1, [x22,320]
.LVL270:
.L185:
.LBE1954:
	.loc 1 456 0 discriminator 2
	add	w19, w19, 1
	.loc 1 456 0 is_stmt 0 discriminator 1
	cmp	w19, w1
	bcs	.L191
.L196:
.LBB1959:
	.loc 1 456 0 discriminator 3
	ldr	x0, [x22,312]
	ldr	x20, [x0,w19,sxtw 3]
.LBE1959:
.LBB1960:
.LBB1955:
.LBB1956:
	.loc 6 131 0 is_stmt 1
	ldr	w0, [x20,176]
.LBE1956:
.LBE1955:
	.loc 1 457 0
	ldr	x21, [x20,184]
.LBB1958:
.LBB1957:
	.loc 6 131 0 discriminator 1
	cbz	w0, .L185
	cbz	x21, .L185
.LBE1957:
.LBE1958:
	.loc 1 466 0
	ldr	w0, [x21,8]
	cbz	w0, .L187
	.loc 1 467 0
	mov	x0, x20
	add	x1, x21, 168
	mov	x2, x24
	mov	x3, x23
	mov	w4, 0
	mov	w5, 1
	bl	ufs_tagset_bt_for_each
.LVL271:
	.loc 1 468 0
	ldr	w0, [x21,4]
	cbz	w0, .L182
.L198:
	.loc 1 469 0
	mov	x0, x20
	add	x1, x21, 112
	mov	x2, x24
	mov	x3, x23
	mov	w4, 1
	mov	w5, 0
	bl	ufs_tagset_bt_for_each
.LVL272:
	b	.L182
.L191:
.LBE1960:
	.loc 1 474 0
	mov	w0, 0
	ldp	x19, x20, [sp,16]
	.cfi_restore 20
	.cfi_restore 19
.LVL273:
	ldp	x21, x22, [sp,32]
	.cfi_restore 22
	.cfi_restore 21
.LVL274:
	ldp	x23, x24, [sp,48]
	.cfi_restore 24
	.cfi_restore 23
.LVL275:
	ldp	x29, x30, [sp], 64
	.cfi_restore 30
	.cfi_restore 29
	.cfi_def_cfa 31, 0
	ret
	.cfi_endproc
.LFE3146:
	.size	ufs_mq_tag_busy_iter, .-ufs_mq_tag_busy_iter
	.align	2
	.type	ufs_tagset_bt_tags_for_each, %function
ufs_tagset_bt_tags_for_each:
.LFB3134:
	.loc 1 212 0
	.cfi_startproc
.LVL276:
	stp	x29, x30, [sp, -96]!
	.cfi_def_cfa_offset 96
	.cfi_offset 29, -96
	.cfi_offset 30, -88
	add	x29, sp, 0
	.cfi_def_cfa_register 29
	stp	x19, x20, [sp,16]
	stp	x23, x24, [sp,48]
	stp	x21, x22, [sp,32]
	stp	x25, x26, [sp,64]
	stp	x27, x28, [sp,80]
	.cfi_offset 19, -80
	.cfi_offset 20, -72
	.cfi_offset 23, -48
	.cfi_offset 24, -40
	.cfi_offset 21, -64
	.cfi_offset 22, -56
	.cfi_offset 25, -32
	.cfi_offset 26, -24
	.cfi_offset 27, -16
	.cfi_offset 28, -8
	.loc 1 212 0
	uxtb	w20, w4
.LVL277:
	uxtb	w24, w5
.LVL278:
	.loc 1 221 0
	ldr	x4, [x0,224]
	cbz	x4, .L199
.LBB1966:
.LBB1967:
	.loc 12 211 0 discriminator 1
	ldr	w21, [x1,8]
	cbz	w21, .L199
	mov	x22, x3
	mov	x23, x2
	mov	x26, x1
	mov	x28, x0
	mov	w25, 0
.LVL279:
.L206:
.LBB1968:
	.loc 12 212 0
	ubfiz	x0, x25, 6, 32
	ldr	x1, [x26,16]
	add	x27, x1, x0
	.loc 12 215 0
	ldr	x0, [x1,x0]
	cbz	x0, .L202
	.loc 12 219 0
	ldr	w21, [x26,4]
	.loc 12 218 0
	mov	x2, 0
	.loc 12 219 0
	lsl	w21, w25, w21
.LVL280:
.L205:
	.loc 12 221 0
	ldr	x1, [x27,8]
	mov	x0, x27
	bl	find_next_bit
.LVL281:
	mov	x19, x0
.LBB1969:
.LBB1970:
	.loc 1 192 0
	mov	x1, x22
.LBE1970:
.LBE1969:
	.loc 12 222 0
	ldr	x0, [x27,8]
.LBB1973:
.LBB1971:
	.loc 1 192 0
	mov	w2, w20
.LBE1971:
.LBE1973:
	.loc 12 222 0
	cmp	x0, x19, uxtw
	bls	.L222
	.loc 12 225 0
	add	w4, w21, w19
.LVL282:
.LBB1974:
.LBB1972:
	.loc 1 185 0
	cbz	w20, .L203
	.loc 1 186 0
	ldr	w0, [x28,16]
	add	w4, w4, w0
.L203:
	.loc 1 187 0
	cbz	w24, .L204
	.loc 1 188 0
	ldr	w0, [x28,20]
	add	w4, w4, w0
.L204:
	.loc 1 190 0
	ldr	x0, [x28,224]
	.loc 1 192 0
	ldr	x0, [x0,w4,uxtw 3]
	blr	x23
.LVL283:
.LBE1972:
.LBE1974:
	.loc 12 228 0
	add	w2, w19, 1
	b	.L205
.L222:
	ldr	w21, [x26,8]
.LVL284:
.L202:
.LBE1968:
	.loc 12 211 0 discriminator 2
	add	w25, w25, 1
	.loc 12 211 0 is_stmt 0 discriminator 1
	cmp	w25, w21
	bcc	.L206
.L199:
.LBE1967:
.LBE1966:
	.loc 1 223 0 is_stmt 1
	ldp	x19, x20, [sp,16]
	.cfi_restore 20
	.cfi_restore 19
.LVL285:
	ldp	x21, x22, [sp,32]
	.cfi_restore 22
	.cfi_restore 21
	ldp	x23, x24, [sp,48]
	.cfi_restore 24
	.cfi_restore 23
.LVL286:
	ldp	x25, x26, [sp,64]
	.cfi_restore 26
	.cfi_restore 25
.LVL287:
	ldp	x27, x28, [sp,80]
	.cfi_restore 28
	.cfi_restore 27
.LVL288:
	ldp	x29, x30, [sp], 96
	.cfi_restore 30
	.cfi_restore 29
	.cfi_def_cfa 31, 0
	ret
	.cfi_endproc
.LFE3134:
	.size	ufs_tagset_bt_tags_for_each, .-ufs_tagset_bt_tags_for_each
	.align	2
	.type	ufs_tagset_all_tag_busy_iter, %function
ufs_tagset_all_tag_busy_iter:
.LFB3135:
	.loc 1 226 0
	.cfi_startproc
.LVL289:
	stp	x29, x30, [sp, -48]!
	.cfi_def_cfa_offset 48
	.cfi_offset 29, -48
	.cfi_offset 30, -40
	add	x29, sp, 0
	.cfi_def_cfa_register 29
	stp	x19, x20, [sp,16]
	str	x21, [sp,32]
	.cfi_offset 19, -32
	.cfi_offset 20, -24
	.cfi_offset 21, -16
	.loc 1 226 0
	mov	x21, x1
	mov	x19, x0
	mov	x20, x2
	.loc 1 227 0
	ldr	w1, [x0,8]
.LVL290:
	cbnz	w1, .L232
.L224:
	.loc 1 229 0
	ldr	w0, [x19,4]
	cbz	w0, .L225
	.loc 1 230 0
	mov	x0, x19
	add	x1, x19, 112
	mov	x2, x21
	mov	x3, x20
	mov	w4, 1
	mov	w5, 0
	bl	ufs_tagset_bt_tags_for_each
.LVL291:
.L225:
	.loc 1 231 0
	mov	x0, x19
	add	x1, x19, 56
.LVL292:
	mov	x2, x21
	mov	x3, x20
	mov	w4, 0
	mov	w5, 0
	bl	ufs_tagset_bt_tags_for_each
.LVL293:
	.loc 1 234 0
	ldr	x21, [sp,32]
	.cfi_remember_state
	.cfi_restore 21
.LVL294:
	mov	w0, 0
	ldp	x19, x20, [sp,16]
	.cfi_restore 20
	.cfi_restore 19
.LVL295:
	ldp	x29, x30, [sp], 48
	.cfi_restore 30
	.cfi_restore 29
	.cfi_def_cfa 31, 0
	ret
.LVL296:
.L232:
	.cfi_restore_state
	.loc 1 228 0
	add	x1, x0, 168
	mov	x2, x21
	mov	x3, x20
	mov	w4, 0
	mov	w5, 1
	bl	ufs_tagset_bt_tags_for_each
.LVL297:
	b	.L224
	.cfi_endproc
.LFE3135:
	.size	ufs_tagset_all_tag_busy_iter, .-ufs_tagset_all_tag_busy_iter
	.align	2
	.type	ufs_mq_tag_put, %function
ufs_mq_tag_put:
.LFB3141:
	.loc 1 365 0
	.cfi_startproc
.LVL298:
	stp	x29, x30, [sp, -32]!
	.cfi_def_cfa_offset 32
	.cfi_offset 29, -32
	.cfi_offset 30, -24
	add	x29, sp, 0
	.cfi_def_cfa_register 29
	stp	x19, x20, [sp,16]
	.cfi_offset 19, -16
	.cfi_offset 20, -8
	.loc 1 365 0
	mov	x20, x0
	.loc 1 366 0
	ldr	x19, [x0,184]
.LVL299:
	.loc 1 368 0
	ldr	w1, [x19,20]
.LVL300:
	cmp	w1, w2
	bls	.L237
	.loc 1 373 0
	ldr	w1, [x19,16]
	.loc 1 374 0
	ldr	x3, [x3,280]
.LVL301:
	.loc 1 373 0
	cmp	w2, w1
	bcs	.L238
	.loc 1 379 0
	mov	w1, w2
	ldr	w2, [x3,64]
.LVL302:
	add	x0, x19, 56
	bl	sbitmap_queue_clear
.LVL303:
.LBB1975:
.LBB1976:
	.loc 8 114 0
	add	x2, x19, 24
#APP
// 114 "/mnt/disk/jenkins/ci/workspace/chipset_release_960_xloader/opensource/component_code/vendor/huawei/extra/build/build_script/kirin_kernel_release/kernel/arch/arm64/include/asm/atomic_ll_sc.h" 1
	// atomic_sub
	prfm	pstl1strm, [x2]
1:	ldxr	w0, [x2]
	sub	w0, w0, 1
	stxr	w1, w0, [x2]
	cbnz	w1, 1b
// 0 "" 2
.LVL304:
#NO_APP
.LBE1976:
.LBE1975:
	.loc 1 381 0
	ldr	x0, [x20,120]
.LVL305:
.LBB1977:
.LBB1978:
	.loc 8 114 0
	add	x0, x0, 1164
#APP
// 114 "/mnt/disk/jenkins/ci/workspace/chipset_release_960_xloader/opensource/component_code/vendor/huawei/extra/build/build_script/kirin_kernel_release/kernel/arch/arm64/include/asm/atomic_ll_sc.h" 1
	// atomic_sub
	prfm	pstl1strm, [x0]
1:	ldxr	w1, [x0]
	sub	w1, w1, 1
	stxr	w2, w1, [x0]
	cbnz	w2, 1b
// 0 "" 2
.LVL306:
#NO_APP
.L235:
.LBE1978:
.LBE1977:
	.loc 1 384 0
	mov	w0, 0
	ldp	x19, x20, [sp,16]
	.cfi_remember_state
	.cfi_restore 20
	.cfi_restore 19
.LVL307:
	ldp	x29, x30, [sp], 32
	.cfi_restore 30
	.cfi_restore 29
	.cfi_def_cfa 31, 0
	ret
.LVL308:
.L237:
	.cfi_restore_state
	.loc 1 369 0
	ldr	x3, [x3,280]
.LVL309:
	sub	w1, w2, w1
	add	x0, x19, 168
.LVL310:
	ldr	w2, [x3,64]
.LVL311:
	bl	sbitmap_queue_clear
.LVL312:
.LBB1979:
.LBB1980:
	.loc 8 114 0
	add	x2, x19, 32
#APP
// 114 "/mnt/disk/jenkins/ci/workspace/chipset_release_960_xloader/opensource/component_code/vendor/huawei/extra/build/build_script/kirin_kernel_release/kernel/arch/arm64/include/asm/atomic_ll_sc.h" 1
	// atomic_sub
	prfm	pstl1strm, [x2]
1:	ldxr	w0, [x2]
	sub	w0, w0, 1
	stxr	w1, w0, [x2]
	cbnz	w1, 1b
// 0 "" 2
.LVL313:
#NO_APP
.LBE1980:
.LBE1979:
	.loc 1 371 0
	ldr	x0, [x20,120]
.LVL314:
.LBB1981:
.LBB1982:
	.loc 8 114 0
	add	x0, x0, 1172
#APP
// 114 "/mnt/disk/jenkins/ci/workspace/chipset_release_960_xloader/opensource/component_code/vendor/huawei/extra/build/build_script/kirin_kernel_release/kernel/arch/arm64/include/asm/atomic_ll_sc.h" 1
	// atomic_sub
	prfm	pstl1strm, [x0]
1:	ldxr	w1, [x0]
	sub	w1, w1, 1
	stxr	w2, w1, [x0]
	cbnz	w2, 1b
// 0 "" 2
.LVL315:
#NO_APP
.LBE1982:
.LBE1981:
	.loc 1 384 0
	mov	w0, 0
	ldp	x19, x20, [sp,16]
	.cfi_remember_state
	.cfi_restore 19
	.cfi_restore 20
.LVL316:
	ldp	x29, x30, [sp], 32
	.cfi_restore 29
	.cfi_restore 30
	.cfi_def_cfa 31, 0
	ret
.LVL317:
.L238:
	.cfi_restore_state
	.loc 1 374 0
	sub	w1, w2, w1
	ldr	w2, [x3,64]
.LVL318:
	add	x0, x19, 112
.LVL319:
	bl	sbitmap_queue_clear
.LVL320:
.LBB1983:
.LBB1984:
	.loc 8 114 0
	add	x2, x19, 28
#APP
// 114 "/mnt/disk/jenkins/ci/workspace/chipset_release_960_xloader/opensource/component_code/vendor/huawei/extra/build/build_script/kirin_kernel_release/kernel/arch/arm64/include/asm/atomic_ll_sc.h" 1
	// atomic_sub
	prfm	pstl1strm, [x2]
1:	ldxr	w0, [x2]
	sub	w0, w0, 1
	stxr	w1, w0, [x2]
	cbnz	w1, 1b
// 0 "" 2
.LVL321:
#NO_APP
.LBE1984:
.LBE1983:
	.loc 1 376 0
	ldr	x0, [x20,120]
.LVL322:
.LBB1985:
.LBB1986:
	.loc 8 114 0
	add	x0, x0, 1168
#APP
// 114 "/mnt/disk/jenkins/ci/workspace/chipset_release_960_xloader/opensource/component_code/vendor/huawei/extra/build/build_script/kirin_kernel_release/kernel/arch/arm64/include/asm/atomic_ll_sc.h" 1
	// atomic_sub
	prfm	pstl1strm, [x0]
1:	ldxr	w1, [x0]
	sub	w1, w1, 1
	stxr	w2, w1, [x0]
	cbnz	w2, 1b
// 0 "" 2
.LVL323:
#NO_APP
	b	.L235
.LBE1986:
.LBE1985:
	.cfi_endproc
.LFE3141:
	.size	ufs_mq_tag_put, .-ufs_mq_tag_put
	.align	2
	.type	ufs_tagset_bt_get, %function
ufs_tagset_bt_get:
.LFB3136:
	.loc 1 237 0
	.cfi_startproc
.LVL324:
	stp	x29, x30, [sp, -128]!
	.cfi_def_cfa_offset 128
	.cfi_offset 29, -128
	.cfi_offset 30, -120
	add	x29, sp, 0
	.cfi_def_cfa_register 29
	stp	x23, x24, [sp,48]
	.cfi_offset 23, -80
	.cfi_offset 24, -72
	adrp	x23, __stack_chk_guard
	.loc 1 239 0
	add	x3, x29, 104
	.loc 1 237 0
	stp	x21, x22, [sp,32]
	.cfi_offset 21, -96
	.cfi_offset 22, -88
	mov	x22, x1
	mov	x21, x0
	.loc 1 242 0
	mov	x0, x1
.LVL325:
	.loc 1 237 0
	ldr	x1, [x23,#:lo12:__stack_chk_guard]
.LVL326:
	str	x1, [x29,120]
	.loc 1 239 0
	adrp	x1, autoremove_wake_function
	add	x1, x1, :lo12:autoremove_wake_function
	str	x3, [x29,104]
	stp	xzr, xzr, [x29,80]
	.loc 1 237 0
	stp	x25, x26, [sp,64]
	stp	x19, x20, [sp,16]
	.cfi_offset 25, -64
	.cfi_offset 26, -56
	.cfi_offset 19, -112
	.cfi_offset 20, -104
	.loc 1 237 0
	mov	x26, x2
	.loc 1 239 0
	str	x1, [x29,96]
.LBB1987:
.LBB1988:
	.loc 4 20 0
#APP
// 20 "/mnt/disk/jenkins/ci/workspace/chipset_release_960_xloader/opensource/component_code/vendor/huawei/extra/build/build_script/kirin_kernel_release/kernel/arch/arm64/include/asm/current.h" 1
	mrs x2, sp_el0
// 0 "" 2
.LVL327:
#NO_APP
.LBE1988:
.LBE1987:
	.loc 1 239 0
	str	x3, [x29,112]
	str	x2, [x29,88]
	.loc 1 242 0
	bl	__sbitmap_queue_get
.LVL328:
	.loc 1 243 0
	cmn	w0, #1
	beq	.L270
.LVL329:
.L240:
	.loc 1 297 0
	ldr	x2, [x29,120]
	ldr	x1, [x23,#:lo12:__stack_chk_guard]
	cmp	x2, x1
	bne	.L271
	ldp	x19, x20, [sp,16]
	.cfi_remember_state
	.cfi_restore 20
	.cfi_restore 19
	ldp	x21, x22, [sp,32]
	.cfi_restore 22
	.cfi_restore 21
.LVL330:
	ldp	x23, x24, [sp,48]
	.cfi_restore 24
	.cfi_restore 23
.LVL331:
	ldp	x25, x26, [sp,64]
	.cfi_restore 26
	.cfi_restore 25
.LVL332:
	ldp	x29, x30, [sp], 128
	.cfi_restore 30
	.cfi_restore 29
	.cfi_def_cfa 31, 0
	ret
.LVL333:
.L270:
	.cfi_restore_state
	.loc 1 246 0
	ldr	w1, [x21,16]
	tbnz	x1, 0, .L240
.LBB1989:
.LBB1990:
.LBB1991:
.LBB1992:
.LBB1993:
	.loc 2 247 0 discriminator 4
	ldr	w19, [x26,180]
.LBE1993:
.LBE1992:
.LBE1991:
.LBB1994:
.LBB1995:
.LBB1996:
.LBB1997:
.LBB1998:
.LBB1999:
	.loc 8 292 0
	add	x4, x26, 180
.LBE1999:
.LBE1998:
.LBE1997:
.LBE1996:
.LBB2003:
.LBB2004:
.LBB2005:
	.loc 2 247 0 discriminator 4
	ldr	w24, [x26,180]
.LBE2005:
.LBE2004:
.LBE2003:
.LBE1995:
.LBE1994:
	.loc 12 361 0 discriminator 5
	ldr	x20, [x22,40]
	sbfiz	x0, x19, 6, 32
.LBB2011:
.LBB2009:
.LBB2006:
.LBB2007:
	.loc 12 340 0
	add	w25, w24, 1
.LBE2007:
.LBE2006:
.LBE2009:
.LBE2011:
	.loc 12 361 0 discriminator 5
	add	x20, x20, x0
.LVL334:
.LBB2012:
.LBB2010:
.LBB2008:
	.loc 12 347 0
	and	x1, x25, 7
	sxtw	x0, w24
.LBB2002:
.LBB2001:
.LBB2000:
	.loc 8 292 0
#APP
// 292 "/mnt/disk/jenkins/ci/workspace/chipset_release_960_xloader/opensource/component_code/vendor/huawei/extra/build/build_script/kirin_kernel_release/kernel/arch/arm64/include/asm/atomic_ll_sc.h" 1
		prfm	pstl1strm, [x4]
1:	ldxr	w3, [x4]
	eor	w2, w3, w0
	cbnz	w2, 2f
	stlxr	w2, w1, [x4]
	cbnz	w2, 1b
	dmb ish
	mov	w3, w0
2:
// 0 "" 2
.LVL335:
#NO_APP
.LBE2000:
.LBE2001:
.LBE2002:
.LBE2008:
.LBE2010:
.LBE2012:
.LBE1990:
.LBE1989:
.LBB2013:
.LBB2014:
	.loc 6 95 0
	adrp	x25, .LC8
.LBE2014:
.LBE2013:
.LBB2026:
.LBB2027:
.LBB2028:
.LBB2029:
	.loc 6 82 0
	adrp	x24, cpu_number
	add	x24, x24, :lo12:cpu_number
.LVL336:
.LBE2029:
.LBE2028:
.LBE2027:
.LBE2026:
.LBB2052:
.LBB2023:
	.loc 6 95 0
	add	x25, x25, :lo12:.LC8
.LBE2023:
.LBE2052:
.LBB2053:
.LBB2048:
.LBB2041:
.LBB2032:
	.loc 6 82 0
	b	.L254
.LVL337:
.L251:
.LBE2032:
.LBE2041:
.LBE2048:
.LBE2053:
	.loc 1 291 0
	mov	x0, x20
	add	x1, x29, 80
	bl	finish_wait
.LVL338:
.LBB2054:
.LBB2055:
.LBB2056:
.LBB2057:
.LBB2058:
	.loc 2 247 0 discriminator 4
	ldr	w20, [x19,180]
.LBE2058:
.LBE2057:
.LBE2056:
.LBB2059:
.LBB2060:
.LBB2061:
.LBB2062:
.LBB2063:
	ldr	w0, [x19,180]
.LBE2063:
.LBE2062:
.LBE2061:
.LBB2064:
.LBB2065:
.LBB2066:
.LBB2067:
	.loc 8 292 0
	add	x4, x19, 180
.LBE2067:
.LBE2066:
.LBE2065:
.LBE2064:
.LBE2060:
.LBE2059:
	.loc 12 361 0 discriminator 5
	ldr	x1, [x22,40]
	sbfiz	x20, x20, 6, 32
.LBB2076:
.LBB2074:
.LBB2071:
.LBB2072:
	.loc 12 340 0
	add	w26, w0, 1
.LBE2072:
.LBE2071:
.LBE2074:
.LBE2076:
	.loc 12 361 0 discriminator 5
	add	x20, x1, x20
.LVL339:
.LBB2077:
.LBB2075:
.LBB2073:
	.loc 12 347 0
	sxtw	x0, w0
	and	x1, x26, 7
.LBB2070:
.LBB2069:
.LBB2068:
	.loc 8 292 0
#APP
// 292 "/mnt/disk/jenkins/ci/workspace/chipset_release_960_xloader/opensource/component_code/vendor/huawei/extra/build/build_script/kirin_kernel_release/kernel/arch/arm64/include/asm/atomic_ll_sc.h" 1
		prfm	pstl1strm, [x4]
1:	ldxr	w3, [x4]
	eor	w2, w3, w0
	cbnz	w2, 2f
	stlxr	w2, w1, [x4]
	cbnz	w2, 1b
	dmb ish
	mov	w3, w0
2:
// 0 "" 2
.LVL340:
#NO_APP
.LBE2068:
.LBE2069:
.LBE2070:
.LBE2073:
.LBE2075:
.LBE2077:
.LBE2055:
.LBE2054:
.LBB2078:
.LBB2079:
	.loc 6 53 0
	mov	x26, x19
.LVL341:
.L254:
.LBE2079:
.LBE2078:
	.loc 1 251 0
	add	x20, x20, 8
.LVL342:
	add	x1, x29, 80
	mov	w2, 2
.LVL343:
	mov	x0, x20
	bl	prepare_to_wait
.LVL344:
	.loc 1 253 0
	mov	x0, x22
	bl	__sbitmap_queue_get
.LVL345:
	.loc 1 254 0
	cmn	w0, #1
	.loc 1 253 0
	mov	w19, w0
	.loc 1 254 0
	bne	.L241
	.loc 1 263 0
	cbz	x26, .L242
	.loc 1 264 0
	mov	x0, x26
	mov	w1, 0
	bl	blk_mq_run_hw_queue
.LVL346:
.L242:
	.loc 1 270 0
	mov	x0, x22
	bl	__sbitmap_queue_get
.LVL347:
	.loc 1 271 0
	cmn	w0, #1
	.loc 1 270 0
	mov	w19, w0
	.loc 1 271 0
	bne	.L241
	.loc 1 274 0
	ldr	x0, [x21,24]
.LBB2082:
.LBB2024:
	.loc 6 89 0
	ldr	x1, [x0,304]
	ldr	x1, [x1,13024]
	cbz	x1, .L246
	.loc 6 89 0 is_stmt 0 discriminator 1
	ldr	x1, [x1,80]
	cbz	x1, .L246
	.loc 6 90 0 is_stmt 1
	blr	x1
.LVL348:
	mov	w2, w0
.LVL349:
	.loc 6 91 0
	cbz	w0, .L248
	.loc 6 92 0
	cmn	w0, #1
	bne	.L272
.L246:
	.loc 6 93 0
.LBB2015:
.LBB2016:
.LBB2017:
.LBB2018:
.LBB2019:
	.loc 4 20 0
#APP
// 20 "/mnt/disk/jenkins/ci/workspace/chipset_release_960_xloader/opensource/component_code/vendor/huawei/extra/build/build_script/kirin_kernel_release/kernel/arch/arm64/include/asm/current.h" 1
	mrs x1, sp_el0
// 0 "" 2
.LVL350:
#NO_APP
.LBE2019:
.LBE2018:
.LBE2017:
	.loc 5 68 0
	ldr	w0, [x1,16]
	sub	w0, w0, #1
	str	w0, [x1,16]
	cbnz	w0, .L248
.LBB2020:
.LBB2021:
.LBB2022:
	.loc 7 105 0
	ldr	x0, [x1]
.LBE2022:
.LBE2021:
.LBE2020:
	.loc 5 68 0 discriminator 1
	tbnz	x0, 1, .L273
.L248:
.LBE2016:
.LBE2015:
.LBE2024:
.LBE2082:
.LBB2083:
.LBB2084:
	.file 13 "/mnt/disk/jenkins/ci/workspace/chipset_release_960_xloader/opensource/component_code/vendor/huawei/extra/build/build_script/kirin_kernel_release/kernel/include/linux/sched.h"
	.loc 13 538 0
	mov	x0, 9223372036854775807
	bl	io_schedule_timeout
.LVL351:
.LBE2084:
.LBE2083:
.LBB2085:
.LBB2049:
.LBB2042:
.LBB2033:
.LBB2034:
.LBB2035:
.LBB2036:
.LBB2037:
	.loc 4 20 0
#APP
// 20 "/mnt/disk/jenkins/ci/workspace/chipset_release_960_xloader/opensource/component_code/vendor/huawei/extra/build/build_script/kirin_kernel_release/kernel/arch/arm64/include/asm/current.h" 1
	mrs x1, sp_el0
// 0 "" 2
.LVL352:
#NO_APP
.LBE2037:
.LBE2036:
.LBE2035:
	.loc 5 53 0
	ldr	w0, [x1,16]
.LBE2034:
.LBE2033:
.LBE2042:
.LBE2049:
.LBE2085:
	.loc 1 278 0
	ldr	x2, [x21]
.LBB2086:
.LBB2050:
.LBB2043:
.LBB2039:
.LBB2038:
	.loc 5 53 0
	add	w0, w0, 1
	str	w0, [x1,16]
.LBE2038:
.LBE2039:
	.loc 6 82 0
.LBB2040:
.LBB2030:
.LBB2031:
	.file 14 "/mnt/disk/jenkins/ci/workspace/chipset_release_960_xloader/opensource/component_code/vendor/huawei/extra/build/build_script/kirin_kernel_release/kernel/arch/arm64/include/asm/percpu.h"
	.loc 14 34 0
#APP
// 34 "/mnt/disk/jenkins/ci/workspace/chipset_release_960_xloader/opensource/component_code/vendor/huawei/extra/build/build_script/kirin_kernel_release/kernel/arch/arm64/include/asm/percpu.h" 1
	mrs x1, tpidr_el1
// 0 "" 2
.LVL353:
#NO_APP
.LBE2031:
.LBE2030:
.LBE2040:
.LBE2043:
.LBB2044:
.LBB2045:
	.loc 6 71 0
	ldr	w3, [x1,x24]
	adrp	x1, __per_cpu_offset
.LVL354:
	add	x1, x1, :lo12:__per_cpu_offset
	ldr	x0, [x2,296]
.LBE2045:
.LBE2044:
.LBE2050:
.LBE2086:
	.loc 1 279 0
	ldr	x2, [x21]
.LVL355:
.LBB2087:
.LBB2051:
.LBB2047:
.LBB2046:
	.loc 6 71 0
	ldr	x1, [x1,x3,lsl 3]
	add	x0, x0, x1
.LVL356:
.LBE2046:
.LBE2047:
.LBE2051:
.LBE2087:
	.loc 1 278 0
	str	x0, [x21,24]
.LBB2088:
.LBB2080:
	.loc 6 53 0
	ldr	x1, [x2,288]
.LBE2080:
.LBE2088:
	.loc 1 279 0
	ldr	w3, [x0,64]
.LBB2089:
.LBB2081:
	.loc 6 53 0
	ldr	x0, [x2,312]
	ldr	w1, [x1,w3,sxtw 2]
	ldr	x19, [x0,w1,uxtw 3]
.LBE2081:
.LBE2089:
	.loc 1 279 0
	str	x19, [x21,32]
	.loc 1 280 0
	cmp	x26, x19
	beq	.L251
	.loc 1 281 0
	ldr	x0, [x21,8]
	.loc 1 283 0
	ldr	x22, [x19,184]
.LVL357:
	.loc 1 281 0
	tbz	x0, 3, .L252
	.loc 1 282 0
	tbnz	x0, 11, .L253
	.loc 1 283 0
	add	x22, x22, 56
.LVL358:
	b	.L251
.LVL359:
.L241:
	.loc 1 295 0
	mov	x0, x20
	add	x1, x29, 80
	bl	finish_wait
.LVL360:
	.loc 1 296 0
	mov	w0, w19
	b	.L240
.LVL361:
.L273:
.LBB2090:
.LBB2025:
	.loc 6 93 0 discriminator 3
	bl	preempt_schedule
.LVL362:
	b	.L248
.LVL363:
.L272:
	.loc 6 95 0
	adrp	x1, .LANCHOR1
	mov	x0, x25
.LVL364:
	add	x1, x1, :lo12:.LANCHOR1
	bl	printk
.LVL365:
	b	.L248
.LVL366:
.L252:
.LBE2025:
.LBE2090:
	.loc 1 288 0
	add	x22, x22, 112
.LVL367:
	b	.L251
.LVL368:
.L253:
	.loc 1 285 0
	add	x22, x22, 168
.LVL369:
	b	.L251
.LVL370:
.L271:
	.loc 1 297 0
	bl	__stack_chk_fail
.LVL371:
	.cfi_endproc
.LFE3136:
	.size	ufs_tagset_bt_get, .-ufs_tagset_bt_get
	.align	2
	.type	ufs_mq_tag_get, %function
ufs_mq_tag_get:
.LFB3140:
	.loc 1 353 0
	.cfi_startproc
.LVL372:
	stp	x29, x30, [sp, -32]!
	.cfi_def_cfa_offset 32
	.cfi_offset 29, -32
	.cfi_offset 30, -24
	add	x29, sp, 0
	.cfi_def_cfa_register 29
	stp	x19, x20, [sp,16]
	.cfi_offset 19, -16
	.cfi_offset 20, -8
	.loc 1 353 0
	mov	x20, x1
	.loc 1 354 0
	mov	x1, 2056
.LVL373:
	ldr	x2, [x0,8]
	.loc 1 353 0
	mov	x19, x0
	.loc 1 354 0
	and	x1, x2, x1
.LVL374:
	.loc 1 355 0
	cmp	x1, 8
	bne	.L275
.LBB2091:
.LBB2092:
	.loc 1 302 0
	ldr	x1, [x0,32]
.LVL375:
	mov	x2, x1
	ldr	x1, [x1,184]
	add	x1, x1, 56
	bl	ufs_tagset_bt_get
.LVL376:
	.loc 1 303 0
	tbnz	w0, #31, .L284
	.loc 1 304 0
	ldr	x1, [x19,32]
	ldr	x1, [x1,184]
.LBB2093:
.LBB2094:
	.loc 8 113 0
	add	x1, x1, 24
#APP
// 113 "/mnt/disk/jenkins/ci/workspace/chipset_release_960_xloader/opensource/component_code/vendor/huawei/extra/build/build_script/kirin_kernel_release/kernel/arch/arm64/include/asm/atomic_ll_sc.h" 1
	// atomic_add
	prfm	pstl1strm, [x1]
1:	ldxr	w2, [x1]
	add	w2, w2, 1
	stxr	w3, w2, [x1]
	cbnz	w3, 1b
// 0 "" 2
.LVL377:
#NO_APP
.LBE2094:
.LBE2093:
	.loc 1 305 0
	ldr	x1, [x19,32]
	ldr	x1, [x1,120]
.LBB2095:
.LBB2096:
	.loc 8 113 0
	add	x1, x1, 1164
#APP
// 113 "/mnt/disk/jenkins/ci/workspace/chipset_release_960_xloader/opensource/component_code/vendor/huawei/extra/build/build_script/kirin_kernel_release/kernel/arch/arm64/include/asm/atomic_ll_sc.h" 1
	// atomic_add
	prfm	pstl1strm, [x1]
1:	ldxr	w2, [x1]
	add	w2, w2, 1
	stxr	w3, w2, [x1]
	cbnz	w3, 1b
// 0 "" 2
.LVL378:
#NO_APP
.L283:
.LBE2096:
.LBE2095:
.LBE2092:
.LBE2091:
	.loc 1 360 0
	str	w0, [x20]
.LVL379:
	.loc 1 362 0
	mov	w0, 0
	ldp	x19, x20, [sp,16]
	.cfi_remember_state
	.cfi_restore 20
	.cfi_restore 19
.LVL380:
	ldp	x29, x30, [sp], 32
	.cfi_restore 30
	.cfi_restore 29
	.cfi_def_cfa 31, 0
	ret
.LVL381:
.L284:
	.cfi_restore_state
.LBB2098:
.LBB2097:
	.loc 1 303 0
	mov	w0, -1
.LVL382:
.LBE2097:
.LBE2098:
	.loc 1 360 0
	str	w0, [x20]
	.loc 1 362 0
	mov	w0, 0
	ldp	x19, x20, [sp,16]
	.cfi_remember_state
	.cfi_restore 19
	.cfi_restore 20
.LVL383:
	ldp	x29, x30, [sp], 32
	.cfi_restore 29
	.cfi_restore 30
	.cfi_def_cfa 31, 0
	ret
.LVL384:
.L275:
	.cfi_restore_state
.LBB2099:
.LBB2100:
	.loc 1 335 0
	ldr	x2, [x0,32]
.LBE2100:
.LBE2099:
	.loc 1 357 0
	cmp	x1, 2056
.LBB2107:
.LBB2105:
	.loc 1 335 0
	ldr	x1, [x2,184]
.LVL385:
.LBE2105:
.LBE2107:
	.loc 1 357 0
	beq	.L286
.LBB2108:
.LBB2109:
	.loc 1 314 0
	ldr	w3, [x1,4]
	cbz	w3, .L284
	.loc 1 322 0
	add	x1, x1, 112
	bl	ufs_tagset_bt_get
.LVL386:
	.loc 1 323 0
	tbnz	w0, #31, .L284
	.loc 1 324 0
	ldr	x1, [x19,32]
	ldr	x1, [x1,184]
.LBB2110:
.LBB2111:
	.loc 8 113 0
	add	x1, x1, 28
#APP
// 113 "/mnt/disk/jenkins/ci/workspace/chipset_release_960_xloader/opensource/component_code/vendor/huawei/extra/build/build_script/kirin_kernel_release/kernel/arch/arm64/include/asm/atomic_ll_sc.h" 1
	// atomic_add
	prfm	pstl1strm, [x1]
1:	ldxr	w2, [x1]
	add	w2, w2, 1
	stxr	w3, w2, [x1]
	cbnz	w3, 1b
// 0 "" 2
.LVL387:
#NO_APP
.LBE2111:
.LBE2110:
	.loc 1 325 0
	ldr	x1, [x19,32]
	ldr	x1, [x1,120]
.LBB2112:
.LBB2113:
	.loc 8 113 0
	add	x1, x1, 1168
#APP
// 113 "/mnt/disk/jenkins/ci/workspace/chipset_release_960_xloader/opensource/component_code/vendor/huawei/extra/build/build_script/kirin_kernel_release/kernel/arch/arm64/include/asm/atomic_ll_sc.h" 1
	// atomic_add
	prfm	pstl1strm, [x1]
1:	ldxr	w2, [x1]
	add	w2, w2, 1
	stxr	w3, w2, [x1]
	cbnz	w3, 1b
// 0 "" 2
.LVL388:
#NO_APP
.LBE2113:
.LBE2112:
	.loc 1 326 0
	ldr	x1, [x19,32]
	ldr	x1, [x1,184]
	ldr	w1, [x1,16]
	add	w0, w0, w1
.LVL389:
	b	.L283
.LVL390:
.L286:
.LBE2109:
.LBE2108:
.LBB2114:
.LBB2106:
	.loc 1 335 0
	ldr	w3, [x1,8]
	cbz	w3, .L284
	.loc 1 343 0
	add	x1, x1, 168
	bl	ufs_tagset_bt_get
.LVL391:
	.loc 1 344 0
	tbnz	w0, #31, .L284
	.loc 1 345 0
	ldr	x1, [x19,32]
	ldr	x1, [x1,184]
.LBB2101:
.LBB2102:
	.loc 8 113 0
	add	x1, x1, 32
#APP
// 113 "/mnt/disk/jenkins/ci/workspace/chipset_release_960_xloader/opensource/component_code/vendor/huawei/extra/build/build_script/kirin_kernel_release/kernel/arch/arm64/include/asm/atomic_ll_sc.h" 1
	// atomic_add
	prfm	pstl1strm, [x1]
1:	ldxr	w2, [x1]
	add	w2, w2, 1
	stxr	w3, w2, [x1]
	cbnz	w3, 1b
// 0 "" 2
.LVL392:
#NO_APP
.LBE2102:
.LBE2101:
	.loc 1 346 0
	ldr	x1, [x19,32]
	ldr	x1, [x1,120]
.LBB2103:
.LBB2104:
	.loc 8 113 0
	add	x1, x1, 1172
#APP
// 113 "/mnt/disk/jenkins/ci/workspace/chipset_release_960_xloader/opensource/component_code/vendor/huawei/extra/build/build_script/kirin_kernel_release/kernel/arch/arm64/include/asm/atomic_ll_sc.h" 1
	// atomic_add
	prfm	pstl1strm, [x1]
1:	ldxr	w2, [x1]
	add	w2, w2, 1
	stxr	w3, w2, [x1]
	cbnz	w3, 1b
// 0 "" 2
.LVL393:
#NO_APP
.LBE2104:
.LBE2103:
	.loc 1 347 0
	ldr	x1, [x19,32]
	ldr	x1, [x1,184]
	ldr	w1, [x1,20]
	add	w0, w0, w1
.LVL394:
	b	.L283
.LBE2106:
.LBE2114:
	.cfi_endproc
.LFE3140:
	.size	ufs_mq_tag_get, .-ufs_mq_tag_get
	.align	2
	.type	ufs_mq_req_complete, %function
ufs_mq_req_complete:
.LFB3214:
	.loc 1 1653 0
	.cfi_startproc
.LVL395:
	stp	x29, x30, [sp, -32]!
	.cfi_def_cfa_offset 32
	.cfi_offset 29, -32
	.cfi_offset 30, -24
	uxtb	w2, w2
	add	x29, sp, 0
	.cfi_def_cfa_register 29
	stp	x19, x20, [sp,16]
	.cfi_offset 19, -16
	.cfi_offset 20, -8
	.loc 1 1653 0
	mov	x19, x0
	.loc 1 1654 0
	ldr	x20, [x1,13016]
.LVL396:
	.loc 1 1659 0 discriminator 1
	cbz	w2, .L288
	.loc 1 1659 0 is_stmt 0
	ldr	w0, [x0,84]
.LVL397:
	.loc 1 1659 0 discriminator 1
	cmp	w0, 1
	bne	.L288
	ldr	x0, [x19,88]
.LBB2115:
.LBB2116:
	.loc 1 695 0 is_stmt 1
	tbz	x0, 3, .L289
.LVL398:
	.loc 1 696 0
	tbnz	x0, 11, .L304
.LBB2117:
.LBB2118:
	.loc 8 114 0
	add	x2, x20, 12
.LVL399:
#APP
// 114 "/mnt/disk/jenkins/ci/workspace/chipset_release_960_xloader/opensource/component_code/vendor/huawei/extra/build/build_script/kirin_kernel_release/kernel/arch/arm64/include/asm/atomic_ll_sc.h" 1
	// atomic_sub
	prfm	pstl1strm, [x2]
1:	ldxr	w0, [x2]
	sub	w0, w0, 1
	stxr	w1, w0, [x2]
	cbnz	w1, 1b
// 0 "" 2
.LVL400:
#NO_APP
.L291:
.LBE2118:
.LBE2117:
	.loc 1 710 0
	bl	ktime_get
.LVL401:
	str	x0, [x20,352]
.LVL402:
.L288:
.LBE2116:
.LBE2115:
	.loc 1 1661 0
	ldr	x3, [x19,72]
.LBB2124:
	adrp	x0, cpu_number
	add	x0, x0, :lo12:cpu_number
.LVL403:
.LBB2125:
.LBB2126:
	.loc 14 34 0
#APP
// 34 "/mnt/disk/jenkins/ci/workspace/chipset_release_960_xloader/opensource/component_code/vendor/huawei/extra/build/build_script/kirin_kernel_release/kernel/arch/arm64/include/asm/percpu.h" 1
	mrs x2, tpidr_el1
// 0 "" 2
.LVL404:
#NO_APP
.LBE2126:
.LBE2125:
.LBE2124:
	.loc 1 1661 0
	ldr	w1, [x3,64]
.LVL405:
.LBB2127:
.LBE2127:
	ldr	w0, [x2,x0]
.LVL406:
	cmp	w1, w0
	beq	.L292
.LBB2128:
.LBB2129:
.LBB2130:
.LBB2131:
	.loc 7 105 0
	add	w0, w1, 63
	cmp	w1, wzr
	csel	w0, w0, w1, lt
	adrp	x2, __cpu_online_mask
.LVL407:
	asr	w0, w0, 6
	add	x2, x2, :lo12:__cpu_online_mask
	ldr	x0, [x2,w0,sxtw 3]
	lsr	x1, x0, x1
.LBE2131:
.LBE2130:
.LBE2129:
.LBE2128:
	.loc 1 1661 0 discriminator 1
	tbnz	x1, 0, .L305
.LVL408:
.L292:
.LBB2132:
.LBB2133:
.LBB2134:
.LBB2135:
	.file 15 "/mnt/disk/jenkins/ci/workspace/chipset_release_960_xloader/opensource/component_code/vendor/huawei/extra/build/build_script/kirin_kernel_release/kernel/arch/arm64/include/asm/irqflags.h"
	.loc 15 29 0
#APP
// 29 "/mnt/disk/jenkins/ci/workspace/chipset_release_960_xloader/opensource/component_code/vendor/huawei/extra/build/build_script/kirin_kernel_release/kernel/arch/arm64/include/asm/irqflags.h" 1
	mrs	x20, daif		// arch_local_irq_save
msr	daifset, #2
// 0 "" 2
.LVL409:
#NO_APP
.LBE2135:
.LBE2134:
.LBB2136:
	.loc 1 1580 0
	adrp	x0, blk_cpu_done
.LBE2136:
	.loc 1 1581 0
	add	x1, x19, 136
.LBB2139:
.LBB2137:
.LBB2138:
	.loc 14 34 0
#APP
// 34 "/mnt/disk/jenkins/ci/workspace/chipset_release_960_xloader/opensource/component_code/vendor/huawei/extra/build/build_script/kirin_kernel_release/kernel/arch/arm64/include/asm/percpu.h" 1
	mrs x3, tpidr_el1
// 0 "" 2
.LVL410:
#NO_APP
.LBE2138:
.LBE2137:
	.loc 1 1580 0
	add	x0, x0, :lo12:blk_cpu_done
.LVL411:
	add	x2, x3, x0
.LVL412:
.LBE2139:
.LBB2140:
.LBB2141:
	.loc 3 77 0
	ldr	x4, [x2,8]
.LBB2142:
.LBB2143:
	.loc 3 42 0
	str	x1, [x2,8]
	.loc 3 43 0
	str	x2, [x19,136]
	.loc 3 44 0
	str	x4, [x19,144]
.LBB2144:
.LBB2145:
.LBB2146:
	.loc 2 276 0
	str	x1, [x4]
.LBE2146:
.LBE2145:
.LBE2144:
.LBE2143:
.LBE2142:
.LBE2141:
.LBE2140:
	.loc 1 1582 0
	ldr	x0, [x3,x0]
.LVL413:
	cmp	x1, x0
	bne	.L294
	.loc 1 1583 0
	mov	w0, 4
	bl	raise_softirq_irqoff
.LVL414:
.L294:
.LBB2147:
.LBB2148:
	.loc 15 81 0
#APP
// 81 "/mnt/disk/jenkins/ci/workspace/chipset_release_960_xloader/opensource/component_code/vendor/huawei/extra/build/build_script/kirin_kernel_release/kernel/arch/arm64/include/asm/irqflags.h" 1
	msr	daif, x20		// arch_local_irq_restore
// 0 "" 2
#NO_APP
.LBE2148:
.LBE2147:
.LBE2133:
.LBE2132:
	.loc 1 1670 0
	mov	w0, 0
	ldp	x19, x20, [sp,16]
	.cfi_remember_state
	.cfi_restore 20
	.cfi_restore 19
.LVL415:
	ldp	x29, x30, [sp], 32
	.cfi_restore 30
	.cfi_restore 29
	.cfi_def_cfa 31, 0
	ret
.LVL416:
.L305:
	.cfi_restore_state
	.loc 1 1662 0
	adrp	x0, __ufs_mq_complete_request_remote
	.loc 1 1663 0
	str	x19, [x19,48]
	.loc 1 1664 0
	str	wzr, [x19,56]
	.loc 1 1662 0
	add	x0, x0, :lo12:__ufs_mq_complete_request_remote
	str	x0, [x19,40]
	.loc 1 1665 0
	add	x1, x19, 32
	ldr	w0, [x3,64]
	bl	smp_call_function_single_async
.LVL417:
	.loc 1 1670 0
	mov	w0, 0
	ldp	x19, x20, [sp,16]
	.cfi_remember_state
	.cfi_restore 19
	.cfi_restore 20
.LVL418:
	ldp	x29, x30, [sp], 32
	.cfi_restore 29
	.cfi_restore 30
	.cfi_def_cfa 31, 0
	ret
.LVL419:
.L289:
	.cfi_restore_state
.LBB2149:
.LBB2123:
.LBB2119:
.LBB2120:
	.loc 8 114 0
	add	x2, x20, 16
.LVL420:
#APP
// 114 "/mnt/disk/jenkins/ci/workspace/chipset_release_960_xloader/opensource/component_code/vendor/huawei/extra/build/build_script/kirin_kernel_release/kernel/arch/arm64/include/asm/atomic_ll_sc.h" 1
	// atomic_sub
	prfm	pstl1strm, [x2]
1:	ldxr	w0, [x2]
	sub	w0, w0, 1
	stxr	w1, w0, [x2]
	cbnz	w1, 1b
// 0 "" 2
.LVL421:
#NO_APP
.LBE2120:
.LBE2119:
	.loc 1 718 0
	bl	ktime_get
.LVL422:
	str	x0, [x20,360]
	b	.L288
.LVL423:
.L304:
.LBB2121:
.LBB2122:
	.loc 8 114 0
	add	x2, x20, 8
.LVL424:
#APP
// 114 "/mnt/disk/jenkins/ci/workspace/chipset_release_960_xloader/opensource/component_code/vendor/huawei/extra/build/build_script/kirin_kernel_release/kernel/arch/arm64/include/asm/atomic_ll_sc.h" 1
	// atomic_sub
	prfm	pstl1strm, [x2]
1:	ldxr	w0, [x2]
	sub	w0, w0, 1
	stxr	w1, w0, [x2]
	cbnz	w1, 1b
// 0 "" 2
.LVL425:
#NO_APP
	b	.L291
.LBE2122:
.LBE2121:
.LBE2123:
.LBE2149:
	.cfi_endproc
.LFE3214:
	.size	ufs_mq_req_complete, .-ufs_mq_req_complete
	.align	2
	.type	ufs_mq_req_timeout_handler, %function
ufs_mq_req_timeout_handler:
.LFB3218:
	.loc 1 1699 0
	.cfi_startproc
.LVL426:
	stp	x29, x30, [sp, -48]!
	.cfi_def_cfa_offset 48
	.cfi_offset 29, -48
	.cfi_offset 30, -40
	mov	x1, x0
.LVL427:
	add	x29, sp, 0
	.cfi_def_cfa_register 29
	stp	x19, x20, [sp,16]
	str	x21, [sp,32]
	.cfi_offset 19, -32
	.cfi_offset 20, -24
	.cfi_offset 21, -16
.LBB2150:
.LBB2151:
	.loc 7 105 0
	ldr	x0, [x0,96]
.LVL428:
.LBE2151:
.LBE2150:
	.loc 1 1701 0
	ldr	x2, [x1,64]
.LBB2153:
.LBB2152:
	.loc 7 105 0
	ubfx	x0, x0, 1, 1
.LBE2152:
.LBE2153:
	.loc 1 1701 0
	ldr	x21, [x2,280]
.LVL429:
	.loc 1 1703 0
	ldr	x20, [x2,13016]
.LVL430:
	.loc 1 1704 0
	cbz	w0, .L307
	.loc 1 1706 0
	ldr	w0, [x1,84]
	mov	x19, x1
.LVL431:
	cmp	w0, 1
	bne	.L308
.LVL432:
	ldr	x0, [x1,88]
.LBB2154:
.LBB2155:
	.loc 1 695 0
	tbz	x0, 3, .L309
.LVL433:
	.loc 1 696 0
	tbnz	x0, 11, .L329
.LBB2156:
.LBB2157:
	.loc 8 114 0
	add	x2, x20, 12
#APP
// 114 "/mnt/disk/jenkins/ci/workspace/chipset_release_960_xloader/opensource/component_code/vendor/huawei/extra/build/build_script/kirin_kernel_release/kernel/arch/arm64/include/asm/atomic_ll_sc.h" 1
	// atomic_sub
	prfm	pstl1strm, [x2]
1:	ldxr	w0, [x2]
	sub	w0, w0, 1
	stxr	w1, w0, [x2]
	cbnz	w1, 1b
// 0 "" 2
.LVL434:
#NO_APP
.L311:
.LBE2157:
.LBE2156:
	.loc 1 710 0
	bl	ktime_get
.LVL435:
	str	x0, [x20,352]
.L308:
.LBE2155:
.LBE2154:
	.loc 1 1712 0
	ldr	x2, [x21,8]
	cbz	x2, .L312
	.loc 1 1713 0
	mov	x0, x19
	mov	w1, 0
	blr	x2
.LVL436:
	.loc 1 1715 0
	cmp	w0, 2
	beq	.L312
	cmp	w0, 3
	beq	.L313
	cmp	w0, 1
	beq	.L330
	.loc 1 1729 0
	mov	w0, 0
.LVL437:
.L307:
	.loc 1 1740 0
	ldp	x19, x20, [sp,16]
	.cfi_remember_state
	.cfi_restore 20
	.cfi_restore 19
.LVL438:
	ldr	x21, [sp,32]
	.cfi_restore 21
.LVL439:
	ldp	x29, x30, [sp], 48
	.cfi_restore 30
	.cfi_restore 29
	.cfi_def_cfa 31, 0
	ret
.LVL440:
.L312:
	.cfi_restore_state
.LBB2164:
.LBB2165:
	.loc 1 681 0
	ldr	w0, [x19,84]
.LVL441:
	cmp	w0, 1
	bne	.L315
	.loc 1 683 0
	ldr	x0, [x19,88]
	tbz	x0, 3, .L316
	.loc 1 684 0
	tbnz	x0, 11, .L331
.LBB2166:
.LBB2167:
	.loc 8 113 0
	add	x2, x20, 12
#APP
// 113 "/mnt/disk/jenkins/ci/workspace/chipset_release_960_xloader/opensource/component_code/vendor/huawei/extra/build/build_script/kirin_kernel_release/kernel/arch/arm64/include/asm/atomic_ll_sc.h" 1
	// atomic_add
	prfm	pstl1strm, [x2]
1:	ldxr	w0, [x2]
	add	w0, w0, 1
	stxr	w1, w0, [x2]
	cbnz	w1, 1b
// 0 "" 2
.LVL442:
#NO_APP
.L315:
.LBE2167:
.LBE2166:
.LBE2165:
.LBE2164:
	.loc 1 1724 0
	mov	x0, x19
.LVL443:
	bl	blk_add_timer
.LVL444:
.LBB2173:
.LBB2174:
	.file 16 "/mnt/disk/jenkins/ci/workspace/chipset_release_960_xloader/opensource/component_code/vendor/huawei/extra/build/build_script/kirin_kernel_release/kernel/block/blk.h"
	.loc 16 128 0
	add	x1, x19, 96
	mov	w0, 0
	bl	clear_bit
.LVL445:
.LBE2174:
.LBE2173:
	.loc 1 1740 0
	ldr	x21, [sp,32]
	.cfi_remember_state
	.cfi_restore 21
.LVL446:
	.loc 1 1726 0
	mov	w0, 0
	.loc 1 1740 0
	ldp	x19, x20, [sp,16]
	.cfi_restore 19
	.cfi_restore 20
.LVL447:
	ldp	x29, x30, [sp], 48
	.cfi_restore 29
	.cfi_restore 30
	.cfi_def_cfa 31, 0
	ret
.LVL448:
.L330:
	.cfi_restore_state
	.loc 1 1718 0
	mov	x0, x19
.LVL449:
	bl	blk_mq_stat_add
.LVL450:
	.loc 1 1720 0
	ldr	x1, [x19,64]
.LVL451:
	mov	x0, x19
	mov	w2, 0
	bl	ufs_mq_req_complete
.LVL452:
	.loc 1 1740 0
	ldr	x21, [sp,32]
	.cfi_remember_state
	.cfi_restore 21
.LVL453:
	ldp	x19, x20, [sp,16]
	.cfi_restore 19
	.cfi_restore 20
.LVL454:
	ldp	x29, x30, [sp], 48
	.cfi_restore 29
	.cfi_restore 30
	.cfi_def_cfa 31, 0
	ret
.LVL455:
.L309:
	.cfi_restore_state
.LBB2175:
.LBB2162:
.LBB2158:
.LBB2159:
	.loc 8 114 0
	add	x2, x20, 16
#APP
// 114 "/mnt/disk/jenkins/ci/workspace/chipset_release_960_xloader/opensource/component_code/vendor/huawei/extra/build/build_script/kirin_kernel_release/kernel/arch/arm64/include/asm/atomic_ll_sc.h" 1
	// atomic_sub
	prfm	pstl1strm, [x2]
1:	ldxr	w0, [x2]
	sub	w0, w0, 1
	stxr	w1, w0, [x2]
	cbnz	w1, 1b
// 0 "" 2
.LVL456:
#NO_APP
.LBE2159:
.LBE2158:
	.loc 1 718 0
	bl	ktime_get
.LVL457:
	str	x0, [x20,360]
	b	.L308
.LVL458:
.L313:
.LBE2162:
.LBE2175:
.LBB2176:
.LBB2177:
	.loc 1 1599 0
	mov	x0, x19
.LVL459:
	bl	blk_mq_requeue_request
.LVL460:
	.loc 1 1600 0
	ldr	x0, [x19,64]
	bl	blk_mq_kick_requeue_list
.LVL461:
.LBE2177:
.LBE2176:
	.loc 1 1740 0
	ldr	x21, [sp,32]
	.cfi_remember_state
	.cfi_restore 21
.LVL462:
	.loc 1 1733 0
	mov	w0, 0
	.loc 1 1740 0
	ldp	x19, x20, [sp,16]
	.cfi_restore 19
	.cfi_restore 20
.LVL463:
	ldp	x29, x30, [sp], 48
	.cfi_restore 29
	.cfi_restore 30
	.cfi_def_cfa 31, 0
	ret
.LVL464:
.L329:
	.cfi_restore_state
.LBB2178:
.LBB2163:
.LBB2160:
.LBB2161:
	.loc 8 114 0
	add	x2, x20, 8
#APP
// 114 "/mnt/disk/jenkins/ci/workspace/chipset_release_960_xloader/opensource/component_code/vendor/huawei/extra/build/build_script/kirin_kernel_release/kernel/arch/arm64/include/asm/atomic_ll_sc.h" 1
	// atomic_sub
	prfm	pstl1strm, [x2]
1:	ldxr	w0, [x2]
	sub	w0, w0, 1
	stxr	w1, w0, [x2]
	cbnz	w1, 1b
// 0 "" 2
.LVL465:
#NO_APP
	b	.L311
.LVL466:
.L316:
.LBE2161:
.LBE2160:
.LBE2163:
.LBE2178:
.LBB2179:
.LBB2172:
.LBB2168:
.LBB2169:
	.loc 8 113 0
	add	x2, x20, 16
#APP
// 113 "/mnt/disk/jenkins/ci/workspace/chipset_release_960_xloader/opensource/component_code/vendor/huawei/extra/build/build_script/kirin_kernel_release/kernel/arch/arm64/include/asm/atomic_ll_sc.h" 1
	// atomic_add
	prfm	pstl1strm, [x2]
1:	ldxr	w0, [x2]
	add	w0, w0, 1
	stxr	w1, w0, [x2]
	cbnz	w1, 1b
// 0 "" 2
.LVL467:
#NO_APP
	b	.L315
.LVL468:
.L331:
.LBE2169:
.LBE2168:
.LBB2170:
.LBB2171:
	add	x2, x20, 8
#APP
// 113 "/mnt/disk/jenkins/ci/workspace/chipset_release_960_xloader/opensource/component_code/vendor/huawei/extra/build/build_script/kirin_kernel_release/kernel/arch/arm64/include/asm/atomic_ll_sc.h" 1
	// atomic_add
	prfm	pstl1strm, [x2]
1:	ldxr	w0, [x2]
	add	w0, w0, 1
	stxr	w1, w0, [x2]
	cbnz	w1, 1b
// 0 "" 2
.LVL469:
#NO_APP
	b	.L315
.LBE2171:
.LBE2170:
.LBE2172:
.LBE2179:
	.cfi_endproc
.LFE3218:
	.size	ufs_mq_req_timeout_handler, .-ufs_mq_req_timeout_handler
	.align	2
	.type	ufs_mq_iosched_deinit, %function
ufs_mq_iosched_deinit:
.LFB3230:
	.loc 1 1940 0
	.cfi_startproc
.LVL470:
	stp	x29, x30, [sp, -48]!
	.cfi_def_cfa_offset 48
	.cfi_offset 29, -48
	.cfi_offset 30, -40
	add	x29, sp, 0
	.cfi_def_cfa_register 29
	stp	x19, x20, [sp,16]
	str	x21, [sp,32]
	.cfi_offset 19, -32
	.cfi_offset 20, -24
	.cfi_offset 21, -16
	.loc 1 1941 0
	ldr	x20, [x0,13016]
.LVL471:
	.loc 1 1943 0
	cbz	x20, .L334
.LBB2180:
.LBB2181:
	.loc 9 302 0
	adrp	x21, .LANCHOR2
	mov	x19, x0
	add	x21, x21, :lo12:.LANCHOR2
	mov	x0, x21
.LVL472:
	bl	_raw_spin_lock
.LVL473:
.LBE2181:
.LBE2180:
.LBB2182:
.LBB2183:
.LBB2184:
	.loc 3 102 0
	ldr	x3, [x20,432]
.LBE2184:
.LBE2183:
.LBE2182:
	.loc 1 1947 0
	add	x1, x20, 432
.LBB2199:
.LBB2192:
.LBB2190:
	.loc 3 102 0
	ldr	x2, [x20,440]
.LBE2190:
.LBE2192:
.LBE2199:
.LBB2200:
.LBB2201:
	.loc 9 347 0
	mov	x0, x21
.LBE2201:
.LBE2200:
.LBB2203:
.LBB2193:
.LBB2191:
.LBB2185:
.LBB2186:
	.loc 3 89 0
	str	x2, [x3,8]
.LBB2187:
.LBB2188:
.LBB2189:
	.loc 2 276 0
	str	x3, [x2]
.LBE2189:
.LBE2188:
.LBE2187:
.LBE2186:
.LBE2185:
.LBE2191:
.LBE2193:
.LBB2194:
.LBB2195:
.LBB2196:
.LBB2197:
.LBB2198:
	str	x1, [x20,432]
.LBE2198:
.LBE2197:
.LBE2196:
	.loc 3 28 0
	str	x1, [x1,8]
.LBE2195:
.LBE2194:
.LBE2203:
.LBB2204:
.LBB2202:
	.loc 9 347 0
	bl	_raw_spin_unlock
.LVL474:
.LBE2202:
.LBE2204:
	.loc 1 1950 0
	ldr	x0, [x19,13016]
	bl	kfree
.LVL475:
	.loc 1 1951 0
	str	xzr, [x19,13016]
	.loc 1 1953 0
	mov	w0, 0
	.loc 1 1954 0
	ldp	x19, x20, [sp,16]
	.cfi_remember_state
	.cfi_restore 20
	.cfi_restore 19
.LVL476:
	ldr	x21, [sp,32]
	.cfi_restore 21
	ldp	x29, x30, [sp], 48
	.cfi_restore 30
	.cfi_restore 29
	.cfi_def_cfa 31, 0
	ret
.LVL477:
.L334:
	.cfi_restore_state
	.loc 1 1944 0
	mov	w0, 22
.LVL478:
	.loc 1 1954 0
	ldr	x21, [sp,32]
	.cfi_restore 21
	ldp	x19, x20, [sp,16]
	.cfi_restore 19
	.cfi_restore 20
.LVL479:
	ldp	x29, x30, [sp], 48
	.cfi_restore 29
	.cfi_restore 30
	.cfi_def_cfa 31, 0
	ret
	.cfi_endproc
.LFE3230:
	.size	ufs_mq_iosched_deinit, .-ufs_mq_iosched_deinit
	.align	2
	.type	ufs_mq_sync_burst_check_timer_expire, %function
ufs_mq_sync_burst_check_timer_expire:
.LFB3156:
	.loc 1 591 0
	.cfi_startproc
.LVL480:
	stp	x29, x30, [sp, -32]!
	.cfi_def_cfa_offset 32
	.cfi_offset 29, -32
	.cfi_offset 30, -24
	add	x29, sp, 0
	.cfi_def_cfa_register 29
	str	x19, [sp,16]
	.cfi_offset 19, -16
	.loc 1 591 0
	mov	x19, x0
	.loc 1 594 0
	bl	ktime_get
.LVL481:
	.loc 1 595 0
	ldr	x19, [x19,13016]
.LVL482:
.LBB2269:
.LBB2270:
.LBB2271:
	.loc 2 247 0 discriminator 4
	ldr	w1, [x19,424]
.LBE2271:
.LBE2270:
.LBE2269:
	.loc 1 597 0 discriminator 5
	sub	w1, w1, #1
	cmp	w1, 1
	bhi	.L336
	.loc 1 600 0
	adrp	x2, .LANCHOR2+24
	ldr	x3, [x19,344]
.LVL483:
.LBB2272:
.LBB2273:
.LBB2274:
	.file 17 "/mnt/disk/jenkins/ci/workspace/chipset_release_960_xloader/opensource/component_code/vendor/huawei/extra/build/build_script/kirin_kernel_release/kernel/include/linux/ktime.h"
	.loc 17 233 0
	mov	w1, 16960
	movk	w1, 0xf, lsl 16
.LBE2274:
.LBE2273:
.LBE2272:
	.loc 1 600 0
	ldr	w2, [x2,#:lo12:.LANCHOR2+24]
.LBB2280:
.LBB2276:
.LBB2275:
	.loc 17 233 0
	smaddl	x1, w2, w1, x3
.LVL484:
.LBE2275:
.LBE2276:
.LBB2277:
.LBB2278:
.LBB2279:
	.loc 17 146 0
	cmp	x0, x1
	bgt	.L338
.L336:
.LBE2279:
.LBE2278:
.LBE2277:
.LBE2280:
.LBB2281:
.LBB2282:
.LBB2283:
	.loc 17 233 0
	ldr	x1, [x19,336]
	add	x1, x1, 9998336
	add	x1, x1, 1664
.LBE2283:
.LBE2282:
.LBB2284:
.LBB2285:
.LBB2286:
	.loc 17 144 0
	cmp	x0, x1
	bge	.L357
.LBE2286:
.LBE2285:
.LBE2284:
.LBE2281:
.LBB2287:
.LBB2288:
.LBB2289:
.LBB2290:
.LBB2291:
	.loc 2 247 0 discriminator 4
	ldr	w0, [x19,424]
.LVL485:
.LBE2291:
.LBE2290:
.LBE2289:
	.loc 1 554 0 discriminator 5
	cmp	w0, 1
	beq	.L341
	cmp	w0, 3
	bne	.L342
.LBB2292:
	.loc 1 559 0 discriminator 1
	ldr	x0, [x19]
.LBB2293:
.LBB2294:
	.loc 2 247 0 discriminator 4
	ldr	w0, [x0,1168]
.LBE2294:
.LBE2293:
.LBE2292:
	.loc 1 559 0 discriminator 5
	cbnz	w0, .L342
.L355:
.LBB2295:
.LBB2296:
.LBB2297:
	.loc 2 275 0
	mov	w0, 1
	str	w0, [x19,424]
.L342:
.LBE2297:
.LBE2296:
.LBE2295:
.LBE2288:
.LBE2287:
	.loc 1 611 0
	adrp	x1, jiffies
	.loc 1 611 0 is_stmt 0 discriminator 1
	add	x0, x19, 376
	.loc 1 611 0
	ldr	x1, [x1,#:lo12:jiffies]
	.loc 1 611 0 discriminator 1
	add	x1, x1, 3
	bl	mod_timer
.LVL486:
.L335:
	.loc 1 612 0 is_stmt 1
	ldr	x19, [sp,16]
	.cfi_remember_state
	.cfi_restore 19
.LVL487:
	ldp	x29, x30, [sp], 32
	.cfi_restore 30
	.cfi_restore 29
	.cfi_def_cfa 31, 0
	ret
.LVL488:
.L357:
	.cfi_restore_state
.LBB2302:
.LBB2303:
.LBB2304:
.LBB2305:
.LBB2306:
	.loc 2 247 0 discriminator 4
	ldr	w0, [x19,424]
.LVL489:
.LBE2306:
.LBE2305:
.LBE2304:
	.loc 1 569 0 discriminator 5
	cmp	w0, 2
	beq	.L345
	cmp	w0, 3
	beq	.L346
	cmp	w0, 1
	bne	.L342
	.loc 1 571 0
	bl	ktime_get
.LVL490:
.LBB2307:
.LBB2308:
.LBB2309:
	.loc 17 233 0
	ldr	x2, [x19,352]
	mov	x1, 50048
	movk	x1, 0x1c9, lsl 16
	add	x1, x2, x1
.LBE2309:
.LBE2308:
.LBB2310:
.LBB2311:
.LBB2312:
	.loc 17 146 0
	cmp	x0, x1
	ble	.L342
.LBE2312:
.LBE2311:
.LBE2310:
.LBE2307:
.LBB2313:
.LBB2314:
.LBB2315:
	.loc 2 275 0
	str	wzr, [x19,424]
	b	.L335
.LVL491:
.L338:
.LBE2315:
.LBE2314:
.LBE2313:
.LBE2303:
.LBE2302:
.LBB2332:
.LBB2333:
.LBB2334:
	mov	w1, 3
	str	w1, [x19,424]
	b	.L336
.LVL492:
.L341:
.LBE2334:
.LBE2333:
.LBE2332:
.LBB2335:
.LBB2301:
.LBB2298:
.LBB2299:
.LBB2300:
	mov	w0, 2
	str	w0, [x19,424]
	b	.L342
.L345:
.LBE2300:
.LBE2299:
.LBE2298:
.LBE2301:
.LBE2335:
.LBB2336:
.LBB2331:
	.loc 1 577 0
	bl	ktime_get
.LVL493:
.LBB2318:
.LBB2319:
.LBB2320:
	.loc 17 233 0
	ldr	x1, [x19,336]
	add	x1, x1, 9998336
	add	x1, x1, 1664
.LBE2320:
.LBE2319:
.LBB2321:
.LBB2322:
.LBB2323:
	.loc 17 146 0
	cmp	x0, x1
	bgt	.L355
	b	.L342
.LVL494:
.L346:
.LBE2323:
.LBE2322:
.LBE2321:
.LBE2318:
	.loc 1 581 0
	bl	ktime_get
.LVL495:
.LBB2324:
.LBB2325:
.LBB2326:
	.loc 17 233 0
	ldr	x2, [x19,352]
	mov	x1, 11520
	movk	x1, 0x131, lsl 16
	add	x1, x2, x1
.LBE2326:
.LBE2325:
.LBB2327:
.LBB2328:
.LBB2329:
	.loc 17 146 0
	cmp	x0, x1
	ble	.L342
.LBE2329:
.LBE2328:
.LBE2327:
.LBE2324:
.LBB2330:
.LBB2317:
.LBB2316:
	.loc 2 275 0
	str	wzr, [x19,424]
	b	.L335
.LBE2316:
.LBE2317:
.LBE2330:
.LBE2331:
.LBE2336:
	.cfi_endproc
.LFE3156:
	.size	ufs_mq_sync_burst_check_timer_expire, .-ufs_mq_sync_burst_check_timer_expire
	.align	2
	.type	ufs_mq_iosched_init, %function
ufs_mq_iosched_init:
.LFB3229:
	.loc 1 1854 0
	.cfi_startproc
.LVL496:
	stp	x29, x30, [sp, -64]!
	.cfi_def_cfa_offset 64
	.cfi_offset 29, -64
	.cfi_offset 30, -56
.LBB2337:
.LBB2338:
	.file 18 "/mnt/disk/jenkins/ci/workspace/chipset_release_960_xloader/opensource/component_code/vendor/huawei/extra/build/build_script/kirin_kernel_release/kernel/include/linux/slab.h"
	.loc 18 499 0
	mov	w1, 192
	mov	x2, 448
.LBE2338:
.LBE2337:
	.loc 1 1854 0
	add	x29, sp, 0
	.cfi_def_cfa_register 29
	stp	x21, x22, [sp,32]
	.cfi_offset 21, -32
	.cfi_offset 22, -24
	mov	x21, x0
.LBB2342:
.LBB2339:
	.loc 18 499 0
	adrp	x0, kmalloc_caches+72
.LVL497:
	movk	w1, 0x240, lsl 16
.LBE2339:
.LBE2342:
	.loc 1 1854 0
	stp	x19, x20, [sp,16]
.LBB2343:
.LBB2340:
	.loc 18 499 0
	ldr	x0, [x0,#:lo12:kmalloc_caches+72]
.LBE2340:
.LBE2343:
	.loc 1 1854 0
	stp	x23, x24, [sp,48]
	.cfi_offset 19, -48
	.cfi_offset 20, -40
	.cfi_offset 23, -16
	.cfi_offset 24, -8
.LBB2344:
.LBB2341:
	.loc 18 499 0
	bl	kmem_cache_alloc_trace
.LVL498:
	mov	x19, x0
.LBE2341:
.LBE2344:
	.loc 1 1858 0
	cbz	x0, .L368
	.loc 1 1865 0
	add	x4, x19, 32
.LBB2345:
.LBB2346:
.LBB2347:
.LBB2348:
.LBB2349:
	.loc 2 276 0
	str	x4, [x19,32]
.LBE2349:
.LBE2348:
.LBE2347:
	.loc 3 28 0
	str	x4, [x19,40]
.LBE2346:
.LBE2345:
	.loc 1 1865 0
	adrp	x4, ufs_mq_sync_io_dispatch_work_fn
	add	x4, x4, :lo12:ufs_mq_sync_io_dispatch_work_fn
	.loc 1 1865 0 is_stmt 0 discriminator 2
	add	x0, x0, 56
	mov	w1, 2097152
	mov	x2, 0
	mov	x3, 0
	.loc 1 1865 0
	mov	x23, 68719476704
	str	x4, [x19,48]
	adrp	x22, delayed_work_timer_fn
	str	x23, [x19,24]
	add	x24, x22, :lo12:delayed_work_timer_fn
	.loc 1 1863 0 is_stmt 1
	str	x21, [x19]
	.loc 1 1865 0 discriminator 2
	bl	init_timer_key
.LVL499:
	.loc 1 1867 0
	add	x4, x19, 136
	.loc 1 1865 0
	add	x5, x19, 24
	.loc 1 1867 0
	str	x23, [x19,128]
	.loc 1 1867 0 is_stmt 0 discriminator 2
	mov	x3, 0
	.loc 1 1865 0 is_stmt 1
	str	x5, [x19,88]
	.loc 1 1867 0 discriminator 2
	add	x0, x19, 160
.LBB2350:
.LBB2351:
.LBB2352:
.LBB2353:
.LBB2354:
	.loc 2 276 0
	str	x4, [x19,136]
.LBE2354:
.LBE2353:
.LBE2352:
.LBE2351:
.LBE2350:
	.loc 1 1867 0 discriminator 2
	mov	w1, 2097152
	.loc 1 1865 0
	str	x24, [x19,80]
	.loc 1 1867 0 discriminator 2
	mov	x2, 0
	.loc 1 1866 0
	str	x21, [x19,120]
.LBB2356:
	.loc 1 1873 0 discriminator 1
	adrp	x20, .LANCHOR0
.LBE2356:
.LBB2357:
.LBB2355:
	.loc 3 28 0
	str	x4, [x4,8]
.LBE2355:
.LBE2357:
	.loc 1 1867 0
	adrp	x4, ufs_mq_async_io_dispatch_work_fn
	add	x4, x4, :lo12:ufs_mq_async_io_dispatch_work_fn
	str	x4, [x19,152]
.LBB2358:
	.loc 1 1873 0 discriminator 1
	add	x23, x20, :lo12:.LANCHOR0
.LBE2358:
	.loc 1 1867 0 discriminator 2
	bl	init_timer_key
.LVL500:
	.loc 1 1867 0 is_stmt 0
	str	x24, [x19,184]
	.loc 1 1870 0 is_stmt 1
	add	x0, x19, 232
	.loc 1 1871 0
	add	x3, x19, 248
.LBB2359:
.LBB2360:
.LBB2361:
.LBB2362:
.LBB2363:
	.loc 2 276 0
	str	x0, [x19,232]
.LBE2363:
.LBE2362:
.LBE2361:
.LBE2360:
.LBE2359:
	.loc 1 1867 0
	add	x1, x19, 128
	.loc 1 1868 0
	str	x21, [x19,224]
.LBB2365:
	.loc 1 1873 0 discriminator 1
	add	x23, x23, 16
.LBE2365:
	.loc 1 1867 0
	str	x1, [x19,192]
.LBB2366:
	.loc 1 1873 0 discriminator 1
	adrp	x1, .LC9
.LBE2366:
.LBB2367:
.LBB2364:
	.loc 3 28 0
	str	x0, [x0,8]
.LBE2364:
.LBE2367:
.LBB2368:
	.loc 1 1873 0 discriminator 1
	add	x1, x1, :lo12:.LC9
.LBE2368:
.LBB2369:
.LBB2370:
.LBB2371:
.LBB2372:
.LBB2373:
	.loc 2 276 0
	str	x3, [x19,248]
.LBE2373:
.LBE2372:
.LBE2371:
.LBE2370:
.LBE2369:
.LBB2375:
	.loc 1 1873 0 discriminator 1
	add	x0, x19, 280
.LBE2375:
.LBB2376:
.LBB2374:
	.loc 3 28 0
	str	x3, [x3,8]
.LBE2374:
.LBE2376:
.LBB2377:
	.loc 1 1873 0 discriminator 1
	mov	x2, x23
	bl	__raw_spin_lock_init
.LVL501:
.LBE2377:
.LBB2378:
	.loc 1 1874 0 discriminator 1
	adrp	x1, .LC10
	mov	x2, x23
	add	x1, x1, :lo12:.LC10
	add	x0, x19, 304
	bl	__raw_spin_lock_init
.LVL502:
.LBE2378:
.LBB2379:
.LBB2380:
.LBB2381:
	.loc 2 275 0
	str	wzr, [x19,16]
.LBE2381:
.LBE2380:
.LBE2379:
	.loc 1 1880 0
	mov	w0, 28
	str	w0, [x19,328]
	.loc 1 1881 0
	mov	w0, 12
.LBB2382:
.LBB2383:
.LBB2384:
	.loc 2 275 0
	str	wzr, [x19,8]
.LBE2384:
.LBE2383:
.LBE2382:
.LBB2385:
.LBB2386:
.LBB2387:
	str	wzr, [x19,12]
.LBE2387:
.LBE2386:
.LBE2385:
	.loc 1 1881 0
	str	w0, [x19,332]
	.loc 1 1883 0
	bl	ktime_get
.LVL503:
	str	x0, [x19,336]
	.loc 1 1884 0
	bl	ktime_get
.LVL504:
	str	x0, [x19,344]
	.loc 1 1885 0
	bl	ktime_get
.LVL505:
	str	x0, [x19,352]
	.loc 1 1886 0
	bl	ktime_get
.LVL506:
	str	x0, [x19,360]
	.loc 1 1887 0
	bl	ktime_get
.LVL507:
	.loc 1 1889 0
	mov	w1, 0
	.loc 1 1887 0
	str	x0, [x19,368]
	.loc 1 1889 0
	mov	x2, 0
	add	x0, x19, 376
	mov	x3, 0
	bl	init_timer_key
.LVL508:
	.loc 1 1890 0
	str	x21, [x19,408]
	.loc 1 1891 0
	adrp	x0, ufs_mq_sync_burst_check_timer_expire
	.loc 1 1899 0
	ldr	x1, [x21,13024]
	.loc 1 1891 0
	add	x0, x0, :lo12:ufs_mq_sync_burst_check_timer_expire
.LBB2388:
.LBB2389:
.LBB2390:
	.loc 2 275 0
	str	wzr, [x19,424]
.LBE2390:
.LBE2389:
.LBE2388:
	.loc 1 1891 0
	str	x0, [x19,400]
	.loc 1 1895 0
	str	wzr, [x19,428]
	.loc 1 1897 0
	str	x19, [x21,13016]
	.loc 1 1899 0
	cbz	x1, .L360
	.loc 1 1899 0 is_stmt 0 discriminator 1
	ldr	x0, [x1,208]
	cbz	x0, .L360
.LBB2391:
	.loc 1 1901 0 is_stmt 1
	ldr	x0, [x0]
	ldr	x1, [x0,8]
	cbz	x1, .L360
	.loc 1 1902 0
	mov	x0, x21
	blr	x1
.LVL509:
.L360:
.LBE2391:
	.loc 1 1905 0
	ldr	x0, [x20,#:lo12:.LANCHOR0]
	cbz	x0, .L361
.L364:
	.loc 1 1912 0
	add	x23, x20, :lo12:.LANCHOR0
	ldr	x0, [x23,8]
	cbz	x0, .L386
.L363:
	.loc 1 1919 0
	add	x23, x20, :lo12:.LANCHOR0
	ldr	x0, [x23,16]
	cbz	x0, .L387
.L366:
.LBB2392:
.LBB2393:
	.loc 9 302 0
	adrp	x22, .LANCHOR2
.LBE2393:
.LBE2392:
	.loc 1 1931 0
	add	x20, x20, :lo12:.LANCHOR0
.LBB2395:
.LBB2394:
	.loc 9 302 0
	add	x22, x22, :lo12:.LANCHOR2
	mov	x0, x22
	bl	_raw_spin_lock
.LVL510:
.LBE2394:
.LBE2395:
.LBB2396:
.LBB2397:
	.loc 3 77 0
	ldr	x2, [x22,40]
.LBE2397:
.LBE2396:
	.loc 1 1929 0
	add	x1, x19, 432
.LBB2407:
.LBB2405:
.LBB2398:
.LBB2399:
	.loc 3 44 0
	str	x2, [x19,440]
	.loc 3 43 0
	add	x0, x22, 32
	.loc 3 42 0
	str	x1, [x22,40]
	.loc 3 43 0
	str	x0, [x19,432]
.LBE2399:
.LBE2398:
.LBE2405:
.LBE2407:
.LBB2408:
.LBB2409:
	.loc 9 347 0
	mov	x0, x22
.LBE2409:
.LBE2408:
.LBB2411:
.LBB2406:
.LBB2404:
.LBB2403:
.LBB2400:
.LBB2401:
.LBB2402:
	.loc 2 276 0
	str	x1, [x2]
.LBE2402:
.LBE2401:
.LBE2400:
.LBE2403:
.LBE2404:
.LBE2406:
.LBE2411:
.LBB2412:
.LBB2410:
	.loc 9 347 0
	bl	_raw_spin_unlock
.LVL511:
.LBE2410:
.LBE2412:
.LBB2413:
.LBB2414:
	.loc 10 492 0
	ldr	x1, [x20,16]
	add	x2, x20, 24
	mov	x3, 500
	mov	w0, 8
	bl	queue_delayed_work_on
.LVL512:
.LBE2414:
.LBE2413:
	.loc 1 1933 0
	adrp	x1, ufs_mq_make_request
	mov	x0, x21
	add	x1, x1, :lo12:ufs_mq_make_request
	bl	blk_queue_make_request
.LVL513:
	.loc 1 1855 0
	mov	w0, 0
.LVL514:
.L359:
	.loc 1 1937 0
	ldp	x19, x20, [sp,16]
	.cfi_remember_state
	.cfi_restore 20
	.cfi_restore 19
.LVL515:
	ldp	x21, x22, [sp,32]
	.cfi_restore 22
	.cfi_restore 21
.LVL516:
	ldp	x23, x24, [sp,48]
	.cfi_restore 24
	.cfi_restore 23
	ldp	x29, x30, [sp], 64
	.cfi_restore 30
	.cfi_restore 29
	.cfi_def_cfa 31, 0
	ret
.LVL517:
.L387:
	.cfi_restore_state
	.loc 1 1920 0
	adrp	x0, .LC13
	mov	w1, 6
	add	x0, x0, :lo12:.LC13
	mov	w2, 0
	mov	x3, 0
	mov	x4, 0
	bl	__alloc_workqueue_key
.LVL518:
	str	x0, [x23,16]
	.loc 1 1921 0
	cbz	x0, .L367
.LBB2415:
.LBB2416:
.LBB2417:
	.loc 3 27 0
	add	x4, x23, 32
.LBE2417:
.LBE2416:
.LBE2415:
	.loc 1 1925 0
	add	x24, x23, 24
.LBB2423:
.LBB2421:
.LBB2420:
.LBB2418:
.LBB2419:
	.loc 2 276 0
	str	x4, [x23,32]
.LBE2419:
.LBE2418:
.LBE2420:
.LBE2421:
.LBE2423:
	.loc 1 1925 0
	mov	x5, 68719476704
.LBB2424:
.LBB2422:
	.loc 3 28 0
	str	x4, [x23,40]
.LBE2422:
.LBE2424:
	.loc 1 1925 0
	adrp	x4, ufs_mq_io_guard_work_fn
	add	x4, x4, :lo12:ufs_mq_io_guard_work_fn
	.loc 1 1925 0 is_stmt 0 discriminator 2
	add	x0, x23, 56
	mov	w1, 2097152
	mov	x2, 0
	mov	x3, 0
	.loc 1 1925 0
	str	x5, [x23,24]
	str	x4, [x23,48]
	add	x22, x22, :lo12:delayed_work_timer_fn
	.loc 1 1925 0 discriminator 2
	bl	init_timer_key
.LVL519:
	.loc 1 1925 0
	str	x24, [x24,64]
	str	x22, [x24,56]
	b	.L366
.L368:
	.loc 1 1859 0 is_stmt 1
	mov	w0, -22
.LVL520:
.LVL521:
	.loc 1 1937 0
	ldp	x19, x20, [sp,16]
	.cfi_remember_state
	.cfi_restore 19
	.cfi_restore 20
	ldp	x21, x22, [sp,32]
	.cfi_restore 21
	.cfi_restore 22
.LVL522:
	ldp	x23, x24, [sp,48]
	.cfi_restore 23
	.cfi_restore 24
	ldp	x29, x30, [sp], 64
	.cfi_restore 29
	.cfi_restore 30
	.cfi_def_cfa 31, 0
	ret
.LVL523:
.L361:
	.cfi_restore_state
	.loc 1 1906 0
	adrp	x0, .LC11
	mov	w1, 16
	add	x0, x0, :lo12:.LC11
	mov	w2, 0
	mov	x3, 0
	mov	x4, 0
	bl	__alloc_workqueue_key
.LVL524:
	adrp	x1, .LANCHOR0
	str	x0, [x1,#:lo12:.LANCHOR0]
	.loc 1 1907 0
	cbnz	x0, .L364
.L367:
	.loc 1 1908 0
	mov	w0, -12
.LVL525:
	b	.L359
.LVL526:
.L386:
	.loc 1 1913 0
	adrp	x0, .LC12
	mov	w1, 2
	add	x0, x0, :lo12:.LC12
	mov	w2, 0
	mov	x3, 0
	mov	x4, 0
	bl	__alloc_workqueue_key
.LVL527:
	str	x0, [x23,8]
	.loc 1 1914 0
	cbnz	x0, .L363
	.loc 1 1908 0
	mov	w0, -12
.LVL528:
	b	.L359
	.cfi_endproc
.LFE3229:
	.size	ufs_mq_iosched_init, .-ufs_mq_iosched_init
	.align	2
	.type	ufs_tagset_free_tags, %function
ufs_tagset_free_tags:
.LFB3144:
	.loc 1 438 0
	.cfi_startproc
.LVL529:
	stp	x29, x30, [sp, -48]!
	.cfi_def_cfa_offset 48
	.cfi_offset 29, -48
	.cfi_offset 30, -40
	add	x29, sp, 0
	.cfi_def_cfa_register 29
	stp	x19, x20, [sp,16]
	stp	x21, x22, [sp,32]
	.cfi_offset 19, -32
	.cfi_offset 20, -24
	.cfi_offset 21, -16
	.cfi_offset 22, -8
	.loc 1 438 0
	mov	x19, x0
.LBB2425:
.LBB2426:
	.loc 12 283 0
	ldr	x0, [x0,96]
.LVL530:
	bl	kfree
.LVL531:
	.loc 12 284 0
	ldr	x0, [x19,80]
	bl	free_percpu
.LVL532:
.LBB2427:
.LBB2428:
	.loc 12 152 0
	ldr	x0, [x19,72]
	bl	kfree
.LVL533:
	.loc 12 153 0
	str	xzr, [x19,72]
.LBE2428:
.LBE2427:
.LBE2426:
.LBE2425:
.LBB2429:
.LBB2430:
	.loc 12 283 0
	ldr	x0, [x19,152]
	bl	kfree
.LVL534:
	.loc 12 284 0
	ldr	x0, [x19,136]
	bl	free_percpu
.LVL535:
.LBB2431:
.LBB2432:
	.loc 12 152 0
	ldr	x0, [x19,128]
	bl	kfree
.LVL536:
	.loc 12 153 0
	str	xzr, [x19,128]
.LBE2432:
.LBE2431:
.LBE2430:
.LBE2429:
.LBB2433:
.LBB2434:
	.loc 12 283 0
	ldr	x0, [x19,208]
	bl	kfree
.LVL537:
	.loc 12 284 0
	ldr	x0, [x19,192]
	bl	free_percpu
.LVL538:
.LBB2435:
.LBB2436:
	.loc 12 152 0
	ldr	x0, [x19,184]
	bl	kfree
.LVL539:
	.loc 12 153 0
	str	xzr, [x19,184]
.LBE2436:
.LBE2435:
.LBE2434:
.LBE2433:
	.loc 1 442 0
	mov	x0, x19
	bl	kfree
.LVL540:
	.loc 1 444 0
	mov	w0, 0
	ldp	x19, x20, [sp,16]
	.cfi_restore 20
	.cfi_restore 19
.LVL541:
	ldp	x21, x22, [sp,32]
	.cfi_restore 22
	.cfi_restore 21
	ldp	x29, x30, [sp], 48
	.cfi_restore 30
	.cfi_restore 29
	.cfi_def_cfa 31, 0
	ret
	.cfi_endproc
.LFE3144:
	.size	ufs_tagset_free_tags, .-ufs_tagset_free_tags
	.align	2
	.type	ufs_tagset_init_tags, %function
ufs_tagset_init_tags:
.LFB3143:
	.loc 1 421 0
	.cfi_startproc
.LVL542:
	stp	x29, x30, [sp, -96]!
	.cfi_def_cfa_offset 96
	.cfi_offset 29, -96
	.cfi_offset 30, -88
.LBB2461:
.LBB2462:
.LBB2463:
.LBB2464:
.LBB2465:
	.loc 18 390 0
	mov	w0, 32960
.LVL543:
.LBE2465:
.LBE2464:
.LBE2463:
.LBE2462:
.LBE2461:
	.loc 1 421 0
	add	x29, sp, 0
	.cfi_def_cfa_register 29
.LBB2482:
.LBB2478:
.LBB2474:
.LBB2470:
.LBB2466:
	.loc 18 390 0
	movk	w0, 0x240, lsl 16
.LBE2466:
.LBE2470:
.LBE2474:
.LBE2478:
.LBE2482:
	.loc 1 421 0
	stp	x25, x26, [sp,64]
	.cfi_offset 25, -32
	.cfi_offset 26, -24
	mov	w25, w1
.LBB2483:
.LBB2479:
.LBB2475:
.LBB2471:
.LBB2467:
	.loc 18 390 0
	mov	w1, w0
.LVL544:
	adrp	x0, kmalloc_caches+64
.LBE2467:
.LBE2471:
.LBE2475:
.LBE2479:
.LBE2483:
	.loc 1 421 0
	str	x5, [x29,88]
	stp	x21, x22, [sp,32]
	.cfi_offset 21, -64
	.cfi_offset 22, -56
	mov	w22, w2
.LBB2484:
.LBB2480:
.LBB2476:
.LBB2472:
.LBB2468:
	.loc 18 390 0
	mov	x2, 248
.LVL545:
	ldr	x0, [x0,#:lo12:kmalloc_caches+64]
.LBE2468:
.LBE2472:
.LBE2476:
.LBE2480:
.LBE2484:
	.loc 1 421 0
	mov	w21, w3
	stp	x19, x20, [sp,16]
	stp	x23, x24, [sp,48]
	.cfi_offset 19, -80
	.cfi_offset 20, -72
	.cfi_offset 23, -48
	.cfi_offset 24, -40
	.loc 1 421 0
	mov	x26, x6
	mov	w23, w4
.LBB2485:
.LBB2481:
.LBB2477:
.LBB2473:
.LBB2469:
	.loc 18 390 0
	bl	kmem_cache_alloc_trace
.LVL546:
	mov	x19, x0
.LBE2469:
.LBE2473:
.LBE2477:
.LBE2481:
.LBE2485:
	.loc 1 424 0
	ldr	x5, [x29,88]
.LVL547:
	cbz	x0, .L396
.LBB2486:
.LBB2487:
	.loc 1 388 0
	sub	w20, w25, w22
	.loc 1 391 0
	adrp	x0, .LC15
	.loc 1 388 0
	sub	w20, w20, w21
.LVL548:
	.loc 1 389 0
	cmp	w5, 1
	.loc 1 391 0
	mov	w2, w22
	mov	w1, w20
	mov	w3, w21
	add	x0, x0, :lo12:.LC15
	.loc 1 389 0
	cset	w24, eq
.LVL549:
.LBE2487:
.LBE2486:
	.loc 1 429 0
	str	w22, [x19,4]
	.loc 1 428 0
	str	w25, [x19]
.LBB2511:
.LBB2508:
	.loc 1 393 0
	add	x22, x19, 56
.LVL550:
.LBE2508:
.LBE2511:
	.loc 1 430 0
	str	w21, [x19,8]
.LBB2512:
.LBB2509:
	.loc 1 391 0
	bl	printk
.LVL551:
	.loc 1 393 0
	mov	w4, 192
	mov	x0, x22
	movk	w4, 0x240, lsl 16
	mov	w1, w20
	mov	w2, -1
	mov	w3, w24
	mov	w5, w23
	bl	sbitmap_queue_init_node
.LVL552:
	cbnz	w0, .L392
	.loc 1 396 0
	mov	w4, 192
	add	x21, x19, 112
.LVL553:
	ldr	w1, [x19,4]
	movk	w4, 0x240, lsl 16
	mov	x0, x21
	mov	w2, -1
	mov	w3, w24
	mov	w5, w23
	bl	sbitmap_queue_init_node
.LVL554:
	cbnz	w0, .L393
	.loc 1 399 0
	mov	w4, 192
	ldr	w1, [x19,8]
	movk	w4, 0x240, lsl 16
	add	x0, x19, 168
	mov	w2, -1
	mov	w3, w24
	mov	w5, w23
	bl	sbitmap_queue_init_node
.LVL555:
	cbnz	w0, .L394
.LBB2488:
.LBB2489:
.LBB2490:
	.loc 2 275 0
	str	wzr, [x19,24]
.LBE2490:
.LBE2489:
.LBE2488:
.LBB2491:
.LBB2492:
.LBB2493:
	mov	x1, x19
.LBE2493:
.LBE2492:
.LBE2491:
	.loc 1 404 0
	ldr	w0, [x19,4]
.LBB2496:
.LBB2497:
.LBB2498:
	.loc 2 275 0
	str	wzr, [x19,28]
.LBE2498:
.LBE2497:
.LBE2496:
	.loc 1 404 0
	add	w0, w20, w0
	.loc 1 402 0
	str	wzr, [x19,12]
	.loc 1 403 0
	str	w20, [x19,16]
	.loc 1 404 0
	str	w0, [x19,20]
.LBB2499:
.LBB2495:
.LBB2494:
	.loc 2 275 0
	str	wzr, [x19,32]
.LVL556:
.L395:
.LBE2494:
.LBE2495:
.LBE2499:
.LBE2509:
.LBE2512:
	.loc 1 432 0
	str	x1, [x26]
	.loc 1 434 0
	mov	w0, 0
.LVL557:
.L391:
	.loc 1 435 0
	ldp	x19, x20, [sp,16]
	.cfi_remember_state
	.cfi_restore 20
	.cfi_restore 19
.LVL558:
	ldp	x21, x22, [sp,32]
	.cfi_restore 22
	.cfi_restore 21
.LVL559:
	ldp	x23, x24, [sp,48]
	.cfi_restore 24
	.cfi_restore 23
.LVL560:
	ldp	x25, x26, [sp,64]
	.cfi_restore 26
	.cfi_restore 25
.LVL561:
	ldp	x29, x30, [sp], 96
	.cfi_restore 30
	.cfi_restore 29
	.cfi_def_cfa 31, 0
	ret
.LVL562:
.L394:
	.cfi_restore_state
.LBB2513:
.LBB2510:
.LBB2500:
.LBB2501:
	.loc 12 283 0
	ldr	x0, [x21,40]
	bl	kfree
.LVL563:
	.loc 12 284 0
	ldr	x0, [x21,24]
	bl	free_percpu
.LVL564:
.LBB2502:
.LBB2503:
	.loc 12 152 0
	ldr	x0, [x19,128]
	bl	kfree
.LVL565:
	.loc 12 153 0
	str	xzr, [x19,128]
.L393:
.LBE2503:
.LBE2502:
.LBE2501:
.LBE2500:
.LBB2504:
.LBB2505:
	.loc 12 283 0
	ldr	x0, [x22,40]
	bl	kfree
.LVL566:
	.loc 12 284 0
	ldr	x0, [x22,24]
	bl	free_percpu
.LVL567:
.LBB2506:
.LBB2507:
	.loc 12 152 0
	ldr	x0, [x19,72]
	bl	kfree
.LVL568:
	.loc 12 153 0
	str	xzr, [x19,72]
.LVL569:
.L392:
.LBE2507:
.LBE2506:
.LBE2505:
.LBE2504:
	.loc 1 414 0
	adrp	x1, .LANCHOR1
	adrp	x0, .LC16
	add	x1, x1, :lo12:.LANCHOR1
	add	x0, x0, :lo12:.LC16
	add	x1, x1, 16
	bl	printk
.LVL570:
	.loc 1 415 0
	mov	x0, x19
	bl	kfree
.LVL571:
	.loc 1 416 0
	mov	x1, 0
	b	.L395
.LVL572:
.L396:
.LBE2510:
.LBE2513:
	.loc 1 425 0
	adrp	x0, .LC14
	add	x0, x0, :lo12:.LC14
	bl	printk
.LVL573:
	.loc 1 426 0
	mov	w0, -12
	b	.L391
	.cfi_endproc
.LFE3143:
	.size	ufs_tagset_init_tags, .-ufs_tagset_init_tags
	.align	2
	.type	__ufs_mq_complete_request_remote, %function
__ufs_mq_complete_request_remote:
.LFB3208:
	.loc 1 1588 0
	.cfi_startproc
.LVL574:
	stp	x29, x30, [sp, -32]!
	.cfi_def_cfa_offset 32
	.cfi_offset 29, -32
	.cfi_offset 30, -24
	.loc 1 1590 0
	mov	x1, 2056
	.loc 1 1588 0
	add	x29, sp, 0
	.cfi_def_cfa_register 29
	stp	x19, x20, [sp,16]
	.cfi_offset 19, -16
	.cfi_offset 20, -8
	.loc 1 1588 0
	mov	x19, x0
	.loc 1 1590 0
	ldr	x2, [x0,88]
	tst	x2, x1
	beq	.L398
	.loc 1 1591 0
	mov	w1, 8
	bl	hisi_blk_latency_req_check
.LVL575:
	.loc 1 1592 0
	ldr	x1, [x19,64]
	mov	x0, x19
	ldr	x1, [x1,248]
	blr	x1
.LVL576:
	.loc 1 1595 0
	ldp	x19, x20, [sp,16]
	.cfi_remember_state
	.cfi_restore 20
	.cfi_restore 19
.LVL577:
	ldp	x29, x30, [sp], 32
	.cfi_restore 30
	.cfi_restore 29
	.cfi_def_cfa 31, 0
	ret
.LVL578:
.L398:
	.cfi_restore_state
.LBB2537:
.LBB2538:
.LBB2539:
.LBB2540:
.LBB2541:
.LBB2542:
	.loc 15 29 0
#APP
// 29 "/mnt/disk/jenkins/ci/workspace/chipset_release_960_xloader/opensource/component_code/vendor/huawei/extra/build/build_script/kirin_kernel_release/kernel/arch/arm64/include/asm/irqflags.h" 1
	mrs	x20, daif		// arch_local_irq_save
msr	daifset, #2
// 0 "" 2
.LVL579:
#NO_APP
.LBE2542:
.LBE2541:
	.loc 1 1581 0
	add	x1, x0, 136
.LBB2543:
	.loc 1 1580 0
	adrp	x0, blk_cpu_done
.LVL580:
.LBB2544:
.LBB2545:
	.loc 14 34 0
#APP
// 34 "/mnt/disk/jenkins/ci/workspace/chipset_release_960_xloader/opensource/component_code/vendor/huawei/extra/build/build_script/kirin_kernel_release/kernel/arch/arm64/include/asm/percpu.h" 1
	mrs x3, tpidr_el1
// 0 "" 2
.LVL581:
#NO_APP
.LBE2545:
.LBE2544:
	.loc 1 1580 0
	add	x0, x0, :lo12:blk_cpu_done
.LVL582:
	add	x2, x3, x0
.LBE2543:
.LBB2546:
.LBB2547:
	.loc 3 77 0
	ldr	x4, [x2,8]
.LBB2548:
.LBB2549:
	.loc 3 42 0
	str	x1, [x2,8]
	.loc 3 43 0
	str	x2, [x19,136]
	.loc 3 44 0
	str	x4, [x19,144]
.LBB2550:
.LBB2551:
.LBB2552:
	.loc 2 276 0
	str	x1, [x4]
.LBE2552:
.LBE2551:
.LBE2550:
.LBE2549:
.LBE2548:
.LBE2547:
.LBE2546:
	.loc 1 1582 0
	ldr	x0, [x3,x0]
.LVL583:
	cmp	x1, x0
	bne	.L400
	.loc 1 1583 0
	mov	w0, 4
	bl	raise_softirq_irqoff
.LVL584:
.L400:
.LBB2553:
.LBB2554:
	.loc 15 81 0
#APP
// 81 "/mnt/disk/jenkins/ci/workspace/chipset_release_960_xloader/opensource/component_code/vendor/huawei/extra/build/build_script/kirin_kernel_release/kernel/arch/arm64/include/asm/irqflags.h" 1
	msr	daif, x20		// arch_local_irq_restore
// 0 "" 2
#NO_APP
.LBE2554:
.LBE2553:
.LBE2540:
.LBE2539:
.LBE2538:
.LBE2537:
	.loc 1 1595 0
	ldp	x19, x20, [sp,16]
	.cfi_restore 19
	.cfi_restore 20
.LVL585:
	ldp	x29, x30, [sp], 32
	.cfi_restore 29
	.cfi_restore 30
	.cfi_def_cfa 31, 0
	ret
	.cfi_endproc
.LFE3208:
	.size	__ufs_mq_complete_request_remote, .-__ufs_mq_complete_request_remote
	.align	2
	.type	ufs_mq_insert_sync_list.isra.24, %function
ufs_mq_insert_sync_list.isra.24:
.LFB3256:
	.loc 1 770 0
	.cfi_startproc
.LVL586:
	stp	x29, x30, [sp, -48]!
	.cfi_def_cfa_offset 48
	.cfi_offset 29, -48
	.cfi_offset 30, -40
	add	x29, sp, 0
	.cfi_def_cfa_register 29
	stp	x19, x20, [sp,16]
	.cfi_offset 19, -32
	.cfi_offset 20, -24
	mov	x19, x1
	.loc 1 774 0
	mov	w1, 4
	.loc 1 770 0
	mov	x20, x0
	str	x21, [sp,32]
	.cfi_offset 21, -16
	.loc 1 774 0
	bl	hisi_blk_latency_req_check
.LVL587:
.LBB2566:
.LBB2567:
	.loc 9 291 0
	add	x21, x19, 280
.LBE2567:
.LBE2566:
	.loc 1 775 0 discriminator 1
	mov	x0, x21
	bl	_raw_spin_lock_irqsave
.LVL588:
	mov	x1, x0
.LVL589:
	.loc 1 776 0
	ldr	x2, [x20,88]
	.loc 1 776 0 is_stmt 0 discriminator 1
	add	x3, x19, 232
	add	x19, x19, 248
.LBB2568:
.LBB2569:
	.loc 9 362 0 is_stmt 1
	mov	x0, x21
.LBE2569:
.LBE2568:
	.loc 1 776 0
	and	x2, x2, 2048
	.loc 1 776 0 is_stmt 0 discriminator 1
	cmp	x2, xzr
	csel	x19, x19, x3, eq
.LBB2571:
.LBB2572:
	.loc 3 77 0 is_stmt 1
	ldr	x2, [x19,8]
.LBB2573:
.LBB2574:
	.loc 3 42 0
	str	x20, [x19,8]
	.loc 3 44 0
	str	x2, [x20,8]
	.loc 3 43 0
	str	x19, [x20]
.LBB2575:
.LBB2576:
.LBB2577:
	.loc 2 276 0
	str	x20, [x2]
.LBE2577:
.LBE2576:
.LBE2575:
.LBE2574:
.LBE2573:
.LBE2572:
.LBE2571:
.LBB2578:
.LBB2570:
	.loc 9 362 0
	bl	_raw_spin_unlock_irqrestore
.LVL590:
.LBE2570:
.LBE2578:
	.loc 1 778 0
	ldr	x21, [sp,32]
	.cfi_restore 21
	ldp	x19, x20, [sp,16]
	.cfi_restore 20
	.cfi_restore 19
.LVL591:
	ldp	x29, x30, [sp], 48
	.cfi_restore 30
	.cfi_restore 29
	.cfi_def_cfa 31, 0
	ret
	.cfi_endproc
.LFE3256:
	.size	ufs_mq_insert_sync_list.isra.24, .-ufs_mq_insert_sync_list.isra.24
	.align	2
	.type	ufs_mq_sync_dispatch, %function
ufs_mq_sync_dispatch:
.LFB3176:
	.loc 1 1055 0
	.cfi_startproc
.LVL592:
	stp	x29, x30, [sp, -112]!
	.cfi_def_cfa_offset 112
	.cfi_offset 29, -112
	.cfi_offset 30, -104
	add	x29, sp, 0
	.cfi_def_cfa_register 29
	stp	x21, x22, [sp,32]
	stp	x25, x26, [sp,64]
	stp	x19, x20, [sp,16]
	stp	x23, x24, [sp,48]
	.cfi_offset 21, -80
	.cfi_offset 22, -72
	.cfi_offset 25, -48
	.cfi_offset 26, -40
	.cfi_offset 19, -96
	.cfi_offset 20, -88
	.cfi_offset 23, -64
	.cfi_offset 24, -56
	.loc 1 1055 0
	adrp	x25, __stack_chk_guard
	mov	x20, x0
	.loc 1 1061 0
	ldr	x24, [x0,13016]
.LVL593:
	.loc 1 1093 0
	mov	w26, -5
	.loc 1 1063 0
	str	xzr, [x29,88]
	.loc 1 1055 0
	ldr	x0, [x25,#:lo12:__stack_chk_guard]
.LVL594:
	add	x23, x24, 280
	str	x0, [x29,104]
	add	x21, x24, 232
	.loc 1 1071 0
	add	x22, x24, 248
.LVL595:
.L410:
	.loc 1 1068 0 discriminator 1
	mov	x0, x23
.LVL596:
	bl	_raw_spin_lock_irqsave
.LVL597:
.LBB2579:
.LBB2580:
	.loc 3 207 0
	ldr	x19, [x21]
.LBE2580:
.LBE2579:
	.loc 1 1068 0 discriminator 1
	mov	x1, x0
.LVL598:
.LBB2583:
.LBB2581:
	.loc 3 208 0
	cmp	x19, x21
	beq	.L420
.L405:
.LBE2581:
.LBE2583:
	.loc 1 1077 0
	cbz	x19, .L407
.L422:
.LBB2584:
.LBB2585:
.LBB2586:
	.loc 3 102 0
	ldr	x3, [x19]
.LBE2586:
.LBE2585:
.LBE2584:
.LBB2599:
.LBB2600:
	.loc 9 362 0
	mov	x0, x23
.LBE2600:
.LBE2599:
.LBB2602:
.LBB2593:
.LBB2592:
	.loc 3 102 0
	ldr	x2, [x19,8]
.LBB2587:
.LBB2588:
	.loc 3 89 0
	str	x2, [x3,8]
.LBB2589:
.LBB2590:
.LBB2591:
	.loc 2 276 0
	str	x3, [x2]
.LBE2591:
.LBE2590:
.LBE2589:
.LBE2588:
.LBE2587:
.LBE2592:
.LBE2593:
.LBB2594:
.LBB2595:
.LBB2596:
.LBB2597:
.LBB2598:
	str	x19, [x19]
.LBE2598:
.LBE2597:
.LBE2596:
	.loc 3 28 0
	str	x19, [x19,8]
.LBE2595:
.LBE2594:
.LBE2602:
.LBB2603:
.LBB2601:
	.loc 9 362 0
	bl	_raw_spin_unlock_irqrestore
.LVL599:
.LBE2601:
.LBE2603:
	.loc 1 1087 0
	ldr	x3, [x19,72]
	.loc 1 1089 0
	mov	x0, x19
.LBB2604:
.LBB2605:
	.loc 6 53 0
	ldr	x5, [x20,288]
.LBE2605:
.LBE2604:
	.loc 1 1089 0
	mov	x2, x24
.LBB2608:
.LBB2606:
	.loc 6 53 0
	ldr	x1, [x20,312]
.LBE2606:
.LBE2608:
	.loc 1 1089 0
	mov	x4, x20
	.loc 1 1087 0
	ldr	w6, [x3,64]
	.loc 1 1089 0
	add	x3, x29, 80
.LBB2609:
.LBB2607:
	.loc 6 53 0
	ldr	w5, [x5,w6,sxtw 2]
	ldr	x1, [x1,w5,uxtw 3]
.LBE2607:
.LBE2609:
	.loc 1 1088 0
	str	x19, [x29,80]
	.loc 1 1089 0
	bl	ufs_mq_queue_rq
.LVL600:
	.loc 1 1090 0
	cbz	w0, .L410
	.loc 1 1092 0
	cmp	w0, 2
	beq	.L421
	.loc 1 1097 0
	mov	x0, x19
.LVL601:
	bl	__blk_mq_requeue_request
.LVL602:
	.loc 1 1098 0
	ldr	x1, [x20,13016]
	mov	x0, x19
	bl	ufs_mq_insert_sync_list.isra.24
.LVL603:
	.loc 1 1099 0
	bl	ktime_get
.LVL604:
.LBB2610:
.LBB2611:
.LBB2612:
	.loc 17 233 0
	ldr	x2, [x24,352]
	mov	x1, 37888
	movk	x1, 0x7735, lsl 16
	add	x1, x2, x1
.LBE2612:
.LBE2611:
.LBB2613:
.LBB2614:
.LBB2615:
	.loc 17 146 0
	cmp	x1, x0
	bge	.L415
.LBE2615:
.LBE2614:
.LBE2613:
.LBE2610:
	.loc 1 1099 0 discriminator 4
	bl	ktime_get
.LVL605:
.LBB2616:
.LBB2617:
.LBB2618:
	.loc 17 233 0
	ldr	x2, [x24,360]
	mov	x1, 37888
	movk	x1, 0x7735, lsl 16
	add	x1, x2, x1
.LBE2618:
.LBE2617:
.LBB2619:
.LBB2620:
.LBB2621:
	.loc 17 146 0
	cmp	x1, x0
	bge	.L415
.LBE2621:
.LBE2620:
.LBE2619:
.LBE2616:
.LBB2622:
.LBB2623:
.LBB2624:
.LBB2625:
	.loc 10 492 0
	adrp	x1, .LANCHOR0
.LBE2625:
.LBE2624:
	.loc 1 762 0
	ldr	x2, [x20,13016]
.LBB2627:
.LBB2626:
	.loc 10 492 0
	mov	x3, 1
	mov	w0, 8
	add	x2, x2, 24
	ldr	x1, [x1,#:lo12:.LANCHOR0]
	bl	queue_delayed_work_on
.LVL606:
	b	.L404
.LVL607:
.L420:
.LBE2626:
.LBE2627:
.LBE2623:
.LBE2622:
.LBB2628:
.LBB2582:
	.loc 3 208 0 discriminator 1
	ldr	x0, [x21,8]
	cmp	x0, x21
	beq	.L406
	mov	x19, x21
.LBE2582:
.LBE2628:
	.loc 1 1077 0
	cbnz	x19, .L422
.L407:
.LBB2629:
.LBB2630:
	.loc 9 362 0
	mov	x0, x23
	bl	_raw_spin_unlock_irqrestore
.LVL608:
.L404:
.LBE2630:
.LBE2629:
	.loc 1 1107 0
	ldr	x1, [x29,104]
	ldr	x0, [x25,#:lo12:__stack_chk_guard]
	cmp	x1, x0
	bne	.L423
	ldp	x19, x20, [sp,16]
	.cfi_remember_state
	.cfi_restore 20
	.cfi_restore 19
.LVL609:
	ldp	x21, x22, [sp,32]
	.cfi_restore 22
	.cfi_restore 21
	ldp	x23, x24, [sp,48]
	.cfi_restore 24
	.cfi_restore 23
.LVL610:
	ldp	x25, x26, [sp,64]
	.cfi_restore 26
	.cfi_restore 25
	ldp	x29, x30, [sp], 112
	.cfi_restore 30
	.cfi_restore 29
	.cfi_def_cfa 31, 0
	ret
.LVL611:
.L406:
	.cfi_restore_state
.LBB2631:
.LBB2632:
	.loc 3 207 0
	ldr	x19, [x22]
	.loc 3 208 0
	cmp	x22, x19
	bne	.L405
	.loc 3 208 0 is_stmt 0 discriminator 1
	ldr	x0, [x22,8]
	cmp	x22, x0
	bne	.L405
	b	.L407
.LVL612:
.L415:
.LBE2632:
.LBE2631:
.LBB2633:
.LBB2634:
.LBB2635:
.LBB2636:
	.loc 10 492 0 is_stmt 1
	adrp	x1, .LANCHOR0
.LBE2636:
.LBE2635:
	.loc 1 762 0
	ldr	x2, [x20,13016]
.LBB2638:
.LBB2637:
	.loc 10 492 0
	mov	x3, 0
	mov	w0, 8
	add	x2, x2, 24
	ldr	x1, [x1,#:lo12:.LANCHOR0]
	bl	queue_delayed_work_on
.LVL613:
	b	.L404
.LVL614:
.L421:
.LBE2637:
.LBE2638:
.LBE2634:
.LBE2633:
	.loc 1 1093 0
	str	w26, [x19,564]
	.loc 1 1094 0
	mov	x0, x19
.LVL615:
	mov	w1, -5
	bl	blk_mq_end_request
.LVL616:
	.loc 1 1095 0
	b	.L410
.L423:
	.loc 1 1107 0
	bl	__stack_chk_fail
.LVL617:
	.cfi_endproc
.LFE3176:
	.size	ufs_mq_sync_dispatch, .-ufs_mq_sync_dispatch
	.align	2
	.type	ufs_mq_sync_io_dispatch_work_fn, %function
ufs_mq_sync_io_dispatch_work_fn:
.LFB3177:
	.loc 1 1110 0
	.cfi_startproc
.LVL618:
	stp	x29, x30, [sp, -16]!
	.cfi_def_cfa_offset 16
	.cfi_offset 29, -16
	.cfi_offset 30, -8
	add	x29, sp, 0
	.cfi_def_cfa_register 29
	.loc 1 1112 0
	ldr	x0, [x0,96]
.LVL619:
	bl	ufs_mq_sync_dispatch
.LVL620:
	.loc 1 1113 0
	ldp	x29, x30, [sp], 16
	.cfi_restore 30
	.cfi_restore 29
	.cfi_def_cfa 31, 0
	ret
	.cfi_endproc
.LFE3177:
	.size	ufs_mq_sync_io_dispatch_work_fn, .-ufs_mq_sync_io_dispatch_work_fn
	.align	2
	.type	ufs_mq_run_requeue, %function
ufs_mq_run_requeue:
.LFB3225:
	.loc 1 1789 0
	.cfi_startproc
.LVL621:
	stp	x29, x30, [sp, -64]!
	.cfi_def_cfa_offset 64
	.cfi_offset 29, -64
	.cfi_offset 30, -56
.LBB2657:
.LBB2658:
.LBB2659:
.LBB2660:
.LBB2661:
	.loc 10 492 0
	mov	x3, 0
.LBE2661:
.LBE2660:
.LBE2659:
.LBE2658:
.LBE2657:
	.loc 1 1789 0
	add	x29, sp, 0
	.cfi_def_cfa_register 29
	stp	x19, x20, [sp,16]
	.cfi_offset 19, -48
	.cfi_offset 20, -40
	mov	x19, x0
.LBB2670:
.LBB2668:
.LBB2666:
.LBB2664:
.LBB2662:
	.loc 10 492 0
	mov	w0, 8
.LVL622:
.LBE2662:
.LBE2664:
.LBE2666:
.LBE2668:
.LBE2670:
	.loc 1 1789 0
	stp	x21, x22, [sp,32]
	.cfi_offset 21, -32
	.cfi_offset 22, -24
.LBB2671:
.LBB2669:
.LBB2667:
	.loc 1 762 0
	adrp	x21, .LANCHOR0
	ldr	x2, [x19,13016]
.LBB2665:
.LBB2663:
	.loc 10 492 0
	ldr	x1, [x21,#:lo12:.LANCHOR0]
	add	x2, x2, 24
	bl	queue_delayed_work_on
.LVL623:
.LBE2663:
.LBE2665:
.LBE2667:
.LBE2669:
.LBE2671:
.LBB2672:
.LBB2673:
	.loc 1 1363 0
	ldr	x0, [x19,13024]
	.loc 1 1362 0
	ldr	x2, [x19,13016]
.LVL624:
	.loc 1 1363 0
	cbz	x0, .L426
	.loc 1 1363 0 is_stmt 0 discriminator 1
	ldr	x22, [x0,208]
	cbz	x22, .L426
.LBB2674:
	.loc 1 1365 0 is_stmt 1
	ldr	x0, [x22]
	ldr	x0, [x0,48]
	cbz	x0, .L426
.LBB2675:
.LBB2676:
	.loc 9 291 0
	add	x20, x2, 304
.LBE2676:
.LBE2675:
	.loc 1 1366 0 discriminator 1
	mov	x0, x20
	bl	_raw_spin_lock_irqsave
.LVL625:
	str	x0, [x29,56]
	.loc 1 1367 0
	ldr	x2, [x22]
	mov	x0, x19
.LVL626:
	ldr	x2, [x2,48]
	blr	x2
.LVL627:
	uxtb	w22, w0
.LVL628:
.LBB2677:
.LBB2678:
	.loc 9 362 0
	ldr	x1, [x29,56]
.LVL629:
	mov	x0, x20
	bl	_raw_spin_unlock_irqrestore
.LVL630:
.LBE2678:
.LBE2677:
.LBE2674:
.LBE2673:
.LBE2672:
	.loc 1 1791 0
	cbz	w22, .L431
	.loc 1 1794 0
	ldp	x19, x20, [sp,16]
	.cfi_remember_state
	.cfi_restore 20
	.cfi_restore 19
.LVL631:
	ldp	x21, x22, [sp,32]
	.cfi_restore 22
	.cfi_restore 21
.LVL632:
	mov	w0, 0
	ldp	x29, x30, [sp], 64
	.cfi_restore 30
	.cfi_restore 29
	.cfi_def_cfa 31, 0
	ret
.LVL633:
.L431:
	.cfi_restore_state
	ldr	x2, [x19,13016]
.LVL634:
.L426:
.LBB2679:
.LBB2680:
.LBB2681:
	.loc 1 1317 0
	add	x21, x21, :lo12:.LANCHOR0
.LBB2682:
.LBB2683:
	.loc 10 492 0
	add	x2, x2, 128
.LVL635:
	mov	x3, 0
	mov	w0, 8
	ldr	x1, [x21,8]
	bl	queue_delayed_work_on
.LVL636:
.LBE2683:
.LBE2682:
.LBE2681:
.LBE2680:
.LBE2679:
	.loc 1 1794 0
	mov	w0, 0
	ldp	x19, x20, [sp,16]
	.cfi_restore 19
	.cfi_restore 20
.LVL637:
	ldp	x21, x22, [sp,32]
	.cfi_restore 21
	.cfi_restore 22
.LVL638:
	ldp	x29, x30, [sp], 64
	.cfi_restore 29
	.cfi_restore 30
	.cfi_def_cfa 31, 0
	ret
	.cfi_endproc
.LFE3225:
	.size	ufs_mq_run_requeue, .-ufs_mq_run_requeue
	.align	2
	.type	ufs_mq_exec_queue, %function
ufs_mq_exec_queue:
.LFB3222:
	.loc 1 1765 0
	.cfi_startproc
.LVL639:
	stp	x29, x30, [sp, -64]!
	.cfi_def_cfa_offset 64
	.cfi_offset 29, -64
	.cfi_offset 30, -56
	add	x29, sp, 0
	.cfi_def_cfa_register 29
	stp	x19, x20, [sp,16]
	.cfi_offset 19, -48
	.cfi_offset 20, -40
	mov	x20, x0
	str	x21, [sp,32]
	.cfi_offset 21, -32
	.loc 1 1766 0
	bl	ufs_mq_sync_dispatch
.LVL640:
.LBB2706:
.LBB2707:
	.loc 1 1363 0
	ldr	x0, [x20,13024]
	.loc 1 1362 0
	ldr	x2, [x20,13016]
.LVL641:
	.loc 1 1363 0
	cbz	x0, .L433
	.loc 1 1363 0 is_stmt 0 discriminator 1
	ldr	x21, [x0,208]
	cbz	x21, .L433
.LBB2708:
	.loc 1 1365 0 is_stmt 1
	ldr	x0, [x21]
	ldr	x0, [x0,48]
	cbz	x0, .L433
.LBB2709:
.LBB2710:
	.loc 9 291 0
	add	x19, x2, 304
.LBE2710:
.LBE2709:
	.loc 1 1366 0 discriminator 1
	mov	x0, x19
	bl	_raw_spin_lock_irqsave
.LVL642:
	str	x0, [x29,56]
	.loc 1 1367 0
	ldr	x2, [x21]
	mov	x0, x20
.LVL643:
	ldr	x2, [x2,48]
	blr	x2
.LVL644:
	uxtb	w21, w0
.LVL645:
.LBB2711:
.LBB2712:
	.loc 9 362 0
	ldr	x1, [x29,56]
.LVL646:
	mov	x0, x19
	bl	_raw_spin_unlock_irqrestore
.LVL647:
.LBE2712:
.LBE2711:
.LBE2708:
.LBE2707:
.LBE2706:
	.loc 1 1767 0
	cbz	w21, .L438
	.loc 1 1770 0
	ldp	x19, x20, [sp,16]
	.cfi_remember_state
	.cfi_restore 20
	.cfi_restore 19
.LVL648:
	ldr	x21, [sp,32]
	.cfi_restore 21
.LVL649:
	mov	w0, 0
	ldp	x29, x30, [sp], 64
	.cfi_restore 30
	.cfi_restore 29
	.cfi_def_cfa 31, 0
	ret
.LVL650:
.L438:
	.cfi_restore_state
	ldr	x2, [x20,13016]
.LVL651:
.L433:
.LBB2713:
.LBB2714:
.LBB2715:
.LBB2716:
.LBB2717:
.LBB2718:
	.loc 10 492 0
	adrp	x1, .LANCHOR0+8
	add	x2, x2, 128
.LVL652:
	mov	x3, 0
	mov	w0, 8
	ldr	x1, [x1,#:lo12:.LANCHOR0+8]
	bl	queue_delayed_work_on
.LVL653:
.LBE2718:
.LBE2717:
.LBE2716:
.LBE2715:
.LBE2714:
.LBE2713:
	.loc 1 1770 0
	ldr	x21, [sp,32]
	.cfi_restore 21
.LVL654:
	ldp	x19, x20, [sp,16]
	.cfi_restore 19
	.cfi_restore 20
.LVL655:
	mov	w0, 0
	ldp	x29, x30, [sp], 64
	.cfi_restore 29
	.cfi_restore 30
	.cfi_def_cfa 31, 0
	ret
	.cfi_endproc
.LFE3222:
	.size	ufs_mq_exec_queue, .-ufs_mq_exec_queue
	.align	2
	.type	ufs_mq_io_guard_work_fn, %function
ufs_mq_io_guard_work_fn:
.LFB3211:
	.loc 1 1616 0
	.cfi_startproc
.LVL656:
	stp	x29, x30, [sp, -64]!
	.cfi_def_cfa_offset 64
	.cfi_offset 29, -64
	.cfi_offset 30, -56
	add	x29, sp, 0
	.cfi_def_cfa_register 29
	stp	x21, x22, [sp,32]
	.cfi_offset 21, -32
	.cfi_offset 22, -24
.LBB2757:
.LBB2758:
	.loc 9 302 0
	adrp	x22, .LANCHOR2
.LBE2758:
.LBE2757:
	.loc 1 1616 0
	str	x23, [sp,48]
	.cfi_offset 23, -16
.LBB2761:
.LBB2759:
	.loc 9 302 0
	add	x23, x22, :lo12:.LANCHOR2
	adrp	x21, .LANCHOR0
	mov	x0, x23
.LVL657:
.LBE2759:
.LBE2761:
	.loc 1 1616 0
	stp	x19, x20, [sp,16]
	.cfi_offset 19, -48
	.cfi_offset 20, -40
.LBB2762:
.LBB2760:
	.loc 9 302 0
	bl	_raw_spin_lock
.LVL658:
.LBE2760:
.LBE2762:
.LBB2763:
.LBB2764:
	.loc 9 347 0
	mov	x20, x23
.LBE2764:
.LBE2763:
.LBB2766:
	.loc 1 1620 0
	ldr	x19, [x23,32]!
.LVL659:
.LBE2766:
	.loc 1 1620 0 is_stmt 0 discriminator 1
	cmp	x19, x23
.LBB2767:
	.loc 1 1620 0
	sub	x19, x19, #432
.LVL660:
.LBE2767:
	.loc 1 1620 0 discriminator 1
	bne	.L449
	b	.L444
.L441:
.LBB2768:
.LBB2769:
.LBB2770:
.LBB2771:
.LBB2772:
	.loc 2 247 0 is_stmt 1 discriminator 4
	ldr	w0, [x1,1168]
.LBE2772:
.LBE2771:
.LBE2770:
	.loc 1 1610 0 discriminator 5
	cbz	w0, .L442
.LBB2773:
.LBB2774:
.LBB2775:
	.loc 2 247 0 discriminator 4
	ldr	w0, [x19,16]
.LBE2775:
.LBE2774:
.LBE2773:
	.loc 1 1610 0
	cbnz	w0, .L442
.LBB2776:
.LBB2777:
.LBB2778:
	.loc 1 1317 0
	add	x4, x21, :lo12:.LANCHOR0
	ldr	x2, [x1,13016]
.LBB2779:
.LBB2780:
	.loc 10 492 0
	mov	x3, 0
	mov	w0, 8
	add	x2, x2, 128
	ldr	x1, [x4,8]
	bl	queue_delayed_work_on
.LVL661:
.L442:
.LBE2780:
.LBE2779:
.LBE2778:
.LBE2777:
.LBE2776:
.LBE2769:
.LBE2768:
.LBB2794:
.LBB2795:
	.loc 9 302 0
	mov	x0, x20
	bl	_raw_spin_lock
.LVL662:
.LBE2795:
.LBE2794:
.LBB2796:
	.loc 1 1620 0 discriminator 3
	ldr	x19, [x19,432]
.LVL663:
.LBE2796:
	.loc 1 1620 0 is_stmt 0 discriminator 1
	cmp	x19, x23
.LBB2797:
	.loc 1 1620 0 discriminator 3
	sub	x19, x19, #432
.LVL664:
.LBE2797:
	.loc 1 1620 0 discriminator 1
	beq	.L444
.L449:
.LBB2798:
.LBB2765:
	.loc 9 347 0 is_stmt 1
	mov	x0, x20
	bl	_raw_spin_unlock
.LVL665:
.LBE2765:
.LBE2798:
.LBB2799:
.LBB2793:
.LBB2781:
	.loc 1 1605 0 discriminator 1
	ldr	x1, [x19]
.LBB2782:
.LBB2783:
	.loc 2 247 0 discriminator 4
	ldr	w0, [x1,1172]
.LBE2783:
.LBE2782:
.LBE2781:
.LBB2784:
.LBB2785:
.LBB2786:
	ldr	w2, [x1,1164]
.LBE2786:
.LBE2785:
.LBE2784:
	.loc 1 1605 0
	cmn	w0, w2
	beq	.L441
.LBB2787:
.LBB2788:
.LBB2789:
	.loc 2 247 0 discriminator 4
	ldr	w0, [x19,8]
.LBE2789:
.LBE2788:
.LBE2787:
.LBB2790:
.LBB2791:
.LBB2792:
	ldr	w2, [x19,12]
.LBE2792:
.LBE2791:
.LBE2790:
	.loc 1 1606 0
	cmn	w0, w2
	bne	.L441
	.loc 1 1608 0
	mov	x0, x1
	bl	ufs_mq_sync_dispatch
.LVL666:
	ldr	x1, [x19]
	b	.L441
.L444:
.LBE2793:
.LBE2799:
.LBB2800:
.LBB2801:
	.loc 9 347 0
	add	x0, x22, :lo12:.LANCHOR2
.LBE2801:
.LBE2800:
	.loc 1 1626 0
	add	x21, x21, :lo12:.LANCHOR0
.LBB2803:
.LBB2802:
	.loc 9 347 0
	bl	_raw_spin_unlock
.LVL667:
.LBE2802:
.LBE2803:
.LBB2804:
.LBB2805:
	.loc 10 492 0
	ldr	x1, [x21,16]
	add	x2, x21, 24
	mov	x3, 500
	mov	w0, 8
	bl	queue_delayed_work_on
.LVL668:
.LBE2805:
.LBE2804:
	.loc 1 1627 0
	ldr	x23, [sp,48]
	.cfi_restore 23
	ldp	x19, x20, [sp,16]
	.cfi_restore 20
	.cfi_restore 19
.LVL669:
	ldp	x21, x22, [sp,32]
	.cfi_restore 22
	.cfi_restore 21
	ldp	x29, x30, [sp], 64
	.cfi_restore 30
	.cfi_restore 29
	.cfi_def_cfa 31, 0
	ret
	.cfi_endproc
.LFE3211:
	.size	ufs_mq_io_guard_work_fn, .-ufs_mq_io_guard_work_fn
	.align	2
	.type	ufs_mq_run_hw_queue, %function
ufs_mq_run_hw_queue:
.LFB3223:
	.loc 1 1773 0
	.cfi_startproc
.LVL670:
	stp	x29, x30, [sp, -64]!
	.cfi_def_cfa_offset 64
	.cfi_offset 29, -64
	.cfi_offset 30, -56
.LBB2824:
.LBB2825:
.LBB2826:
.LBB2827:
.LBB2828:
	.loc 10 492 0
	mov	x3, 0
.LBE2828:
.LBE2827:
.LBE2826:
.LBE2825:
.LBE2824:
	.loc 1 1773 0
	add	x29, sp, 0
	.cfi_def_cfa_register 29
	stp	x19, x20, [sp,16]
	.cfi_offset 19, -48
	.cfi_offset 20, -40
	mov	x19, x0
.LBB2837:
.LBB2835:
.LBB2833:
.LBB2831:
.LBB2829:
	.loc 10 492 0
	mov	w0, 8
.LVL671:
.LBE2829:
.LBE2831:
.LBE2833:
.LBE2835:
.LBE2837:
	.loc 1 1773 0
	stp	x21, x22, [sp,32]
	.cfi_offset 21, -32
	.cfi_offset 22, -24
.LBB2838:
.LBB2836:
.LBB2834:
	.loc 1 762 0
	adrp	x21, .LANCHOR0
	ldr	x2, [x19,13016]
.LBB2832:
.LBB2830:
	.loc 10 492 0
	ldr	x1, [x21,#:lo12:.LANCHOR0]
	add	x2, x2, 24
	bl	queue_delayed_work_on
.LVL672:
.LBE2830:
.LBE2832:
.LBE2834:
.LBE2836:
.LBE2838:
.LBB2839:
.LBB2840:
	.loc 1 1363 0
	ldr	x0, [x19,13024]
	.loc 1 1362 0
	ldr	x2, [x19,13016]
.LVL673:
	.loc 1 1363 0
	cbz	x0, .L455
	.loc 1 1363 0 is_stmt 0 discriminator 1
	ldr	x22, [x0,208]
	cbz	x22, .L455
.LBB2841:
	.loc 1 1365 0 is_stmt 1
	ldr	x0, [x22]
	ldr	x0, [x0,48]
	cbz	x0, .L455
.LBB2842:
.LBB2843:
	.loc 9 291 0
	add	x20, x2, 304
.LBE2843:
.LBE2842:
	.loc 1 1366 0 discriminator 1
	mov	x0, x20
	bl	_raw_spin_lock_irqsave
.LVL674:
	str	x0, [x29,56]
	.loc 1 1367 0
	ldr	x2, [x22]
	mov	x0, x19
.LVL675:
	ldr	x2, [x2,48]
	blr	x2
.LVL676:
	uxtb	w22, w0
.LVL677:
.LBB2844:
.LBB2845:
	.loc 9 362 0
	ldr	x1, [x29,56]
.LVL678:
	mov	x0, x20
	bl	_raw_spin_unlock_irqrestore
.LVL679:
.LBE2845:
.LBE2844:
.LBE2841:
.LBE2840:
.LBE2839:
	.loc 1 1775 0
	cbz	w22, .L460
	.loc 1 1778 0
	ldp	x19, x20, [sp,16]
	.cfi_remember_state
	.cfi_restore 20
	.cfi_restore 19
.LVL680:
	ldp	x21, x22, [sp,32]
	.cfi_restore 22
	.cfi_restore 21
.LVL681:
	mov	w0, 0
	ldp	x29, x30, [sp], 64
	.cfi_restore 30
	.cfi_restore 29
	.cfi_def_cfa 31, 0
	ret
.LVL682:
.L460:
	.cfi_restore_state
	ldr	x2, [x19,13016]
.LVL683:
.L455:
.LBB2846:
.LBB2847:
.LBB2848:
	.loc 1 1317 0
	add	x21, x21, :lo12:.LANCHOR0
.LBB2849:
.LBB2850:
	.loc 10 492 0
	add	x2, x2, 128
.LVL684:
	mov	x3, 0
	mov	w0, 8
	ldr	x1, [x21,8]
	bl	queue_delayed_work_on
.LVL685:
.LBE2850:
.LBE2849:
.LBE2848:
.LBE2847:
.LBE2846:
	.loc 1 1778 0
	mov	w0, 0
	ldp	x19, x20, [sp,16]
	.cfi_restore 19
	.cfi_restore 20
.LVL686:
	ldp	x21, x22, [sp,32]
	.cfi_restore 21
	.cfi_restore 22
.LVL687:
	ldp	x29, x30, [sp], 64
	.cfi_restore 29
	.cfi_restore 30
	.cfi_def_cfa 31, 0
	ret
	.cfi_endproc
.LFE3223:
	.size	ufs_mq_run_hw_queue, .-ufs_mq_run_hw_queue
	.align	2
	.type	ufs_mq_req_requeue, %function
ufs_mq_req_requeue:
.LFB3217:
	.loc 1 1690 0
	.cfi_startproc
.LVL688:
	stp	x29, x30, [sp, -48]!
	.cfi_def_cfa_offset 48
	.cfi_offset 29, -48
	.cfi_offset 30, -40
	mov	x3, x1
	add	x29, sp, 0
	.cfi_def_cfa_register 29
	stp	x19, x20, [sp,16]
	str	x21, [sp,32]
	.cfi_offset 19, -32
	.cfi_offset 20, -24
	.cfi_offset 21, -16
	.loc 1 1690 0
	mov	x20, x0
	.loc 1 1691 0
	ldr	x2, [x0,88]
	tbz	x2, 3, .L467
.L462:
	ldr	x19, [x3,13016]
.LVL689:
.LBB2864:
.LBB2865:
	.loc 1 774 0
	mov	w1, 4
.LVL690:
	mov	x0, x20
.LBB2866:
.LBB2867:
	.loc 9 291 0
	add	x21, x19, 280
.LBE2867:
.LBE2866:
	.loc 1 774 0
	bl	hisi_blk_latency_req_check
.LVL691:
	.loc 1 775 0 discriminator 1
	mov	x0, x21
	bl	_raw_spin_lock_irqsave
.LVL692:
	mov	x1, x0
.LVL693:
	.loc 1 776 0
	ldr	x2, [x20,88]
	.loc 1 776 0 is_stmt 0 discriminator 1
	add	x3, x19, 232
	add	x19, x19, 248
.LVL694:
.LBB2868:
.LBB2869:
	.loc 9 362 0 is_stmt 1
	mov	x0, x21
.LBE2869:
.LBE2868:
	.loc 1 776 0
	and	x2, x2, 2048
	.loc 1 776 0 is_stmt 0 discriminator 1
	cmp	x2, xzr
	csel	x19, x19, x3, eq
.LBB2871:
.LBB2872:
	.loc 3 77 0 is_stmt 1
	ldr	x2, [x19,8]
.LBB2873:
.LBB2874:
	.loc 3 42 0
	str	x20, [x19,8]
	.loc 3 43 0
	str	x19, [x20]
	.loc 3 44 0
	str	x2, [x20,8]
.LBB2875:
.LBB2876:
.LBB2877:
	.loc 2 276 0
	str	x20, [x2]
.LBE2877:
.LBE2876:
.LBE2875:
.LBE2874:
.LBE2873:
.LBE2872:
.LBE2871:
.LBB2878:
.LBB2870:
	.loc 9 362 0
	bl	_raw_spin_unlock_irqrestore
.LVL695:
.L466:
.LBE2870:
.LBE2878:
.LBE2865:
.LBE2864:
	.loc 1 1696 0
	mov	w0, 0
	ldr	x21, [sp,32]
	.cfi_remember_state
	.cfi_restore 21
	ldp	x19, x20, [sp,16]
	.cfi_restore 20
	.cfi_restore 19
.LVL696:
	ldp	x29, x30, [sp], 48
	.cfi_restore 30
	.cfi_restore 29
	.cfi_def_cfa 31, 0
	ret
.LVL697:
.L467:
	.cfi_restore_state
	.loc 1 1691 0 discriminator 1
	ldr	w2, [x0,84]
	cmp	w2, 1
	bne	.L462
	.loc 1 1694 0
	bl	ufs_mq_insert_async_list
.LVL698:
	b	.L466
	.cfi_endproc
.LFE3217:
	.size	ufs_mq_req_requeue, .-ufs_mq_req_requeue
	.align	2
	.type	ufs_mq_req_insert, %function
ufs_mq_req_insert:
.LFB3216:
	.loc 1 1681 0
	.cfi_startproc
.LVL699:
	stp	x29, x30, [sp, -48]!
	.cfi_def_cfa_offset 48
	.cfi_offset 29, -48
	.cfi_offset 30, -40
	mov	x3, x1
	add	x29, sp, 0
	.cfi_def_cfa_register 29
	stp	x19, x20, [sp,16]
	str	x21, [sp,32]
	.cfi_offset 19, -32
	.cfi_offset 20, -24
	.cfi_offset 21, -16
	.loc 1 1681 0
	mov	x20, x0
	.loc 1 1682 0
	ldr	x2, [x0,88]
.LVL700:
	tbz	x2, 3, .L474
.L469:
	ldr	x19, [x3,13016]
.LVL701:
.LBB2892:
.LBB2893:
	.loc 1 774 0
	mov	w1, 4
.LVL702:
	mov	x0, x20
.LBB2894:
.LBB2895:
	.loc 9 291 0
	add	x21, x19, 280
.LBE2895:
.LBE2894:
	.loc 1 774 0
	bl	hisi_blk_latency_req_check
.LVL703:
	.loc 1 775 0 discriminator 1
	mov	x0, x21
	bl	_raw_spin_lock_irqsave
.LVL704:
	mov	x1, x0
.LVL705:
	.loc 1 776 0
	ldr	x2, [x20,88]
	.loc 1 776 0 is_stmt 0 discriminator 1
	add	x3, x19, 232
	add	x19, x19, 248
.LVL706:
.LBB2896:
.LBB2897:
	.loc 9 362 0 is_stmt 1
	mov	x0, x21
.LBE2897:
.LBE2896:
	.loc 1 776 0
	and	x2, x2, 2048
	.loc 1 776 0 is_stmt 0 discriminator 1
	cmp	x2, xzr
	csel	x19, x19, x3, eq
.LBB2899:
.LBB2900:
	.loc 3 77 0 is_stmt 1
	ldr	x2, [x19,8]
.LBB2901:
.LBB2902:
	.loc 3 42 0
	str	x20, [x19,8]
	.loc 3 43 0
	str	x19, [x20]
	.loc 3 44 0
	str	x2, [x20,8]
.LBB2903:
.LBB2904:
.LBB2905:
	.loc 2 276 0
	str	x20, [x2]
.LBE2905:
.LBE2904:
.LBE2903:
.LBE2902:
.LBE2901:
.LBE2900:
.LBE2899:
.LBB2906:
.LBB2898:
	.loc 9 362 0
	bl	_raw_spin_unlock_irqrestore
.LVL707:
.L473:
.LBE2898:
.LBE2906:
.LBE2893:
.LBE2892:
	.loc 1 1687 0
	mov	w0, 0
	ldr	x21, [sp,32]
	.cfi_remember_state
	.cfi_restore 21
	ldp	x19, x20, [sp,16]
	.cfi_restore 20
	.cfi_restore 19
.LVL708:
	ldp	x29, x30, [sp], 48
	.cfi_restore 30
	.cfi_restore 29
	.cfi_def_cfa 31, 0
	ret
.LVL709:
.L474:
	.cfi_restore_state
	.loc 1 1682 0 discriminator 1
	ldr	w2, [x0,84]
	cmp	w2, 1
	bne	.L469
	.loc 1 1685 0
	bl	ufs_mq_insert_async_list
.LVL710:
	b	.L473
	.cfi_endproc
.LFE3216:
	.size	ufs_mq_req_insert, .-ufs_mq_req_insert
	.align	2
	.global	ufs_mq_merge_queue_io
	.type	ufs_mq_merge_queue_io, %function
ufs_mq_merge_queue_io:
.LFB3170:
	.loc 1 831 0
	.cfi_startproc
.LVL711:
	stp	x29, x30, [sp, -96]!
	.cfi_def_cfa_offset 96
	.cfi_offset 29, -96
	.cfi_offset 30, -88
.LBB2931:
.LBB2932:
	.file 19 "/mnt/disk/jenkins/ci/workspace/chipset_release_960_xloader/opensource/component_code/vendor/huawei/extra/build/build_script/kirin_kernel_release/kernel/include/linux/bio.h"
	.loc 19 99 0
	mov	w4, 768
.LBE2932:
.LBE2931:
	.loc 1 831 0
	add	x29, sp, 0
	.cfi_def_cfa_register 29
	stp	x19, x20, [sp,16]
	stp	x21, x22, [sp,32]
	stp	x23, x24, [sp,48]
	str	x25, [sp,64]
	.cfi_offset 19, -80
	.cfi_offset 20, -72
	.cfi_offset 21, -64
	.cfi_offset 22, -56
	.cfi_offset 23, -48
	.cfi_offset 24, -40
	.cfi_offset 25, -32
	.loc 1 831 0
	mov	x21, x0
.LBB2936:
.LBB2933:
	.loc 19 99 0
	movk	w4, 0x807, lsl 16
.LBE2933:
.LBE2936:
	.loc 1 831 0
	mov	x20, x1
.LBB2937:
.LBB2934:
	.loc 19 99 0
	ldr	w0, [x3,20]
.LVL712:
.LBE2934:
.LBE2937:
	.loc 1 831 0
	mov	x19, x2
.LBB2938:
.LBB2935:
	.loc 19 99 0
	tst	w0, w4
	bne	.L484
.LBE2935:
.LBE2938:
	.loc 1 832 0 discriminator 1
	ldr	w0, [x2,84]
	cmp	w0, 2
	beq	.L484
.LBB2939:
.LBB2940:
.LBB2941:
	.loc 9 302 0
	mov	x0, x20
	str	x3, [x29,88]
.LBE2941:
.LBE2940:
	.loc 1 841 0
	ldr	x22, [x21,120]
.LVL713:
.LBB2943:
.LBB2942:
	.loc 9 302 0
	bl	_raw_spin_lock
.LVL714:
.LBE2942:
.LBE2943:
.LBB2944:
.LBB2945:
	.loc 1 814 0
	ldr	x3, [x29,88]
.LVL715:
	.loc 1 813 0
	ldr	x23, [x22,13016]
.LVL716:
	.loc 1 814 0
	ldr	w0, [x3,20]
	tbnz	x0, 3, .L483
	.loc 1 816 0
	ldr	x0, [x22,13024]
	cbz	x0, .L483
	.loc 1 816 0 is_stmt 0 discriminator 1
	ldr	x24, [x0,208]
	cbz	x24, .L483
.LBB2946:
	.loc 1 818 0 is_stmt 1
	ldr	x0, [x24]
	ldr	x0, [x0,40]
	cbz	x0, .L483
.LBB2947:
.LBB2948:
	.loc 9 291 0
	add	x23, x23, 304
.LVL717:
	str	x3, [x29,88]
.LBE2948:
.LBE2947:
	.loc 1 819 0 discriminator 1
	mov	x0, x23
	bl	_raw_spin_lock_irqsave
.LVL718:
	mov	x25, x0
.LVL719:
	.loc 1 820 0
	ldr	x2, [x24]
	mov	x1, x22
	ldr	x3, [x29,88]
.LVL720:
	ldr	x2, [x2,40]
	mov	x0, x3
	blr	x2
.LVL721:
	uxtb	w22, w0
.LVL722:
.LBB2949:
.LBB2950:
	.loc 9 362 0
	mov	x1, x25
	mov	x0, x23
	bl	_raw_spin_unlock_irqrestore
.LVL723:
.LBE2950:
.LBE2949:
.LBE2946:
.LBE2945:
.LBE2944:
	.loc 1 845 0
	ldr	x3, [x29,88]
.LVL724:
	cbz	w22, .L483
.LBB2951:
.LBB2952:
	.loc 9 347 0
	mov	x0, x20
	bl	_raw_spin_unlock
.LVL725:
.LBE2952:
.LBE2951:
	.loc 1 851 0
	mov	x0, x21
	mov	x1, x20
	mov	x2, x19
	bl	__blk_mq_free_request
.LVL726:
.LBE2939:
	.loc 1 854 0
	ldr	x25, [sp,64]
	.cfi_remember_state
	.cfi_restore 25
.LVL727:
	ldp	x19, x20, [sp,16]
	.cfi_restore 19
	.cfi_restore 20
.LVL728:
	ldp	x21, x22, [sp,32]
	.cfi_restore 21
	.cfi_restore 22
.LVL729:
	ldp	x23, x24, [sp,48]
	.cfi_restore 23
	.cfi_restore 24
.LBB2955:
	.loc 1 852 0
	mov	w0, 1
.LBE2955:
	.loc 1 854 0
	ldp	x29, x30, [sp], 96
	.cfi_restore 29
	.cfi_restore 30
	.cfi_def_cfa 31, 0
	ret
.LVL730:
.L484:
	.cfi_restore_state
.LBB2956:
.LBB2957:
	.loc 1 805 0
	mov	x1, x3
	mov	x0, x19
	bl	init_request_from_bio
.LVL731:
	.loc 1 806 0
	mov	x0, x19
	mov	w1, 1
	bl	blk_account_io_start
.LVL732:
.LBE2957:
.LBE2956:
.LBB2958:
.LBB2959:
	.loc 9 302 0
	mov	x0, x20
	bl	_raw_spin_lock
.LVL733:
.L477:
.LBE2959:
.LBE2958:
.LBB2960:
.LBB2961:
	.loc 1 1682 0
	ldr	x0, [x19,88]
.LBE2961:
.LBE2960:
	.loc 1 836 0
	ldr	x1, [x21,120]
.LBB2964:
.LBB2962:
	.loc 1 1682 0
	tbz	x0, 3, .L503
.L478:
	.loc 1 1683 0
	ldr	x1, [x1,13016]
	mov	x0, x19
	bl	ufs_mq_insert_sync_list.isra.24
.LVL734:
.L480:
.LBE2962:
.LBE2964:
.LBB2965:
.LBB2966:
	.loc 9 347 0
	mov	x0, x20
	bl	_raw_spin_unlock
.LVL735:
.LBE2966:
.LBE2965:
	.loc 1 854 0
	ldr	x25, [sp,64]
	.cfi_remember_state
	.cfi_restore 25
.LVL736:
	ldp	x19, x20, [sp,16]
	.cfi_restore 20
	.cfi_restore 19
.LVL737:
	ldp	x21, x22, [sp,32]
	.cfi_restore 22
	.cfi_restore 21
.LVL738:
	ldp	x23, x24, [sp,48]
	.cfi_restore 24
	.cfi_restore 23
.LVL739:
	.loc 1 839 0
	mov	w0, 0
	.loc 1 854 0
	ldp	x29, x30, [sp], 96
	.cfi_restore 30
	.cfi_restore 29
	.cfi_def_cfa 31, 0
	ret
.LVL740:
.L483:
	.cfi_restore_state
.LBB2967:
.LBB2953:
.LBB2954:
	.loc 1 805 0
	mov	x1, x3
	mov	x0, x19
	bl	init_request_from_bio
.LVL741:
	.loc 1 806 0
	mov	x0, x19
	mov	w1, 1
	bl	blk_account_io_start
.LVL742:
	b	.L477
.L503:
.LBE2954:
.LBE2953:
.LBE2967:
.LBB2968:
.LBB2963:
	.loc 1 1682 0 discriminator 1
	ldr	w0, [x19,84]
	cmp	w0, 1
	bne	.L478
	.loc 1 1685 0
	mov	x0, x19
	bl	ufs_mq_insert_async_list
.LVL743:
	b	.L480
.LBE2963:
.LBE2968:
	.cfi_endproc
.LFE3170:
	.size	ufs_mq_merge_queue_io, .-ufs_mq_merge_queue_io
	.align	2
	.type	ufs_mq_make_request, %function
ufs_mq_make_request:
.LFB3175:
	.loc 1 969 0
	.cfi_startproc
.LVL744:
	stp	x29, x30, [sp, -144]!
	.cfi_def_cfa_offset 144
	.cfi_offset 29, -144
	.cfi_offset 30, -136
	.loc 1 976 0
	mov	x2, x1
	.loc 1 969 0
	add	x29, sp, 0
	.cfi_def_cfa_register 29
	stp	x21, x22, [sp,32]
	stp	x23, x24, [sp,48]
	stp	x25, x26, [sp,64]
	stp	x19, x20, [sp,16]
	.cfi_offset 21, -112
	.cfi_offset 22, -104
	.cfi_offset 23, -96
	.cfi_offset 24, -88
	.cfi_offset 25, -80
	.cfi_offset 26, -72
	.cfi_offset 19, -128
	.cfi_offset 20, -120
	.loc 1 969 0
	mov	x21, x0
	adrp	x24, __stack_chk_guard
	.loc 1 976 0
	ldr	w0, [x1,20]
.LVL745:
	.loc 1 969 0
	str	x1, [x29,88]
	.loc 1 976 0
	lsr	w1, w0, 29
.LVL746:
	.loc 1 969 0
	ldr	x3, [x24,#:lo12:__stack_chk_guard]
.LBB3085:
.LBB3086:
	.loc 1 793 0
	cmp	w1, 5
.LBE3086:
.LBE3085:
	.loc 1 969 0
	str	x3, [x29,136]
.LBB3123:
.LBB3118:
	.loc 1 793 0
	cset	w25, eq
	cmp	w1, wzr
	cset	w22, eq
.LBE3118:
.LBE3123:
	.loc 1 977 0
	ldr	x19, [x21,13016]
.LVL747:
.LBB3124:
.LBB3119:
	.loc 1 793 0
	orr	w22, w25, w22
	cbz	w22, .L585
.L505:
	.loc 1 795 0
	orr	w0, w0, 8
	str	w0, [x2,20]
.LBB3087:
.LBB3088:
.LBB3089:
.LBB3090:
.LBB3091:
	.loc 2 247 0 discriminator 4
	ldr	w0, [x19,424]
.LBE3091:
.LBE3090:
.LBE3089:
	.loc 1 618 0 discriminator 5
	cbz	w0, .L508
	cmp	w0, 1
	beq	.L509
	.loc 1 635 0
	bl	ktime_get
.LVL748:
.LBE3088:
.LBE3087:
	.loc 1 797 0
	mov	w22, 1
.LBB3114:
.LBB3110:
	.loc 1 635 0
	str	x0, [x19,336]
.L506:
.LBE3110:
.LBE3114:
.LBE3119:
.LBE3124:
	.loc 1 982 0
	ldr	x2, [x21,14944]
	mov	x0, x21
	add	x1, x29, 88
	bl	blk_queue_split
.LVL749:
	.loc 1 987 0
	ldr	x1, [x29,88]
.LVL750:
	mov	x2, 0
	ldr	x0, [x21,80]
	ldr	w1, [x1,20]
.LVL751:
	bl	wbt_wait
.LVL752:
	uxtb	w26, w0
.LVL753:
	.loc 1 989 0
	ldr	x0, [x29,88]
	mov	w1, 3
	bl	hisi_blk_latency_bio_check
.LVL754:
	.loc 1 991 0
	ldr	x1, [x29,88]
	mov	x0, x21
	add	x2, x29, 96
	bl	blk_mq_map_request
.LVL755:
	mov	x20, x0
.LVL756:
	.loc 1 992 0
	cbz	x0, .L586
	.loc 1 998 0
	cbnz	w26, .L587
.L516:
	.loc 1 1001 0
	ldr	x0, [x29,96]
.LBB3125:
.LBB3126:
	.file 20 "/mnt/disk/jenkins/ci/workspace/chipset_release_960_xloader/opensource/component_code/vendor/huawei/extra/build/build_script/kirin_kernel_release/kernel/include/linux/blk_types.h"
	.loc 20 373 0
	ldr	w1, [x20,560]
	ldr	x3, [x29,88]
	ldr	w23, [x0,268]
	orr	w23, w1, w23, lsl 16
.LBE3126:
.LBE3125:
	.loc 1 1003 0
	cbnz	w25, .L518
	.loc 1 1003 0 is_stmt 0 discriminator 1
	ldr	w1, [x3,20]
	tbnz	x1, 9, .L518
	.loc 1 1012 0 is_stmt 1
	cbz	w22, .L521
.LBB3127:
.LBB3128:
.LBB3129:
	.loc 1 805 0
	mov	x1, x3
	mov	x0, x20
	bl	init_request_from_bio
.LVL757:
	.loc 1 806 0
	mov	x0, x20
	mov	w1, 1
	bl	blk_account_io_start
.LVL758:
.LBE3129:
.LBE3128:
	.loc 1 1020 0
	str	x20, [x29,112]
	ldr	x1, [x20,88]
	.loc 1 1021 0 discriminator 1
	ldr	x0, [x29,96]
.LBB3130:
.LBB3131:
.LBB3132:
.LBB3133:
	.loc 1 643 0
	tbz	x1, 3, .L522
	.loc 1 644 0
	tbnz	x1, 11, .L588
.LBB3134:
.LBB3135:
	.loc 8 113 0
	add	x3, x19, 12
#APP
// 113 "/mnt/disk/jenkins/ci/workspace/chipset_release_960_xloader/opensource/component_code/vendor/huawei/extra/build/build_script/kirin_kernel_release/kernel/arch/arm64/include/asm/atomic_ll_sc.h" 1
	// atomic_add_return
	prfm	pstl1strm, [x3]
1:	ldxr	w2, [x3]
	add	w2, w2, 1
	stlxr	w1, w2, [x3]
	cbnz	w1, 1b
	dmb ish
// 0 "" 2
.LVL759:
#NO_APP
.LBE3135:
.LBE3134:
	.loc 1 653 0
	ldr	w1, [x19,328]
.LVL760:
	cmp	w2, w1
	bgt	.L579
.LVL761:
.L524:
.LBE3133:
.LBE3132:
	.loc 1 733 0
	ldr	x2, [x21,280]
.LVL762:
	add	x1, x29, 112
.LVL763:
	ldr	x2, [x2]
	blr	x2
.LVL764:
	mov	w22, w0
.LVL765:
	.loc 1 735 0
	mov	w1, 6
	mov	x0, x20
	bl	hisi_blk_latency_req_check
.LVL766:
	.loc 1 737 0
	cbnz	w22, .L530
.LVL767:
.L529:
.LBE3131:
.LBE3130:
	.loc 1 1022 0
	ldr	x0, [x29,104]
.LVL768:
.LBB3165:
.LBB3166:
	.loc 6 89 0
	ldr	x1, [x0,304]
.LVL769:
	ldr	x1, [x1,13024]
	cbz	x1, .L534
	.loc 6 89 0 is_stmt 0 discriminator 1
	ldr	x1, [x1,80]
	cbz	x1, .L534
	.loc 6 90 0 is_stmt 1
	blr	x1
.LVL770:
	mov	w2, w0
.LVL771:
	.loc 6 91 0
	cbnz	w0, .L589
.LVL772:
.L536:
.LBE3166:
.LBE3165:
	.loc 1 1023 0
	cbnz	w22, .L590
.LVL773:
.L515:
.LBE3127:
	.loc 1 1052 0
	ldr	x2, [x29,136]
.LVL774:
	mov	w0, w23
.LVL775:
	ldr	x1, [x24,#:lo12:__stack_chk_guard]
.LVL776:
	cmp	x2, x1
	bne	.L591
	ldp	x19, x20, [sp,16]
	.cfi_remember_state
	.cfi_restore 20
	.cfi_restore 19
.LVL777:
	ldp	x21, x22, [sp,32]
	.cfi_restore 22
	.cfi_restore 21
.LVL778:
	ldp	x23, x24, [sp,48]
	.cfi_restore 24
	.cfi_restore 23
	ldp	x25, x26, [sp,64]
	.cfi_restore 26
	.cfi_restore 25
.LVL779:
	ldp	x29, x30, [sp], 144
	.cfi_restore 30
	.cfi_restore 29
	.cfi_def_cfa 31, 0
	ret
.LVL780:
.L509:
	.cfi_restore_state
.LBB3203:
.LBB3120:
.LBB3115:
.LBB3111:
	.loc 1 629 0
	bl	ktime_get
.LVL781:
.LBB3092:
.LBB3093:
.LBB3094:
	.loc 17 233 0
	ldr	x1, [x19,336]
	add	x1, x1, 9998336
	add	x1, x1, 1664
.LBE3094:
.LBE3093:
.LBB3095:
.LBB3096:
.LBB3097:
	.loc 17 144 0
	cmp	x1, x0
	ble	.L513
.LBE3097:
.LBE3096:
.LBE3095:
.LBE3092:
.LBB3098:
.LBB3099:
.LBB3100:
	.loc 2 275 0
	mov	w1, 2
	str	w1, [x19,424]
.L513:
.LBE3100:
.LBE3099:
.LBE3098:
	.loc 1 632 0
	str	x0, [x19,336]
.LBE3111:
.LBE3115:
	.loc 1 797 0
	mov	w22, 1
	b	.L506
.LVL782:
.L589:
.LBE3120:
.LBE3203:
.LBB3204:
.LBB3177:
.LBB3175:
	.loc 6 92 0
	cmn	w0, #1
	bne	.L592
.L534:
	.loc 6 93 0
.LBB3167:
.LBB3168:
.LBB3169:
.LBB3170:
.LBB3171:
	.loc 4 20 0
#APP
// 20 "/mnt/disk/jenkins/ci/workspace/chipset_release_960_xloader/opensource/component_code/vendor/huawei/extra/build/build_script/kirin_kernel_release/kernel/arch/arm64/include/asm/current.h" 1
	mrs x1, sp_el0
// 0 "" 2
.LVL783:
#NO_APP
.LBE3171:
.LBE3170:
.LBE3169:
	.loc 5 68 0
	ldr	w0, [x1,16]
.LVL784:
	sub	w0, w0, #1
	str	w0, [x1,16]
	cbnz	w0, .L536
.LBB3172:
.LBB3173:
.LBB3174:
	.loc 7 105 0
	ldr	x0, [x1]
.LBE3174:
.LBE3173:
.LBE3172:
	.loc 5 68 0 discriminator 1
	tbz	x0, 1, .L536
.LBE3168:
.LBE3167:
	.loc 6 93 0 discriminator 3
	bl	preempt_schedule
.LVL785:
	b	.L536
.LVL786:
.L508:
.LBE3175:
.LBE3177:
.LBE3204:
.LBB3205:
.LBB3121:
.LBB3116:
.LBB3112:
	.loc 1 620 0
	bl	ktime_get
.LVL787:
	mov	x20, x0
.LBB3101:
.LBB3102:
.LBB3103:
	.loc 17 233 0
	ldr	x0, [x19,336]
	add	x0, x0, 9998336
	add	x0, x0, 1664
.LBE3103:
.LBE3102:
.LBB3104:
.LBB3105:
.LBB3106:
	.loc 17 144 0
	cmp	x0, x20
	bgt	.L510
.L512:
.LBE3106:
.LBE3105:
.LBE3104:
.LBE3101:
	.loc 1 626 0
	str	x20, [x19,336]
.LBE3112:
.LBE3116:
	.loc 1 797 0
	mov	w22, 1
	b	.L506
.LVL788:
.L518:
.LBE3121:
.LBE3205:
.LBB3206:
.LBB3207:
	.loc 1 805 0
	mov	x1, x3
	mov	x0, x20
	bl	init_request_from_bio
.LVL789:
	.loc 1 806 0
	mov	x0, x20
	mov	w1, 1
	bl	blk_account_io_start
.LVL790:
.LBE3207:
.LBE3206:
	.loc 1 1008 0
	mov	x0, x20
	bl	blk_insert_flush
.LVL791:
.L520:
	.loc 1 1044 0
	ldr	x0, [x29,96]
	eor	w1, w22, 1
	bl	blk_mq_run_hw_queue
.LVL792:
.L543:
	.loc 1 1046 0
	ldr	x0, [x29,104]
.LBB3208:
.LBB3209:
	.loc 6 89 0
	ldr	x1, [x0,304]
	ldr	x1, [x1,13024]
	cbz	x1, .L546
	.loc 6 89 0 is_stmt 0 discriminator 1
	ldr	x1, [x1,80]
	cbz	x1, .L546
	.loc 6 90 0 is_stmt 1
	blr	x1
.LVL793:
	mov	w2, w0
.LVL794:
	.loc 6 91 0
	cbz	w0, .L515
	.loc 6 92 0
	cmn	w0, #1
	bne	.L593
.L546:
	.loc 6 93 0
.LBB3210:
.LBB3211:
.LBB3212:
.LBB3213:
.LBB3214:
	.loc 4 20 0
#APP
// 20 "/mnt/disk/jenkins/ci/workspace/chipset_release_960_xloader/opensource/component_code/vendor/huawei/extra/build/build_script/kirin_kernel_release/kernel/arch/arm64/include/asm/current.h" 1
	mrs x1, sp_el0
// 0 "" 2
.LVL795:
#NO_APP
.LBE3214:
.LBE3213:
.LBE3212:
	.loc 5 68 0
	ldr	w0, [x1,16]
	sub	w0, w0, #1
	str	w0, [x1,16]
	cbnz	w0, .L515
.LBB3215:
.LBB3216:
.LBB3217:
	.loc 7 105 0
	ldr	x0, [x1]
.LBE3217:
.LBE3216:
.LBE3215:
	.loc 5 68 0 discriminator 1
	tbz	x0, 1, .L515
.LBE3211:
.LBE3210:
	.loc 6 93 0 discriminator 3
	bl	preempt_schedule
.LVL796:
	b	.L515
.LVL797:
.L586:
.LBE3209:
.LBE3208:
	.loc 1 995 0
	mov	w23, -1
	.loc 1 993 0
	cbz	w26, .L515
	.loc 1 994 0
	ldr	x0, [x21,80]
.LVL798:
	bl	__wbt_done
.LVL799:
	b	.L515
.LVL800:
.L585:
.LBB3219:
.LBB3122:
	.loc 1 793 0 discriminator 1
	mov	w1, 280
.LVL801:
	tst	w0, w1
	bne	.L505
	b	.L506
.L510:
.LBB3117:
.LBB3113:
	.loc 1 624 0
	adrp	x1, jiffies
.LBB3107:
.LBB3108:
.LBB3109:
	.loc 2 275 0
	mov	w0, 1
	str	w0, [x19,424]
.LBE3109:
.LBE3108:
.LBE3107:
	.loc 1 624 0 discriminator 1
	add	x0, x19, 376
	.loc 1 622 0
	str	x20, [x19,344]
	.loc 1 624 0
	ldr	x1, [x1,#:lo12:jiffies]
	.loc 1 624 0 is_stmt 0 discriminator 1
	add	x1, x1, 3
	bl	mod_timer
.LVL802:
	b	.L512
.LVL803:
.L587:
.LBE3113:
.LBE3117:
.LBE3122:
.LBE3219:
.LBB3220:
.LBB3221:
	.file 21 "/mnt/disk/jenkins/ci/workspace/chipset_release_960_xloader/opensource/component_code/vendor/huawei/extra/build/build_script/kirin_kernel_release/kernel/include/linux/wbt.h"
	.loc 21 29 0 is_stmt 1
	ldr	x0, [x0,512]
.LVL804:
	orr	x0, x0, -9223372036854775808
	str	x0, [x20,512]
	b	.L516
.L521:
.LBE3221:
.LBE3220:
	.loc 1 1042 0
	ldr	x1, [x29,104]
	mov	x2, x20
	bl	ufs_mq_merge_queue_io
.LVL805:
	uxtb	w0, w0
	cbnz	w0, .L543
	b	.L520
.LVL806:
.L590:
.LBB3222:
	.loc 1 1025 0
	cmp	w22, 2
	beq	.L594
	.loc 1 1030 0
	ldr	x0, [x29,112]
	bl	__blk_mq_requeue_request
.LVL807:
	.loc 1 1035 0
	ldr	x20, [x29,112]
.LVL808:
.LBB3178:
.LBB3179:
	.loc 1 783 0
	ldr	x19, [x21,13016]
.LVL809:
	.loc 1 784 0
	mov	w1, 4
	mov	x0, x20
.LBB3180:
.LBB3181:
	.loc 9 291 0
	add	x22, x19, 280
.LVL810:
.LBE3181:
.LBE3180:
	.loc 1 784 0
	bl	hisi_blk_latency_req_check
.LVL811:
	.loc 1 785 0 discriminator 1
	mov	x0, x22
	bl	_raw_spin_lock_irqsave
.LVL812:
	mov	x1, x0
.LVL813:
	.loc 1 786 0
	ldr	x2, [x20,88]
	.loc 1 786 0 is_stmt 0 discriminator 1
	add	x3, x19, 232
	add	x19, x19, 248
.LVL814:
.LBB3182:
.LBB3183:
	.loc 9 362 0 is_stmt 1
	mov	x0, x22
.LBE3183:
.LBE3182:
	.loc 1 786 0
	and	x2, x2, 2048
	.loc 1 786 0 is_stmt 0 discriminator 1
	cmp	x2, xzr
	csel	x19, x19, x3, eq
.LBB3185:
.LBB3186:
	.loc 3 77 0 is_stmt 1
	ldr	x2, [x19,8]
.LBB3187:
.LBB3188:
	.loc 3 42 0
	str	x20, [x19,8]
	.loc 3 44 0
	str	x2, [x20,8]
	.loc 3 43 0
	str	x19, [x20]
.LBB3189:
.LBB3190:
.LBB3191:
	.loc 2 276 0
	str	x20, [x2]
.LBE3191:
.LBE3190:
.LBE3189:
.LBE3188:
.LBE3187:
.LBE3186:
.LBE3185:
.LBB3192:
.LBB3184:
	.loc 9 362 0
	bl	_raw_spin_unlock_irqrestore
.LVL815:
.LBE3184:
.LBE3192:
.LBB3193:
.LBB3194:
.LBB3195:
.LBB3196:
.LBB3197:
	.loc 10 492 0
	adrp	x1, .LANCHOR0
.LBE3197:
.LBE3196:
	.loc 1 762 0
	ldr	x2, [x21,13016]
.LBB3199:
.LBB3198:
	.loc 10 492 0
	mov	x3, 0
	mov	w0, 8
	add	x2, x2, 24
	ldr	x1, [x1,#:lo12:.LANCHOR0]
	bl	queue_delayed_work_on
.LVL816:
	b	.L515
.LVL817:
.L522:
.LBE3198:
.LBE3199:
.LBE3195:
.LBE3194:
.LBE3193:
.LBE3179:
.LBE3178:
.LBB3200:
.LBB3163:
.LBB3142:
.LBB3140:
.LBB3136:
.LBB3137:
	.loc 8 113 0
	add	x3, x19, 16
#APP
// 113 "/mnt/disk/jenkins/ci/workspace/chipset_release_960_xloader/opensource/component_code/vendor/huawei/extra/build/build_script/kirin_kernel_release/kernel/arch/arm64/include/asm/atomic_ll_sc.h" 1
	// atomic_add_return
	prfm	pstl1strm, [x3]
1:	ldxr	w2, [x3]
	add	w2, w2, 1
	stlxr	w1, w2, [x3]
	cbnz	w1, 1b
	dmb ish
// 0 "" 2
.LVL818:
#NO_APP
.LBE3137:
.LBE3136:
	.loc 1 668 0
	ldr	w1, [x19,332]
.LVL819:
	cmp	w2, w1
	ble	.L524
.LVL820:
.L579:
	.loc 1 673 0
	mov	w0, 2
	mov	w22, 1
.LVL821:
	str	w0, [x20,276]
.L526:
	ldr	x0, [x20,88]
.LBE3140:
.LBE3142:
.LBB3143:
.LBB3144:
	.loc 1 695 0
	tbz	x0, 3, .L527
	.loc 1 696 0
	tbnz	x0, 11, .L595
.LBB3145:
.LBB3146:
	.loc 8 114 0
	add	x2, x19, 12
.LVL822:
#APP
// 114 "/mnt/disk/jenkins/ci/workspace/chipset_release_960_xloader/opensource/component_code/vendor/huawei/extra/build/build_script/kirin_kernel_release/kernel/arch/arm64/include/asm/atomic_ll_sc.h" 1
	// atomic_sub
	prfm	pstl1strm, [x2]
1:	ldxr	w0, [x2]
	sub	w0, w0, 1
	stxr	w1, w0, [x2]
	cbnz	w1, 1b
// 0 "" 2
.LVL823:
#NO_APP
	b	.L529
.LVL824:
.L530:
.LBE3146:
.LBE3145:
.LBE3144:
.LBE3143:
	.loc 1 740 0
	mov	w0, 1
	str	w0, [x20,276]
.LBB3152:
.LBB3153:
.LBB3154:
	.loc 2 247 0 discriminator 4
	ldr	w2, [x19,8]
.LBE3154:
.LBE3153:
.LBE3152:
.LBB3155:
.LBB3156:
.LBB3157:
	ldr	w0, [x19,12]
.LBE3157:
.LBE3156:
.LBE3155:
.LBB3158:
.LBB3159:
.LBB3160:
	ldr	w1, [x19,16]
.LBE3160:
.LBE3159:
.LBE3158:
	.loc 1 742 0 discriminator 11
	add	w0, w2, w0
	.loc 1 742 0 is_stmt 0 discriminator 17
	add	w0, w0, w1
	cmp	w0, 8
	bgt	.L526
	.loc 1 743 0 is_stmt 1
	mov	w0, 3
	str	w0, [x20,276]
	b	.L526
.LVL825:
.L588:
.LBB3161:
.LBB3141:
.LBB3138:
.LBB3139:
	.loc 8 113 0
	add	x3, x19, 8
#APP
// 113 "/mnt/disk/jenkins/ci/workspace/chipset_release_960_xloader/opensource/component_code/vendor/huawei/extra/build/build_script/kirin_kernel_release/kernel/arch/arm64/include/asm/atomic_ll_sc.h" 1
	// atomic_add
	prfm	pstl1strm, [x3]
1:	ldxr	w1, [x3]
	add	w1, w1, 1
	stxr	w2, w1, [x3]
	cbnz	w2, 1b
// 0 "" 2
.LVL826:
#NO_APP
	b	.L524
.LVL827:
.L592:
.LBE3139:
.LBE3138:
.LBE3141:
.LBE3161:
.LBE3163:
.LBE3200:
.LBB3201:
.LBB3176:
	.loc 6 95 0
	adrp	x0, .LC8
.LVL828:
	adrp	x1, .LANCHOR1
	add	x1, x1, :lo12:.LANCHOR1
	add	x0, x0, :lo12:.LC8
	bl	printk
.LVL829:
	b	.L536
.LVL830:
.L594:
.LBE3176:
.LBE3201:
	.loc 1 1026 0
	ldr	x2, [x29,112]
.LVL831:
	mov	w3, -5
	.loc 1 1027 0
	mov	w1, w3
.LVL832:
	mov	x0, x2
.LVL833:
	.loc 1 1026 0
	str	w3, [x2,564]
	.loc 1 1027 0
	bl	blk_mq_end_request
.LVL834:
	.loc 1 1028 0
	b	.L515
.LVL835:
.L593:
.LBE3222:
.LBB3223:
.LBB3218:
	.loc 6 95 0
	adrp	x0, .LC8
.LVL836:
	adrp	x1, .LANCHOR1
	add	x1, x1, :lo12:.LANCHOR1
	add	x0, x0, :lo12:.LC8
	bl	printk
.LVL837:
	b	.L515
.LVL838:
.L527:
.LBE3218:
.LBE3223:
.LBB3224:
.LBB3202:
.LBB3164:
.LBB3162:
.LBB3151:
.LBB3147:
.LBB3148:
	.loc 8 114 0
	add	x2, x19, 16
.LVL839:
#APP
// 114 "/mnt/disk/jenkins/ci/workspace/chipset_release_960_xloader/opensource/component_code/vendor/huawei/extra/build/build_script/kirin_kernel_release/kernel/arch/arm64/include/asm/atomic_ll_sc.h" 1
	// atomic_sub
	prfm	pstl1strm, [x2]
1:	ldxr	w0, [x2]
	sub	w0, w0, 1
	stxr	w1, w0, [x2]
	cbnz	w1, 1b
// 0 "" 2
.LVL840:
#NO_APP
	b	.L529
.LVL841:
.L595:
.LBE3148:
.LBE3147:
.LBB3149:
.LBB3150:
	add	x2, x19, 8
.LVL842:
#APP
// 114 "/mnt/disk/jenkins/ci/workspace/chipset_release_960_xloader/opensource/component_code/vendor/huawei/extra/build/build_script/kirin_kernel_release/kernel/arch/arm64/include/asm/atomic_ll_sc.h" 1
	// atomic_sub
	prfm	pstl1strm, [x2]
1:	ldxr	w0, [x2]
	sub	w0, w0, 1
	stxr	w1, w0, [x2]
	cbnz	w1, 1b
// 0 "" 2
.LVL843:
#NO_APP
	b	.L529
.LVL844:
.L591:
.LBE3150:
.LBE3149:
.LBE3151:
.LBE3162:
.LBE3164:
.LBE3202:
.LBE3224:
	.loc 1 1052 0
	bl	__stack_chk_fail
.LVL845:
	.cfi_endproc
.LFE3175:
	.size	ufs_mq_make_request, .-ufs_mq_make_request
	.align	2
	.global	ufs_mq_flush_plug_list
	.type	ufs_mq_flush_plug_list, %function
ufs_mq_flush_plug_list:
.LFB3172:
	.loc 1 897 0
	.cfi_startproc
.LVL846:
	stp	x29, x30, [sp, -160]!
	.cfi_def_cfa_offset 160
	.cfi_offset 29, -160
	.cfi_offset 30, -152
	.loc 1 909 0
	add	x1, x0, 48
.LVL847:
	.loc 1 902 0
	mov	w3, 1
	.loc 1 897 0
	add	x29, sp, 0
	.cfi_def_cfa_register 29
	stp	x27, x28, [sp,80]
	.cfi_offset 27, -80
	.cfi_offset 28, -72
	adrp	x28, __stack_chk_guard
	stp	x23, x24, [sp,48]
	stp	x19, x20, [sp,16]
	ldr	x2, [x28,#:lo12:__stack_chk_guard]
	.cfi_offset 23, -112
	.cfi_offset 24, -104
	.cfi_offset 19, -144
	.cfi_offset 20, -136
	.loc 1 907 0
	add	x23, x29, 112
	.loc 1 897 0
	stp	x21, x22, [sp,32]
	stp	x25, x26, [sp,64]
	.cfi_offset 21, -128
	.cfi_offset 22, -120
	.cfi_offset 25, -96
	.cfi_offset 26, -88
	.loc 1 897 0
	str	x2, [x29,152]
	.loc 1 902 0
	str	xzr, [x29,128]
.LBB3225:
.LBB3226:
.LBB3227:
.LBB3228:
.LBB3229:
.LBB3230:
	.loc 2 247 0 discriminator 5
	ldr	x2, [x0,48]
.LBE3230:
.LBE3229:
.LBE3228:
.LBE3227:
.LBE3226:
.LBE3225:
	.loc 1 902 0
	str	xzr, [x29,136]
	strb	w3, [x29,144]
.LBB3241:
.LBB3238:
	.loc 3 322 0
	cmp	x1, x2
.LBE3238:
.LBE3241:
	.loc 1 907 0
	str	x23, [x29,112]
	str	x23, [x29,120]
.LBB3242:
.LBB3239:
	.loc 3 322 0
	beq	.L620
.LBB3231:
.LBB3232:
	.loc 3 278 0
	ldr	x3, [x0,48]
.LVL848:
	.loc 3 279 0
	ldr	x2, [x0,56]
.LVL849:
	.loc 3 282 0
	str	x3, [x29,112]
	.loc 3 281 0
	str	x23, [x3,8]
	.loc 3 284 0
	str	x23, [x2]
	.loc 3 285 0
	str	x2, [x29,120]
	ldr	x19, [x29,112]
.LBE3232:
.LBE3231:
.LBB3233:
.LBB3234:
.LBB3235:
.LBB3236:
.LBB3237:
	.loc 2 276 0
	str	x1, [x0,48]
.LBE3237:
.LBE3236:
.LBE3235:
	.loc 3 28 0
	str	x1, [x0,56]
	ldr	x0, [x19,8]
.LVL850:
	ldr	x21, [x19]
.L597:
.LBE3234:
.LBE3233:
.LBE3239:
.LBE3242:
.LBB3243:
.LBB3244:
.LBB3245:
	.loc 6 95 0
	adrp	x27, .LC8
	adrp	x26, .LANCHOR1
	add	x1, x26, :lo12:.LANCHOR1
	adrp	x25, __per_cpu_offset
	add	x27, x27, :lo12:.LC8
	str	x1, [x29,104]
.LBE3245:
.LBE3244:
.LBB3257:
.LBB3258:
.LBB3259:
.LBB3260:
	.loc 6 82 0
	adrp	x24, cpu_number
	add	x24, x24, :lo12:cpu_number
.LVL851:
.LBE3260:
.LBB3263:
.LBB3264:
.LBB3265:
.LBB3266:
.LBB3267:
	.loc 4 20 0
#APP
// 20 "/mnt/disk/jenkins/ci/workspace/chipset_release_960_xloader/opensource/component_code/vendor/huawei/extra/build/build_script/kirin_kernel_release/kernel/arch/arm64/include/asm/current.h" 1
	mrs x22, sp_el0
// 0 "" 2
.LVL852:
#NO_APP
.LBE3267:
.LBE3266:
.LBE3265:
.LBE3264:
.LBE3263:
.LBB3269:
	.loc 6 82 0
.LVL853:
.L618:
.LBE3269:
.LBE3259:
.LBE3258:
.LBE3257:
	.loc 1 913 0
	ldr	x26, [x19,64]
	.loc 1 914 0
	ldr	x20, [x26,13016]
.LBB3276:
.LBB3277:
.LBB3278:
.LBB3279:
	.loc 3 89 0
	str	x0, [x21,8]
.LBB3280:
.LBB3281:
.LBB3282:
	.loc 2 276 0
	str	x21, [x0]
.LBE3282:
.LBE3281:
.LBE3280:
.LBE3279:
.LBE3278:
.LBE3277:
.LBB3283:
.LBB3284:
.LBB3285:
.LBB3286:
.LBB3287:
	str	x19, [x19]
.LBE3287:
.LBE3286:
.LBE3285:
	.loc 3 28 0
	str	x19, [x19,8]
.LBE3284:
.LBE3283:
.LBE3276:
	.loc 1 916 0
	str	x19, [x29,128]
.LBB3288:
.LBB3275:
.LBB3272:
.LBB3270:
.LBB3268:
	.loc 5 53 0
	ldr	w0, [x22,16]
	add	w0, w0, 1
	str	w0, [x22,16]
.LBE3268:
.LBE3270:
	.loc 6 82 0
.LBB3271:
.LBB3261:
.LBB3262:
	.loc 14 34 0
#APP
// 34 "/mnt/disk/jenkins/ci/workspace/chipset_release_960_xloader/opensource/component_code/vendor/huawei/extra/build/build_script/kirin_kernel_release/kernel/arch/arm64/include/asm/percpu.h" 1
	mrs x0, tpidr_el1
// 0 "" 2
.LVL854:
#NO_APP
.LBE3262:
.LBE3261:
.LBE3271:
.LBE3272:
.LBB3273:
.LBB3274:
	.loc 6 71 0
	ldr	w1, [x0,x24]
.LVL855:
	add	x0, x25, :lo12:__per_cpu_offset
.LVL856:
	ldr	x2, [x19,88]
.LVL857:
	ldr	x1, [x0,x1,lsl 3]
	ldr	x0, [x26,296]
.LVL858:
	add	x0, x0, x1
.LVL859:
.LBE3274:
.LBE3273:
.LBE3275:
.LBE3288:
	.loc 1 917 0
	str	x0, [x19,72]
.LBB3289:
.LBB3290:
	.loc 6 53 0
	ldr	x1, [x26,288]
.LBE3290:
.LBE3289:
	.loc 1 918 0
	ldr	w4, [x0,64]
.LBB3292:
.LBB3291:
	.loc 6 53 0
	ldr	x0, [x26,312]
	ldr	w1, [x1,w4,sxtw 2]
	ldr	x0, [x0,w1,uxtw 3]
.LBE3291:
.LBE3292:
.LBB3293:
.LBB3294:
.LBB3295:
.LBB3296:
	.loc 1 643 0
	tbz	x2, 3, .L598
	.loc 1 644 0
	tbnz	x2, 11, .L639
.LBB3297:
.LBB3298:
	.loc 8 113 0
	add	x3, x20, 12
.LVL860:
#APP
// 113 "/mnt/disk/jenkins/ci/workspace/chipset_release_960_xloader/opensource/component_code/vendor/huawei/extra/build/build_script/kirin_kernel_release/kernel/arch/arm64/include/asm/atomic_ll_sc.h" 1
	// atomic_add_return
	prfm	pstl1strm, [x3]
1:	ldxr	w2, [x3]
	add	w2, w2, 1
	stlxr	w1, w2, [x3]
	cbnz	w1, 1b
	dmb ish
// 0 "" 2
.LVL861:
#NO_APP
.LBE3298:
.LBE3297:
	.loc 1 653 0
	ldr	w1, [x20,328]
.LVL862:
	cmp	w2, w1
	bgt	.L635
.LVL863:
.L600:
.LBE3296:
.LBE3295:
	.loc 1 733 0
	ldr	x2, [x26,280]
.LVL864:
	add	x1, x29, 128
.LVL865:
	ldr	x2, [x2]
	blr	x2
.LVL866:
	mov	w21, w0
.LVL867:
	.loc 1 735 0
	mov	w1, 6
	mov	x0, x19
	bl	hisi_blk_latency_req_check
.LVL868:
	.loc 1 737 0
	cbnz	w21, .L640
.LVL869:
.L605:
.LBE3294:
.LBE3293:
	.loc 1 920 0
	ldr	x0, [x19,72]
.LVL870:
.LBB3330:
.LBB3254:
	.loc 6 89 0
	ldr	x1, [x0,304]
.LVL871:
	ldr	x1, [x1,13024]
	cbz	x1, .L610
	.loc 6 89 0 is_stmt 0 discriminator 1
	ldr	x1, [x1,80]
	cbz	x1, .L610
	.loc 6 90 0 is_stmt 1
	blr	x1
.LVL872:
	mov	w2, w0
.LVL873:
	.loc 6 91 0
	cbz	w0, .L612
	.loc 6 92 0
	cmn	w0, #1
	bne	.L641
.L610:
	.loc 6 93 0
.LBB3246:
.LBB3247:
.LBB3248:
.LBB3249:
.LBB3250:
	.loc 4 20 0
#APP
// 20 "/mnt/disk/jenkins/ci/workspace/chipset_release_960_xloader/opensource/component_code/vendor/huawei/extra/build/build_script/kirin_kernel_release/kernel/arch/arm64/include/asm/current.h" 1
	mrs x1, sp_el0
// 0 "" 2
.LVL874:
#NO_APP
.LBE3250:
.LBE3249:
.LBE3248:
	.loc 5 68 0
	ldr	w0, [x1,16]
	sub	w0, w0, #1
	str	w0, [x1,16]
	cbnz	w0, .L612
.LBB3251:
.LBB3252:
.LBB3253:
	.loc 7 105 0
	ldr	x0, [x1]
.LBE3253:
.LBE3252:
.LBE3251:
	.loc 5 68 0 discriminator 1
	tbnz	x0, 1, .L642
.L612:
.LBE3247:
.LBE3246:
.LBE3254:
.LBE3330:
	.loc 1 921 0
	cbnz	w21, .L643
.L615:
.LBE3243:
.LBB3341:
.LBB3342:
.LBB3343:
.LBB3344:
	.loc 2 247 0 discriminator 5
	ldr	x0, [x29,112]
.LBE3344:
.LBE3343:
.LBE3342:
.LBE3341:
	.loc 1 931 0
	cmp	x23, x0
	beq	.L596
.L645:
	ldr	x19, [x29,112]
	ldr	x21, [x19]
.LVL875:
	ldr	x0, [x19,8]
	b	.L618
.LVL876:
.L642:
.LBB3348:
.LBB3331:
.LBB3255:
	.loc 6 93 0 discriminator 3
	bl	preempt_schedule
.LVL877:
.LBE3255:
.LBE3331:
	.loc 1 921 0
	cbz	w21, .L615
.LVL878:
.L643:
	.loc 1 922 0
	cmp	w21, 2
	beq	.L644
	.loc 1 926 0
	mov	x0, x19
	bl	__blk_mq_requeue_request
.LVL879:
	.loc 1 927 0
	ldr	x1, [x26,13016]
	mov	x0, x19
	bl	ufs_mq_insert_sync_list.isra.24
.LVL880:
.LBB3332:
.LBB3333:
.LBB3334:
.LBB3335:
	.loc 10 492 0
	adrp	x1, .LANCHOR0
.LBE3335:
.LBE3334:
	.loc 1 762 0
	ldr	x2, [x26,13016]
.LBB3337:
.LBB3336:
	.loc 10 492 0
	mov	w0, 8
	mov	x3, 0
	add	x2, x2, 24
	ldr	x1, [x1,#:lo12:.LANCHOR0]
	bl	queue_delayed_work_on
.LVL881:
.LBE3336:
.LBE3337:
.LBE3333:
.LBE3332:
.LBE3348:
.LBB3349:
.LBB3347:
.LBB3346:
.LBB3345:
	.loc 2 247 0 discriminator 5
	ldr	x0, [x29,112]
.LBE3345:
.LBE3346:
.LBE3347:
.LBE3349:
	.loc 1 931 0
	cmp	x23, x0
	bne	.L645
.LVL882:
.L596:
	.loc 1 932 0
	ldr	x1, [x29,152]
.LVL883:
	ldr	x0, [x28,#:lo12:__stack_chk_guard]
	cmp	x1, x0
	bne	.L646
	ldp	x19, x20, [sp,16]
	.cfi_remember_state
	.cfi_restore 20
	.cfi_restore 19
.LVL884:
	ldp	x21, x22, [sp,32]
	.cfi_restore 22
	.cfi_restore 21
.LVL885:
	ldp	x23, x24, [sp,48]
	.cfi_restore 24
	.cfi_restore 23
.LVL886:
	ldp	x25, x26, [sp,64]
	.cfi_restore 26
	.cfi_restore 25
.LVL887:
	ldp	x27, x28, [sp,80]
	.cfi_restore 28
	.cfi_restore 27
	ldp	x29, x30, [sp], 160
	.cfi_restore 30
	.cfi_restore 29
	.cfi_def_cfa 31, 0
	ret
.LVL888:
.L598:
	.cfi_restore_state
.LBB3350:
.LBB3338:
.LBB3328:
.LBB3305:
.LBB3303:
.LBB3299:
.LBB3300:
	.loc 8 113 0
	add	x3, x20, 16
.LVL889:
#APP
// 113 "/mnt/disk/jenkins/ci/workspace/chipset_release_960_xloader/opensource/component_code/vendor/huawei/extra/build/build_script/kirin_kernel_release/kernel/arch/arm64/include/asm/atomic_ll_sc.h" 1
	// atomic_add_return
	prfm	pstl1strm, [x3]
1:	ldxr	w2, [x3]
	add	w2, w2, 1
	stlxr	w1, w2, [x3]
	cbnz	w1, 1b
	dmb ish
// 0 "" 2
.LVL890:
#NO_APP
.LBE3300:
.LBE3299:
	.loc 1 668 0
	ldr	w1, [x20,332]
.LVL891:
	cmp	w2, w1
	ble	.L600
.LVL892:
.L635:
	.loc 1 673 0
	mov	w0, 2
	mov	w21, 1
.LVL893:
	str	w0, [x19,276]
.L602:
	ldr	x0, [x19,88]
.LBE3303:
.LBE3305:
.LBB3306:
.LBB3307:
	.loc 1 695 0
	tbz	x0, 3, .L603
.L648:
	.loc 1 696 0
	tbnz	x0, 11, .L647
.LBB3308:
.LBB3309:
	.loc 8 114 0
	add	x2, x20, 12
.LVL894:
#APP
// 114 "/mnt/disk/jenkins/ci/workspace/chipset_release_960_xloader/opensource/component_code/vendor/huawei/extra/build/build_script/kirin_kernel_release/kernel/arch/arm64/include/asm/atomic_ll_sc.h" 1
	// atomic_sub
	prfm	pstl1strm, [x2]
1:	ldxr	w0, [x2]
	sub	w0, w0, 1
	stxr	w1, w0, [x2]
	cbnz	w1, 1b
// 0 "" 2
.LVL895:
#NO_APP
	b	.L605
.LVL896:
.L640:
.LBE3309:
.LBE3308:
.LBE3307:
.LBE3306:
	.loc 1 740 0
	mov	w0, 1
	str	w0, [x19,276]
.LBB3316:
.LBB3317:
.LBB3318:
	.loc 2 247 0 discriminator 4
	ldr	w2, [x20,8]
.LBE3318:
.LBE3317:
.LBE3316:
.LBB3319:
.LBB3320:
.LBB3321:
	ldr	w0, [x20,12]
.LBE3321:
.LBE3320:
.LBE3319:
.LBB3322:
.LBB3323:
.LBB3324:
	ldr	w1, [x20,16]
.LBE3324:
.LBE3323:
.LBE3322:
	.loc 1 742 0 discriminator 11
	add	w0, w2, w0
	.loc 1 742 0 is_stmt 0 discriminator 17
	add	w0, w0, w1
	cmp	w0, 8
	bgt	.L602
	.loc 1 743 0 is_stmt 1
	mov	w0, 3
	str	w0, [x19,276]
	ldr	x0, [x19,88]
.LBB3325:
.LBB3314:
	.loc 1 695 0
	tbnz	x0, 3, .L648
.LVL897:
.L603:
.LBB3310:
.LBB3311:
	.loc 8 114 0
	add	x2, x20, 16
.LVL898:
#APP
// 114 "/mnt/disk/jenkins/ci/workspace/chipset_release_960_xloader/opensource/component_code/vendor/huawei/extra/build/build_script/kirin_kernel_release/kernel/arch/arm64/include/asm/atomic_ll_sc.h" 1
	// atomic_sub
	prfm	pstl1strm, [x2]
1:	ldxr	w0, [x2]
	sub	w0, w0, 1
	stxr	w1, w0, [x2]
	cbnz	w1, 1b
// 0 "" 2
.LVL899:
#NO_APP
	b	.L605
.LVL900:
.L639:
.LBE3311:
.LBE3310:
.LBE3314:
.LBE3325:
.LBB3326:
.LBB3304:
.LBB3301:
.LBB3302:
	.loc 8 113 0
	add	x3, x20, 8
.LVL901:
#APP
// 113 "/mnt/disk/jenkins/ci/workspace/chipset_release_960_xloader/opensource/component_code/vendor/huawei/extra/build/build_script/kirin_kernel_release/kernel/arch/arm64/include/asm/atomic_ll_sc.h" 1
	// atomic_add
	prfm	pstl1strm, [x3]
1:	ldxr	w1, [x3]
	add	w1, w1, 1
	stxr	w2, w1, [x3]
	cbnz	w2, 1b
// 0 "" 2
.LVL902:
#NO_APP
	b	.L600
.LVL903:
.L641:
.LBE3302:
.LBE3301:
.LBE3304:
.LBE3326:
.LBE3328:
.LBE3338:
.LBB3339:
.LBB3256:
	.loc 6 95 0
	ldr	x1, [x29,104]
	mov	x0, x27
.LVL904:
	bl	printk
.LVL905:
	b	.L612
.LVL906:
.L647:
.LBE3256:
.LBE3339:
.LBB3340:
.LBB3329:
.LBB3327:
.LBB3315:
.LBB3312:
.LBB3313:
	.loc 8 114 0
	add	x2, x20, 8
.LVL907:
#APP
// 114 "/mnt/disk/jenkins/ci/workspace/chipset_release_960_xloader/opensource/component_code/vendor/huawei/extra/build/build_script/kirin_kernel_release/kernel/arch/arm64/include/asm/atomic_ll_sc.h" 1
	// atomic_sub
	prfm	pstl1strm, [x2]
1:	ldxr	w0, [x2]
	sub	w0, w0, 1
	stxr	w1, w0, [x2]
	cbnz	w1, 1b
// 0 "" 2
.LVL908:
#NO_APP
	b	.L605
.LVL909:
.L620:
.LBE3313:
.LBE3312:
.LBE3315:
.LBE3327:
.LBE3329:
.LBE3340:
.LBE3350:
.LBB3351:
.LBB3240:
	.loc 3 322 0
	mov	x21, x23
	mov	x0, x23
.LVL910:
	mov	x19, x23
	b	.L597
.LVL911:
.L644:
.LBE3240:
.LBE3351:
.LBB3352:
	.loc 1 923 0
	mov	w1, -5
.LVL912:
	.loc 1 924 0
	mov	x0, x19
	.loc 1 923 0
	str	w1, [x19,564]
	.loc 1 924 0
	bl	blk_mq_end_request
.LVL913:
	b	.L615
.LVL914:
.L646:
.LBE3352:
	.loc 1 932 0
	bl	__stack_chk_fail
.LVL915:
	.cfi_endproc
.LFE3172:
	.size	ufs_mq_flush_plug_list, .-ufs_mq_flush_plug_list
	.global	hisi_ufs_blk_tagset_ops
	.global	hisi_ufs_blk_queue_ops
	.global	hisi_ufs_mq
	.global	hisi_mq_sync_long_burst_duration_ms
	.section	__ksymtab_strings,"a",%progbits
	.type	__kstrtab_blk_mq_tagset_ufs_mq_iosched_enable, %object
	.size	__kstrtab_blk_mq_tagset_ufs_mq_iosched_enable, 36
__kstrtab_blk_mq_tagset_ufs_mq_iosched_enable:
	.string	"blk_mq_tagset_ufs_mq_iosched_enable"
	.section	.rodata
	.align	3
.LANCHOR1 = . + 0
	.type	__func__.38643, %object
	.size	__func__.38643, 15
__func__.38643:
	.string	"blk_mq_put_ctx"
	.zero	1
	.type	__func__.39132, %object
	.size	__func__.39132, 28
__func__.39132:
	.string	"ufs_tagset_init_bitmap_tags"
	.data
	.align	3
.LANCHOR2 = . + 0
	.type	hisi_io_guard_request_queue_list_lock, %object
	.size	hisi_io_guard_request_queue_list_lock, 24
hisi_io_guard_request_queue_list_lock:
	.hword	0
	.hword	0
	.word	-559067475
	.word	-1
	.zero	4
	.xword	-1
	.type	hisi_mq_sync_long_burst_duration_ms, %object
	.size	hisi_mq_sync_long_burst_duration_ms, 4
hisi_mq_sync_long_burst_duration_ms:
	.word	5000
	.zero	4
	.type	hisi_io_guard_request_queue_list, %object
	.size	hisi_io_guard_request_queue_list, 16
hisi_io_guard_request_queue_list:
	.xword	hisi_io_guard_request_queue_list
	.xword	hisi_io_guard_request_queue_list
	.type	hisi_ufs_blk_tagset_ops, %object
	.size	hisi_ufs_blk_tagset_ops, 32
hisi_ufs_blk_tagset_ops:
	.xword	ufs_tagset_init_tags
	.xword	ufs_tagset_free_tags
	.xword	ufs_tagset_all_tag_busy_iter
	.xword	hisi_ufs_blk_queue_ops
	.type	hisi_ufs_blk_queue_ops, %object
	.size	hisi_ufs_blk_queue_ops, 216
hisi_ufs_blk_queue_ops:
	.word	1
	.zero	4
	.xword	ufs_mq_iosched_init
	.xword	ufs_mq_iosched_deinit
	.xword	ufs_mq_req_alloc_prep
	.xword	ufs_mq_req_init
	.xword	ufs_mq_req_complete
	.xword	ufs_mq_req_deinit
	.xword	ufs_mq_req_insert
	.xword	ufs_mq_req_requeue
	.xword	ufs_mq_req_timeout_handler
	.xword	ufs_mq_ctx_put
	.xword	ufs_mq_hctx_get_by_req
	.xword	ufs_mq_hctx_free_in_ctx_map
	.xword	ufs_mq_tag_get
	.xword	ufs_mq_tag_put
	.xword	ufs_mq_tag_update_depth
	.xword	ufs_mq_tag_busy_iter
	.xword	ufs_mq_tag_wakeup_all
	.xword	ufs_mq_tag_sysfs_show
	.xword	ufs_mq_exec_queue
	.xword	ufs_mq_run_hw_queue
	.xword	ufs_mq_run_delay_queue
	.xword	ufs_mq_run_requeue
	.xword	ufs_mq_poll_enable
	.xword	ufs_mq_status_dump
	.xword	ufs_mq_dump_request
	.xword	hisi_ufs_mq
	.type	hisi_ufs_mq, %object
	.size	hisi_ufs_mq, 8
hisi_ufs_mq:
	.xword	hisi_ufs_mq_async_io_fifo_sched
	.type	hisi_ufs_mq_async_io_fifo_sched, %object
	.size	hisi_ufs_mq_async_io_fifo_sched, 56
hisi_ufs_mq_async_io_fifo_sched:
	.word	0
	.zero	4
	.xword	ufs_mq_async_sched_fifo_init
	.xword	ufs_mq_async_sched_fifo_insert
	.xword	ufs_mq_async_sched_fifo_seek
	.xword	ufs_mq_async_sched_fifo_requeue
	.xword	ufs_mq_async_sched_fifo_attempt_merge_bio
	.xword	ufs_mq_async_sched_fifo_is_empty
	.section	___kcrctab+blk_mq_tagset_ufs_mq_iosched_enable,"a",%progbits
	.align	3
	.type	__kcrctab_blk_mq_tagset_ufs_mq_iosched_enable, %object
	.size	__kcrctab_blk_mq_tagset_ufs_mq_iosched_enable, 8
__kcrctab_blk_mq_tagset_ufs_mq_iosched_enable:
	.xword	__crc_blk_mq_tagset_ufs_mq_iosched_enable
	.section	.rodata.str1.8,"aMS",%progbits,1
	.align	3
.LC0:
	.string	"\0013[BLK-IO]<%s> total_tags_used_count = %d total_reserved_tags_used_count = %d total_high_tags_used_count = %d \n"
.LC1:
	.string	"\0013[BLK-IO]<%s> high_prio_sync_io_inflight_count = %d sync_io_inflight_count = %d async_io_inflight_count = %d \n"
.LC2:
	.string	"\0013[BLK-IO]high_prio_sync_dispatch_list: \n"
	.zero	6
.LC3:
	.string	"\0013[BLK-IO]sync_dispatch_list: \n"
.LC4:
	.string	"\0013[BLK-IO]async_fifo_list: \n"
	.zero	3
.LC5:
	.string	"nr_tags=%u, reserved_tags=%u, high_prio_tags=%u, bits_per_word=%u\n"
	.zero	5
.LC6:
	.string	"nr_free=%u, nr_reserved=%u nr_high_prio=%u \n"
	.zero	3
.LC7:
	.string	"active_queues=%u\n"
	.zero	6
.LC8:
	.string	"\0013[BLK-IO]%s: mq_ctx_put_fn failed. err = %d \r\n"
.LC9:
	.string	"&(&sched_ds->sync_dispatch_list_lock)->rlock"
	.zero	3
.LC10:
	.string	"&(&sched_ds->async_dispatch_io_lock)->rlock"
	.zero	4
.LC11:
	.string	"sync_io_dispatch"
	.zero	7
.LC12:
	.string	"async_io_dispatch"
	.zero	6
.LC13:
	.string	"io_guard"
	.zero	7
.LC14:
	.string	"\0013[BLK-IO]blk-mq: alloc tags failed\n"
	.zero	3
.LC15:
	.string	"\0013[BLK-IO]depth = %d, reserved = %d, prio = %d \r\n"
	.zero	6
.LC16:
	.string	"\0013[BLK-IO]%s: error nomem\n"
	.bss
	.align	3
.LANCHOR0 = . + 0
	.type	hisi_blk_mq_sync_dispatch_workqueue, %object
	.size	hisi_blk_mq_sync_dispatch_workqueue, 8
hisi_blk_mq_sync_dispatch_workqueue:
	.zero	8
	.type	hisi_blk_mq_async_dispatch_workqueue, %object
	.size	hisi_blk_mq_async_dispatch_workqueue, 8
hisi_blk_mq_async_dispatch_workqueue:
	.zero	8
	.type	__key.39999, %object
	.size	__key.39999, 0
__key.39999:
	.type	__key.40000, %object
	.size	__key.40000, 0
__key.40000:
	.type	hisi_blk_io_guard_workqueue, %object
	.size	hisi_blk_io_guard_workqueue, 8
hisi_blk_io_guard_workqueue:
	.zero	8
	.type	hisi_io_guard_work, %object
	.size	hisi_io_guard_work, 96
hisi_io_guard_work:
	.zero	96
	.section	___ksymtab+blk_mq_tagset_ufs_mq_iosched_enable,"a",%progbits
	.align	3
	.type	__ksymtab_blk_mq_tagset_ufs_mq_iosched_enable, %object
	.size	__ksymtab_blk_mq_tagset_ufs_mq_iosched_enable, 16
__ksymtab_blk_mq_tagset_ufs_mq_iosched_enable:
	.xword	blk_mq_tagset_ufs_mq_iosched_enable
	.xword	__kstrtab_blk_mq_tagset_ufs_mq_iosched_enable
	.weak	__crc_blk_mq_tagset_ufs_mq_iosched_enable
	.text
.Letext0:
	.file 22 "/mnt/disk/jenkins/ci/workspace/chipset_release_960_xloader/opensource/component_code/vendor/huawei/extra/build/build_script/kirin_kernel_release/kernel/include/uapi/asm-generic/int-ll64.h"
	.file 23 "/mnt/disk/jenkins/ci/workspace/chipset_release_960_xloader/opensource/component_code/vendor/huawei/extra/build/build_script/kirin_kernel_release/kernel/include/asm-generic/int-ll64.h"
	.file 24 "/mnt/disk/jenkins/ci/workspace/chipset_release_960_xloader/opensource/component_code/vendor/huawei/extra/build/build_script/kirin_kernel_release/kernel/include/uapi/asm-generic/posix_types.h"
	.file 25 "/mnt/disk/jenkins/ci/workspace/chipset_release_960_xloader/opensource/component_code/vendor/huawei/extra/build/build_script/kirin_kernel_release/kernel/include/linux/export.h"
	.file 26 "/mnt/disk/jenkins/ci/workspace/chipset_release_960_xloader/opensource/component_code/vendor/huawei/extra/build/build_script/kirin_kernel_release/kernel/include/linux/types.h"
	.file 27 "/mnt/disk/jenkins/ci/workspace/chipset_release_960_xloader/opensource/component_code/vendor/huawei/extra/build/build_script/kirin_kernel_release/kernel/include/linux/restart_block.h"
	.file 28 "/mnt/disk/jenkins/ci/workspace/chipset_release_960_xloader/opensource/component_code/vendor/huawei/extra/build/build_script/kirin_kernel_release/kernel/include/uapi/linux/time.h"
	.file 29 "/mnt/disk/jenkins/ci/workspace/chipset_release_960_xloader/opensource/component_code/vendor/huawei/extra/build/build_script/kirin_kernel_release/kernel/arch/arm64/include/asm/compat.h"
	.file 30 "/mnt/disk/jenkins/ci/workspace/chipset_release_960_xloader/opensource/component_code/vendor/huawei/extra/build/build_script/kirin_kernel_release/kernel/include/uapi/asm-generic/poll.h"
	.file 31 "/mnt/disk/jenkins/ci/workspace/chipset_release_960_xloader/opensource/component_code/vendor/huawei/extra/build/build_script/kirin_kernel_release/kernel/arch/arm64/include/asm/thread_info.h"
	.file 32 "/mnt/disk/jenkins/ci/workspace/chipset_release_960_xloader/opensource/component_code/vendor/huawei/extra/build/build_script/kirin_kernel_release/kernel/arch/arm64/include/uapi/asm/ptrace.h"
	.file 33 "/mnt/disk/jenkins/ci/workspace/chipset_release_960_xloader/opensource/component_code/vendor/huawei/extra/build/build_script/kirin_kernel_release/kernel/arch/arm64/include/asm/spinlock_types.h"
	.file 34 "/mnt/disk/jenkins/ci/workspace/chipset_release_960_xloader/opensource/component_code/vendor/huawei/extra/build/build_script/kirin_kernel_release/kernel/include/linux/spinlock_types.h"
	.file 35 "/mnt/disk/jenkins/ci/workspace/chipset_release_960_xloader/opensource/component_code/vendor/huawei/extra/build/build_script/kirin_kernel_release/kernel/include/linux/rwlock_types.h"
	.file 36 "/mnt/disk/jenkins/ci/workspace/chipset_release_960_xloader/opensource/component_code/vendor/huawei/extra/build/build_script/kirin_kernel_release/kernel/arch/arm64/include/asm/fpsimd.h"
	.file 37 "/mnt/disk/jenkins/ci/workspace/chipset_release_960_xloader/opensource/component_code/vendor/huawei/extra/build/build_script/kirin_kernel_release/kernel/include/linux/jump_label.h"
	.file 38 "/mnt/disk/jenkins/ci/workspace/chipset_release_960_xloader/opensource/component_code/vendor/huawei/extra/build/build_script/kirin_kernel_release/kernel/include/asm-generic/atomic-long.h"
	.file 39 "/mnt/disk/jenkins/ci/workspace/chipset_release_960_xloader/opensource/component_code/vendor/huawei/extra/build/build_script/kirin_kernel_release/kernel/arch/arm64/include/asm/processor.h"
	.file 40 "/mnt/disk/jenkins/ci/workspace/chipset_release_960_xloader/opensource/component_code/vendor/huawei/extra/build/build_script/kirin_kernel_release/kernel/include/linux/wait.h"
	.file 41 "/mnt/disk/jenkins/ci/workspace/chipset_release_960_xloader/opensource/component_code/vendor/huawei/extra/build/build_script/kirin_kernel_release/kernel/include/linux/seqlock.h"
	.file 42 "/mnt/disk/jenkins/ci/workspace/chipset_release_960_xloader/opensource/component_code/vendor/huawei/extra/build/build_script/kirin_kernel_release/kernel/include/linux/nodemask.h"
	.file 43 "/mnt/disk/jenkins/ci/workspace/chipset_release_960_xloader/opensource/component_code/vendor/huawei/extra/build/build_script/kirin_kernel_release/kernel/include/linux/cpumask.h"
	.file 44 "/mnt/disk/jenkins/ci/workspace/chipset_release_960_xloader/opensource/component_code/vendor/huawei/extra/build/build_script/kirin_kernel_release/kernel/include/linux/completion.h"
	.file 45 "/mnt/disk/jenkins/ci/workspace/chipset_release_960_xloader/opensource/component_code/vendor/huawei/extra/build/build_script/kirin_kernel_release/kernel/include/linux/time64.h"
	.file 46 "/mnt/disk/jenkins/ci/workspace/chipset_release_960_xloader/opensource/component_code/vendor/huawei/extra/build/build_script/kirin_kernel_release/kernel/include/linux/rbtree.h"
	.file 47 "/mnt/disk/jenkins/ci/workspace/chipset_release_960_xloader/opensource/component_code/vendor/huawei/extra/build/build_script/kirin_kernel_release/kernel/include/linux/osq_lock.h"
	.file 48 "/mnt/disk/jenkins/ci/workspace/chipset_release_960_xloader/opensource/component_code/vendor/huawei/extra/build/build_script/kirin_kernel_release/kernel/include/linux/rwsem.h"
	.file 49 "/mnt/disk/jenkins/ci/workspace/chipset_release_960_xloader/opensource/component_code/vendor/huawei/extra/build/build_script/kirin_kernel_release/kernel/include/linux/mm_types.h"
	.file 50 "/mnt/disk/jenkins/ci/workspace/chipset_release_960_xloader/opensource/component_code/vendor/huawei/extra/build/build_script/kirin_kernel_release/kernel/include/linux/lockdep.h"
	.file 51 "/mnt/disk/jenkins/ci/workspace/chipset_release_960_xloader/opensource/component_code/vendor/huawei/extra/build/build_script/kirin_kernel_release/kernel/include/linux/uprobes.h"
	.file 52 "/mnt/disk/jenkins/ci/workspace/chipset_release_960_xloader/opensource/component_code/vendor/huawei/extra/build/build_script/kirin_kernel_release/kernel/include/linux/timer.h"
	.file 53 "/mnt/disk/jenkins/ci/workspace/chipset_release_960_xloader/opensource/component_code/vendor/huawei/extra/build/build_script/kirin_kernel_release/kernel/include/linux/uidgid.h"
	.file 54 "/mnt/disk/jenkins/ci/workspace/chipset_release_960_xloader/opensource/component_code/vendor/huawei/extra/build/build_script/kirin_kernel_release/kernel/include/linux/sysctl.h"
	.file 55 "/mnt/disk/jenkins/ci/workspace/chipset_release_960_xloader/opensource/component_code/vendor/huawei/extra/build/build_script/kirin_kernel_release/kernel/include/linux/stddef.h"
	.file 56 "/mnt/disk/jenkins/ci/workspace/chipset_release_960_xloader/opensource/component_code/vendor/huawei/extra/build/build_script/kirin_kernel_release/kernel/arch/arm64/include/asm/pgtable-types.h"
	.file 57 "/mnt/disk/jenkins/ci/workspace/chipset_release_960_xloader/opensource/component_code/vendor/huawei/extra/build/build_script/kirin_kernel_release/kernel/arch/arm64/include/asm/page.h"
	.file 58 "/mnt/disk/jenkins/ci/workspace/chipset_release_960_xloader/opensource/component_code/vendor/huawei/extra/build/build_script/kirin_kernel_release/kernel/include/linux/pfn.h"
	.file 59 "/mnt/disk/jenkins/ci/workspace/chipset_release_960_xloader/opensource/component_code/vendor/huawei/extra/build/build_script/kirin_kernel_release/kernel/include/linux/llist.h"
	.file 60 "/mnt/disk/jenkins/ci/workspace/chipset_release_960_xloader/opensource/component_code/vendor/huawei/extra/build/build_script/kirin_kernel_release/kernel/include/linux/smp.h"
	.file 61 "/mnt/disk/jenkins/ci/workspace/chipset_release_960_xloader/opensource/component_code/vendor/huawei/extra/build/build_script/kirin_kernel_release/kernel/arch/arm64/include/asm/smp.h"
	.file 62 "/mnt/disk/jenkins/ci/workspace/chipset_release_960_xloader/opensource/component_code/vendor/huawei/extra/build/build_script/kirin_kernel_release/kernel/arch/arm64/include/asm/mmu.h"
	.file 63 "/mnt/disk/jenkins/ci/workspace/chipset_release_960_xloader/opensource/component_code/vendor/huawei/extra/build/build_script/kirin_kernel_release/kernel/include/linux/fs.h"
	.file 64 "/mnt/disk/jenkins/ci/workspace/chipset_release_960_xloader/opensource/component_code/vendor/huawei/extra/build/build_script/kirin_kernel_release/kernel/include/linux/rmap.h"
	.file 65 "/mnt/disk/jenkins/ci/workspace/chipset_release_960_xloader/opensource/component_code/vendor/huawei/extra/build/build_script/kirin_kernel_release/kernel/include/linux/mm.h"
	.file 66 "/mnt/disk/jenkins/ci/workspace/chipset_release_960_xloader/opensource/component_code/vendor/huawei/extra/build/build_script/kirin_kernel_release/kernel/include/linux/user_namespace.h"
	.file 67 "/mnt/disk/jenkins/ci/workspace/chipset_release_960_xloader/opensource/component_code/vendor/huawei/extra/build/build_script/kirin_kernel_release/kernel/include/linux/mmzone.h"
	.file 68 "/mnt/disk/jenkins/ci/workspace/chipset_release_960_xloader/opensource/component_code/vendor/huawei/extra/build/build_script/kirin_kernel_release/kernel/include/linux/mutex.h"
	.file 69 "/mnt/disk/jenkins/ci/workspace/chipset_release_960_xloader/opensource/component_code/vendor/huawei/extra/build/build_script/kirin_kernel_release/kernel/include/linux/notifier.h"
	.file 70 "/mnt/disk/jenkins/ci/workspace/chipset_release_960_xloader/opensource/component_code/vendor/huawei/extra/build/build_script/kirin_kernel_release/kernel/include/linux/percpu-refcount.h"
	.file 71 "/mnt/disk/jenkins/ci/workspace/chipset_release_960_xloader/opensource/component_code/vendor/huawei/extra/build/build_script/kirin_kernel_release/kernel/include/linux/shrinker.h"
	.file 72 "/mnt/disk/jenkins/ci/workspace/chipset_release_960_xloader/opensource/component_code/vendor/huawei/extra/build/build_script/kirin_kernel_release/kernel/include/uapi/linux/resource.h"
	.file 73 "/mnt/disk/jenkins/ci/workspace/chipset_release_960_xloader/opensource/component_code/vendor/huawei/extra/build/build_script/kirin_kernel_release/kernel/include/linux/tracepoint-defs.h"
	.file 74 "/mnt/disk/jenkins/ci/workspace/chipset_release_960_xloader/opensource/component_code/vendor/huawei/extra/build/build_script/kirin_kernel_release/kernel/include/linux/vmstat.h"
	.file 75 "/mnt/disk/jenkins/ci/workspace/chipset_release_960_xloader/opensource/component_code/vendor/huawei/extra/build/build_script/kirin_kernel_release/kernel/include/linux/capability.h"
	.file 76 "/mnt/disk/jenkins/ci/workspace/chipset_release_960_xloader/opensource/component_code/vendor/huawei/extra/build/build_script/kirin_kernel_release/kernel/include/linux/plist.h"
	.file 77 "/mnt/disk/jenkins/ci/workspace/chipset_release_960_xloader/opensource/component_code/vendor/huawei/extra/build/build_script/kirin_kernel_release/kernel/include/asm-generic/cputime_jiffies.h"
	.file 78 "/mnt/disk/jenkins/ci/workspace/chipset_release_960_xloader/opensource/component_code/vendor/huawei/extra/build/build_script/kirin_kernel_release/kernel/include/uapi/asm-generic/signal.h"
	.file 79 "/mnt/disk/jenkins/ci/workspace/chipset_release_960_xloader/opensource/component_code/vendor/huawei/extra/build/build_script/kirin_kernel_release/kernel/include/uapi/asm-generic/signal-defs.h"
	.file 80 "/mnt/disk/jenkins/ci/workspace/chipset_release_960_xloader/opensource/component_code/vendor/huawei/extra/build/build_script/kirin_kernel_release/kernel/include/uapi/asm-generic/siginfo.h"
	.file 81 "/mnt/disk/jenkins/ci/workspace/chipset_release_960_xloader/opensource/component_code/vendor/huawei/extra/build/build_script/kirin_kernel_release/kernel/include/linux/signal.h"
	.file 82 "/mnt/disk/jenkins/ci/workspace/chipset_release_960_xloader/opensource/component_code/vendor/huawei/extra/build/build_script/kirin_kernel_release/kernel/include/linux/pid.h"
	.file 83 "/mnt/disk/jenkins/ci/workspace/chipset_release_960_xloader/opensource/component_code/vendor/huawei/extra/build/build_script/kirin_kernel_release/kernel/include/linux/seccomp.h"
	.file 84 "/mnt/disk/jenkins/ci/workspace/chipset_release_960_xloader/opensource/component_code/vendor/huawei/extra/build/build_script/kirin_kernel_release/kernel/include/linux/timerqueue.h"
	.file 85 "/mnt/disk/jenkins/ci/workspace/chipset_release_960_xloader/opensource/component_code/vendor/huawei/extra/build/build_script/kirin_kernel_release/kernel/include/linux/hrtimer.h"
	.file 86 "/mnt/disk/jenkins/ci/workspace/chipset_release_960_xloader/opensource/component_code/vendor/huawei/extra/build/build_script/kirin_kernel_release/kernel/include/linux/task_io_accounting.h"
	.file 87 "/mnt/disk/jenkins/ci/workspace/chipset_release_960_xloader/opensource/component_code/vendor/huawei/extra/build/build_script/kirin_kernel_release/kernel/include/linux/assoc_array.h"
	.file 88 "/mnt/disk/jenkins/ci/workspace/chipset_release_960_xloader/opensource/component_code/vendor/huawei/extra/build/build_script/kirin_kernel_release/kernel/include/linux/key.h"
	.file 89 "/mnt/disk/jenkins/ci/workspace/chipset_release_960_xloader/opensource/component_code/vendor/huawei/extra/build/build_script/kirin_kernel_release/kernel/include/linux/cred.h"
	.file 90 "/mnt/disk/jenkins/ci/workspace/chipset_release_960_xloader/opensource/component_code/vendor/huawei/extra/build/build_script/kirin_kernel_release/kernel/include/linux/idr.h"
	.file 91 "/mnt/disk/jenkins/ci/workspace/chipset_release_960_xloader/opensource/component_code/vendor/huawei/extra/build/build_script/kirin_kernel_release/kernel/include/linux/rcu_sync.h"
	.file 92 "/mnt/disk/jenkins/ci/workspace/chipset_release_960_xloader/opensource/component_code/vendor/huawei/extra/build/build_script/kirin_kernel_release/kernel/include/linux/percpu-rwsem.h"
	.file 93 "/mnt/disk/jenkins/ci/workspace/chipset_release_960_xloader/opensource/component_code/vendor/huawei/extra/build/build_script/kirin_kernel_release/kernel/include/linux/bpf-cgroup.h"
	.file 94 "/mnt/disk/jenkins/ci/workspace/chipset_release_960_xloader/opensource/component_code/vendor/huawei/extra/build/build_script/kirin_kernel_release/kernel/include/linux/cgroup-defs.h"
	.file 95 "/mnt/disk/jenkins/ci/workspace/chipset_release_960_xloader/opensource/component_code/vendor/huawei/extra/build/build_script/kirin_kernel_release/kernel/include/linux/kernfs.h"
	.file 96 "/mnt/disk/jenkins/ci/workspace/chipset_release_960_xloader/opensource/component_code/vendor/huawei/extra/build/build_script/kirin_kernel_release/kernel/include/linux/seq_file.h"
	.file 97 "/mnt/disk/jenkins/ci/workspace/chipset_release_960_xloader/opensource/component_code/vendor/huawei/extra/build/build_script/kirin_kernel_release/kernel/include/uapi/linux/taskstats.h"
	.file 98 "/mnt/disk/jenkins/ci/workspace/chipset_release_960_xloader/opensource/component_code/vendor/huawei/extra/build/build_script/kirin_kernel_release/kernel/include/linux/nsproxy.h"
	.file 99 "/mnt/disk/jenkins/ci/workspace/chipset_release_960_xloader/opensource/component_code/vendor/huawei/extra/build/build_script/kirin_kernel_release/kernel/include/linux/swap.h"
	.file 100 "/mnt/disk/jenkins/ci/workspace/chipset_release_960_xloader/opensource/component_code/vendor/huawei/extra/build/build_script/kirin_kernel_release/kernel/include/linux/backing-dev-defs.h"
	.file 101 "/mnt/disk/jenkins/ci/workspace/chipset_release_960_xloader/opensource/component_code/vendor/huawei/extra/build/build_script/kirin_kernel_release/kernel/include/linux/iocontext.h"
	.file 102 "/mnt/disk/jenkins/ci/workspace/chipset_release_960_xloader/opensource/component_code/vendor/huawei/extra/build/build_script/kirin_kernel_release/kernel/include/linux/compat.h"
	.file 103 "/mnt/disk/jenkins/ci/workspace/chipset_release_960_xloader/opensource/component_code/vendor/huawei/extra/build/build_script/kirin_kernel_release/kernel/include/linux/list_bl.h"
	.file 104 "/mnt/disk/jenkins/ci/workspace/chipset_release_960_xloader/opensource/component_code/vendor/huawei/extra/build/build_script/kirin_kernel_release/kernel/include/linux/lockref.h"
	.file 105 "/mnt/disk/jenkins/ci/workspace/chipset_release_960_xloader/opensource/component_code/vendor/huawei/extra/build/build_script/kirin_kernel_release/kernel/include/linux/dcache.h"
	.file 106 "/mnt/disk/jenkins/ci/workspace/chipset_release_960_xloader/opensource/component_code/vendor/huawei/extra/build/build_script/kirin_kernel_release/kernel/include/linux/path.h"
	.file 107 "/mnt/disk/jenkins/ci/workspace/chipset_release_960_xloader/opensource/component_code/vendor/huawei/extra/build/build_script/kirin_kernel_release/kernel/include/linux/stat.h"
	.file 108 "/mnt/disk/jenkins/ci/workspace/chipset_release_960_xloader/opensource/component_code/vendor/huawei/extra/build/build_script/kirin_kernel_release/kernel/include/linux/list_lru.h"
	.file 109 "/mnt/disk/jenkins/ci/workspace/chipset_release_960_xloader/opensource/component_code/vendor/huawei/extra/build/build_script/kirin_kernel_release/kernel/include/linux/radix-tree.h"
	.file 110 "/mnt/disk/jenkins/ci/workspace/chipset_release_960_xloader/opensource/component_code/vendor/huawei/extra/build/build_script/kirin_kernel_release/kernel/include/uapi/linux/fiemap.h"
	.file 111 "/mnt/disk/jenkins/ci/workspace/chipset_release_960_xloader/opensource/component_code/vendor/huawei/extra/build/build_script/kirin_kernel_release/kernel/include/linux/migrate_mode.h"
	.file 112 "/mnt/disk/jenkins/ci/workspace/chipset_release_960_xloader/opensource/component_code/vendor/huawei/extra/build/build_script/kirin_kernel_release/kernel/include/linux/bvec.h"
	.file 113 "/mnt/disk/jenkins/ci/workspace/chipset_release_960_xloader/opensource/component_code/vendor/huawei/extra/build/build_script/kirin_kernel_release/kernel/include/linux/delayed_call.h"
	.file 114 "/mnt/disk/jenkins/ci/workspace/chipset_release_960_xloader/opensource/component_code/vendor/huawei/extra/build/build_script/kirin_kernel_release/kernel/include/linux/percpu_counter.h"
	.file 115 "/mnt/disk/jenkins/ci/workspace/chipset_release_960_xloader/opensource/component_code/vendor/huawei/extra/build/build_script/kirin_kernel_release/kernel/include/linux/quota.h"
	.file 116 "/mnt/disk/jenkins/ci/workspace/chipset_release_960_xloader/opensource/component_code/vendor/huawei/extra/build/build_script/kirin_kernel_release/kernel/include/linux/projid.h"
	.file 117 "/mnt/disk/jenkins/ci/workspace/chipset_release_960_xloader/opensource/component_code/vendor/huawei/extra/build/build_script/kirin_kernel_release/kernel/include/linux/writeback.h"
	.file 118 "/mnt/disk/jenkins/ci/workspace/chipset_release_960_xloader/opensource/component_code/vendor/huawei/extra/build/build_script/kirin_kernel_release/kernel/include/linux/uio.h"
	.file 119 "/mnt/disk/jenkins/ci/workspace/chipset_release_960_xloader/opensource/component_code/vendor/huawei/extra/build/build_script/kirin_kernel_release/kernel/include/linux/genhd.h"
	.file 120 "/mnt/disk/jenkins/ci/workspace/chipset_release_960_xloader/opensource/component_code/vendor/huawei/extra/build/build_script/kirin_kernel_release/kernel/include/linux/nfs_fs_i.h"
	.file 121 "/mnt/disk/jenkins/ci/workspace/chipset_release_960_xloader/opensource/component_code/vendor/huawei/extra/build/build_script/kirin_kernel_release/kernel/include/linux/poll.h"
	.file 122 "/mnt/disk/jenkins/ci/workspace/chipset_release_960_xloader/opensource/component_code/vendor/huawei/extra/build/build_script/kirin_kernel_release/kernel/include/linux/cgroup.h"
	.file 123 "/mnt/disk/jenkins/ci/workspace/chipset_release_960_xloader/opensource/component_code/vendor/huawei/extra/build/build_script/kirin_kernel_release/kernel/include/linux/ns_common.h"
	.file 124 "/mnt/disk/jenkins/ci/workspace/chipset_release_960_xloader/opensource/component_code/vendor/huawei/extra/build/build_script/kirin_kernel_release/kernel/include/linux/kref.h"
	.file 125 "/mnt/disk/jenkins/ci/workspace/chipset_release_960_xloader/opensource/component_code/vendor/huawei/extra/build/build_script/kirin_kernel_release/kernel/include/linux/flex_proportions.h"
	.file 126 "/mnt/disk/jenkins/ci/workspace/chipset_release_960_xloader/opensource/component_code/vendor/huawei/extra/build/build_script/kirin_kernel_release/kernel/include/linux/device.h"
	.file 127 "/mnt/disk/jenkins/ci/workspace/chipset_release_960_xloader/opensource/component_code/vendor/huawei/extra/build/build_script/kirin_kernel_release/kernel/include/linux/kobject_ns.h"
	.file 128 "/mnt/disk/jenkins/ci/workspace/chipset_release_960_xloader/opensource/component_code/vendor/huawei/extra/build/build_script/kirin_kernel_release/kernel/include/linux/sysfs.h"
	.file 129 "/mnt/disk/jenkins/ci/workspace/chipset_release_960_xloader/opensource/component_code/vendor/huawei/extra/build/build_script/kirin_kernel_release/kernel/include/linux/kobject.h"
	.file 130 "/mnt/disk/jenkins/ci/workspace/chipset_release_960_xloader/opensource/component_code/vendor/huawei/extra/build/build_script/kirin_kernel_release/kernel/include/linux/klist.h"
	.file 131 "/mnt/disk/jenkins/ci/workspace/chipset_release_960_xloader/opensource/component_code/vendor/huawei/extra/build/build_script/kirin_kernel_release/kernel/include/linux/pinctrl/devinfo.h"
	.file 132 "/mnt/disk/jenkins/ci/workspace/chipset_release_960_xloader/opensource/component_code/vendor/huawei/extra/build/build_script/kirin_kernel_release/kernel/include/linux/pm.h"
	.file 133 "/mnt/disk/jenkins/ci/workspace/chipset_release_960_xloader/opensource/component_code/vendor/huawei/extra/build/build_script/kirin_kernel_release/kernel/include/linux/pm_wakeup.h"
	.file 134 "/mnt/disk/jenkins/ci/workspace/chipset_release_960_xloader/opensource/component_code/vendor/huawei/extra/build/build_script/kirin_kernel_release/kernel/arch/arm64/include/asm/device.h"
	.file 135 "/mnt/disk/jenkins/ci/workspace/chipset_release_960_xloader/opensource/component_code/vendor/huawei/extra/build/build_script/kirin_kernel_release/kernel/include/linux/mempool.h"
	.file 136 "/mnt/disk/jenkins/ci/workspace/chipset_release_960_xloader/opensource/component_code/vendor/huawei/extra/build/build_script/kirin_kernel_release/kernel/include/linux/bsg.h"
	.file 137 "/mnt/disk/jenkins/ci/workspace/chipset_release_960_xloader/opensource/component_code/vendor/huawei/extra/build/build_script/kirin_kernel_release/kernel/include/linux/elevator.h"
	.file 138 "/mnt/disk/jenkins/ci/workspace/chipset_release_960_xloader/opensource/component_code/vendor/huawei/extra/build/build_script/kirin_kernel_release/kernel/include/linux/blk-mq.h"
	.file 139 "/mnt/disk/jenkins/ci/workspace/chipset_release_960_xloader/opensource/component_code/vendor/huawei/extra/build/build_script/kirin_kernel_release/kernel/block/hisi-blk.h"
	.file 140 "/mnt/disk/jenkins/ci/workspace/chipset_release_960_xloader/opensource/component_code/vendor/huawei/extra/build/build_script/kirin_kernel_release/kernel/block/blk-mq-tag.h"
	.file 141 "/mnt/disk/jenkins/ci/workspace/chipset_release_960_xloader/opensource/component_code/vendor/huawei/extra/build/build_script/kirin_kernel_release/kernel/include/linux/interrupt.h"
	.file 142 "/mnt/disk/jenkins/ci/workspace/chipset_release_960_xloader/opensource/component_code/vendor/huawei/extra/build/build_script/kirin_kernel_release/kernel/include/uapi/linux/uio.h"
	.file 143 "/mnt/disk/jenkins/ci/workspace/chipset_release_960_xloader/opensource/component_code/vendor/huawei/extra/build/build_script/kirin_kernel_release/kernel/include/asm-generic/bitops/builtin-__fls.h"
	.file 144 "/mnt/disk/jenkins/ci/workspace/chipset_release_960_xloader/opensource/component_code/vendor/huawei/extra/build/build_script/kirin_kernel_release/kernel/include/asm-generic/bitops/fls64.h"
	.file 145 "/mnt/disk/jenkins/ci/workspace/chipset_release_960_xloader/opensource/component_code/vendor/huawei/extra/build/build_script/kirin_kernel_release/kernel/include/linux/thread_info.h"
	.file 146 "/mnt/disk/jenkins/ci/workspace/chipset_release_960_xloader/opensource/component_code/vendor/huawei/extra/build/build_script/kirin_kernel_release/kernel/include/linux/jiffies.h"
	.file 147 "/mnt/disk/jenkins/ci/workspace/chipset_release_960_xloader/opensource/component_code/vendor/huawei/extra/build/build_script/kirin_kernel_release/kernel/include/linux/log2.h"
	.file 148 "/mnt/disk/jenkins/ci/workspace/chipset_release_960_xloader/opensource/component_code/vendor/huawei/extra/build/build_script/kirin_kernel_release/kernel/include/asm-generic/getorder.h"
	.file 149 "/mnt/disk/jenkins/ci/workspace/chipset_release_960_xloader/opensource/component_code/vendor/huawei/extra/build/build_script/kirin_kernel_release/kernel/arch/arm64/include/asm/cmpxchg.h"
	.file 150 "/mnt/disk/jenkins/ci/workspace/chipset_release_960_xloader/opensource/component_code/vendor/huawei/extra/build/build_script/kirin_kernel_release/kernel/arch/arm64/include/asm/cachetype.h"
	.file 151 "/mnt/disk/jenkins/ci/workspace/chipset_release_960_xloader/opensource/component_code/vendor/huawei/extra/build/build_script/kirin_kernel_release/kernel/include/linux/printk.h"
	.file 152 "/mnt/disk/jenkins/ci/workspace/chipset_release_960_xloader/opensource/component_code/vendor/huawei/extra/build/build_script/kirin_kernel_release/kernel/include/linux/kernel.h"
	.file 153 "/mnt/disk/jenkins/ci/workspace/chipset_release_960_xloader/opensource/component_code/vendor/huawei/extra/build/build_script/kirin_kernel_release/kernel/arch/arm64/include/asm/stack_pointer.h"
	.file 154 "/mnt/disk/jenkins/ci/workspace/chipset_release_960_xloader/opensource/component_code/vendor/huawei/extra/build/build_script/kirin_kernel_release/kernel/arch/arm64/include/asm/hwcap.h"
	.file 155 "/mnt/disk/jenkins/ci/workspace/chipset_release_960_xloader/opensource/component_code/vendor/huawei/extra/build/build_script/kirin_kernel_release/kernel/arch/arm64/include/asm/cpufeature.h"
	.file 156 "/mnt/disk/jenkins/ci/workspace/chipset_release_960_xloader/opensource/component_code/vendor/huawei/extra/build/build_script/kirin_kernel_release/kernel/arch/arm64/include/asm/virt.h"
	.file 157 "/mnt/disk/jenkins/ci/workspace/chipset_release_960_xloader/opensource/component_code/vendor/huawei/extra/build/build_script/kirin_kernel_release/kernel/include/linux/highuid.h"
	.file 158 "/mnt/disk/jenkins/ci/workspace/chipset_release_960_xloader/opensource/component_code/vendor/huawei/extra/build/build_script/kirin_kernel_release/kernel/arch/arm64/include/asm/memory.h"
	.file 159 "/mnt/disk/jenkins/ci/workspace/chipset_release_960_xloader/opensource/component_code/vendor/huawei/extra/build/build_script/kirin_kernel_release/kernel/include/asm-generic/percpu.h"
	.file 160 "/mnt/disk/jenkins/ci/workspace/chipset_release_960_xloader/opensource/component_code/vendor/huawei/extra/build/build_script/kirin_kernel_release/kernel/include/linux/debug_locks.h"
	.file 161 "/mnt/disk/jenkins/ci/workspace/chipset_release_960_xloader/opensource/component_code/vendor/huawei/extra/build/build_script/kirin_kernel_release/kernel/include/asm-generic/pgtable.h"
	.file 162 "/mnt/disk/jenkins/ci/workspace/chipset_release_960_xloader/opensource/component_code/vendor/huawei/extra/build/build_script/kirin_kernel_release/kernel/arch/arm64/include/asm/irq.h"
	.file 163 "/mnt/disk/jenkins/ci/workspace/chipset_release_960_xloader/opensource/component_code/vendor/huawei/extra/build/build_script/kirin_kernel_release/kernel/arch/arm64/include/asm/hardirq.h"
	.file 164 "/mnt/disk/jenkins/ci/workspace/chipset_release_960_xloader/opensource/component_code/vendor/huawei/extra/build/build_script/kirin_kernel_release/kernel/include/trace/events/block.h"
	.file 165 "/mnt/disk/jenkins/ci/workspace/chipset_release_960_xloader/opensource/component_code/vendor/huawei/extra/build/build_script/kirin_kernel_release/kernel/include/linux/spinlock_api_smp.h"
	.file 166 "/mnt/disk/jenkins/ci/workspace/chipset_release_960_xloader/opensource/component_code/vendor/huawei/extra/build/build_script/kirin_kernel_release/kernel/include/asm-generic/bitops/find.h"
	.file 167 "/mnt/disk/jenkins/ci/workspace/chipset_release_960_xloader/opensource/component_code/vendor/huawei/extra/build/build_script/kirin_kernel_release/kernel/arch/arm64/include/asm/bitops.h"
	.file 168 "/mnt/disk/jenkins/ci/workspace/chipset_release_960_xloader/opensource/component_code/vendor/huawei/extra/build/build_script/kirin_kernel_release/kernel/include/linux/percpu.h"
	.file 169 "/mnt/disk/jenkins/ci/workspace/chipset_release_960_xloader/opensource/component_code/vendor/huawei/extra/build/build_script/kirin_kernel_release/kernel/include/linux/timekeeping.h"