	.cpu generic+fp+simd
	.file	"mpeg2.c"
	.text
.Ltext0:
	.cfi_sections	.debug_frame
	.align	2
	.type	MP2_SearchStartCode.part.0, %function
MP2_SearchStartCode.part.0:
.LFB2692:
	.file 1 "/mnt/disk/jenkins/ci/workspace/chipset_release_960_xloader/opensource/component_code/vendor/huawei/extra/build/build_script/kirin_kernel_release/kernel/drivers/vcodec/hi_vcodec/vdec/vfmw/vfmw_v4.0/firmware/common/syntax/mpeg2.c"
	.loc 1 1546 0
	.cfi_startproc
.LVL0:
	.loc 1 1557 0
	add	x2, x0, 2
.LVL1:
	.loc 1 1556 0
	add	x4, x0, x1, sxtw
.LVL2:
.L12:
	.loc 1 1557 0 discriminator 1
	cmp	x4, x2
	bls	.L2
.LVL3:
.L15:
	.loc 1 1559 0
	ldrb	w3, [x2]
	.loc 1 1560 0
	cmp	w3, 1
	bls	.L14
.L8:
	.loc 1 1592 0
	add	x2, x2, 3
	.loc 1 1557 0 discriminator 1
	cmp	x4, x2
	bhi	.L15
.L2:
	.loc 1 1598 0
	sub	w0, w1, #3
.LVL4:
	.loc 1 1599 0
	ret
.LVL5:
.L14:
	.loc 1 1565 0
	cbnz	w3, .L5
	.loc 1 1567 0
	ldrb	w3, [x2,-1]
.LVL6:
	.loc 1 1574 0
	add	x5, x2, 2
	add	x6, x2, 4
	.loc 1 1567 0
	cbnz	w3, .L6
	.loc 1 1569 0
	add	x2, x2, 1
	b	.L12
.LVL7:
.L5:
	.loc 1 1585 0
	ldrb	w3, [x2,-2]
.LVL8:
	cbnz	w3, .L8
	.loc 1 1585 0 is_stmt 0 discriminator 1
	ldrb	w3, [x2,-1]
	cbnz	w3, .L8
	.loc 1 1587 0 is_stmt 1
	sub	x2, x2, x0
.LVL9:
	sub	w0, w2, #2
.LVL10:
	.loc 1 1599 0
	ret
.LVL11:
.L6:
	.loc 1 1572 0
	ldrb	w2, [x2,1]
.LVL12:
	.loc 1 1574 0
	cmp	w2, wzr
	csel	x2, x6, x5, ne
.LVL13:
	b	.L12
	.cfi_endproc
.LFE2692:
	.size	MP2_SearchStartCode.part.0, .-MP2_SearchStartCode.part.0
	.align	2
	.global	MP2_VerifyMemPara
	.type	MP2_VerifyMemPara, %function
MP2_VerifyMemPara:
.LFB2639:
	.loc 1 234 0
	.cfi_startproc
	.loc 1 236 0
	mov	w0, 1
	ret
	.cfi_endproc
.LFE2639:
	.size	MP2_VerifyMemPara, .-MP2_VerifyMemPara
	.align	2
	.global	MP2_ArrangeVHBMem
	.type	MP2_ArrangeVHBMem, %function
MP2_ArrangeVHBMem:
.LFB2640:
	.loc 1 248 0
	.cfi_startproc
.LVL14:
	stp	x29, x30, [sp, -96]!
	.cfi_def_cfa_offset 96
	.cfi_offset 29, -96
	.cfi_offset 30, -88
	add	x29, sp, 0
	.cfi_def_cfa_register 29
	stp	x19, x20, [sp,16]
	.cfi_offset 19, -80
	.cfi_offset 20, -72
	mov	x19, x0
	.loc 1 256 0
	add	x0, x0, 65536
.LVL15:
	.loc 1 248 0
	str	x21, [sp,32]
	.cfi_offset 21, -64
	.loc 1 248 0
	adrp	x20, __stack_chk_guard
	.loc 1 256 0
	ldr	x0, [x0,128]
.LVL16:
	.loc 1 248 0
	ldr	x1, [x20,#:lo12:__stack_chk_guard]
.LVL17:
	str	x1, [x29,88]
	.loc 1 258 0
	ldr	w2, [x0,48]
	ldr	w3, [x0,52]
	cmp	w2, 31
	bls	.L19
	.loc 1 258 0 is_stmt 0 discriminator 1
	cmp	w3, 31
	bls	.L19
	.loc 1 264 0 is_stmt 1
	ldr	x0, [x19]
.LVL18:
	ldr	w1, [x0,28]
	cmp	w1, 25
	beq	.L44
	.loc 1 324 0
	stp	xzr, xzr, [x29,64]
	.loc 1 325 0
	str	w2, [x29,68]
	.loc 1 329 0
	cmp	w1, 24
	.loc 1 326 0
	str	w3, [x29,72]
	.loc 1 327 0
	str	w2, [x29,76]
	.loc 1 328 0
	str	w3, [x29,80]
	.loc 1 329 0
	beq	.L45
	mov	w2, 2
	mov	w1, 3
	mov	w0, 5
.L29:
	.loc 1 334 0
	add	x21, x19, 86016
	strb	w0, [x29,66]
	.loc 1 329 0 discriminator 4
	strb	w1, [x29,65]
	.loc 1 334 0
	add	x1, x29, 64
	.loc 1 331 0 discriminator 4
	strb	w2, [x29,67]
	.loc 1 334 0
	ldr	w0, [x21,264]
	bl	FSP_ConfigInstance
.LVL19:
	cbnz	w0, .L35
.L47:
	.loc 1 336 0
	ldr	x2, [x19]
	add	x3, x29, 60
	ldr	w0, [x21,264]
	ldr	w1, [x2,20]
	ldr	w2, [x2,24]
	bl	FSP_PartitionFsMemory
.LVL20:
	.loc 1 338 0
	cmp	w0, wzr
	cset	w0, eq
	b	.L21
.LVL21:
.L19:
	.loc 1 260 0
	adrp	x1, .LC1
	mov	w0, 0
.LVL22:
	add	x1, x1, :lo12:.LC1
	bl	dprint_linux_kernel
.LVL23:
	.loc 1 261 0
	mov	w0, 0
.L21:
	.loc 1 352 0
	ldr	x2, [x29,88]
	ldr	x1, [x20,#:lo12:__stack_chk_guard]
	cmp	x2, x1
	bne	.L46
	ldp	x19, x20, [sp,16]
	.cfi_remember_state
	.cfi_restore 20
	.cfi_restore 19
.LVL24:
	ldr	x21, [sp,32]
	.cfi_restore 21
	ldp	x29, x30, [sp], 96
	.cfi_restore 30
	.cfi_restore 29
	.cfi_def_cfa 31, 0
	ret
.LVL25:
.L45:
	.cfi_restore_state
	.loc 1 334 0
	add	x21, x19, 86016
	.loc 1 330 0
	mov	w0, 5
	strb	w0, [x29,66]
	.loc 1 331 0 discriminator 2
	mov	w2, 1
	.loc 1 334 0
	add	x1, x29, 64
	.loc 1 331 0 discriminator 4
	strb	w2, [x29,67]
	.loc 1 334 0
	ldr	w0, [x21,264]
	bl	FSP_ConfigInstance
.LVL26:
	cbz	w0, .L47
.L35:
	.loc 1 346 0
	adrp	x1, .LC3
	mov	w0, 0
	add	x1, x1, :lo12:.LC3
	bl	dprint_linux_kernel
.LVL27:
	.loc 1 348 0
	mov	w0, 0
	b	.L21
.L44:
	.loc 1 264 0 discriminator 1
	ldr	w1, [x0,772]
	.loc 1 266 0
	ldr	w4, [x0,732]
	ldr	w5, [x0,736]
	cmp	w2, w4
	.loc 1 264 0 discriminator 1
	cbnz	w1, .L23
	.loc 1 266 0
	bhi	.L32
	.loc 1 266 0 is_stmt 0 discriminator 1
	cmp	w3, w5
	bhi	.L32
	.loc 1 279 0 is_stmt 1
	ldr	w3, [x0,760]
	mov	w2, 1
	.loc 1 278 0
	ldr	w1, [x0,756]
	add	w1, w1, w2
.LVL28:
	.loc 1 279 0
	cbz	w3, .L34
.L43:
	.loc 1 319 0
	cmp	w1, 17
	mov	w2, 17
	csel	w2, w1, w2, le
	sxtb	w2, w2
.L34:
	.loc 1 321 0
	ldr	w0, [x0,780]
	sxtb	w1, w1
.LVL29:
	.loc 1 324 0
	stp	xzr, xzr, [x29,64]
	.loc 1 325 0
	str	w4, [x29,68]
.LVL30:
	sxtb	w0, w0
	.loc 1 326 0
	str	w5, [x29,72]
	.loc 1 327 0
	str	w4, [x29,76]
	.loc 1 328 0
	str	w5, [x29,80]
	b	.L29
.L32:
	.loc 1 302 0
	adrp	x1, .LC2
	mov	w0, 0
	add	x1, x1, :lo12:.LC2
	bl	dprint_linux_kernel
.LVL31:
	.loc 1 305 0
	mov	w0, 0
	b	.L21
.L23:
	.loc 1 300 0
	bhi	.L32
	.loc 1 300 0 is_stmt 0 discriminator 1
	cmp	w3, w5
	bhi	.L32
	.loc 1 312 0 is_stmt 1
	ldr	w6, [x0,760]
	.loc 1 308 0
	mov	w4, w2
	.loc 1 311 0
	ldr	w1, [x0,756]
	mov	w2, 1
	.loc 1 309 0
	mov	w5, w3
	.loc 1 311 0
	add	w1, w1, w2
.LVL32:
	.loc 1 312 0
	cbz	w6, .L34
	b	.L43
.LVL33:
.L46:
	.loc 1 352 0
	bl	__stack_chk_fail
.LVL34:
	.cfi_endproc
.LFE2640:
	.size	MP2_ArrangeVHBMem, .-MP2_ArrangeVHBMem
	.align	2
	.global	MP2_DecodingDecide
	.type	MP2_DecodingDecide, %function
MP2_DecodingDecide:
.LFB2643:
	.loc 1 694 0
	.cfi_startproc
.LVL35:
	stp	x29, x30, [sp, -128]!
	.cfi_def_cfa_offset 128
	.cfi_offset 29, -128
	.cfi_offset 30, -120
	.loc 1 703 0
	add	x2, x0, 65536
	.loc 1 694 0
	add	x29, sp, 0
	.cfi_def_cfa_register 29
	stp	x19, x20, [sp,16]
	.cfi_offset 19, -112
	.cfi_offset 20, -104
	.loc 1 706 0
	add	x20, x0, 45056
	.loc 1 694 0
	str	x27, [sp,80]
	.loc 1 706 0
	add	x1, x20, 256
	add	x1, x1, 16384
	.loc 1 694 0
	stp	x21, x22, [sp,32]
	stp	x23, x24, [sp,48]
	stp	x25, x26, [sp,64]
	.cfi_offset 27, -48
	.cfi_offset 21, -96
	.cfi_offset 22, -88
	.cfi_offset 23, -80
	.cfi_offset 24, -72
	.cfi_offset 25, -64
	.cfi_offset 26, -56
	.loc 1 708 0
	mov	w21, -1
	.loc 1 706 0
	ldr	w3, [x1,2636]
	.loc 1 703 0
	ldr	x22, [x2,128]
.LVL36:
	.loc 1 706 0
	tbnz	x3, 23, .L122
.LVL37:
.L49:
	.loc 1 924 0
	mov	w0, w21
.LVL38:
	ldr	x27, [sp,80]
	.cfi_remember_state
	.cfi_restore 27
.LVL39:
	ldp	x19, x20, [sp,16]
	.cfi_restore 20
	.cfi_restore 19
.LVL40:
	ldp	x21, x22, [sp,32]
	.cfi_restore 22
	.cfi_restore 21
.LVL41:
	ldp	x23, x24, [sp,48]
	.cfi_restore 24
	.cfi_restore 23
	ldp	x25, x26, [sp,64]
	.cfi_restore 26
	.cfi_restore 25
.LVL42:
	ldp	x29, x30, [sp], 128
	.cfi_restore 30
	.cfi_restore 29
	.cfi_def_cfa 31, 0
	ret
.LVL43:
.L122:
	.cfi_restore_state
	.loc 1 713 0
	ldrb	w2, [x22,9]
	cmp	w2, 3
	beq	.L50
	.loc 1 713 0 is_stmt 0 discriminator 1
	ldr	w1, [x1,2648]
	cmp	w1, 1
	beq	.L50
	.loc 1 718 0 is_stmt 1
	ands	w21, w3, 255
	mov	x19, x0
	bne	.L123
.L52:
	.loc 1 725 0
	add	x0, x20, 256
	add	x0, x0, 16384
	ldr	w1, [x0,2704]
	cbz	w1, .L124
	.loc 1 732 0
	ldr	w0, [x0,2624]
	sub	w0, w0, #2
	cmp	w0, 1
	.loc 1 733 0
	ldr	x0, [x19]
	.loc 1 732 0
	bls	.L55
	ldr	w2, [x0,12]
	add	x25, x19, 86016
.LVL44:
.L56:
	.loc 1 742 0
	add	x0, x20, 256
	.loc 1 743 0
	sub	w1, w2, #1
	.loc 1 742 0
	add	x0, x0, 16384
	.loc 1 743 0
	cmp	w1, 3
	.loc 1 742 0
	str	w2, [x0,2624]
	.loc 1 743 0
	bls	.L125
	ldrb	w3, [x22,22]
	.loc 1 695 0
	mov	w26, 1
.LVL45:
	ldrb	w4, [x22,9]
.L65:
	.loc 1 807 0
	add	x23, x20, 256
	.loc 1 702 0
	add	x24, x19, 61440
.LVL46:
	.loc 1 807 0
	add	x23, x23, 16384
	add	x0, x24, 3152
	str	x4, [x29,104]
	str	x3, [x29,112]
	ldr	w1, [x23,2568]
	ldr	w2, [x23,2644]
	ldr	w27, [x23,2708]
	str	x2, [x29,120]
	add	w27, w27, w1
	bl	BsPos
.LVL47:
	.loc 1 807 0 is_stmt 0 discriminator 1
	adrp	x1, .LC7
	ldr	x2, [x29,120]
	ldr	x3, [x29,112]
	.loc 1 807 0
	add	w5, w27, w0, lsr 3
	.loc 1 807 0 discriminator 1
	ldr	x4, [x29,104]
	add	x1, x1, :lo12:.LC7
	mov	w0, 18
	bl	dprint_linux_kernel
.LVL48:
	.loc 1 812 0 is_stmt 1
	ldr	w1, [x23,2636]
	mov	w0, -14155777
	and	w0, w1, w0
	str	w0, [x23,2636]
	.loc 1 815 0
	ldr	x0, [x19]
	ldr	w0, [x0,692]
	cmp	w0, 1
	beq	.L126
	.loc 1 833 0
	ldr	w0, [x23,2696]
	cbz	w0, .L127
	.loc 1 841 0
	cmp	w0, 1
	bls	.L128
.L76:
	.loc 1 849 0
	add	x23, x20, 256
	ldr	w0, [x25,264]
	add	x23, x23, 16384
	ldr	w1, [x23,2732]
	bl	FSP_GetFsImagePtr
.LVL49:
	mov	x27, x0
.LVL50:
	.loc 1 850 0
	ldr	w1, [x23,2736]
	ldr	w0, [x25,264]
	bl	FSP_GetFsImagePtr
.LVL51:
	.loc 1 852 0
	cbz	x0, .L94
	cbz	x27, .L94
	.loc 1 858 0
	ldrb	w1, [x22,22]
	cmp	w1, 2
	beq	.L129
	.loc 1 874 0
	cmp	w1, 3
	beq	.L130
.L82:
	.loc 1 889 0
	cbnz	w26, .L92
	.loc 1 892 0
	ldrb	w0, [x22,9]
.LVL52:
	cmp	w0, 3
	beq	.L84
	.loc 1 892 0 is_stmt 0 discriminator 1
	add	x0, x20, 256
	add	x0, x0, 16384
	ldr	w0, [x0,2648]
	cbnz	w0, .L49
.L84:
	.loc 1 895 0 is_stmt 1
	ldrb	w0, [x22,27]
	cmp	w0, 1
	beq	.L131
	.loc 1 901 0
	ldrb	w0, [x22,18]
	cmp	w0, 1
	beq	.L132
	.loc 1 910 0
	add	x1, x20, 256
	add	x1, x1, 16384
	ldr	w0, [x1,2812]
	add	w0, w0, 1
	str	w0, [x1,2812]
	.loc 1 911 0
	lsl	w0, w0, 1
	str	w0, [x1,2808]
.L86:
	.loc 1 913 0
	ldr	w0, [x24,3060]
	.loc 1 915 0
	add	x20, x20, 256
	add	x20, x20, 16384
	.loc 1 913 0
	add	w0, w0, 1
	str	w0, [x24,3060]
	.loc 1 915 0
	ldr	w0, [x20,2644]
	add	w0, w0, 1
	str	w0, [x20,2644]
	b	.L49
.LVL53:
.L123:
	.loc 1 720 0
	adrp	x0, g_event_report
	ldr	x4, [x0,#:lo12:g_event_report]
	cbz	x4, .L53
	.loc 1 720 0 is_stmt 0 discriminator 1
	add	x19, x19, 86016
.LVL54:
	mov	w3, 0
	mov	w1, 103
	mov	x2, 0
	ldr	w0, [x19,264]
	blr	x4
.LVL55:
	add	x0, x20, 256
	add	x0, x0, 16384
	ldr	w3, [x0,2636]
.LVL56:
.L53:
	.loc 1 721 0 is_stmt 1
	add	x20, x20, 256
	adrp	x1, .LC4
	add	x20, x20, 16384
	add	x1, x1, :lo12:.LC4
	mov	w0, 22
	.loc 1 723 0
	mov	w21, 0
	.loc 1 721 0
	ldr	w2, [x20,2644]
	bl	dprint_linux_kernel
.LVL57:
	.loc 1 924 0
	ldr	x27, [sp,80]
	.cfi_remember_state
	.cfi_restore 27
	mov	w0, w21
	ldp	x19, x20, [sp,16]
	.cfi_restore 19
	.cfi_restore 20
.LVL58:
	ldp	x21, x22, [sp,32]
	.cfi_restore 21
	.cfi_restore 22
.LVL59:
	ldp	x23, x24, [sp,48]
	.cfi_restore 23
	.cfi_restore 24
	ldp	x25, x26, [sp,64]
	.cfi_restore 25
	.cfi_restore 26
	ldp	x29, x30, [sp], 128
	.cfi_restore 29
	.cfi_restore 30
	.cfi_def_cfa 31, 0
	ret
.LVL60:
.L50:
	.cfi_restore_state
	.loc 1 715 0
	add	x25, x0, 86016
	.loc 1 718 0
	ands	w21, w3, 255
	mov	x19, x0
	.loc 1 715 0
	ldr	w1, [x25,268]
	add	w1, w1, 1
	str	w1, [x25,268]
	.loc 1 718 0
	beq	.L52
	b	.L123
.LVL61:
.L125:
	.loc 1 743 0
	adrp	x0, .L61
	add	x0, x0, :lo12:.L61
	ldrb	w0, [x0,w1,uxtw]
	adr	x1, .Lrtx61
	add	x0, x1, w0, sxtb #2
	br	x0
.Lrtx61:
	.section	.rodata
	.align	0
	.align	2
.L61:
	.byte	(.L60 - .Lrtx61) / 4
	.byte	(.L62 - .Lrtx61) / 4
	.byte	(.L63 - .Lrtx61) / 4
	.byte	(.L64 - .Lrtx61) / 4
	.text
.LVL62:
.L127:
	.loc 1 834 0
	ldrb	w0, [x22,22]
	sub	w0, w0, #2
	.loc 1 833 0 discriminator 1
	uxtb	w0, w0
	cmp	w0, 1
	bhi	.L76
	.loc 1 838 0
	adrp	x1, .LC10
	mov	w0, 1
	add	x1, x1, :lo12:.LC10
	.loc 1 839 0
	mov	w26, 0
	.loc 1 838 0
	bl	dprint_linux_kernel
.LVL63:
	.loc 1 839 0
	b	.L76
.LVL64:
.L130:
	.loc 1 876 0 discriminator 1
	ldr	x1, [x19]
	ldr	w2, [x27,84]
	ldr	w3, [x1,4]
	cmp	w2, w3
	bhi	.L133
	.loc 1 882 0 discriminator 1
	ldr	w2, [x0,84]
	cmp	w3, w2
	bcs	.L82
	.loc 1 884 0
	adrp	x1, .LC15
	mov	w0, 1
.LVL65:
	add	x1, x1, :lo12:.LC15
	bl	dprint_linux_kernel
.LVL66:
	.loc 1 885 0
	b	.L49
.LVL67:
.L63:
	ldrb	w3, [x22,22]
	.loc 1 746 0
	mov	w26, 0
.LVL68:
	ldrb	w4, [x22,9]
	.loc 1 747 0
	b	.L65
.LVL69:
.L60:
	.loc 1 749 0
	ldrb	w3, [x22,22]
	cmp	w3, 3
	beq	.L134
.L119:
	ldrb	w4, [x22,9]
	.loc 1 695 0
	mov	w26, 1
.LVL70:
	b	.L65
.LVL71:
.L64:
	.loc 1 783 0
	ldrb	w0, [x22,22]
	cmp	w0, 1
	mov	w3, w0
	beq	.L135
	.loc 1 788 0
	cmp	w0, 3
	beq	.L136
.L70:
	.loc 1 798 0
	cmp	w0, 2
	beq	.L74
	mov	w3, w0
	b	.L119
.L62:
	.loc 1 762 0
	ldrb	w3, [x22,22]
	sub	w0, w3, #2
	uxtb	w0, w0
	cmp	w0, 1
	bhi	.L119
	.loc 1 765 0
	cmp	w3, 2
	beq	.L137
.L68:
	.loc 1 774 0
	ldrb	w4, [x22,9]
	cmp	w4, 3
	beq	.L138
.L71:
	.loc 1 794 0
	add	x0, x20, 256
	.loc 1 796 0
	mov	w26, 0
.LVL72:
	.loc 1 794 0
	add	x0, x0, 16384
	ldr	w1, [x0,2648]
	cmp	w1, wzr
	cset	w1, eq
	str	w1, [x0,2648]
	ldrb	w3, [x22,22]
	ldrb	w4, [x22,9]
	b	.L65
.LVL73:
.L126:
	.loc 1 817 0
	ldr	w1, [x23,2696]
	cbnz	w1, .L76
	.loc 1 818 0
	ldrb	w1, [x22,22]
	.loc 1 817 0 discriminator 1
	cmp	w1, 3
	beq	.L139
	.loc 1 824 0 discriminator 1
	cmp	w1, 2
	bne	.L76
	.loc 1 828 0
	adrp	x1, .LC9
	add	x1, x1, :lo12:.LC9
	bl	dprint_linux_kernel
.LVL74:
	b	.L76
.LVL75:
.L55:
	.loc 1 733 0
	ldr	w2, [x0,12]
	.loc 1 732 0 discriminator 1
	cmp	w2, 1
	bls	.L93
	cmp	w2, 4
	add	x25, x19, 86016
	bne	.L56
.L93:
	.loc 1 737 0
	adrp	x1, .LC6
	.loc 1 738 0
	add	x23, x20, 256
	add	x23, x23, 16384
	.loc 1 737 0
	add	x1, x1, :lo12:.LC6
	mov	w0, 2
.LBB29:
	.loc 1 739 0
	add	x25, x19, 86016
.LBE29:
	.loc 1 737 0
	bl	dprint_linux_kernel
.LVL76:
	.loc 1 738 0
	ldr	w0, [x23,2636]
.LBB30:
	.loc 1 739 0
	ldr	w1, [x23,2736]
.LBE30:
	.loc 1 738 0
	orr	w0, w0, 128
	str	w0, [x23,2636]
.LBB31:
	.loc 1 739 0
	ldr	w0, [x25,264]
	bl	FSP_GetFsImagePtr
.LVL77:
	mov	x24, x0
.LVL78:
	cbz	x0, .L58
	.loc 1 739 0 is_stmt 0 discriminator 2
	ldr	w0, [x25,264]
	ldr	x1, [x24,248]
	bl	FreeUsdByDec
.LVL79:
	.loc 1 739 0 discriminator 3
	ldr	w0, [x25,264]
	ldr	x1, [x24,256]
	bl	FreeUsdByDec
.LVL80:
	.loc 1 739 0 discriminator 4
	ldr	w0, [x25,264]
	ldr	x1, [x24,264]
	bl	FreeUsdByDec
.LVL81:
	.loc 1 739 0 discriminator 5
	ldr	w0, [x25,264]
	ldr	x1, [x24,272]
	bl	FreeUsdByDec
.LVL82:
	.loc 1 739 0 discriminator 1
	str	xzr, [x24,248]
	str	xzr, [x24,256]
	.loc 1 739 0 discriminator 6
	mov	w2, 1
	.loc 1 739 0 discriminator 1
	str	xzr, [x24,264]
	str	xzr, [x24,272]
	.loc 1 739 0 discriminator 6
	ldr	w0, [x25,264]
	ldr	w1, [x23,2736]
	bl	FSP_ClearLogicFs
.LVL83:
	.loc 1 739 0 discriminator 7
	ldr	w0, [x25,264]
	mov	w2, 1
	ldr	w1, [x23,2732]
	bl	FSP_ClearLogicFs
.LVL84:
	.loc 1 739 0 discriminator 1
	str	wzr, [x23,2732]
	str	wzr, [x23,2736]
.L58:
.LBE31:
	.loc 1 740 0 is_stmt 1
	add	x0, x20, 256
	add	x0, x0, 16384
	str	wzr, [x0,2696]
	ldr	x0, [x19]
	ldr	w2, [x0,12]
	b	.L56
.LVL85:
.L124:
	.loc 1 727 0
	ldr	w2, [x0,2644]
	adrp	x1, .LC5
	add	x1, x1, :lo12:.LC5
	mov	w0, 1
	bl	dprint_linux_kernel
.LVL86:
	.loc 1 728 0
	b	.L49
.LVL87:
.L92:
	.loc 1 922 0
	mov	w21, 1
	b	.L49
.L94:
	.loc 1 854 0
	adrp	x1, .LC12
	adrp	x2, .LANCHOR0
	add	x1, x1, :lo12:.LC12
	add	x2, x2, :lo12:.LANCHOR0
	mov	w3, 854
	mov	w0, 1
.LVL88:
	bl	dprint_linux_kernel
.LVL89:
	.loc 1 855 0
	b	.L49
.LVL90:
.L129:
	.loc 1 860 0 discriminator 1
	ldr	x0, [x19]
.LVL91:
	ldr	w2, [x27,84]
	ldr	w3, [x0,4]
	cmp	w2, w3
	bls	.L82
	.loc 1 869 0
	adrp	x1, .LC13
	mov	w0, 1
	add	x1, x1, :lo12:.LC13
	bl	dprint_linux_kernel
.LVL92:
	.loc 1 870 0
	b	.L49
.L131:
	.loc 1 897 0
	add	x0, x20, 256
	.loc 1 898 0
	ldrb	w3, [x22,16]
	.loc 1 897 0
	add	x0, x0, 16384
	.loc 1 898 0
	ldrb	w1, [x22,10]
	add	w1, w3, w1
	.loc 1 897 0
	ldr	w2, [x0,2812]
	.loc 1 898 0
	add	w1, w1, 1
	.loc 1 897 0
	add	w1, w1, w2
	str	w1, [x0,2812]
	.loc 1 899 0
	lsl	w1, w1, 1
	str	w1, [x0,2808]
	b	.L86
.LVL93:
.L133:
	.loc 1 878 0
	adrp	x1, .LC14
	mov	w0, 1
.LVL94:
	add	x1, x1, :lo12:.LC14
	bl	dprint_linux_kernel
.LVL95:
	.loc 1 879 0
	b	.L49
.LVL96:
.L136:
	.loc 1 788 0 discriminator 1
	ldr	w0, [x25,276]
	cbnz	w0, .L119
.L73:
	.loc 1 792 0
	ldrb	w4, [x22,9]
	cmp	w4, 3
	bne	.L71
	mov	w3, w4
	.loc 1 796 0
	mov	w26, 0
.LVL97:
	b	.L65
.LVL98:
.L135:
	.loc 1 785 0
	str	wzr, [x25,276]
	.loc 1 788 0
	ldrb	w0, [x22,22]
	cmp	w0, 3
	bne	.L70
	b	.L73
.L134:
	.loc 1 753 0
	ldrb	w3, [x22,9]
	cmp	w3, 3
	bne	.L71
	mov	w4, w3
	.loc 1 758 0
	mov	w26, 0
.LVL99:
	b	.L65
.LVL100:
.L132:
	.loc 1 904 0
	add	x0, x20, 256
	add	x0, x0, 16384
	ldr	w1, [x0,2812]
	.loc 1 905 0
	ldr	w2, [x0,2808]
	.loc 1 904 0
	add	w1, w1, 1
	str	w1, [x0,2812]
	.loc 1 906 0
	ldrb	w1, [x22,16]
	add	w1, w1, 2
	.loc 1 905 0
	add	w1, w2, w1
	str	w1, [x0,2808]
	b	.L86
.LVL101:
.L74:
	.loc 1 800 0
	mov	w26, 1
	str	w26, [x25,276]
	ldrb	w3, [x22,22]
	ldrb	w4, [x22,9]
	b	.L65
.LVL102:
.L139:
	.loc 1 821 0
	adrp	x1, .LC8
	.loc 1 822 0
	mov	w26, 0
	.loc 1 821 0
	add	x1, x1, :lo12:.LC8
	bl	dprint_linux_kernel
.LVL103:
	.loc 1 822 0
	b	.L76
.LVL104:
.L137:
	.loc 1 765 0 discriminator 1
	ldrb	w0, [x20,257]
	cmp	w0, 3
	beq	.L68
	.loc 1 765 0 is_stmt 0 discriminator 2
	ldrb	w26, [x20,256]
	cmp	w26, 1
	bne	.L68
	ldrb	w4, [x22,9]
	b	.L65
.L138:
	.loc 1 778 0 is_stmt 1
	mov	w26, 0
.LVL105:
	b	.L65
.LVL106:
.L128:
	.loc 1 841 0 discriminator 1
	ldrb	w0, [x22,22]
	cmp	w0, 3
	bne	.L76
	.loc 1 844 0
	adrp	x1, .LC11
	mov	w0, 1
	add	x1, x1, :lo12:.LC11
	.loc 1 845 0
	mov	w26, 0
	.loc 1 844 0
	bl	dprint_linux_kernel
.LVL107:
	b	.L76
	.cfi_endproc
.LFE2643:
	.size	MP2_DecodingDecide, .-MP2_DecodingDecide
	.align	2
	.global	MP2_EstimatePicQp
	.type	MP2_EstimatePicQp, %function
MP2_EstimatePicQp:
.LFB2644:
	.loc 1 935 0
	.cfi_startproc
.LVL108:
	stp	x29, x30, [sp, -176]!
	.cfi_def_cfa_offset 176
	.cfi_offset 29, -176
	.cfi_offset 30, -168
	.loc 1 944 0
	adrp	x1, .LANCHOR0
	mov	x2, 128
	.loc 1 935 0
	add	x29, sp, 0
	.cfi_def_cfa_register 29
	stp	x19, x20, [sp,16]
	.cfi_offset 19, -160
	.cfi_offset 20, -152
	.loc 1 935 0
	adrp	x20, __stack_chk_guard
	.loc 1 944 0
	add	x1, x1, :lo12:.LANCHOR0
	.loc 1 935 0
	mov	x19, x0
	.loc 1 944 0
	add	x1, x1, 24
	add	x0, x29, 40
.LVL109:
	.loc 1 935 0
	ldr	x3, [x20,#:lo12:__stack_chk_guard]
	str	x3, [x29,168]
	.loc 1 944 0
	bl	memcpy
.LVL110:
	.loc 1 974 0
	add	x1, x19, 61440
	.loc 1 972 0
	ldr	w0, [x19,288]
	.loc 1 974 0
	ldr	w1, [x1,2948]
	cmp	w1, 1
	beq	.L141
	.loc 1 974 0 is_stmt 0 discriminator 1
	add	x19, x19, 65536
.LVL111:
	ldr	x1, [x19,128]
	ldrb	w1, [x1,13]
	cbz	w1, .L142
	.loc 1 974 0 discriminator 3
	add	x1, x29, 40
.LVL112:
	ldr	w0, [x1,w0,sxtw 2]
.LVL113:
.L141:
	.loc 1 976 0 is_stmt 1
	ldr	x2, [x29,168]
	ldr	x1, [x20,#:lo12:__stack_chk_guard]
	cmp	x2, x1
	bne	.L147
	ldp	x19, x20, [sp,16]
	.cfi_remember_state
	.cfi_restore 20
	.cfi_restore 19
.LVL114:
.LVL115:
	ldp	x29, x30, [sp], 176
	.cfi_restore 30
	.cfi_restore 29
	.cfi_def_cfa 31, 0
	ret
.L142:
	.cfi_restore_state
.LVL116:
	.loc 1 974 0 discriminator 4
	lsl	w0, w0, 1
	b	.L141
.LVL117:
.L147:
	.loc 1 976 0
	bl	__stack_chk_fail
.LVL118:
	.cfi_endproc
.LFE2644:
	.size	MP2_EstimatePicQp, .-MP2_EstimatePicQp
	.align	2
	.global	MP2_GetSequenceInfo
	.type	MP2_GetSequenceInfo, %function
MP2_GetSequenceInfo:
.LFB2646:
	.loc 1 1199 0
	.cfi_startproc
.LVL119:
	stp	x29, x30, [sp, -128]!
	.cfi_def_cfa_offset 128
	.cfi_offset 29, -128
	.cfi_offset 30, -120
	add	x29, sp, 0
	.cfi_def_cfa_register 29
	stp	x19, x20, [sp,16]
	.cfi_offset 19, -112
	.cfi_offset 20, -104
	.loc 1 1212 0
	add	x19, x0, 45056
	.loc 1 1199 0
	str	x27, [sp,80]
	stp	x23, x24, [sp,48]
	stp	x25, x26, [sp,64]
	.cfi_offset 27, -48
	.cfi_offset 23, -80
	.cfi_offset 24, -72
	.cfi_offset 25, -64
	.cfi_offset 26, -56
	.loc 1 1209 0
	add	x23, x0, 65536
	.loc 1 1199 0
	mov	x25, x0
	.loc 1 1212 0
	add	x0, x19, 256
.LVL120:
	.loc 1 1199 0
	adrp	x24, __stack_chk_guard
	.loc 1 1212 0
	add	x0, x0, 16384
	.loc 1 1201 0
	str	wzr, [x29,100]
.LVL121:
	.loc 1 1199 0
	stp	x21, x22, [sp,32]
	.cfi_offset 21, -96
	.cfi_offset 22, -88
	.loc 1 1199 0
	ldr	x1, [x24,#:lo12:__stack_chk_guard]
	.loc 1 1212 0
	ldr	w2, [x0,2692]
	.loc 1 1199 0
	str	x1, [x29,120]
	.loc 1 1202 0
	str	wzr, [x29,104]
.LVL122:
	.loc 1 1212 0
	cmp	w2, 1
	.loc 1 1203 0
	str	wzr, [x29,108]
.LVL123:
	.loc 1 1209 0
	ldr	x20, [x23,128]
.LVL124:
	.loc 1 1210 0
	ldr	x26, [x23,136]
.LVL125:
	.loc 1 1212 0
	beq	.L150
	cmp	w2, 2
	bne	.L193
	.loc 1 1227 0
	ldr	w1, [x0,2636]
	mov	w0, 1769472
	and	w0, w1, w0
	.loc 1 1225 0
	cmp	w0, 589824
	beq	.L153
.L152:
	.loc 1 1258 0
	adrp	x1, .LC16
	mov	w0, 17
	add	x1, x1, :lo12:.LC16
	bl	dprint_linux_kernel
.LVL126:
	.loc 1 1261 0
	add	x0, x19, 256
	add	x0, x0, 16384
	ldr	w0, [x0,2692]
	cmp	w0, 1
	beq	.L194
.L155:
	.loc 1 1276 0
	ldr	w0, [x20,48]
	.loc 1 1277 0
	add	x1, x19, 256
	add	x1, x1, 16384
	.loc 1 1276 0
	add	w0, w0, 15
	lsr	w0, w0, 4
	str	w0, [x20,56]
	.loc 1 1278 0
	ldr	w1, [x1,2692]
	cmp	w1, 2
	beq	.L195
.L156:
	.loc 1 1278 0 is_stmt 0 discriminator 1
	ldr	w3, [x20,52]
	add	w2, w3, 15
	lsr	w2, w2, 4
.L157:
	.loc 1 1283 0 is_stmt 1
	add	x1, x19, 256
	.loc 1 1277 0
	str	w2, [x20,60]
	.loc 1 1283 0
	add	x1, x1, 16384
	.loc 1 1281 0
	str	wzr, [x20,64]
	.loc 1 1283 0
	ldr	w1, [x1,2692]
	cmp	w1, 2
	beq	.L196
.L158:
	.loc 1 1289 0
	add	x1, x19, 256
	add	x1, x1, 16384
	ldr	w1, [x1,2704]
	cbz	w1, .L159
	.loc 1 1289 0 is_stmt 0 discriminator 1
	ldr	w3, [x26,56]
	cmp	w0, w3
	beq	.L197
.L159:
.LBB32:
	.loc 1 1293 0 is_stmt 1
	add	x22, x19, 256
	add	x21, x25, 86016
	add	x22, x22, 16384
	ldr	w0, [x21,264]
	ldr	w1, [x22,2736]
	bl	FSP_GetFsImagePtr
.LVL127:
	mov	x27, x0
.LVL128:
	cbz	x0, .L161
	.loc 1 1293 0 is_stmt 0 discriminator 2
	ldr	w0, [x21,264]
	ldr	x1, [x27,248]
	bl	FreeUsdByDec
.LVL129:
	.loc 1 1293 0 discriminator 3
	ldr	w0, [x21,264]
	ldr	x1, [x27,256]
	bl	FreeUsdByDec
.LVL130:
	.loc 1 1293 0 discriminator 4
	ldr	w0, [x21,264]
	ldr	x1, [x27,264]
	bl	FreeUsdByDec
.LVL131:
	.loc 1 1293 0 discriminator 5
	ldr	w0, [x21,264]
	ldr	x1, [x27,272]
	bl	FreeUsdByDec
.LVL132:
	.loc 1 1293 0 discriminator 1
	str	xzr, [x27,248]
	str	xzr, [x27,256]
	.loc 1 1293 0 discriminator 6
	mov	w2, 1
	.loc 1 1293 0 discriminator 1
	str	xzr, [x27,264]
	str	xzr, [x27,272]
	.loc 1 1293 0 discriminator 6
	ldr	w0, [x21,264]
	ldr	w1, [x22,2736]
	bl	FSP_ClearLogicFs
.LVL133:
	.loc 1 1293 0 discriminator 7
	ldr	w0, [x21,264]
	mov	w2, 1
	ldr	w1, [x22,2732]
	bl	FSP_ClearLogicFs
.LVL134:
	.loc 1 1293 0 discriminator 1
	str	wzr, [x22,2732]
	str	wzr, [x22,2736]
.L161:
.LBE32:
	.loc 1 1294 0 is_stmt 1
	add	x22, x19, 256
	.loc 1 1295 0
	add	x23, x23, 144
	.loc 1 1294 0
	add	x22, x22, 16384
	.loc 1 1295 0
	mov	x1, x23
	.loc 1 1294 0
	str	wzr, [x22,2696]
	.loc 1 1295 0
	ldr	w0, [x21,264]
	bl	FSP_ClearNotInVoQueue
.LVL135:
	.loc 1 1297 0
	ldr	x0, [x25]
	ldr	w1, [x0,772]
	cbnz	w1, .L162
	.loc 1 1297 0 is_stmt 0 discriminator 1
	ldr	w0, [x0,28]
	cmp	w0, 25
	beq	.L198
.L162:
	.loc 1 1308 0 is_stmt 1
	add	x0, x19, 256
	add	x0, x0, 16384
	ldr	w1, [x0,2704]
	cbz	w1, .L165
	.loc 1 1309 0
	ldr	w1, [x26,56]
	cbz	w1, .L165
	.loc 1 1309 0 is_stmt 0 discriminator 1
	ldr	w1, [x26,60]
	cbnz	w1, .L199
.L165:
	.loc 1 1316 0 is_stmt 1
	ldr	w0, [x21,264]
	add	x1, x29, 100
	add	x2, x29, 104
	add	x3, x29, 108
	bl	VCTRL_GetChanImgNum
.LVL136:
	.loc 1 1317 0
	ldr	x0, [x25]
	ldr	w0, [x0,772]
	cmp	w0, 1
	bne	.L167
	.loc 1 1320 0
	ldr	w1, [x29,108]
.LVL137:
	cmp	w1, wzr
	ble	.L167
	.loc 1 1322 0
	strb	w0, [x21,281]
.L148:
	.loc 1 1353 0
	ldr	x1, [x29,120]
	ldr	x0, [x24,#:lo12:__stack_chk_guard]
	cmp	x1, x0
	bne	.L200
	ldp	x19, x20, [sp,16]
	.cfi_remember_state
	.cfi_restore 20
	.cfi_restore 19
.LVL138:
	ldp	x21, x22, [sp,32]
	.cfi_restore 22
	.cfi_restore 21
	ldp	x23, x24, [sp,48]
	.cfi_restore 24
	.cfi_restore 23
	ldp	x25, x26, [sp,64]
	.cfi_restore 26
	.cfi_restore 25
.LVL139:
	ldr	x27, [sp,80]
	.cfi_restore 27
.LVL140:
	ldp	x29, x30, [sp], 128
	.cfi_restore 30
	.cfi_restore 29
	.cfi_def_cfa 31, 0
	ret
.LVL141:
.L193:
	.cfi_restore_state
	.loc 1 1235 0
	ldr	w1, [x0,2636]
	mov	w2, 3538944
	tst	w1, w2
	beq	.L153
	.loc 1 1238 0
	mov	w2, 2
	str	w2, [x0,2692]
	.loc 1 1239 0
	tbnz	x1, 17, .L154
	.loc 1 1242 0
	orr	w1, w1, 2
	str	w1, [x0,2636]
.L154:
	mov	w2, 2
	.loc 1 1244 0
	tbnz	x1, 20, .L152
	.loc 1 1248 0
	add	x0, x19, 256
	orr	w1, w1, 16
	add	x0, x0, 16384
	str	w1, [x0,2636]
	b	.L152
.L153:
	.loc 1 1231 0
	add	x0, x19, 256
	mov	w1, 1
	add	x0, x0, 16384
	mov	w2, w1
	str	w1, [x0,2692]
	b	.L152
.LVL142:
.L167:
	.loc 1 1337 0
	add	x22, x19, 256
	.loc 1 1334 0
	mov	x0, x23
	.loc 1 1337 0
	add	x22, x22, 16384
	.loc 1 1334 0
	bl	ResetVoQueue
.LVL143:
	.loc 1 1335 0
	strb	wzr, [x21,281]
	.loc 1 1340 0
	mov	w1, 0
	mov	x0, x25
	.loc 1 1337 0
	str	wzr, [x22,2704]
	.loc 1 1338 0
	str	wzr, [x22,2720]
	.loc 1 1340 0
	bl	MP2_ArrangeVHBMem
.LVL144:
	str	w0, [x22,2704]
	.loc 1 1341 0
	adrp	x1, .LC18
	mov	w0, 1
	ldr	w2, [x26,56]
	add	x1, x1, :lo12:.LC18
	ldr	w3, [x26,60]
	ldr	w4, [x20,56]
	lsl	w2, w2, 4
	ldr	w5, [x20,60]
	lsl	w3, w3, 4
	lsl	w4, w4, 4
	lsl	w5, w5, 4
	bl	dprint_linux_kernel
.LVL145:
.L163:
	.loc 1 1345 0
	adrp	x0, g_event_report
	ldr	x4, [x0,#:lo12:g_event_report]
	cbz	x4, .L191
.LBB33:
	.loc 1 1345 0 is_stmt 0 discriminator 1
	ldr	w8, [x26,56]
	mov	w1, 2
	ldr	w7, [x26,60]
	add	x2, x29, 112
	ldr	w6, [x20,56]
	mov	w3, 8
	ldr	w5, [x20,60]
	ldr	w0, [x21,264]
	strh	w8, [x29,112]
	strh	w7, [x29,114]
	strh	w6, [x29,116]
	strh	w5, [x29,118]
	blr	x4
.LVL146:
.L191:
	add	x0, x19, 256
	add	x0, x0, 16384
	ldr	w1, [x0,2704]
.L160:
.LBE33:
	.loc 1 1350 0 is_stmt 1
	add	x19, x19, 256
	add	x19, x19, 16384
	str	w1, [x19,2632]
	.loc 1 1352 0
	b	.L148
.LVL147:
.L150:
	.loc 1 1217 0
	ldr	w3, [x0,2636]
	mov	w1, 18
	bfi	w1, w1, 16, 16
	and	w1, w3, w1
	.loc 1 1215 0
	cmp	w1, 1179648
	bne	.L152
	.loc 1 1221 0
	mov	w2, 2
	str	w2, [x0,2692]
	b	.L152
.L196:
	.loc 1 1283 0 discriminator 1
	ldrb	w1, [x20,27]
	cbnz	w1, .L158
	.loc 1 1285 0
	add	w1, w3, 31
	add	w3, w3, 15
	lsr	w1, w1, 5
	lsl	w1, w1, 1
	sub	w3, w1, w3, lsr 4
	str	w3, [x20,64]
	b	.L158
.L195:
	.loc 1 1277 0
	ldrb	w1, [x20,27]
	cbnz	w1, .L156
	.loc 1 1278 0
	ldr	w3, [x20,52]
	add	w2, w3, 31
	lsr	w2, w2, 5
	lsl	w2, w2, 1
	b	.L157
.L194:
	.loc 1 1263 0
	strb	w0, [x20,27]
	.loc 1 1265 0
	mov	w1, 3
	.loc 1 1264 0
	strb	w0, [x20,18]
	.loc 1 1266 0
	strb	w0, [x20,11]
	.loc 1 1267 0
	strb	w0, [x20,28]
	.loc 1 1268 0
	mov	w0, 5
	.loc 1 1265 0
	strb	w1, [x20,9]
	.loc 1 1268 0
	strb	w0, [x20,138]
	.loc 1 1269 0
	strb	wzr, [x20,12]
	.loc 1 1270 0
	strb	wzr, [x20,13]
	.loc 1 1271 0
	strb	wzr, [x20,14]
	.loc 1 1272 0
	strb	wzr, [x20,15]
	.loc 1 1273 0
	strb	wzr, [x20,8]
	b	.L155
.LVL148:
.L199:
	.loc 1 1312 0
	adrp	x1, .LC17
	.loc 1 1311 0
	str	wzr, [x0,2704]
	.loc 1 1312 0
	add	x1, x1, :lo12:.LC17
	mov	w0, 1
	bl	dprint_linux_kernel
.LVL149:
	.loc 1 1313 0
	adrp	x0, g_event_report
	ldr	x4, [x0,#:lo12:g_event_report]
	cbz	x4, .L165
	.loc 1 1313 0 is_stmt 0 discriminator 1
	ldr	w0, [x21,264]
	mov	w1, 120
	mov	x2, 0
	mov	w3, 0
	blr	x4
.LVL150:
	b	.L165
.LVL151:
.L197:
	.loc 1 1290 0 is_stmt 1
	ldr	w0, [x26,60]
	cmp	w2, w0
	bne	.L159
	b	.L160
.LVL152:
.L198:
	.loc 1 1299 0
	ldr	w0, [x22,2704]
	cbnz	w0, .L163
	.loc 1 1301 0
	mov	x0, x23
	bl	ResetVoQueue
.LVL153:
	.loc 1 1302 0
	mov	x0, x25
	mov	w1, 0
	bl	MP2_ArrangeVHBMem
.LVL154:
	.loc 1 1303 0
	str	wzr, [x22,2720]
	.loc 1 1302 0
	str	w0, [x22,2704]
	b	.L163
.L200:
	.loc 1 1353 0
	bl	__stack_chk_fail
.LVL155:
	.cfi_endproc
.LFE2646:
	.size	MP2_GetSequenceInfo, .-MP2_GetSequenceInfo
	.align	2
	.global	MP2_CalcDar
	.type	MP2_CalcDar, %function
MP2_CalcDar:
.LFB2648:
	.loc 1 1428 0
	.cfi_startproc
.LVL156:
	.loc 1 1430 0
	add	x0, x0, 65536
.LVL157:
	ldr	x0, [x0,128]
	ldr	w0, [x0,84]
	sub	w0, w0, #1
	cmp	w0, 2
	bhi	.L203
	adrp	x1, .LANCHOR1
	add	x1, x1, :lo12:.LANCHOR1
	ldr	w0, [x1,w0,uxtw 2]
	.loc 1 1449 0
	ret
.L203:
	.loc 1 1430 0
	mov	w0, 0
	.loc 1 1449 0
	ret
	.cfi_endproc
.LFE2648:
	.size	MP2_CalcDar, .-MP2_CalcDar
	.align	2
	.global	MP2_SetImgFormat
	.type	MP2_SetImgFormat, %function
MP2_SetImgFormat:
.LFB2649:
	.loc 1 1452 0
	.cfi_startproc
.LVL158:
	stp	x29, x30, [sp, -64]!
	.cfi_def_cfa_offset 64
	.cfi_offset 29, -64
	.cfi_offset 30, -56
	add	x29, sp, 0
	.cfi_def_cfa_register 29
	stp	x21, x22, [sp,32]
	.cfi_offset 21, -32
	.cfi_offset 22, -24
	.loc 1 1461 0
	add	x22, x0, 45056
	.loc 1 1452 0
	mov	x21, x0
	.loc 1 1461 0
	add	x4, x22, 256
	add	x0, x0, 86016
.LVL159:
	add	x4, x4, 16384
	.loc 1 1452 0
	str	x23, [sp,48]
	stp	x19, x20, [sp,16]
	.cfi_offset 23, -16
	.cfi_offset 19, -48
	.cfi_offset 20, -40
	.loc 1 1459 0
	add	x23, x21, 65536
	.loc 1 1461 0
	ldr	w0, [x0,264]
	ldr	w1, [x4,2740]
	.loc 1 1459 0
	ldr	x20, [x23,128]
.LVL160:
	.loc 1 1461 0
	bl	FSP_GetFsImagePtr
.LVL161:
	mov	x19, x0
.LVL162:
	.loc 1 1462 0
	cbz	x0, .L204
	.loc 1 1467 0
	ldrb	w0, [x20,22]
	cmp	w0, 4
	beq	.L213
	.loc 1 1474 0
	sub	w0, w0, #1
	and	w0, w0, 3
.L206:
	.loc 1 1480 0
	ldrb	w1, [x20,27]
	mov	w4, 4096
	.loc 1 1482 0
	ldr	w3, [x19,44]
	.loc 1 1483 0
	ldrb	w6, [x20,9]
	.loc 1 1480 0
	cmp	w1, wzr
	.loc 1 1482 0
	ubfx	x3, x3, 10, 2
	.loc 1 1478 0
	ldr	w2, [x20,128]
	.loc 1 1480 0
	cset	w5, eq
.LVL163:
	.loc 1 1483 0
	orr	w3, w3, w6
	.loc 1 1485 0
	cbnz	w1, .L207
	.loc 1 1489 0
	cmp	w6, 3
	beq	.L225
	.loc 1 1493 0
	add	x22, x22, 256
	.loc 1 1496 0
	cmp	w6, 1
	.loc 1 1493 0
	add	x22, x22, 16384
	ldr	w1, [x22,2648]
	cbnz	w1, .L209
	.loc 1 1496 0
	cset	w4, eq
	lsl	w4, w4, 12
.L207:
.LBB34:
.LBB35:
	.loc 1 1430 0
	ldr	x1, [x23,128]
	ldr	w1, [x1,84]
	sub	w1, w1, #1
	cmp	w1, 2
	bhi	.L215
.L228:
	adrp	x6, .LANCHOR1
	add	x6, x6, :lo12:.LANCHOR1
	ldr	w1, [x6,w1,uxtw 2]
	ubfiz	w22, w1, 14, 3
.L210:
.LVL164:
.LBE35:
.LBE34:
	.loc 1 1506 0
	ubfiz	w2, w2, 5, 2
.LVL165:
	ubfiz	w3, w3, 10, 2
	orr	w2, w2, w5, lsl 8
	.loc 1 1507 0
	str	w0, [x19,36]
	orr	w2, w2, w3
	.loc 1 1508 0
	str	w0, [x19,40]
	orr	w2, w2, w0
	.loc 1 1510 0
	mov	x0, x19
	orr	w2, w2, w4
	.loc 1 1506 0
	orr	w2, w2, w22
	str	w2, [x19,44]
	.loc 1 1510 0
	bl	SetAspectRatio
.LVL166:
	.loc 1 1512 0
	ldr	w0, [x20,72]
	str	w0, [x19,72]
	.loc 1 1513 0
	ldr	w1, [x20,48]
	str	w1, [x19,48]
	.loc 1 1514 0
	ldr	w0, [x20,52]
	str	w0, [x19,52]
	.loc 1 1515 0
	ldr	x2, [x21]
	ldr	w2, [x2,28]
	cmp	w2, 25
	beq	.L226
.L211:
	.loc 1 1530 0
	lsr	w2, w0, 1
	.loc 1 1529 0
	lsr	w3, w1, 1
	.loc 1 1530 0
	str	w2, [x19,68]
	.loc 1 1529 0
	str	w3, [x19,64]
	.loc 1 1531 0
	ldr	w2, [x20,140]
	cbz	w2, .L212
	.loc 1 1531 0 is_stmt 0 discriminator 1
	ldr	w3, [x20,144]
	cbnz	w3, .L227
.L212:
	.loc 1 1540 0 is_stmt 1
	str	w1, [x19,56]
	.loc 1 1541 0
	str	w0, [x19,60]
.L204:
	.loc 1 1543 0
	ldp	x19, x20, [sp,16]
	.cfi_remember_state
	.cfi_restore 20
	.cfi_restore 19
.LVL167:
	ldp	x21, x22, [sp,32]
	.cfi_restore 22
	.cfi_restore 21
.LVL168:
	ldr	x23, [sp,48]
	.cfi_restore 23
	ldp	x29, x30, [sp], 64
	.cfi_restore 30
	.cfi_restore 29
	.cfi_def_cfa 31, 0
	ret
.LVL169:
.L215:
	.cfi_restore_state
.LBB39:
.LBB36:
	.loc 1 1430 0
	mov	w1, 0
	mov	w22, 0
	b	.L210
.LVL170:
.L226:
.LBE36:
.LBE39:
.LBB40:
	.loc 1 1517 0
	ldr	w4, [x19,76]
	.loc 1 1518 0
	add	w2, w0, 15
	.loc 1 1520 0
	ldr	w5, [x19,168]
	.loc 1 1518 0
	lsr	w2, w2, 4
	lsl	w3, w4, 4
	.loc 1 1521 0
	str	w5, [x19,136]
	.loc 1 1523 0
	add	w6, w5, w4
	.loc 1 1525 0
	str	w5, [x19,176]
	.loc 1 1520 0
	madd	w2, w3, w2, w5
	str	w2, [x19,172]
	.loc 1 1524 0
	add	w4, w2, w4
	.loc 1 1522 0
	str	w2, [x19,140]
	.loc 1 1523 0
	str	w6, [x19,144]
	.loc 1 1524 0
	str	w4, [x19,148]
	.loc 1 1526 0
	str	w2, [x19,180]
	b	.L211
.L213:
.LBE40:
	mov	w0, 0
	b	.L206
.LVL171:
.L209:
.LBB41:
.LBB37:
	.loc 1 1430 0
	ldr	x1, [x23,128]
.LBE37:
.LBE41:
	.loc 1 1501 0
	cset	w4, ne
	lsl	w4, w4, 12
	ldr	w1, [x1,84]
	sub	w1, w1, #1
	cmp	w1, 2
	bhi	.L215
	b	.L228
.LVL172:
.L227:
	.loc 1 1533 0
	cmp	w2, w1
	csel	w1, w2, w1, ls
	str	w1, [x19,56]
	.loc 1 1535 0
	ldr	w1, [x20,144]
	cmp	w1, w0
	csel	w0, w1, w0, ls
	str	w0, [x19,60]
	.loc 1 1543 0
	ldp	x19, x20, [sp,16]
	.cfi_remember_state
	.cfi_restore 19
	.cfi_restore 20
.LVL173:
	ldp	x21, x22, [sp,32]
	.cfi_restore 21
	.cfi_restore 22
.LVL174:
	ldr	x23, [sp,48]
	.cfi_restore 23
	ldp	x29, x30, [sp], 64
	.cfi_restore 29
	.cfi_restore 30
	.cfi_def_cfa 31, 0
	ret
.LVL175:
.L225:
	.cfi_restore_state
.LBB42:
.LBB38:
	.loc 1 1430 0
	ldr	x1, [x23,128]
.LBE38:
.LBE42:
	.loc 1 1491 0
	ldrb	w4, [x20,10]
	ldr	w1, [x1,84]
	ubfiz	w4, w4, 12, 1
	sub	w1, w1, #1
	cmp	w1, 2
	bhi	.L215
	b	.L228
	.cfi_endproc
.LFE2649:
	.size	MP2_SetImgFormat, .-MP2_SetImgFormat
	.align	2
	.global	MP2_SearchStartCode
	.type	MP2_SearchStartCode, %function
MP2_SearchStartCode:
.LFB2650:
	.loc 1 1547 0
	.cfi_startproc
.LVL176:
	stp	x29, x30, [sp, -16]!
	.cfi_def_cfa_offset 16
	.cfi_offset 29, -16
	.cfi_offset 30, -8
	.loc 1 1551 0
	cmp	w1, 4
	.loc 1 1554 0
	mov	w2, 0
	.loc 1 1547 0
	add	x29, sp, 0
	.cfi_def_cfa_register 29
	.loc 1 1551 0
	ble	.L230
	bl	MP2_SearchStartCode.part.0
.LVL177:
	mov	w2, w0
.LVL178:
.L230:
	.loc 1 1599 0
	mov	w0, w2
.LVL179:
	ldp	x29, x30, [sp], 16
	.cfi_restore 30
	.cfi_restore 29
	.cfi_def_cfa 31, 0
	ret
	.cfi_endproc
.LFE2650:
	.size	MP2_SearchStartCode, .-MP2_SearchStartCode
	.align	2
	.global	MP2_ProtocolPPSCheck
	.type	MP2_ProtocolPPSCheck, %function
MP2_ProtocolPPSCheck:
.LFB2651:
	.loc 1 1611 0
	.cfi_startproc
.LVL180:
	stp	x29, x30, [sp, -48]!
	.cfi_def_cfa_offset 48
	.cfi_offset 29, -48
	.cfi_offset 30, -40
	.loc 1 1616 0
	add	x1, x0, 65536
	.loc 1 1611 0
	add	x29, sp, 0
	.cfi_def_cfa_register 29
	stp	x19, x20, [sp,16]
	.cfi_offset 19, -32
	.cfi_offset 20, -24
	.loc 1 1620 0
	add	x20, x0, 45056
	add	x2, x20, 256
	add	x2, x2, 16384
	.loc 1 1611 0
	stp	x21, x22, [sp,32]
	.cfi_offset 21, -16
	.cfi_offset 22, -8
	.loc 1 1616 0
	ldr	x4, [x1,128]
.LVL181:
	.loc 1 1620 0
	ldr	w1, [x2,2692]
	cmp	w1, 1
	beq	.L234
	cmp	w1, 2
	beq	.L235
	.loc 1 1654 0
	ldr	w1, [x2,2636]
	orr	w1, w1, 63
	str	w1, [x2,2636]
	ldrb	w3, [x4,22]
.L242:
	.loc 1 1658 0
	tst	w1, 24
	beq	.L244
.L257:
	.loc 1 1659 0
	cmp	w3, 3
	beq	.L232
.L245:
	.loc 1 1662 0
	add	x21, x20, 256
.LBB43:
	.loc 1 1664 0
	add	x19, x0, 86016
.LBE43:
	.loc 1 1662 0
	add	x21, x21, 16384
	orr	w1, w1, 64
	str	w1, [x21,2636]
.LBB44:
	.loc 1 1664 0
	ldr	w1, [x21,2736]
	ldr	w0, [x19,264]
.LVL182:
	bl	FSP_GetFsImagePtr
.LVL183:
	mov	x22, x0
.LVL184:
	cbz	x0, .L247
	.loc 1 1664 0 is_stmt 0 discriminator 2
	ldr	w0, [x19,264]
	ldr	x1, [x22,248]
	bl	FreeUsdByDec
.LVL185:
	.loc 1 1664 0 discriminator 3
	ldr	w0, [x19,264]
	ldr	x1, [x22,256]
	bl	FreeUsdByDec
.LVL186:
	.loc 1 1664 0 discriminator 4
	ldr	w0, [x19,264]
	ldr	x1, [x22,264]
	bl	FreeUsdByDec
.LVL187:
	.loc 1 1664 0 discriminator 5
	ldr	w0, [x19,264]
	ldr	x1, [x22,272]
	bl	FreeUsdByDec
.LVL188:
	.loc 1 1664 0 discriminator 1
	str	xzr, [x22,248]
	str	xzr, [x22,256]
	.loc 1 1664 0 discriminator 6
	mov	w2, 1
	.loc 1 1664 0 discriminator 1
	str	xzr, [x22,264]
	str	xzr, [x22,272]
	.loc 1 1664 0 discriminator 6
	ldr	w0, [x19,264]
	ldr	w1, [x21,2736]
	bl	FSP_ClearLogicFs
.LVL189:
	.loc 1 1664 0 discriminator 7
	ldr	w0, [x19,264]
	mov	w2, 1
	ldr	w1, [x21,2732]
	bl	FSP_ClearLogicFs
.LVL190:
	.loc 1 1664 0 discriminator 1
	str	wzr, [x21,2732]
	str	wzr, [x21,2736]
.L247:
.LBE44:
	.loc 1 1665 0 is_stmt 1
	add	x20, x20, 256
	add	x20, x20, 16384
	str	wzr, [x20,2696]
.LVL191:
.L232:
	.loc 1 1675 0
	ldp	x19, x20, [sp,16]
	.cfi_remember_state
	.cfi_restore 20
	.cfi_restore 19
	ldp	x21, x22, [sp,32]
	.cfi_restore 22
	.cfi_restore 21
.LVL192:
	ldp	x29, x30, [sp], 48
	.cfi_restore 30
	.cfi_restore 29
	.cfi_def_cfa 31, 0
	ret
.LVL193:
.L235:
	.cfi_restore_state
	.loc 1 1643 0
	ldr	w1, [x2,2636]
	tbnz	x1, 20, .L243
	.loc 1 1646 0
	orr	w1, w1, 16
	str	w1, [x2,2636]
.L243:
	.loc 1 1648 0
	ldrb	w3, [x4,22]
	sub	w2, w3, #1
	uxtb	w2, w2
	cmp	w2, 2
	bls	.L242
.L255:
	.loc 1 1650 0
	add	x2, x20, 256
	orr	w1, w1, 8
	add	x2, x2, 16384
	.loc 1 1658 0
	tst	w1, 24
	.loc 1 1650 0
	str	w1, [x2,2636]
	ldrb	w3, [x4,22]
	.loc 1 1658 0
	bne	.L257
.L244:
	.loc 1 1668 0
	cmp	w3, 1
	bne	.L232
	.loc 1 1671 0
	add	x20, x20, 256
	and	w1, w1, -193
	add	x20, x20, 16384
	str	w1, [x20,2636]
	.loc 1 1675 0
	ldp	x19, x20, [sp,16]
	.cfi_remember_state
	.cfi_restore 19
	.cfi_restore 20
	ldp	x21, x22, [sp,32]
	.cfi_restore 21
	.cfi_restore 22
	ldp	x29, x30, [sp], 48
	.cfi_restore 29
	.cfi_restore 30
	.cfi_def_cfa 31, 0
	ret
.L234:
	.cfi_restore_state
	.loc 1 1623 0
	ldrb	w3, [x4,22]
	sub	w1, w3, #1
	uxtb	w1, w1
	cmp	w1, 3
	.loc 1 1625 0
	ldr	w1, [x2,2636]
	.loc 1 1623 0
	bhi	.L258
.L237:
	.loc 1 1627 0
	sub	w2, w3, #2
	uxtb	w2, w2
	cmp	w2, 1
	bls	.L259
.L240:
	.loc 1 1658 0
	tst	w1, 24
	bne	.L245
	b	.L244
.L258:
	.loc 1 1625 0
	orr	w1, w1, 8
	str	w1, [x2,2636]
	ldrb	w3, [x4,22]
	b	.L237
.L259:
	.loc 1 1629 0
	ldrb	w2, [x4,24]
	cbz	w2, .L260
.L239:
	.loc 1 1634 0
	cmp	w3, 3
	bne	.L240
	.loc 1 1636 0
	ldrb	w2, [x4,26]
	cbnz	w2, .L232
	b	.L255
.L260:
	.loc 1 1631 0
	add	x2, x20, 256
	orr	w1, w1, 8
	add	x2, x2, 16384
	str	w1, [x2,2636]
	ldrb	w3, [x4,22]
	b	.L239
	.cfi_endproc
.LFE2651:
	.size	MP2_ProtocolPPSCheck, .-MP2_ProtocolPPSCheck
	.align	2
	.global	MP2_GetImageBuffer
	.type	MP2_GetImageBuffer, %function
MP2_GetImageBuffer:
.LFB2652:
	.loc 1 1687 0
	.cfi_startproc
.LVL194:
	stp	x29, x30, [sp, -64]!
	.cfi_def_cfa_offset 64
	.cfi_offset 29, -64
	.cfi_offset 30, -56
	.loc 1 1695 0
	mov	w1, 1
.LVL195:
	.loc 1 1687 0
	add	x29, sp, 0
	.cfi_def_cfa_register 29
	stp	x19, x20, [sp,16]
	.cfi_offset 19, -48
	.cfi_offset 20, -40
	.loc 1 1695 0
	add	x20, x0, 86016
	.loc 1 1687 0
	str	x23, [sp,48]
	stp	x21, x22, [sp,32]
	.cfi_offset 23, -16
	.cfi_offset 21, -32
	.cfi_offset 22, -24
	.loc 1 1695 0
	add	x22, x0, 45056
	.loc 1 1687 0
	mov	x21, x0
	.loc 1 1695 0
	add	x19, x22, 256
	ldr	w0, [x20,264]
.LVL196:
	add	x19, x19, 16384
	bl	FSP_NewLogicFs
.LVL197:
	mov	w1, w0
	str	w0, [x19,2740]
	.loc 1 1696 0
	tbnz	w1, #31, .L272
.LBB45:
	.loc 1 1708 0
	ldr	w0, [x20,264]
	bl	FSP_GetLogicFs
.LVL198:
	mov	x20, x0
.LVL199:
	.loc 1 1709 0
	cbz	x0, .L273
	.loc 1 1715 0
	ldr	w2, [x19,2740]
	adrp	x1, .LC21
	mov	w0, 18
	add	x1, x1, :lo12:.LC21
	bl	dprint_linux_kernel
.LVL200:
	.loc 1 1716 0
	ldr	x0, [x20,296]
	cbz	x0, .L268
	.loc 1 1716 0 is_stmt 0 discriminator 1
	ldr	x1, [x20,304]
	cbz	x1, .L268
	.loc 1 1716 0 discriminator 2
	ldr	x4, [x20,312]
	cbz	x4, .L268
	.loc 1 1718 0 is_stmt 1
	ldr	w2, [x0,12]
	mov	w0, 18
	ldr	w3, [x1,12]
	adrp	x1, .LC22
	ldr	w4, [x4,12]
	add	x1, x1, :lo12:.LC22
	bl	dprint_linux_kernel
.LVL201:
.LBE45:
	.loc 1 1722 0
	mov	w0, 1
.L264:
	.loc 1 1724 0
	ldp	x19, x20, [sp,16]
	.cfi_remember_state
	.cfi_restore 20
	.cfi_restore 19
.LVL202:
	ldp	x21, x22, [sp,32]
	.cfi_restore 22
	.cfi_restore 21
.LVL203:
	ldr	x23, [sp,48]
	.cfi_restore 23
	ldp	x29, x30, [sp], 64
	.cfi_restore 30
	.cfi_restore 29
	.cfi_def_cfa 31, 0
	ret
.LVL204:
.L268:
	.cfi_restore_state
	.loc 1 1722 0
	mov	w0, 1
	.loc 1 1724 0
	ldr	x23, [sp,48]
	.cfi_remember_state
	.cfi_restore 23
	ldp	x19, x20, [sp,16]
	.cfi_restore 19
	.cfi_restore 20
.LVL205:
	ldp	x21, x22, [sp,32]
	.cfi_restore 21
	.cfi_restore 22
.LVL206:
	ldp	x29, x30, [sp], 64
	.cfi_restore 29
	.cfi_restore 30
	.cfi_def_cfa 31, 0
	ret
.LVL207:
.L272:
	.cfi_restore_state
	.loc 1 1699 0
	adrp	x1, .LC19
	mov	w0, 0
	add	x1, x1, :lo12:.LC19
	bl	dprint_linux_kernel
.LVL208:
.LBB46:
	.loc 1 1700 0
	ldr	w0, [x20,264]
	ldr	w1, [x19,2736]
	bl	FSP_GetFsImagePtr
.LVL209:
	mov	x23, x0
.LVL210:
	cbz	x0, .L263
	.loc 1 1700 0 is_stmt 0 discriminator 2
	ldr	w0, [x20,264]
	ldr	x1, [x23,248]
	bl	FreeUsdByDec
.LVL211:
	.loc 1 1700 0 discriminator 3
	ldr	w0, [x20,264]
	ldr	x1, [x23,256]
	bl	FreeUsdByDec
.LVL212:
	.loc 1 1700 0 discriminator 4
	ldr	w0, [x20,264]
	ldr	x1, [x23,264]
	bl	FreeUsdByDec
.LVL213:
	.loc 1 1700 0 discriminator 5
	ldr	w0, [x20,264]
	ldr	x1, [x23,272]
	bl	FreeUsdByDec
.LVL214:
	.loc 1 1700 0 discriminator 1
	str	xzr, [x23,248]
	str	xzr, [x23,256]
	.loc 1 1700 0 discriminator 6
	mov	w2, 1
	.loc 1 1700 0 discriminator 1
	str	xzr, [x23,264]
	str	xzr, [x23,272]
	.loc 1 1700 0 discriminator 6
	ldr	w0, [x20,264]
	ldr	w1, [x19,2736]
	bl	FSP_ClearLogicFs
.LVL215:
	.loc 1 1700 0 discriminator 7
	ldr	w0, [x20,264]
	mov	w2, 1
	ldr	w1, [x19,2732]
	bl	FSP_ClearLogicFs
.LVL216:
	.loc 1 1700 0 discriminator 1
	str	wzr, [x19,2732]
	str	wzr, [x19,2736]
.L263:
.LBE46:
	.loc 1 1701 0 is_stmt 1
	add	x22, x22, 256
	.loc 1 1702 0
	add	x1, x21, 65536
	.loc 1 1701 0
	add	x22, x22, 16384
	.loc 1 1702 0
	add	x1, x1, 144
	.loc 1 1701 0
	str	wzr, [x22,2696]
	.loc 1 1702 0
	ldr	w0, [x20,264]
	bl	FSP_ClearNotInVoQueue
.LVL217:
	.loc 1 1724 0
	ldr	x23, [sp,48]
	.cfi_remember_state
	.cfi_restore 23
.LVL218:
	.loc 1 1704 0
	mov	w0, 0
	.loc 1 1724 0
	ldp	x19, x20, [sp,16]
	.cfi_restore 19
	.cfi_restore 20
	ldp	x21, x22, [sp,32]
	.cfi_restore 21
	.cfi_restore 22
.LVL219:
	ldp	x29, x30, [sp], 64
	.cfi_restore 29
	.cfi_restore 30
	.cfi_def_cfa 31, 0
	ret
.LVL220:
.L273:
	.cfi_restore_state
.LBB47:
	.loc 1 1711 0
	adrp	x1, .LC20
	mov	w0, 0
.LVL221:
	add	x1, x1, :lo12:.LC20
	mov	w2, 1711
	bl	dprint_linux_kernel
.LVL222:
	.loc 1 1712 0
	mov	w0, 0
	b	.L264
.LBE47:
	.cfi_endproc
.LFE2652:
	.size	MP2_GetImageBuffer, .-MP2_GetImageBuffer
	.align	2
	.global	MP2_GetPictureInfo
	.type	MP2_GetPictureInfo, %function
MP2_GetPictureInfo:
.LFB2645:
	.loc 1 988 0
	.cfi_startproc
.LVL223:
	stp	x29, x30, [sp, -80]!
	.cfi_def_cfa_offset 80
	.cfi_offset 29, -80
	.cfi_offset 30, -72
	.loc 1 1001 0
	add	x1, x0, 65536
	.loc 1 988 0
	add	x29, sp, 0
	.cfi_def_cfa_register 29
	stp	x21, x22, [sp,32]
	.cfi_offset 21, -48
	.cfi_offset 22, -40
	.loc 1 1004 0
	add	x21, x0, 45056
	.loc 1 988 0
	mov	x22, x0
	.loc 1 1004 0
	add	x0, x21, 256
.LVL224:
	.loc 1 988 0
	str	x25, [sp,64]
	.loc 1 1004 0
	add	x0, x0, 16384
	.loc 1 988 0
	stp	x19, x20, [sp,16]
	stp	x23, x24, [sp,48]
	.cfi_offset 25, -16
	.cfi_offset 19, -64
	.cfi_offset 20, -56
	.cfi_offset 23, -32
	.cfi_offset 24, -24
	.loc 1 1004 0
	ldr	w0, [x0,2692]
	.loc 1 1001 0
	ldr	x19, [x1,128]
.LVL225:
	.loc 1 1004 0
	cmp	w0, 1
	.loc 1 1002 0
	ldr	x23, [x1,136]
.LVL226:
	.loc 1 1004 0
	beq	.L338
.L275:
	.loc 1 1012 0
	ldrb	w0, [x19,9]
	cmp	w0, 3
	beq	.L276
	.loc 1 1014 0
	add	x20, x21, 256
	add	x20, x20, 16384
	ldr	w0, [x20,2648]
	.loc 1 1015 0
	ldr	w1, [x20,2700]
	.loc 1 1014 0
	cmp	w0, wzr
	cset	w0, eq
	str	w0, [x20,2648]
	.loc 1 1015 0
	ldr	w2, [x19,148]
	.loc 1 1015 0 is_stmt 0 discriminator 1
	cmp	w2, w1
	beq	.L279
	cbnz	w0, .L339
.L279:
	.loc 1 1049 0 is_stmt 1
	ldrb	w2, [x19,9]
	add	x0, x21, 256
	strb	w2, [x21,257]
	.loc 1 1050 0
	add	x1, x0, 16384
	.loc 1 1052 0
	add	x20, x22, 16
	.loc 1 1050 0
	ldr	w0, [x19,148]
	str	w0, [x1,2700]
	.loc 1 1052 0
	ldr	w0, [x19,56]
	strh	w0, [x20,150]
	.loc 1 1053 0
	ldrb	w0, [x19,9]
	cmp	w0, 3
	.loc 1 1055 0
	ldr	w0, [x19,60]
	.loc 1 1053 0
	beq	.L284
	.loc 1 1055 0
	lsr	w0, w0, 1
	strh	w0, [x20,146]
	.loc 1 1056 0
	ldr	w0, [x19,60]
	strh	w0, [x20,148]
.L285:
	.loc 1 1064 0
	ldrb	w1, [x19,11]
	.loc 1 1066 0
	add	x0, x21, 256
	.loc 1 1064 0
	strb	w1, [x20,5]
	.loc 1 1066 0
	add	x0, x0, 16384
	.loc 1 1065 0
	ldrb	w1, [x19,9]
	strb	w1, [x20,3]
	.loc 1 1066 0
	ldr	w1, [x0,2648]
	strb	w1, [x20,4]
	.loc 1 1067 0
	ldrb	w2, [x19,12]
	strb	w2, [x20,7]
	.loc 1 1068 0
	ldrb	w2, [x19,22]
	strb	w2, [x22,16]
	.loc 1 1069 0
	ldr	w0, [x0,2692]
	cmp	w0, 1
	cset	w0, eq
	str	w0, [x20,176]
	.loc 1 1070 0
	cbnz	w0, .L340
.L286:
	.loc 1 1075 0
	ldrb	w0, [x19,4]
	strb	w0, [x20,12]
	.loc 1 1076 0
	ldrb	w0, [x19,5]
	strb	w0, [x20,13]
	.loc 1 1077 0
	ldrb	w0, [x19,6]
	strb	w0, [x20,14]
	.loc 1 1078 0
	ldrb	w0, [x19,7]
	strb	w0, [x20,15]
	.loc 1 1079 0
	ldrb	w0, [x19,10]
	strb	w0, [x20,6]
	.loc 1 1080 0
	ldrb	w0, [x19,8]
	strb	w0, [x20,11]
	.loc 1 1081 0
	ldrb	w0, [x19,13]
	strb	w0, [x20,10]
	.loc 1 1082 0
	ldrb	w0, [x19,14]
	strb	w0, [x20,9]
	.loc 1 1083 0
	ldrb	w0, [x19,15]
	strb	w0, [x20,8]
	.loc 1 1085 0
	ldrb	w0, [x19,9]
	.loc 1 1085 0 is_stmt 0 discriminator 1
	cmp	w0, 3
	beq	.L287
	cbz	w1, .L287
	add	x24, x22, 86016
.LVL227:
.L288:
	.loc 1 1133 0 is_stmt 1
	add	x19, x21, 256
.LVL228:
	ldr	w0, [x24,264]
	add	x19, x19, 16384
	ldr	w1, [x19,2740]
	bl	FSP_GetLogicFs
.LVL229:
	mov	x23, x0
.LVL230:
	.loc 1 1134 0
	ldr	w1, [x19,2732]
	ldr	w0, [x24,264]
	bl	FSP_GetLogicFs
.LVL231:
	mov	x25, x0
.LVL232:
	.loc 1 1135 0
	ldr	w1, [x19,2736]
	ldr	w0, [x24,264]
	bl	FSP_GetLogicFs
.LVL233:
	mov	x19, x0
.LVL234:
	.loc 1 1137 0
	cmp	x25, xzr
	cset	w1, eq
	cmp	x23, xzr
	cset	w0, eq
	.loc 1 1137 0 is_stmt 0 discriminator 1
	orr	w0, w1, w0
	cbnz	w0, .L309
	cbz	x19, .L309
	.loc 1 1144 0 is_stmt 1
	ldr	x1, [x23,296]
	cbz	x1, .L297
	.loc 1 1144 0 is_stmt 0 discriminator 1
	ldr	x0, [x23,312]
	cbz	x0, .L297
	.loc 1 1144 0 discriminator 2
	ldr	x0, [x23,304]
	cbz	x0, .L297
	.loc 1 1153 0 is_stmt 1
	ldr	x0, [x19,296]
	cbz	x0, .L299
	.loc 1 1153 0 is_stmt 0 discriminator 1
	ldr	w5, [x0,12]
.L300:
	.loc 1 1153 0 discriminator 4
	str	w5, [x20,180]
	.loc 1 1154 0 is_stmt 1
	ldr	x0, [x25,296]
	cbz	x0, .L341
.L335:
	.loc 1 1154 0 is_stmt 0 discriminator 2
	ldr	w4, [x0,12]
	.loc 1 1154 0 discriminator 4
	str	w4, [x20,184]
	.loc 1 1155 0 is_stmt 1
	ldr	x0, [x23,296]
	ldr	w2, [x0,12]
	str	w2, [x20,188]
	.loc 1 1156 0
	ldr	w6, [x23,320]
	str	w6, [x20,220]
	.loc 1 1158 0
	ldr	x0, [x19,312]
	cbz	x0, .L342
.L336:
	.loc 1 1158 0 is_stmt 0 discriminator 2
	ldr	w0, [x0,12]
	.loc 1 1158 0 discriminator 4
	str	w0, [x20,200]
	.loc 1 1159 0 is_stmt 1
	ldr	x0, [x25,312]
	cbz	x0, .L343
.L337:
	.loc 1 1159 0 is_stmt 0 discriminator 2
	ldr	w0, [x0,12]
	.loc 1 1168 0 is_stmt 1
	adrp	x1, .LC31
	.loc 1 1159 0 discriminator 4
	str	w0, [x20,204]
	.loc 1 1168 0
	add	x1, x1, :lo12:.LC31
	mov	w0, 13
	.loc 1 1160 0
	ldr	x3, [x23,312]
	ldr	w3, [x3,12]
	str	w3, [x20,208]
	.loc 1 1162 0
	ldr	x3, [x23,304]
	ldr	w3, [x3,12]
	str	w3, [x20,212]
	.loc 1 1164 0
	ldr	w7, [x19,40]
	str	w7, [x20,192]
	.loc 1 1165 0
	ldr	w7, [x25,40]
	str	w7, [x20,196]
	.loc 1 1168 0
	bl	dprint_linux_kernel
.LVL235:
	.loc 1 1171 0
	ldr	x2, [x23,304]
	add	x3, x22, 61440
	add	x0, x3, 3448
	add	x1, x22, 32
	add	x3, x3, 3704
	ldr	w2, [x2,20]
	str	w2, [x20,216]
.L307:
	.loc 1 1177 0
	ldr	w2, [x0,-256]
	strb	w2, [x1,64]
	.loc 1 1178 0
	ldr	w2, [x0],4
	strb	w2, [x1],1
	.loc 1 1175 0 discriminator 1
	cmp	x0, x3
	bne	.L307
	.loc 1 1182 0
	mov	x0, x22
	.loc 1 1186 0
	mov	w24, 1
	.loc 1 1182 0
	bl	MP2_EstimatePicQp
.LVL236:
	strb	w0, [x20,144]
	.loc 1 1187 0
	mov	w0, w24
	ldp	x19, x20, [sp,16]
	.cfi_remember_state
	.cfi_restore 20
	.cfi_restore 19
.LVL237:
	ldp	x21, x22, [sp,32]
	.cfi_restore 22
	.cfi_restore 21
.LVL238:
	ldp	x23, x24, [sp,48]
	.cfi_restore 24
	.cfi_restore 23
.LVL239:
	ldr	x25, [sp,64]
	.cfi_restore 25
.LVL240:
	ldp	x29, x30, [sp], 80
	.cfi_restore 30
	.cfi_restore 29
	.cfi_def_cfa 31, 0
	ret
.LVL241:
.L287:
	.cfi_restore_state
	.loc 1 1087 0
	mov	x0, x22
	mov	x1, 0
	bl	MP2_GetImageBuffer
.LVL242:
	mov	w24, w0
	cbz	w0, .L344
	.loc 1 1094 0
	add	x1, x21, 256
	add	x24, x22, 86016
	add	x1, x1, 16384
	ldr	w0, [x24,264]
	ldr	w1, [x1,2740]
	bl	FSP_GetFsImagePtr
.LVL243:
	mov	x23, x0
.LVL244:
	.loc 1 1095 0
	cbz	x0, .L291
	.loc 1 1097 0
	ldr	x2, [x22]
	.loc 1 1105 0
	mov	x3, -1
	.loc 1 1106 0
	adrp	x1, .LC26
	mov	w0, 29
	add	x1, x1, :lo12:.LC26
	.loc 1 1097 0
	ldr	x2, [x2,48]
	str	x2, [x23,224]
	.loc 1 1098 0
	ldr	x2, [x22]
	ldr	x2, [x2,64]
	str	x2, [x23,232]
	.loc 1 1099 0
	ldr	x2, [x22]
	ldr	x2, [x2,80]
	str	x2, [x23,240]
	.loc 1 1100 0
	ldr	x2, [x22]
	ldr	w2, [x2,96]
	str	w2, [x23,8]
	.loc 1 1101 0
	ldr	x2, [x22]
	ldr	w2, [x2,100]
	str	w2, [x23,12]
	.loc 1 1102 0
	ldr	x2, [x22]
	ldr	w2, [x2,104]
	str	w2, [x23,16]
	.loc 1 1103 0
	ldr	x2, [x22]
	ldr	w2, [x2,120]
	str	w2, [x23,20]
	.loc 1 1105 0
	ldr	x2, [x22]
	str	x3, [x2,48]
	.loc 1 1106 0
	ldr	x2, [x23,224]
	ldr	x3, [x23,232]
	bl	dprint_linux_kernel
.LVL245:
	.loc 1 1107 0
	ldrb	w0, [x19,9]
	cmp	w0, 3
	cset	w0, ne
	str	w0, [x23,32]
.L291:
	.loc 1 1115 0
	ldrb	w0, [x19,22]
	cmp	w0, 3
	beq	.L288
	.loc 1 1117 0
	add	x19, x21, 256
.LVL246:
	add	x19, x19, 16384
	ldr	w0, [x19,2696]
	.loc 1 1118 0
	ldr	w2, [x19,2732]
	ldr	w3, [x19,2736]
	.loc 1 1117 0 discriminator 2
	cmp	w0, wzr
	mov	w0, 2
	csinc	w0, w0, wzr, ne
	.loc 1 1118 0
	cmp	w2, w3
	.loc 1 1117 0 discriminator 4
	str	w0, [x19,2696]
	.loc 1 1118 0
	beq	.L294
	.loc 1 1121 0
	adrp	x1, .LC27
	mov	w0, 13
	add	x1, x1, :lo12:.LC27
	bl	dprint_linux_kernel
.LVL247:
	.loc 1 1122 0
	ldr	w0, [x24,264]
	mov	w2, 0
	ldr	w1, [x19,2732]
	bl	FSP_SetRef
.LVL248:
	ldr	w3, [x19,2736]
.L294:
	.loc 1 1125 0
	add	x19, x21, 256
	.loc 1 1127 0
	mov	w2, 1
	.loc 1 1125 0
	add	x19, x19, 16384
	.loc 1 1126 0
	ldr	w1, [x19,2740]
	.loc 1 1125 0
	str	w3, [x19,2732]
	.loc 1 1126 0
	str	w1, [x19,2736]
	.loc 1 1127 0
	ldr	w0, [x24,264]
	bl	FSP_SetRef
.LVL249:
	.loc 1 1128 0
	ldr	w0, [x24,264]
	ldr	w1, [x19,2732]
	bl	FSP_RemovePmv
.LVL250:
	.loc 1 1129 0
	ldr	w2, [x19,2740]
	adrp	x1, .LC28
	add	x1, x1, :lo12:.LC28
	mov	w0, 13
	bl	dprint_linux_kernel
.LVL251:
	b	.L288
.LVL252:
.L344:
	.loc 1 1089 0
	add	x21, x21, 256
	adrp	x1, .LC25
	add	x21, x21, 16384
	add	x1, x1, :lo12:.LC25
	ldr	w2, [x21,2644]
	bl	dprint_linux_kernel
.LVL253:
	.loc 1 1187 0
	ldr	x25, [sp,64]
	.cfi_remember_state
	.cfi_restore 25
	mov	w0, w24
	ldp	x19, x20, [sp,16]
	.cfi_restore 19
	.cfi_restore 20
.LVL254:
	ldp	x21, x22, [sp,32]
	.cfi_restore 21
	.cfi_restore 22
.LVL255:
	ldp	x23, x24, [sp,48]
	.cfi_restore 23
	.cfi_restore 24
.LVL256:
	ldp	x29, x30, [sp], 80
	.cfi_restore 29
	.cfi_restore 30
	.cfi_def_cfa 31, 0
	ret
.LVL257:
.L284:
	.cfi_restore_state
	.loc 1 1061 0
	ldr	w1, [x19,64]
	sub	w0, w0, w1
	strh	w0, [x20,146]
	.loc 1 1062 0
	ldr	w0, [x19,60]
	strh	w0, [x20,148]
	b	.L285
.L276:
	.loc 1 1032 0
	ldrb	w4, [x21,257]
	add	x0, x21, 256
	cmp	w4, 3
	beq	.L282
	.loc 1 1032 0 is_stmt 0 discriminator 1
	add	x20, x0, 16384
	ldr	w0, [x20,2648]
	cbz	w0, .L345
.L282:
	.loc 1 1047 0 is_stmt 1
	add	x0, x21, 256
	mov	w1, 1
	add	x0, x0, 16384
	str	w1, [x0,2648]
	b	.L279
.L338:
	.loc 1 1006 0
	ldrb	w1, [x19,26]
	.loc 1 1008 0
	ldrb	w0, [x19,24]
	.loc 1 1006 0
	strb	w1, [x19,7]
	.loc 1 1007 0
	strb	w1, [x19,6]
	.loc 1 1008 0
	strb	w0, [x19,5]
	.loc 1 1009 0
	strb	w0, [x19,4]
	b	.L275
.L340:
	.loc 1 1072 0
	ldrb	w0, [x19,25]
	strb	w0, [x20,1]
	.loc 1 1073 0
	ldrb	w0, [x19,23]
	strb	w0, [x20,2]
	b	.L286
.LVL258:
.L309:
	.loc 1 1139 0
	add	x21, x21, 256
	ldr	w0, [x24,264]
	add	x21, x21, 16384
	mov	w2, 1
	.loc 1 1141 0
	mov	w24, 0
	.loc 1 1139 0
	ldr	w1, [x21,2740]
	bl	FSP_ClearLogicFs
.LVL259:
	.loc 1 1140 0
	adrp	x1, .LC29
	mov	x3, x23
	mov	x4, x25
	mov	x5, x19
	add	x1, x1, :lo12:.LC29
	mov	w2, 1140
	mov	w0, 0
	bl	dprint_linux_kernel
.LVL260:
	.loc 1 1187 0
	ldr	x25, [sp,64]
	.cfi_remember_state
	.cfi_restore 25
.LVL261:
	mov	w0, w24
	ldp	x19, x20, [sp,16]
	.cfi_restore 19
	.cfi_restore 20
.LVL262:
	ldp	x21, x22, [sp,32]
	.cfi_restore 21
	.cfi_restore 22
.LVL263:
	ldp	x23, x24, [sp,48]
	.cfi_restore 23
	.cfi_restore 24
.LVL264:
	ldp	x29, x30, [sp], 80
	.cfi_restore 29
	.cfi_restore 30
	.cfi_def_cfa 31, 0
	ret
.LVL265:
.L339:
	.cfi_restore_state
	.loc 1 1019 0
	ldr	w2, [x20,2644]
	adrp	x1, .LC23
	add	x1, x1, :lo12:.LC23
	mov	w0, 1
	.loc 1 1022 0
	add	x24, x22, 86016
	.loc 1 1019 0
	bl	dprint_linux_kernel
.LVL266:
	.loc 1 1020 0
	str	wzr, [x20,2648]
	.loc 1 1022 0
	ldr	w1, [x20,2740]
	mov	w2, 1
	ldr	w0, [x24,264]
	bl	FSP_ClearLogicFs
.LVL267:
	.loc 1 1024 0
	ldrb	w0, [x23,22]
	cmp	w0, 3
	beq	.L279
	.loc 1 1026 0
	ldr	w0, [x20,2636]
	orr	w0, w0, 192
	str	w0, [x20,2636]
	b	.L279
.L345:
	.loc 1 1035 0
	ldr	w2, [x20,2644]
	adrp	x1, .LC24
	add	x1, x1, :lo12:.LC24
	mov	w3, 0
	mov	w0, 1
	.loc 1 1038 0
	add	x24, x22, 86016
	.loc 1 1035 0
	bl	dprint_linux_kernel
.LVL268:
	.loc 1 1038 0
	ldr	w0, [x24,264]
	mov	w2, 1
	ldr	w1, [x20,2740]
	bl	FSP_ClearLogicFs
.LVL269:
	.loc 1 1040 0
	ldrb	w0, [x23,22]
	cmp	w0, 3
	beq	.L282
	.loc 1 1042 0
	ldr	w0, [x20,2636]
	orr	w0, w0, 192
	str	w0, [x20,2636]
	b	.L282
.LVL270:
.L297:
	.loc 1 1146 0
	add	x21, x21, 256
	ldr	w0, [x24,264]
	add	x21, x21, 16384
	mov	w2, 1
	.loc 1 1149 0
	mov	w24, 0
	.loc 1 1146 0
	ldr	w1, [x21,2740]
	bl	FSP_ClearLogicFs
.LVL271:
	.loc 1 1147 0
	ldr	w2, [x21,2732]
	adrp	x1, .LC30
	ldr	w3, [x21,2740]
	add	x1, x1, :lo12:.LC30
	ldr	w4, [x21,2736]
	mov	w0, 0
	ldr	x5, [x23,296]
	ldr	x6, [x23,312]
	ldr	x7, [x23,304]
	bl	dprint_linux_kernel
.LVL272:
	.loc 1 1187 0
	ldr	x25, [sp,64]
	.cfi_remember_state
	.cfi_restore 25
.LVL273:
	mov	w0, w24
	ldp	x19, x20, [sp,16]
	.cfi_restore 19
	.cfi_restore 20
.LVL274:
	ldp	x21, x22, [sp,32]
	.cfi_restore 21
	.cfi_restore 22
.LVL275:
	ldp	x23, x24, [sp,48]
	.cfi_restore 23
	.cfi_restore 24
.LVL276:
	ldp	x29, x30, [sp], 80
	.cfi_restore 29
	.cfi_restore 30
	.cfi_def_cfa 31, 0
	ret
.LVL277:
.L343:
	.cfi_restore_state
	.loc 1 1159 0 discriminator 2
	ldr	x0, [x23,312]
	b	.L337
.L342:
	.loc 1 1158 0 discriminator 2
	ldr	x0, [x23,312]
	b	.L336
.L341:
	.loc 1 1154 0 discriminator 2
	ldr	x0, [x23,296]
	b	.L335
.L299:
	.loc 1 1153 0 discriminator 2
	ldr	w5, [x1,12]
	b	.L300
	.cfi_endproc
.LFE2645:
	.size	MP2_GetPictureInfo, .-MP2_GetPictureInfo
	.align	2
	.global	MP2_SetVDMInf
	.type	MP2_SetVDMInf, %function
MP2_SetVDMInf:
.LFB2653:
	.loc 1 1736 0
	.cfi_startproc
.LVL278:
	stp	x29, x30, [sp, -48]!
	.cfi_def_cfa_offset 48
	.cfi_offset 29, -48
	.cfi_offset 30, -40
	add	x29, sp, 0
	.cfi_def_cfa_register 29
	stp	x19, x20, [sp,16]
	.cfi_offset 19, -32
	.cfi_offset 20, -24
	.loc 1 1747 0
	mov	x20, 61696
	.loc 1 1736 0
	str	x21, [sp,32]
	.cfi_offset 21, -16
	.loc 1 1747 0
	add	x20, x0, x20
	.loc 1 1736 0
	mov	x19, x0
	.loc 1 1745 0
	add	x0, x0, 61440
.LVL279:
	add	x0, x0, 3152
.LVL280:
	.loc 1 1747 0
	ldrsb	w1, [x20,2576]
	.loc 1 1749 0
	ldr	w3, [x0,32]
	.loc 1 1747 0
	cmp	w1, 1
	.loc 1 1749 0
	ldr	w1, [x20,2580]
	.loc 1 1752 0
	add	w2, w3, 7
	.loc 1 1747 0
	beq	.L349
	.loc 1 1767 0
	cmp	w3, wzr
	ldr	w5, [x20,2568]
	csel	w2, w2, w3, lt
	.loc 1 1769 0
	add	w4, w1, w3, lsr 3
	.loc 1 1766 0
	add	w1, w3, w1, lsl 3
	.loc 1 1769 0
	and	w4, w4, -4
	.loc 1 1767 0
	add	w2, w5, w2, asr 3
	str	w2, [x20,2568]
	.loc 1 1764 0
	ldr	w2, [x20,2584]
	.loc 1 1770 0
	and	w1, w1, 31
	.loc 1 1769 0
	str	w4, [x19,168]
	.loc 1 1770 0
	str	w1, [x19,176]
	.loc 1 1764 0
	and	w21, w2, -4
	.loc 1 1771 0
	bl	BsResidBits
.LVL281:
	.loc 1 1773 0
	str	w21, [x19,172]
	.loc 1 1771 0
	str	w0, [x19,184]
	.loc 1 1774 0
	ldr	w0, [x20,2584]
	ubfiz	w0, w0, 3, 2
	str	w0, [x19,180]
	.loc 1 1775 0
	ldr	w0, [x20,2592]
	lsl	w0, w0, 3
	str	w0, [x19,188]
	.loc 1 1779 0
	ldp	x19, x20, [sp,16]
	.cfi_remember_state
	.cfi_restore 20
	.cfi_restore 19
.LVL282:
	ldr	x21, [sp,32]
	.cfi_restore 21
	ldp	x29, x30, [sp], 48
	.cfi_restore 30
	.cfi_restore 29
	.cfi_def_cfa 31, 0
	ret
.LVL283:
.L349:
	.cfi_restore_state
	.loc 1 1752 0
	cmp	w3, wzr
	ldr	w5, [x20,2568]
	csel	w2, w2, w3, lt
	.loc 1 1749 0
	add	w4, w1, w3, lsr 3
	.loc 1 1750 0
	add	w1, w3, w1, lsl 3
	.loc 1 1749 0
	and	w4, w4, -4
	.loc 1 1752 0
	add	w2, w5, w2, asr 3
	str	w2, [x20,2568]
	.loc 1 1755 0
	and	w1, w1, 31
	.loc 1 1754 0
	str	w4, [x19,168]
	.loc 1 1755 0
	str	w1, [x19,176]
	.loc 1 1756 0
	bl	BsResidBits
.LVL284:
	.loc 1 1758 0
	str	wzr, [x19,172]
	.loc 1 1756 0
	str	w0, [x19,184]
	.loc 1 1759 0
	str	wzr, [x19,180]
	.loc 1 1760 0
	str	wzr, [x19,188]
	.loc 1 1779 0
	ldp	x19, x20, [sp,16]
	.cfi_restore 19
	.cfi_restore 20
.LVL285:
	ldr	x21, [sp,32]
	.cfi_restore 21
	ldp	x29, x30, [sp], 48
	.cfi_restore 29
	.cfi_restore 30
	.cfi_def_cfa 31, 0
	ret
	.cfi_endproc
.LFE2653:
	.size	MP2_SetVDMInf, .-MP2_SetVDMInf
	.align	2
	.global	MP2_DecNewPic
	.type	MP2_DecNewPic, %function
MP2_DecNewPic:
.LFB2647:
	.loc 1 1365 0
	.cfi_startproc
.LVL286:
	stp	x29, x30, [sp, -64]!
	.cfi_def_cfa_offset 64
	.cfi_offset 29, -64
	.cfi_offset 30, -56
	add	x29, sp, 0
	.cfi_def_cfa_register 29
	stp	x19, x20, [sp,16]
	.cfi_offset 19, -48
	.cfi_offset 20, -40
	adrp	x20, __stack_chk_guard
	mov	x19, x0
	str	x21, [sp,32]
	.cfi_offset 21, -32
	.loc 1 1365 0
	ldr	x1, [x20,#:lo12:__stack_chk_guard]
	str	x1, [x29,56]
	.loc 1 1368 0
	bl	MP2_SetVDMInf
.LVL287:
	.loc 1 1369 0
	ldr	x0, [x19]
	add	x2, x19, 45056
	.loc 1 1371 0
	add	x1, x19, 65536
	.loc 1 1369 0
	ldr	w3, [x0,676]
	str	w3, [x2,252]
	.loc 1 1371 0
	ldr	x1, [x1,128]
	ldrb	w2, [x1,22]
	cmp	w2, 3
	beq	.L372
	.loc 1 1381 0
	cmp	w2, 2
	beq	.L373
.L352:
	.loc 1 1386 0
	add	x3, x19, 16
	str	x3, [x19,8]
	.loc 1 1388 0
	ldr	w2, [x0,880]
	cmp	w2, 1
	beq	.L374
.L354:
	.loc 1 1398 0
	cmp	w2, 2
	beq	.L375
.L355:
	.loc 1 1411 0
	add	x2, x19, 61440
	.loc 1 1424 0
	mov	w21, 1
	.loc 1 1411 0
	ldr	w0, [x2,2892]
	and	w0, w0, -16252929
	str	w0, [x2,2892]
	.loc 1 1419 0
	ldrb	w0, [x1,22]
	cmp	w0, w21
	beq	.L376
.L353:
	.loc 1 1425 0
	ldr	x2, [x29,56]
	mov	w0, w21
	ldr	x1, [x20,#:lo12:__stack_chk_guard]
	cmp	x2, x1
	bne	.L377
	ldp	x19, x20, [sp,16]
	.cfi_remember_state
	.cfi_restore 20
	.cfi_restore 19
.LVL288:
	ldr	x21, [sp,32]
	.cfi_restore 21
	ldp	x29, x30, [sp], 64
	.cfi_restore 30
	.cfi_restore 29
	.cfi_def_cfa 31, 0
	ret
.LVL289:
.L373:
	.cfi_restore_state
	.loc 1 1383 0
	add	x2, x19, 86016
	mov	w3, 1
	str	w3, [x2,276]
	.loc 1 1386 0
	add	x3, x19, 16
	str	x3, [x19,8]
	.loc 1 1388 0
	ldr	w2, [x0,880]
	cmp	w2, 1
	bne	.L354
.L374:
	.loc 1 1390 0
	cbz	x3, .L355
	.loc 1 1390 0 is_stmt 0 discriminator 1
	ldrb	w0, [x1,22]
	cmp	w0, 3
	bne	.L355
	.loc 1 1392 0 is_stmt 1
	str	xzr, [x19,8]
	.loc 1 1395 0
	mov	w21, 0
	b	.L353
.L376:
	.loc 1 1421 0
	adrp	x0, g_event_report
	ldr	x5, [x0,#:lo12:g_event_report]
	cbz	x5, .L353
.LBB48:
	.loc 1 1421 0 is_stmt 0 discriminator 1
	ldr	w0, [x19,188]
	add	x2, x29, 64
	ldr	w4, [x19,184]
	add	x19, x19, 86016
.LVL290:
	mov	w1, 20
	mov	w3, 4
	add	w4, w4, w0
	add	w0, w4, 7
	cmp	w4, wzr
	csel	w4, w0, w4, lt
	ldr	w0, [x19,264]
	asr	w4, w4, 3
	str	w4, [x2,-16]!
	blr	x5
.LVL291:
	b	.L353
.LVL292:
.L372:
.LBE48:
	.loc 1 1371 0 is_stmt 1 discriminator 1
	add	x2, x19, 86016
	ldr	w2, [x2,276]
	cbnz	w2, .L352
	.loc 1 1371 0 is_stmt 0 discriminator 2
	add	x2, x19, 61440
	ldr	w3, [x2,2952]
	cmp	w3, 2
	beq	.L352
	.loc 1 1375 0 is_stmt 1
	ldrb	w0, [x1,9]
	cmp	w0, 3
	beq	.L357
	.loc 1 1377 0
	ldr	w0, [x2,2904]
	.loc 1 1379 0
	mov	w21, 0
	.loc 1 1377 0
	cmp	w0, wzr
	cset	w0, eq
	str	w0, [x2,2904]
	b	.L353
.L375:
	.loc 1 1400 0
	ldr	w2, [x0,884]
	.loc 1 1400 0 is_stmt 0 discriminator 1
	cmp	w2, wzr
	ble	.L355
	cbz	x3, .L355
	.loc 1 1401 0 is_stmt 1
	ldrb	w2, [x1,22]
	cmp	w2, 3
	bne	.L355
	.loc 1 1403 0
	str	xzr, [x19,8]
	.loc 1 1407 0
	mov	w21, 0
	.loc 1 1405 0
	ldr	w1, [x0,884]
	sub	w1, w1, #1
	str	w1, [x0,884]
	.loc 1 1407 0
	b	.L353
.L357:
	.loc 1 1379 0
	mov	w21, 0
	b	.L353
.L377:
	.loc 1 1425 0
	bl	__stack_chk_fail
.LVL293:
	.cfi_endproc
.LFE2647:
	.size	MP2_DecNewPic, .-MP2_DecNewPic
	.align	2
	.global	MP2_RecordVFMWState
	.type	MP2_RecordVFMWState, %function
MP2_RecordVFMWState:
.LFB2654:
	.loc 1 1791 0
	.cfi_startproc
.LVL294:
	.loc 1 1797 0
	add	x3, x0, 65536
	.loc 1 1794 0
	ldr	x4, [x0]
.LBB49:
.LBB50:
	.loc 1 1430 0
	mov	w5, 0
.LBE50:
.LBE49:
	.loc 1 1799 0
	add	x1, x4, 560
	.loc 1 1797 0
	ldr	x2, [x3,128]
.LVL295:
	.loc 1 1799 0
	ldr	w6, [x2,48]
	str	w6, [x4,560]
	.loc 1 1800 0
	ldr	w4, [x2,52]
	str	w4, [x1,4]
.LBB52:
.LBB51:
	.loc 1 1430 0
	ldr	x3, [x3,128]
	ldr	w3, [x3,84]
	sub	w3, w3, #1
	cmp	w3, 2
	bhi	.L379
	adrp	x4, .LANCHOR1
	add	x4, x4, :lo12:.LANCHOR1
	ldr	w5, [x4,w3,uxtw 2]
.L379:
.LBE51:
.LBE52:
	.loc 1 1801 0
	str	w5, [x1,8]
	.loc 1 1806 0
	mov	x3, 61696
	.loc 1 1802 0
	str	wzr, [x1,12]
	.loc 1 1806 0
	add	x3, x0, x3
	.loc 1 1803 0
	str	wzr, [x1,16]
	.loc 1 1809 0
	add	x0, x0, 86016
.LVL296:
	.loc 1 1804 0
	ldr	w4, [x2,72]
	str	w4, [x1,20]
	.loc 1 1805 0
	str	wzr, [x1,24]
	.loc 1 1806 0
	ldr	w3, [x3,2692]
	cmp	w3, 1
	cset	w3, eq
	str	w3, [x1,28]
	.loc 1 1807 0
	ldr	w3, [x2,40]
	str	w3, [x1,32]
	.loc 1 1808 0
	ldr	w2, [x2,44]
.LVL297:
	str	w2, [x1,36]
	.loc 1 1809 0
	ldr	w2, [x0,268]
	str	w2, [x1,40]
	.loc 1 1810 0
	ldr	w3, [x0,268]
	ldr	w2, [x0,272]
	.loc 1 1811 0 discriminator 1
	sub	w0, w3, w2
	cmp	w3, w2
	csel	w0, w0, wzr, ge
	.loc 1 1810 0
	str	w0, [x1,44]
	.loc 1 1814 0
	ret
	.cfi_endproc
.LFE2654:
	.size	MP2_RecordVFMWState, .-MP2_RecordVFMWState
	.align	2
	.global	MP2_GetUsrData
	.type	MP2_GetUsrData, %function
MP2_GetUsrData:
.LFB2655:
	.loc 1 1819 0
	.cfi_startproc
.LVL298:
	stp	x29, x30, [sp, -96]!
	.cfi_def_cfa_offset 96
	.cfi_offset 29, -96
	.cfi_offset 30, -88
	add	x29, sp, 0
	.cfi_def_cfa_register 29
	stp	x23, x24, [sp,48]
	.cfi_offset 23, -48
	.cfi_offset 24, -40
	.loc 1 1827 0
	add	x24, x0, 61440
	.loc 1 1819 0
	mov	x23, x0
	stp	x19, x20, [sp,16]
	.cfi_offset 19, -80
	.cfi_offset 20, -72
	.loc 1 1827 0
	add	x20, x24, 3152
.LVL299:
	.loc 1 1819 0
	str	x27, [sp,80]
	.loc 1 1829 0
	mov	x0, x20
.LVL300:
	.loc 1 1819 0
	stp	x21, x22, [sp,32]
	stp	x25, x26, [sp,64]
	.cfi_offset 27, -16
	.cfi_offset 21, -64
	.cfi_offset 22, -56
	.cfi_offset 25, -32
	.cfi_offset 26, -24
	.loc 1 1829 0
	bl	BsToNextByte
.LVL301:
	.loc 1 1833 0 discriminator 1
	mov	w21, 0
.LVL302:
	.loc 1 1830 0
	mov	x0, x20
	bl	BsResidBits
.LVL303:
	cmp	w0, wzr
	add	w1, w0, 7
	csel	w22, w1, w0, lt
	asr	w22, w22, 3
	.loc 1 1833 0 discriminator 1
	cmp	w22, wzr
	ble	.L384
	mov	w19, 0
	.loc 1 1843 0
	adrp	x25, .LANCHOR2
	b	.L388
.L418:
	bl	BsGet
.LVL304:
	.loc 1 1833 0 discriminator 2
	add	w19, w19, 1
	.loc 1 1843 0
	add	x1, x25, :lo12:.LANCHOR2
	.loc 1 1833 0 discriminator 1
	cmp	w19, w22
	.loc 1 1843 0
	strb	w0, [x1,w21,sxtw]
	.loc 1 1844 0
	add	w21, w21, 1
	.loc 1 1833 0 discriminator 1
	beq	.L384
.L388:
	.loc 1 1835 0
	mov	w1, 24
	mov	x0, x20
	bl	BsShow
.LVL305:
	.loc 1 1836 0
	and	w2, w0, 16777215
	cmp	w2, 1
	.loc 1 1843 0
	mov	w1, 8
	mov	x0, x20
	.loc 1 1836 0
	beq	.L403
	.loc 1 1841 0
	cmp	w21, 1023
	ble	.L418
	.loc 1 1848 0
	mov	x0, x20
	mov	w1, 8
	.loc 1 1833 0 discriminator 2
	add	w19, w19, 1
	.loc 1 1848 0
	bl	BsGet
.LVL306:
	.loc 1 1833 0 discriminator 1
	cmp	w19, w22
	bne	.L388
.L384:
	.loc 1 1852 0 discriminator 1
	add	x25, x23, 45056
	add	x26, x25, 256
	add	x19, x26, 16384
	ldrsb	w0, [x19,2576]
	cbz	w0, .L401
.L405:
	.loc 1 1879 0 discriminator 1
	mov	w22, 0
.L385:
	.loc 1 1899 0
	add	x0, x25, 256
	add	x20, x23, 86016
.LVL307:
	add	x0, x0, 16384
	ldr	w19, [x0,2688]
	cmp	w19, 3
	ble	.L393
	add	x19, x24, 2912
	add	x20, x23, 86016
	add	x24, x24, 2944
.L394:
	.loc 1 1903 0
	ldr	x1, [x19]
	ldr	w0, [x20,264]
	bl	FreeUsdByDec
.LVL308:
	.loc 1 1904 0
	str	xzr, [x19],8
	.loc 1 1901 0 discriminator 1
	cmp	x19, x24
	bne	.L394
	.loc 1 1906 0
	add	x0, x25, 256
	mov	w19, 0
	add	x0, x0, 16384
	str	wzr, [x0,2688]
.L393:
	.loc 1 1909 0
	ldr	w0, [x20,264]
	add	x19, x23, x19, uxtw 3
	add	x19, x19, 61440
	bl	GetUsd
.LVL309:
	.loc 1 1910 0
	add	x1, x25, 256
	.loc 1 1909 0
	str	x0, [x19,2912]
	.loc 1 1910 0
	add	x2, x1, 16384
	ldr	w3, [x2,2688]
	add	x1, x1, x3, sxtw 3
	ldr	x1, [x1,19040]
	cbz	x1, .L395
	.loc 1 1912 0
	ldr	x1, [x23]
	.loc 1 1915 0
	add	x23, x23, 65536
.LVL310:
	.loc 1 1912 0
	ldr	x1, [x1,48]
	str	x1, [x0,1056]
	.loc 1 1913 0
	ldr	x0, [x19,2912]
	ldr	w1, [x2,2640]
	str	w1, [x0,1044]
	.loc 1 1914 0
	ldr	x0, [x19,2912]
	str	w21, [x0,1052]
	.loc 1 1915 0
	ldr	x1, [x23,128]
	ldr	x0, [x19,2912]
	ldrb	w1, [x1,22]
	strb	w1, [x0,1024]
	.loc 1 1916 0
	ldr	x0, [x19,2912]
	ldr	w1, [x20,268]
	str	w1, [x0,1032]
	.loc 1 1917 0
	ldr	x1, [x23,128]
	ldr	x0, [x19,2912]
	ldrb	w1, [x1,10]
	strb	w1, [x0,1025]
	.loc 1 1918 0
	ldr	w0, [x2,2636]
	tbz	x0, 19, .L396
	.loc 1 1920 0
	ldr	x0, [x19,2912]
	mov	w1, 3
	str	w1, [x0,1040]
.L397:
	.loc 1 1926 0
	ldr	x0, [x19,2912]
	ldr	w2, [x0,1052]
	cmp	w2, 1024
	ble	.L398
	.loc 1 1928 0
	mov	w1, 1024
	str	w1, [x0,1052]
	ldr	x0, [x19,2912]
	ldr	w2, [x0,1052]
.L398:
	.loc 1 1930 0
	adrp	x1, .LANCHOR2
	sxtw	x2, w2
	add	x1, x1, :lo12:.LANCHOR2
	bl	memcpy
.LVL311:
	.loc 1 1931 0
	adrp	x0, g_event_report
	ldr	x4, [x0,#:lo12:g_event_report]
	cbz	x4, .L399
	.loc 1 1931 0 is_stmt 0 discriminator 1
	ldr	w0, [x20,264]
	mov	w1, 6
	ldr	x2, [x19,2912]
	mov	w3, 1064
	blr	x4
.LVL312:
.L399:
	.loc 1 1932 0 is_stmt 1
	add	x25, x25, 256
	add	x25, x25, 16384
	ldr	w0, [x25,2688]
	add	w0, w0, 1
	str	w0, [x25,2688]
.LVL313:
.L417:
	.loc 1 1947 0
	mov	w0, w22
	ldr	x27, [sp,80]
	.cfi_remember_state
	.cfi_restore 27
	ldp	x19, x20, [sp,16]
	.cfi_restore 20
	.cfi_restore 19
	ldp	x21, x22, [sp,32]
	.cfi_restore 22
	.cfi_restore 21
.LVL314:
	ldp	x23, x24, [sp,48]
	.cfi_restore 24
	.cfi_restore 23
.LVL315:
	ldp	x25, x26, [sp,64]
	.cfi_restore 26
	.cfi_restore 25
	ldp	x29, x30, [sp], 96
	.cfi_restore 30
	.cfi_restore 29
	.cfi_def_cfa 31, 0
	ret
.LVL316:
.L401:
	.cfi_restore_state
	.loc 1 1852 0 discriminator 2
	ldrsb	w0, [x19,2577]
	mov	w22, 0
	cbz	w0, .L385
	.loc 1 1853 0
	ldr	w22, [x19,2592]
	cbz	w22, .L385
	.loc 1 1857 0
	adrp	x1, .LC32
	mov	w0, 0
	add	x1, x1, :lo12:.LC32
	.loc 1 1867 0
	mov	w22, 1
	.loc 1 1857 0
	bl	dprint_linux_kernel
.LVL317:
	.loc 1 1858 0
	ldrsw	x1, [x19,2588]
	.loc 1 1872 0
	mov	x0, x20
	.loc 1 1858 0
	ldr	x3, [x26,18992]
	sub	x1, x1, #3
	ldr	x2, [x26,19000]
	add	x4, x3, x1
	ldrh	w1, [x3,x1]
	strh	w1, [x2,-3]
	ldrb	w1, [x4,2]
	strb	w1, [x2,-1]
	.loc 1 1860 0
	ldr	w3, [x19,2584]
	.loc 1 1861 0
	ldr	x1, [x26,19000]
	.loc 1 1859 0
	ldr	w2, [x19,2592]
	.loc 1 1860 0
	sub	w3, w3, #3
	.loc 1 1864 0
	str	w3, [x19,2580]
	.loc 1 1861 0
	sub	x1, x1, #3
	.loc 1 1865 0
	str	x1, [x26,18992]
	.loc 1 1859 0
	add	w2, w2, 3
	.loc 1 1867 0
	strb	w22, [x19,2576]
	.loc 1 1866 0
	str	w2, [x19,2588]
	.loc 1 1868 0
	str	wzr, [x19,2584]
	.loc 1 1869 0
	str	xzr, [x26,19000]
	.loc 1 1870 0
	str	wzr, [x19,2592]
	.loc 1 1871 0
	strb	wzr, [x19,2577]
	.loc 1 1872 0
	bl	BsInit
.LVL318:
	.loc 1 1874 0
	strb	wzr, [x19,2576]
	.loc 1 1875 0
	strb	w22, [x19,2577]
	.loc 1 1877 0
	mov	x0, x20
	bl	BsToNextByte
.LVL319:
	.loc 1 1878 0
	mov	x0, x20
	bl	BsResidBits
.LVL320:
	cmp	w0, wzr
	add	w1, w0, 7
	csel	w26, w1, w0, lt
	asr	w26, w26, 3
	sub	w26, w26, #3
	.loc 1 1879 0 discriminator 1
	cmp	w26, wzr
	ble	.L405
	mov	w19, 0
	.loc 1 1889 0
	adrp	x27, .LANCHOR2
	b	.L391
.L419:
	bl	BsGet
.LVL321:
	add	x1, x27, :lo12:.LANCHOR2
	strb	w0, [x1,w21,sxtw]
	.loc 1 1890 0
	add	w21, w21, 1
.L390:
	.loc 1 1879 0 discriminator 2
	add	w19, w19, 1
	.loc 1 1879 0 is_stmt 0 discriminator 1
	cmp	w19, w26
	beq	.L405
.L391:
	.loc 1 1881 0 is_stmt 1
	mov	w1, 24
	mov	x0, x20
	bl	BsShow
.LVL322:
	.loc 1 1882 0
	and	w22, w0, 16777215
	cmp	w22, 1
	.loc 1 1889 0
	mov	w1, 8
	mov	x0, x20
	.loc 1 1882 0
	beq	.L385
	.loc 1 1887 0
	cmp	w21, 1023
	ble	.L419
	.loc 1 1894 0
	mov	x0, x20
	mov	w1, 8
	bl	BsGet
.LVL323:
	b	.L390
.L403:
	mov	w22, w2
	add	x25, x23, 45056
	b	.L385
.LVL324:
.L396:
	.loc 1 1924 0
	ldr	x0, [x19,2912]
	mov	w1, 1
	str	w1, [x0,1040]
	b	.L397
.LVL325:
.L395:
	.loc 1 1936 0
	adrp	x1, .LC33
	mov	w2, w3
	add	x1, x1, :lo12:.LC33
	mov	w0, 0
	bl	dprint_linux_kernel
.LVL326:
	b	.L417
	.cfi_endproc
.LFE2655:
	.size	MP2_GetUsrData, .-MP2_GetUsrData
	.align	2
	.global	next_start_code
	.type	next_start_code, %function
next_start_code:
.LFB2656:
	.loc 1 1959 0
	.cfi_startproc
.LVL327:
	stp	x29, x30, [sp, -48]!
	.cfi_def_cfa_offset 48
	.cfi_offset 29, -48
	.cfi_offset 30, -40
	add	x29, sp, 0
	.cfi_def_cfa_register 29
	stp	x19, x20, [sp,16]
	.cfi_offset 19, -32
	.cfi_offset 20, -24
	.loc 1 1967 0
	add	x20, x0, 61440
	add	x20, x20, 3152
.LVL328:
	.loc 1 1959 0
	stp	x21, x22, [sp,32]
	.cfi_offset 21, -16
	.cfi_offset 22, -8
	.loc 1 1959 0
	mov	x22, x0
	.loc 1 1969 0
	mov	x0, x20
.LVL329:
	bl	BsToNextByte
.LVL330:
	.loc 1 1971 0
	mov	x0, x20
	bl	BsGetNextBytePtr
.LVL331:
	mov	x19, x0
	.loc 1 1972 0
	mov	x0, x20
	bl	BsResidBits
.LVL332:
	cmp	w0, wzr
	add	w21, w0, 7
.LBB53:
.LBB54:
	.loc 1 1551 0
	mov	w1, 0
.LBE54:
.LBE53:
	.loc 1 1972 0
	csel	w21, w21, w0, lt
	asr	w21, w21, 3
.LBB57:
.LBB55:
	.loc 1 1551 0
	cmp	w21, 4
	bgt	.L446
.L421:
.LBE55:
.LBE57:
	.loc 1 1974 0
	mov	x0, x20
	.loc 1 1977 0 discriminator 1
	mov	w19, 0
	.loc 1 1974 0
	bl	BsLongSkip
.LVL333:
	.loc 1 1976 0
	mov	x0, x20
	bl	BsResidBits
.LVL334:
	cmp	w0, wzr
	add	w21, w0, 7
	csel	w21, w21, w0, lt
	asr	w21, w21, 3
	sub	w21, w21, #3
	.loc 1 1977 0 discriminator 1
	cmp	w21, wzr
	bgt	.L440
	b	.L428
.L425:
	.loc 1 1983 0
	bl	BsSkip
.LVL335:
	.loc 1 1977 0 discriminator 1
	cmp	w19, w21
	beq	.L428
.L440:
	.loc 1 1979 0
	mov	w1, 24
	mov	x0, x20
	.loc 1 1977 0 discriminator 2
	add	w19, w19, 1
	.loc 1 1979 0
	bl	BsShow
.LVL336:
	cmp	w0, 1
	.loc 1 1983 0
	mov	w1, 8
	mov	x0, x20
	.loc 1 1979 0
	bne	.L425
.L430:
	.loc 1 1981 0
	mov	w0, 1
	.loc 1 2030 0
	ldp	x19, x20, [sp,16]
	.cfi_remember_state
	.cfi_restore 20
	.cfi_restore 19
.LVL337:
	ldp	x21, x22, [sp,32]
	.cfi_restore 22
	.cfi_restore 21
.LVL338:
	ldp	x29, x30, [sp], 48
	.cfi_restore 30
	.cfi_restore 29
	.cfi_def_cfa 31, 0
	ret
.LVL339:
.L428:
	.cfi_restore_state
	.loc 1 1986 0
	add	x22, x22, 45056
.LVL340:
	add	x22, x22, 256
	add	x19, x22, 16384
	ldrsb	w0, [x19,2576]
	cbnz	w0, .L424
	.loc 1 1986 0 is_stmt 0 discriminator 1
	ldrsb	w0, [x19,2577]
	cbz	w0, .L424
	.loc 1 1986 0 discriminator 2
	ldr	w0, [x19,2592]
	cbz	w0, .L424
	.loc 1 1991 0 is_stmt 1
	adrp	x1, .LC34
	mov	w0, 7
	add	x1, x1, :lo12:.LC34
	.loc 1 2001 0
	mov	w21, 1
	.loc 1 1991 0
	bl	dprint_linux_kernel
.LVL341:
	.loc 1 1992 0
	ldrsw	x1, [x19,2588]
	.loc 1 2006 0
	mov	x0, x20
	.loc 1 1992 0
	ldr	x3, [x22,18992]
	sub	x1, x1, #3
	ldr	x2, [x22,19000]
	add	x4, x3, x1
	ldrh	w1, [x3,x1]
	strh	w1, [x2,-3]
	ldrb	w1, [x4,2]
	strb	w1, [x2,-1]
	.loc 1 1994 0
	ldr	w3, [x19,2584]
	.loc 1 1995 0
	ldr	x1, [x22,19000]
	.loc 1 1993 0
	ldr	w2, [x19,2592]
	.loc 1 1994 0
	sub	w3, w3, #3
	.loc 1 1998 0
	str	w3, [x19,2580]
	.loc 1 1995 0
	sub	x1, x1, #3
	.loc 1 1999 0
	str	x1, [x22,18992]
	.loc 1 1993 0
	add	w2, w2, 3
	.loc 1 2001 0
	strb	w21, [x19,2576]
	.loc 1 2000 0
	str	w2, [x19,2588]
	.loc 1 2002 0
	str	wzr, [x19,2584]
	.loc 1 2003 0
	str	xzr, [x22,19000]
	.loc 1 2004 0
	str	wzr, [x19,2592]
	.loc 1 2005 0
	strb	wzr, [x19,2577]
	.loc 1 2006 0
	bl	BsInit
.LVL342:
	.loc 1 2008 0
	strb	wzr, [x19,2576]
	.loc 1 2009 0
	strb	w21, [x19,2577]
	.loc 1 2011 0
	mov	x0, x20
	bl	BsToNextByte
.LVL343:
	.loc 1 2013 0
	mov	x0, x20
	bl	BsGetNextBytePtr
.LVL344:
	mov	x19, x0
	.loc 1 2014 0
	mov	x0, x20
	bl	BsResidBits
.LVL345:
	cmp	w0, wzr
	add	w1, w0, 7
	csel	w2, w1, w0, lt
.LBB58:
.LBB59:
	.loc 1 1551 0
	mov	w1, 0
.LBE59:
.LBE58:
	.loc 1 2014 0
	asr	w2, w2, 3
.LBB62:
.LBB60:
	.loc 1 1551 0
	cmp	w2, 4
	bgt	.L447
.L429:
.LBE60:
.LBE62:
	.loc 1 2016 0
	mov	x0, x20
	bl	BsLongSkip
.LVL346:
	.loc 1 2018 0
	mov	x0, x20
	bl	BsResidBits
.LVL347:
	cmp	w0, wzr
	add	w1, w0, 7
	csel	w21, w1, w0, lt
	asr	w21, w21, 3
	sub	w21, w21, #3
	.loc 1 2019 0 discriminator 1
	cmp	w21, wzr
	ble	.L424
	mov	w19, 0
	b	.L431
.L448:
	.loc 1 2025 0
	bl	BsSkip
.LVL348:
	.loc 1 2019 0 discriminator 1
	cmp	w19, w21
	beq	.L424
.L431:
	.loc 1 2021 0
	mov	w1, 24
	mov	x0, x20
	.loc 1 2019 0 discriminator 2
	add	w19, w19, 1
	.loc 1 2021 0
	bl	BsShow
.LVL349:
	cmp	w0, 1
	.loc 1 2025 0
	mov	w1, 8
	mov	x0, x20
	.loc 1 2021 0
	bne	.L448
	b	.L430
.L424:
	.loc 1 2029 0
	mov	w0, 0
	.loc 1 2030 0
	ldp	x19, x20, [sp,16]
	.cfi_remember_state
	.cfi_restore 19
	.cfi_restore 20
.LVL350:
	ldp	x21, x22, [sp,32]
	.cfi_restore 21
	.cfi_restore 22
	ldp	x29, x30, [sp], 48
	.cfi_restore 29
	.cfi_restore 30
	.cfi_def_cfa 31, 0
	ret
.LVL351:
.L446:
	.cfi_restore_state
.LBB63:
.LBB56:
	mov	w1, w21
	mov	x0, x19
	bl	MP2_SearchStartCode.part.0
.LVL352:
	lsl	w1, w0, 3
	b	.L421
.LVL353:
.L447:
.LBE56:
.LBE63:
.LBB64:
.LBB61:
	mov	w1, w2
	mov	x0, x19
	bl	MP2_SearchStartCode.part.0
.LVL354:
	lsl	w1, w0, 3
	b	.L429
.LBE61:
.LBE64:
	.cfi_endproc
.LFE2656:
	.size	next_start_code, .-next_start_code
	.align	2
	.global	GetSliceHdr
	.type	GetSliceHdr, %function
GetSliceHdr:
.LFB2642:
	.loc 1 631 0
	.cfi_startproc
.LVL355:
	stp	x29, x30, [sp, -64]!
	.cfi_def_cfa_offset 64
	.cfi_offset 29, -64
	.cfi_offset 30, -56
	add	x29, sp, 0
	.cfi_def_cfa_register 29
	str	x23, [sp,48]
	.cfi_offset 23, -16
	.loc 1 643 0
	mov	x23, 61696
	.loc 1 631 0
	stp	x19, x20, [sp,16]
	.loc 1 643 0
	add	x23, x0, x23
	.cfi_offset 19, -48
	.cfi_offset 20, -40
	.loc 1 637 0
	add	x20, x0, 61440
	.loc 1 631 0
	stp	x21, x22, [sp,32]
	.cfi_offset 21, -32
	.cfi_offset 22, -24
	.loc 1 637 0
	add	x20, x20, 3152
.LVL356:
	.loc 1 631 0
	mov	x21, x0
	.loc 1 643 0
	add	x22, x23, 2716
	.loc 1 639 0
	b	.L450
.LVL357:
.L458:
	.loc 1 641 0
	bl	BsShow
.LVL358:
	mov	w19, w0
.LVL359:
	.loc 1 643 0
	mov	x0, x20
	.loc 1 645 0
	sub	w19, w19, #257
	.loc 1 643 0
	bl	BsPos
.LVL360:
	str	w0, [x22]
	.loc 1 645 0
	cmp	w19, 174
	.loc 1 672 0
	mov	x0, x20
	mov	w1, 32
	.loc 1 645 0
	bls	.L466
	.loc 1 672 0
	bl	BsSkip
.LVL361:
.L450:
	.loc 1 639 0
	mov	x0, x21
	bl	next_start_code
.LVL362:
	mov	w19, w0
.LVL363:
	cmp	w19, 1
	.loc 1 641 0
	mov	w1, 32
	mov	x0, x20
	.loc 1 639 0
	beq	.L458
	.loc 1 676 0
	cmn	w19, #1
	beq	.L459
	mov	w0, w19
.L456:
	.loc 1 682 0
	ldp	x19, x20, [sp,16]
	.cfi_remember_state
	.cfi_restore 20
	.cfi_restore 19
.LVL364:
	ldp	x21, x22, [sp,32]
	.cfi_restore 22
	.cfi_restore 21
.LVL365:
	ldr	x23, [sp,48]
	.cfi_restore 23
	ldp	x29, x30, [sp], 64
	.cfi_restore 30
	.cfi_restore 29
	.cfi_def_cfa 31, 0
	ret
.LVL366:
.L459:
	.cfi_restore_state
	.loc 1 678 0
	adrp	x0, g_event_report
	ldr	x4, [x0,#:lo12:g_event_report]
	cbz	x4, .L465
	.loc 1 678 0 is_stmt 0 discriminator 1
	add	x21, x21, 86016
.LVL367:
	mov	w1, 113
	mov	x2, 0
	mov	w3, 0
	ldr	w0, [x21,264]
	blr	x4
.LVL368:
.L465:
	mov	w0, -1
	.loc 1 682 0 is_stmt 1
	ldr	x23, [sp,48]
	.cfi_remember_state
	.cfi_restore 23
	ldp	x19, x20, [sp,16]
	.cfi_restore 19
	.cfi_restore 20
.LVL369:
	ldp	x21, x22, [sp,32]
	.cfi_restore 21
	.cfi_restore 22
.LVL370:
	ldp	x29, x30, [sp], 64
	.cfi_restore 29
	.cfi_restore 30
	.cfi_def_cfa 31, 0
	ret
.LVL371:
.L466:
	.cfi_restore_state
	.loc 1 647 0
	bl	BsResidBits
.LVL372:
	cmp	w0, 40
	ble	.L459
	.loc 1 657 0
	ldr	w0, [x23,2632]
	.loc 1 655 0
	str	wzr, [x23,2712]
	.loc 1 657 0
	cbnz	w0, .L457
	.loc 1 659 0
	mov	x0, x21
	bl	MP2_GetSequenceInfo
.LVL373:
	.loc 1 660 0
	ldr	w1, [x23,2704]
	.loc 1 662 0
	mov	w0, 0
	.loc 1 660 0
	cbz	w1, .L456
.L457:
	.loc 1 665 0
	mov	x0, x21
	bl	MP2_ProtocolPPSCheck
.LVL374:
	.loc 1 682 0
	ldr	x23, [sp,48]
	.cfi_restore 23
	.loc 1 665 0
	mov	w0, 1
	.loc 1 682 0
	ldp	x19, x20, [sp,16]
	.cfi_restore 19
	.cfi_restore 20
.LVL375:
	ldp	x21, x22, [sp,32]
	.cfi_restore 21
	.cfi_restore 22
.LVL376:
	ldp	x29, x30, [sp], 64
	.cfi_restore 29
	.cfi_restore 30
	.cfi_def_cfa 31, 0
	ret
	.cfi_endproc
.LFE2642:
	.size	GetSliceHdr, .-GetSliceHdr
	.align	2
	.global	sequence_header
	.type	sequence_header, %function
sequence_header:
.LFB2657:
	.loc 1 2042 0
	.cfi_startproc
.LVL377:
	stp	x29, x30, [sp, -80]!
	.cfi_def_cfa_offset 80
	.cfi_offset 29, -80
	.cfi_offset 30, -72
	.loc 1 2052 0
	mov	w2, 65536
	.loc 1 2054 0
	mov	w1, 12
	.loc 1 2042 0
	add	x29, sp, 0
	.cfi_def_cfa_register 29
	stp	x19, x20, [sp,16]
	.cfi_offset 19, -64
	.cfi_offset 20, -56
	.loc 1 2052 0
	mov	x19, 61696
	.loc 1 2042 0
	stp	x21, x22, [sp,32]
	.loc 1 2052 0
	add	x19, x0, x19
	.cfi_offset 21, -48
	.cfi_offset 22, -40
	.loc 1 2042 0
	mov	x21, x0
	.loc 1 2050 0
	add	x0, x0, 65536
.LVL378:
	.loc 1 2042 0
	stp	x23, x24, [sp,48]
	stp	x25, x26, [sp,64]
	.cfi_offset 23, -32
	.cfi_offset 24, -24
	.cfi_offset 25, -16
	.cfi_offset 26, -8
	.loc 1 2049 0
	add	x23, x21, 61440
	add	x20, x23, 3152
.LVL379:
	.loc 1 2050 0
	ldr	x24, [x0,128]
.LVL380:
	.loc 1 2052 0
	str	w2, [x19,2636]
	.loc 1 2054 0
	mov	x0, x20
	.loc 1 2053 0
	str	wzr, [x19,2632]
	.loc 1 2054 0
	bl	BsGet
.LVL381:
	str	w0, [x24,48]
	.loc 1 2055 0
	mov	w1, 12
	mov	x0, x20
	bl	BsGet
.LVL382:
	str	w0, [x24,52]
	.loc 1 2056 0
	mov	w1, 4
	mov	x0, x20
	bl	BsGet
.LVL383:
	str	w0, [x24,84]
	.loc 1 2057 0
	mov	w1, 4
	mov	x0, x20
	bl	BsGet
.LVL384:
	str	w0, [x24,88]
	.loc 1 2058 0
	mov	w1, 18
	mov	x0, x20
	bl	BsGet
.LVL385:
	str	w0, [x24,92]
	.loc 1 2059 0
	mov	w1, 1
	mov	x0, x20
	bl	BsGet
.LVL386:
	cbnz	w0, .L468
	.loc 1 2061 0
	ldr	w0, [x19,2636]
	orr	w0, w0, 1
	str	w0, [x19,2636]
.L468:
	.loc 1 2063 0
	mov	w1, 10
	mov	x0, x20
	adrp	x22, .LANCHOR3
	bl	BsGet
.LVL387:
	str	w0, [x24,96]
	.loc 1 2064 0
	mov	w1, 1
	mov	x0, x20
	bl	BsGet
.LVL388:
	strb	w0, [x24,1]
	.loc 1 2066 0
	mov	w1, 1
	mov	x0, x20
	bl	BsGet
.LVL389:
	cmp	w0, 1
	str	w0, [x24,76]
	beq	.L485
	add	x0, x22, :lo12:.LANCHOR3
	add	x1, x23, 3192
	add	x3, x0, 64
.L473:
	.loc 1 2074 0
	ldrb	w2, [x0],1
	str	w2, [x1],4
	.loc 1 2073 0 discriminator 1
	cmp	x0, x3
	bne	.L473
	.loc 1 2077 0
	mov	x0, x20
	mov	w1, 1
	bl	BsGet
.LVL390:
	cmp	w0, 1
	str	w0, [x24,80]
	beq	.L486
.L482:
	add	x19, x23, 3448
	.loc 1 2085 0
	mov	x0, 68719476752
	add	x23, x23, 3704
.L476:
	str	x0, [x19],8
	cmp	x19, x23
	bne	.L476
	.loc 1 2088 0
	mov	w0, 1
	ldp	x19, x20, [sp,16]
	.cfi_remember_state
	.cfi_restore 20
	.cfi_restore 19
.LVL391:
	ldp	x21, x22, [sp,32]
	.cfi_restore 22
	.cfi_restore 21
.LVL392:
	ldp	x23, x24, [sp,48]
	.cfi_restore 24
	.cfi_restore 23
.LVL393:
	ldp	x25, x26, [sp,64]
	.cfi_restore 26
	.cfi_restore 25
	ldp	x29, x30, [sp], 80
	.cfi_restore 30
	.cfi_restore 29
	.cfi_def_cfa 31, 0
	ret
.LVL394:
.L485:
	.cfi_restore_state
	add	x25, x22, :lo12:.LANCHOR3
	add	x25, x25, 64
	add	x26, x25, 64
.L470:
	.loc 1 2069 0
	ldrb	w19, [x25],1
	mov	x0, x20
	mov	w1, 8
	add	x19, x21, x19, sxtw 2
	add	x19, x19, 49152
	bl	BsGet
.LVL395:
	.loc 1 2068 0 discriminator 1
	cmp	x25, x26
	.loc 1 2069 0
	str	w0, [x19,15480]
	.loc 1 2068 0 discriminator 1
	bne	.L470
	.loc 1 2077 0
	mov	x0, x20
	mov	w1, 1
	bl	BsGet
.LVL396:
	cmp	w0, 1
	str	w0, [x24,80]
	bne	.L482
.L486:
	add	x22, x22, :lo12:.LANCHOR3
	add	x22, x22, 64
	add	x23, x22, 64
.L475:
	.loc 1 2080 0
	ldrb	w19, [x22],1
	mov	x0, x20
	mov	w1, 8
	add	x19, x21, x19, sxtw 2
	add	x19, x19, 49152
	bl	BsGet
.LVL397:
	.loc 1 2079 0 discriminator 1
	cmp	x22, x23
	.loc 1 2080 0
	str	w0, [x19,15736]
	.loc 1 2079 0 discriminator 1
	bne	.L475
	.loc 1 2088 0
	mov	w0, 1
	ldp	x19, x20, [sp,16]
	.cfi_restore 19
	.cfi_restore 20
.LVL398:
	ldp	x21, x22, [sp,32]
	.cfi_restore 21
	.cfi_restore 22
.LVL399:
	ldp	x23, x24, [sp,48]
	.cfi_restore 23
	.cfi_restore 24
.LVL400:
	ldp	x25, x26, [sp,64]
	.cfi_restore 25
	.cfi_restore 26
	ldp	x29, x30, [sp], 80
	.cfi_restore 29
	.cfi_restore 30
	.cfi_def_cfa 31, 0
	ret
	.cfi_endproc
.LFE2657:
	.size	sequence_header, .-sequence_header
	.align	2
	.global	group_of_pictures_header
	.type	group_of_pictures_header, %function
group_of_pictures_header:
.LFB2658:
	.loc 1 2100 0
	.cfi_startproc
.LVL401:
	stp	x29, x30, [sp, -48]!
	.cfi_def_cfa_offset 48
	.cfi_offset 29, -48
	.cfi_offset 30, -40
	.loc 1 2105 0
	add	x2, x0, 65536
	.loc 1 2107 0
	mov	w1, 1
	.loc 1 2100 0
	add	x29, sp, 0
	.cfi_def_cfa_register 29
	stp	x19, x20, [sp,16]
	str	x21, [sp,32]
	.cfi_offset 19, -32
	.cfi_offset 20, -24
	.cfi_offset 21, -16
	.loc 1 2104 0
	add	x19, x0, 61440
	add	x20, x19, 3152
.LVL402:
	.loc 1 2105 0
	ldr	x21, [x2,128]
.LVL403:
	.loc 1 2107 0
	mov	x0, x20
.LVL404:
	bl	BsGet
.LVL405:
	.loc 1 2108 0
	mov	w1, 5
	.loc 1 2107 0
	strb	w0, [x21,2]
	.loc 1 2108 0
	mov	x0, x20
	bl	BsGet
.LVL406:
	str	w0, [x21,100]
	.loc 1 2109 0
	mov	w1, 6
	mov	x0, x20
	bl	BsGet
.LVL407:
	str	w0, [x21,104]
	.loc 1 2110 0
	mov	w1, 1
	mov	x0, x20
	bl	BsSkip
.LVL408:
	.loc 1 2111 0
	mov	x0, x20
	mov	w1, 6
	bl	BsGet
.LVL409:
	str	w0, [x21,108]
	.loc 1 2112 0
	mov	w1, 6
	mov	x0, x20
	bl	BsGet
.LVL410:
	str	w0, [x21,112]
	.loc 1 2113 0
	mov	w1, 1
	mov	x0, x20
	bl	BsGet
.LVL411:
	str	w0, [x21,116]
	.loc 1 2114 0
	mov	w1, 1
	mov	x0, x20
	bl	BsGet
.LVL412:
	str	w0, [x21,120]
	.loc 1 2117 0
	add	x1, x19, 3036
	.loc 1 2119 0
	add	x2, x19, 3060
	.loc 1 2117 0
	ldr	w4, [x19,3044]
	ldr	x3, [x1]
	str	x3, [x19,3024]
	str	w4, [x19,3032]
	.loc 1 2118 0
	ldr	x3, [x19,3048]
	str	x3, [x1]
	ldr	w3, [x19,3056]
	str	w3, [x19,3044]
	.loc 1 2119 0
	ldr	x1, [x2]
	str	x1, [x19,3048]
	ldr	w1, [x19,3068]
	str	w1, [x19,3056]
	.loc 1 2121 0
	str	wzr, [x19,3060]
	.loc 1 2122 0
	str	wzr, [x19,3068]
	.loc 1 2123 0
	str	wzr, [x19,3064]
	.loc 1 2125 0
	ldp	x19, x20, [sp,16]
	.cfi_restore 20
	.cfi_restore 19
.LVL413:
	ldr	x21, [sp,32]
	.cfi_restore 21
.LVL414:
	ldp	x29, x30, [sp], 48
	.cfi_restore 30
	.cfi_restore 29
	.cfi_def_cfa 31, 0
	ret
	.cfi_endproc
.LFE2658:
	.size	group_of_pictures_header, .-group_of_pictures_header
	.align	2
	.global	sequence_extension
	.type	sequence_extension, %function
sequence_extension:
.LFB2660:
	.loc 1 2179 0
	.cfi_startproc
.LVL415:
	stp	x29, x30, [sp, -80]!
	.cfi_def_cfa_offset 80
	.cfi_offset 29, -80
	.cfi_offset 30, -72
	.loc 1 2194 0
	mov	w1, 8
	.loc 1 2179 0
	add	x29, sp, 0
	.cfi_def_cfa_register 29
	stp	x23, x24, [sp,48]
	.cfi_offset 23, -32
	.cfi_offset 24, -24
	.loc 1 2192 0
	add	x23, x0, 45056
	.loc 1 2179 0
	stp	x21, x22, [sp,32]
	.cfi_offset 21, -48
	.cfi_offset 22, -40
	.loc 1 2192 0
	add	x21, x23, 256
	.loc 1 2179 0
	mov	x22, x0
	.loc 1 2192 0
	add	x21, x21, 16384
	.loc 1 2190 0
	add	x0, x0, 65536
.LVL416:
	.loc 1 2179 0
	stp	x25, x26, [sp,64]
	stp	x19, x20, [sp,16]
	.cfi_offset 25, -16
	.cfi_offset 26, -8
	.cfi_offset 19, -64
	.cfi_offset 20, -56
	.loc 1 2189 0
	add	x19, x22, 61440
	.loc 1 2192 0
	ldr	w2, [x21,2636]
	.loc 1 2189 0
	add	x19, x19, 3152
.LVL417:
	.loc 1 2190 0
	ldr	x20, [x0,128]
.LVL418:
	.loc 1 2194 0
	mov	x0, x19
	.loc 1 2192 0
	orr	w2, w2, 131072
	.loc 1 2193 0
	str	wzr, [x21,2632]
	.loc 1 2192 0
	str	w2, [x21,2636]
	.loc 1 2194 0
	bl	BsGet
.LVL419:
	str	w0, [x20,124]
	.loc 1 2195 0
	mov	w1, 1
	mov	x0, x19
	bl	BsGet
.LVL420:
	strb	w0, [x20,27]
	.loc 1 2196 0
	mov	w1, 2
	mov	x0, x19
	bl	BsGet
.LVL421:
	strb	w0, [x20,28]
	.loc 1 2197 0
	mov	w1, 2
	mov	x0, x19
	bl	BsGet
.LVL422:
	mov	w25, w0
	.loc 1 2198 0
	mov	w1, 2
	mov	x0, x19
	bl	BsGet
.LVL423:
	mov	w26, w0
	.loc 1 2199 0
	mov	w1, 12
	mov	x0, x19
	bl	BsGet
.LVL424:
	mov	w24, w0
	.loc 1 2200 0
	mov	w1, 1
	mov	x0, x19
	bl	BsGet
.LVL425:
	cbnz	w0, .L489
	.loc 1 2202 0
	ldr	w0, [x21,2636]
	orr	w0, w0, 2
	str	w0, [x21,2636]
.L488:
	.loc 1 2271 0
	ldp	x19, x20, [sp,16]
	.cfi_remember_state
	.cfi_restore 20
	.cfi_restore 19
.LVL426:
	ldp	x21, x22, [sp,32]
	.cfi_restore 22
	.cfi_restore 21
.LVL427:
	ldp	x23, x24, [sp,48]
	.cfi_restore 24
	.cfi_restore 23
	ldp	x25, x26, [sp,64]
	.cfi_restore 26
	.cfi_restore 25
	ldp	x29, x30, [sp], 80
	.cfi_restore 30
	.cfi_restore 29
	.cfi_def_cfa 31, 0
	ret
.LVL428:
.L489:
	.cfi_restore_state
	.loc 1 2205 0
	mov	w1, 8
	mov	x0, x19
	bl	BsGet
.LVL429:
	mov	w21, w0
.LVL430:
	.loc 1 2206 0
	mov	w1, 1
	mov	x0, x19
	bl	BsGet
.LVL431:
	strb	w0, [x20,29]
	.loc 1 2207 0
	mov	w1, 2
	mov	x0, x19
	bl	BsGet
.LVL432:
	strb	w0, [x20,30]
	.loc 1 2208 0
	mov	w1, 5
	mov	x0, x19
	bl	BsGet
.LVL433:
	.loc 1 2210 0
	and	w2, w0, 255
	.loc 1 2216 0
	ldrb	w1, [x20,30]
	add	w2, w2, 1
	.loc 1 2208 0
	strb	w0, [x20,31]
	.loc 1 2215 0
	adrp	x0, .LANCHOR1
	.loc 1 2216 0
	add	w1, w1, 1
	.loc 1 2215 0
	add	x0, x0, :lo12:.LANCHOR1
	ldr	w3, [x20,88]
	add	x0, x0, 16
	.loc 1 2216 0
	sdiv	w1, w1, w2
	.loc 1 2219 0
	ldr	w2, [x20,124]
	.loc 1 2215 0
	ldr	w0, [x0,x3,lsl 2]
	mul	w0, w1, w0
	str	w0, [x20,72]
	.loc 1 2219 0
	tbnz	x2, 7, .L514
	.loc 1 2231 0
	ubfx	x0, x2, 4, 3
	.loc 1 2232 0
	and	w2, w2, 15
	.loc 1 2231 0
	str	w0, [x20,40]
	.loc 1 2232 0
	str	w2, [x20,44]
.L492:
	.loc 1 2234 0
	ldr	w1, [x20,48]
	.loc 1 2235 0
	ldr	w0, [x20,52]
	.loc 1 2234 0
	and	w1, w1, 4095
	.loc 1 2235 0
	and	w0, w0, 4095
	.loc 1 2234 0
	orr	w25, w1, w25, lsl 12
	.loc 1 2235 0
	orr	w26, w0, w26, lsl 12
	.loc 1 2234 0
	str	w25, [x20,48]
	.loc 1 2235 0
	str	w26, [x20,52]
	.loc 1 2236 0 discriminator 1
	cbz	w25, .L501
	cbz	w26, .L501
.L493:
	.loc 1 2240 0
	cmp	w25, 8192
	bhi	.L495
	.loc 1 2240 0 is_stmt 0 discriminator 1
	ldr	w0, [x20,52]
	cmp	w0, 8192
	bls	.L496
.L495:
	.loc 1 2242 0 is_stmt 1
	add	x23, x23, 256
	.loc 1 2243 0
	adrp	x0, g_event_report
	.loc 1 2242 0
	add	x23, x23, 16384
	.loc 1 2243 0
	ldr	x4, [x0,#:lo12:g_event_report]
	.loc 1 2242 0
	ldr	w0, [x23,2636]
	orr	w0, w0, 1
	str	w0, [x23,2636]
	.loc 1 2243 0
	cbz	x4, .L496
	.loc 1 2243 0 is_stmt 0 discriminator 1
	add	x0, x22, 86016
	mov	w1, 102
	mov	x2, 0
	mov	w3, 0
	ldr	w0, [x0,264]
	blr	x4
.LVL434:
.L496:
	.loc 1 2252 0 is_stmt 1
	ldr	w0, [x20,92]
	.loc 1 2253 0
	mov	w3, 400
	.loc 1 2256 0
	ldr	w2, [x20,40]
	.loc 1 2252 0
	add	w24, w0, w24, lsl 18
	.loc 1 2254 0
	ldr	w1, [x20,96]
	.loc 1 2256 0
	sub	w0, w2, #4
	.loc 1 2252 0
	str	w24, [x20,92]
	.loc 1 2253 0
	mul	w24, w24, w3
	.loc 1 2254 0
	add	w21, w1, w21, lsl 10
.LVL435:
	.loc 1 2253 0
	str	w24, [x20,68]
	.loc 1 2254 0
	str	w21, [x20,96]
	.loc 1 2256 0
	cmp	w0, 1
	bls	.L498
	.loc 1 2259 0
	adrp	x0, g_event_report
	ldr	x4, [x0,#:lo12:g_event_report]
	cbz	x4, .L499
	.loc 1 2259 0 is_stmt 0 discriminator 1
	add	x0, x22, 86016
	mov	x2, 0
	mov	w1, 102
	mov	w3, 0
	ldr	w0, [x0,264]
	blr	x4
.LVL436:
	ldr	w2, [x20,40]
.L499:
	.loc 1 2260 0 is_stmt 1
	adrp	x1, .LC35
	mov	w0, 1
	add	x1, x1, :lo12:.LC35
	bl	dprint_linux_kernel
.LVL437:
.L498:
	.loc 1 2263 0
	ldr	w2, [x20,44]
	sub	w0, w2, #4
	cmp	w0, 6
	bls	.L488
	.loc 1 2265 0
	adrp	x0, g_event_report
	ldr	x4, [x0,#:lo12:g_event_report]
	cbz	x4, .L500
	.loc 1 2265 0 is_stmt 0 discriminator 1
	add	x22, x22, 86016
.LVL438:
	mov	x2, 0
	mov	w1, 102
	mov	w3, 0
	ldr	w0, [x22,264]
	blr	x4
.LVL439:
	ldr	w2, [x20,44]
.LVL440:
.L500:
	.loc 1 2266 0 is_stmt 1
	adrp	x1, .LC36
	mov	w0, 1
	add	x1, x1, :lo12:.LC36
	bl	dprint_linux_kernel
.LVL441:
	.loc 1 2271 0
	ldp	x19, x20, [sp,16]
	.cfi_remember_state
	.cfi_restore 19
	.cfi_restore 20
.LVL442:
	ldp	x21, x22, [sp,32]
	.cfi_restore 21
	.cfi_restore 22
.LVL443:
	ldp	x23, x24, [sp,48]
	.cfi_restore 23
	.cfi_restore 24
	ldp	x25, x26, [sp,64]
	.cfi_restore 25
	.cfi_restore 26
	ldp	x29, x30, [sp], 80
	.cfi_restore 29
	.cfi_restore 30
	.cfi_def_cfa 31, 0
	ret
.LVL444:
.L514:
	.cfi_restore_state
	.loc 1 2223 0
	and	w2, w2, 15
	cmp	w2, 5
	bne	.L492
	.loc 1 2225 0
	mov	w0, 133
	str	w0, [x20,40]
	.loc 1 2226 0
	mov	w0, 8
	str	w0, [x20,44]
	b	.L492
.L501:
	.loc 1 2238 0
	add	x0, x23, 256
	add	x0, x0, 16384
	ldr	w1, [x0,2636]
	orr	w1, w1, 1
	str	w1, [x0,2636]
	ldr	w25, [x20,48]
	b	.L493
	.cfi_endproc
.LFE2660:
	.size	sequence_extension, .-sequence_extension
	.align	2
	.global	sequence_display_extension
	.type	sequence_display_extension, %function
sequence_display_extension:
.LFB2661:
	.loc 1 2283 0
	.cfi_startproc
.LVL445:
	stp	x29, x30, [sp, -48]!
	.cfi_def_cfa_offset 48
	.cfi_offset 29, -48
	.cfi_offset 30, -40
	.loc 1 2290 0
	add	x3, x0, 65536
	.loc 1 2294 0
	mov	w1, 3
	.loc 1 2283 0
	add	x29, sp, 0
	.cfi_def_cfa_register 29
	stp	x19, x20, [sp,16]
	.cfi_offset 19, -32
	.cfi_offset 20, -24
	.loc 1 2292 0
	add	x20, x0, 45056
	.loc 1 2283 0
	str	x21, [sp,32]
	.cfi_offset 21, -16
	.loc 1 2292 0
	add	x2, x20, 256
	.loc 1 2289 0
	add	x19, x0, 61440
	.loc 1 2292 0
	add	x2, x2, 16384
	.loc 1 2290 0
	ldr	x21, [x3,128]
.LVL446:
	.loc 1 2289 0
	add	x19, x19, 3152
.LVL447:
	.loc 1 2294 0
	mov	x0, x19
.LVL448:
	.loc 1 2292 0
	ldr	w3, [x2,2636]
	orr	w3, w3, 262144
	str	w3, [x2,2636]
	.loc 1 2294 0
	bl	BsGet
.LVL449:
	str	w0, [x21,128]
	.loc 1 2295 0
	mov	w1, 1
	mov	x0, x19
	bl	BsGet
.LVL450:
	str	w0, [x21,132]
	.loc 1 2297 0
	cbnz	w0, .L522
.L516:
	.loc 1 2304 0
	mov	w1, 14
	mov	x0, x19
	bl	BsGet
.LVL451:
	str	w0, [x21,140]
	.loc 1 2305 0
	mov	w1, 1
	mov	x0, x19
	bl	BsGet
.LVL452:
	cbnz	w0, .L517
	.loc 1 2307 0
	add	x20, x20, 256
	add	x20, x20, 16384
	ldr	w0, [x20,2636]
	orr	w0, w0, 4
	str	w0, [x20,2636]
	.loc 1 2313 0
	ldp	x19, x20, [sp,16]
	.cfi_remember_state
	.cfi_restore 20
	.cfi_restore 19
.LVL453:
	ldr	x21, [sp,32]
	.cfi_restore 21
.LVL454:
	ldp	x29, x30, [sp], 48
	.cfi_restore 30
	.cfi_restore 29
	.cfi_def_cfa 31, 0
	ret
.LVL455:
.L517:
	.cfi_restore_state
	.loc 1 2310 0
	mov	x0, x19
	mov	w1, 14
	bl	BsGet
.LVL456:
	str	w0, [x21,144]
	.loc 1 2313 0
	ldp	x19, x20, [sp,16]
	.cfi_remember_state
	.cfi_restore 19
	.cfi_restore 20
.LVL457:
	ldr	x21, [sp,32]
	.cfi_restore 21
.LVL458:
	ldp	x29, x30, [sp], 48
	.cfi_restore 29
	.cfi_restore 30
	.cfi_def_cfa 31, 0
	ret
.LVL459:
.L522:
	.cfi_restore_state
	.loc 1 2299 0
	mov	w1, 8
	mov	x0, x19
	bl	BsGet
.LVL460:
	strb	w0, [x21,136]
	.loc 1 2300 0
	mov	w1, 8
	mov	x0, x19
	bl	BsGet
.LVL461:
	strb	w0, [x21,137]
	.loc 1 2301 0
	mov	w1, 8
	mov	x0, x19
	bl	BsGet
.LVL462:
	strb	w0, [x21,138]
	b	.L516
	.cfi_endproc
.LFE2661:
	.size	sequence_display_extension, .-sequence_display_extension
	.align	2
	.global	quant_matrix_extension
	.type	quant_matrix_extension, %function
quant_matrix_extension:
.LFB2662:
	.loc 1 2325 0
	.cfi_startproc
.LVL463:
	stp	x29, x30, [sp, -64]!
	.cfi_def_cfa_offset 64
	.cfi_offset 29, -64
	.cfi_offset 30, -56
	.loc 1 2333 0
	mov	w1, 1
	.loc 1 2325 0
	add	x29, sp, 0
	.cfi_def_cfa_register 29
	stp	x19, x20, [sp,16]
	.cfi_offset 19, -48
	.cfi_offset 20, -40
	.loc 1 2331 0
	add	x19, x0, 65536
	.loc 1 2330 0
	add	x20, x0, 61440
	.loc 1 2325 0
	stp	x21, x22, [sp,32]
	stp	x23, x24, [sp,48]
	.cfi_offset 21, -32
	.cfi_offset 22, -24
	.cfi_offset 23, -16
	.cfi_offset 24, -8
	.loc 1 2330 0
	add	x20, x20, 3152
.LVL464:
	.loc 1 2325 0
	mov	x22, x0
	.loc 1 2331 0
	ldr	x24, [x19,128]
.LVL465:
	.loc 1 2333 0
	mov	x0, x20
.LVL466:
	bl	BsGet
.LVL467:
	cmp	w0, 1
	str	w0, [x24,76]
	beq	.L524
	.loc 1 2341 0
	mov	x0, x20
	mov	w1, 1
	bl	BsGet
.LVL468:
	cmp	w0, 1
	str	w0, [x24,80]
	beq	.L542
.L526:
	.loc 1 2350 0
	mov	x0, x20
	mov	w1, 1
	bl	BsGet
.LVL469:
	cbz	w0, .L530
	mov	w19, 64
.L529:
	.loc 1 2354 0
	mov	x0, x20
	mov	w1, 8
	bl	BsGet
.LVL470:
	.loc 1 2352 0 discriminator 1
	subs	w19, w19, #1
	bne	.L529
.L530:
	.loc 1 2358 0
	mov	x0, x20
	mov	w1, 1
	mov	w19, 64
	bl	BsGet
.LVL471:
	cbz	w0, .L523
.L536:
	.loc 1 2362 0
	mov	x0, x20
	mov	w1, 8
	bl	BsGet
.LVL472:
	.loc 1 2360 0 discriminator 1
	subs	w19, w19, #1
	bne	.L536
.L523:
	.loc 1 2367 0
	ldp	x19, x20, [sp,16]
	.cfi_remember_state
	.cfi_restore 20
	.cfi_restore 19
.LVL473:
	ldp	x21, x22, [sp,32]
	.cfi_restore 22
	.cfi_restore 21
.LVL474:
	ldp	x23, x24, [sp,48]
	.cfi_restore 24
	.cfi_restore 23
.LVL475:
	ldp	x29, x30, [sp], 64
	.cfi_restore 30
	.cfi_restore 29
	.cfi_def_cfa 31, 0
	ret
.LVL476:
.L524:
	.cfi_restore_state
	adrp	x21, .LANCHOR3
	add	x21, x21, :lo12:.LANCHOR3
	add	x21, x21, 64
	add	x23, x21, 64
.L527:
	.loc 1 2337 0
	ldrb	w19, [x21],1
	mov	x0, x20
	mov	w1, 8
	add	x19, x22, x19, sxtw 2
	add	x19, x19, 49152
	bl	BsGet
.LVL477:
	.loc 1 2335 0 discriminator 1
	cmp	x21, x23
	.loc 1 2337 0
	str	w0, [x19,15480]
	.loc 1 2335 0 discriminator 1
	bne	.L527
	.loc 1 2341 0
	mov	x0, x20
	mov	w1, 1
	bl	BsGet
.LVL478:
	cmp	w0, 1
	str	w0, [x24,80]
	bne	.L526
.L542:
	adrp	x21, .LANCHOR3
	add	x21, x21, :lo12:.LANCHOR3
	add	x21, x21, 64
	add	x23, x21, 64
.L531:
	.loc 1 2345 0
	ldrb	w19, [x21],1
	mov	x0, x20
	mov	w1, 8
	add	x19, x22, x19, sxtw 2
	add	x19, x19, 49152
	bl	BsGet
.LVL479:
	.loc 1 2343 0 discriminator 1
	cmp	x21, x23
	.loc 1 2345 0
	str	w0, [x19,15736]
	.loc 1 2343 0 discriminator 1
	bne	.L531
	b	.L526
	.cfi_endproc
.LFE2662:
	.size	quant_matrix_extension, .-quant_matrix_extension
	.align	2
	.global	sequence_scalable_extension
	.type	sequence_scalable_extension, %function
sequence_scalable_extension:
.LFB2663:
	.loc 1 2379 0
	.cfi_startproc
.LVL480:
	stp	x29, x30, [sp, -16]!
	.cfi_def_cfa_offset 16
	.cfi_offset 29, -16
	.cfi_offset 30, -8
	.loc 1 2382 0
	add	x0, x0, 61440
.LVL481:
	.loc 1 2383 0
	mov	w1, 32
	.loc 1 2379 0
	add	x29, sp, 0
	.cfi_def_cfa_register 29
	.loc 1 2383 0
	add	x0, x0, 3152
	.loc 1 2379 0
	.loc 1 2383 0
	bl	BsSkip
.LVL482:
	.loc 1 2386 0
	ldp	x29, x30, [sp], 16
	.cfi_restore 30
	.cfi_restore 29
	.cfi_def_cfa 31, 0
	ret
	.cfi_endproc
.LFE2663:
	.size	sequence_scalable_extension, .-sequence_scalable_extension
	.align	2
	.global	picture_display_extension
	.type	picture_display_extension, %function
picture_display_extension:
.LFB2664:
	.loc 1 2398 0
	.cfi_startproc
.LVL483:
	stp	x29, x30, [sp, -48]!
	.cfi_def_cfa_offset 48
	.cfi_offset 29, -48
	.cfi_offset 30, -40
	.loc 1 2407 0
	add	x2, x0, 65536
	.loc 1 2398 0
	add	x29, sp, 0
	.cfi_def_cfa_register 29
	stp	x21, x22, [sp,32]
	.cfi_offset 21, -16
	.cfi_offset 22, -8
	.loc 1 2409 0
	add	x22, x0, 45056
	.loc 1 2406 0
	add	x0, x0, 61440
.LVL484:
	.loc 1 2409 0
	add	x1, x22, 256
	add	x1, x1, 16384
	.loc 1 2398 0
	stp	x19, x20, [sp,16]
	.cfi_offset 19, -32
	.cfi_offset 20, -24
	.loc 1 2406 0
	add	x20, x0, 3152
.LVL485:
	.loc 1 2409 0
	ldr	w0, [x1,2636]
	.loc 1 2407 0
	ldr	x21, [x2,128]
.LVL486:
	.loc 1 2409 0
	orr	w0, w0, 2097152
	str	w0, [x1,2636]
	.loc 1 2415 0
	ldrb	w0, [x21,27]
	cbz	w0, .L545
	.loc 1 2417 0
	ldrb	w1, [x21,16]
	.loc 1 2426 0
	mov	w0, 1
.LVL487:
	.loc 1 2417 0
	cbnz	w1, .L558
.L546:
	sub	w0, w0, #1
.LVL488:
	add	x19, x21, 156
	add	x0, x0, 40
	add	x21, x21, x0, lsl 2
.LVL489:
.L550:
	.loc 1 2451 0
	mov	w1, 16
	mov	x0, x20
	bl	BsGet
.LVL490:
	str	w0, [x19]
	.loc 1 2452 0
	mov	w1, 1
	mov	x0, x20
	bl	BsGet
.LVL491:
	.loc 1 2458 0
	mov	w1, 16
	.loc 1 2452 0
	cbz	w0, .L557
	add	x19, x19, 4
	.loc 1 2458 0
	mov	x0, x20
	bl	BsGet
.LVL492:
	.loc 1 2459 0
	mov	w1, 1
	.loc 1 2458 0
	str	w0, [x19,8]
	.loc 1 2459 0
	mov	x0, x20
	bl	BsGet
.LVL493:
	.loc 1 2449 0 discriminator 1
	cmp	x19, x21
	.loc 1 2459 0
	cbz	w0, .L557
	.loc 1 2449 0 discriminator 1
	bne	.L550
	.loc 1 2467 0
	ldp	x19, x20, [sp,16]
	.cfi_remember_state
	.cfi_restore 20
	.cfi_restore 19
.LVL494:
	ldp	x21, x22, [sp,32]
	.cfi_restore 22
	.cfi_restore 21
	ldp	x29, x30, [sp], 48
	.cfi_restore 30
	.cfi_restore 29
	.cfi_def_cfa 31, 0
	ret
.LVL495:
.L557:
	.cfi_restore_state
	.loc 1 2461 0
	add	x22, x22, 256
	add	x22, x22, 16384
	ldr	w0, [x22,2636]
	orr	w0, w0, 32
	str	w0, [x22,2636]
	.loc 1 2467 0
	ldp	x19, x20, [sp,16]
	.cfi_remember_state
	.cfi_restore 19
	.cfi_restore 20
.LVL496:
	ldp	x21, x22, [sp,32]
	.cfi_restore 21
	.cfi_restore 22
	ldp	x29, x30, [sp], 48
	.cfi_restore 29
	.cfi_restore 30
	.cfi_def_cfa 31, 0
	ret
.LVL497:
.L545:
	.cfi_restore_state
	.loc 1 2431 0
	ldrb	w1, [x21,9]
	.loc 1 2426 0
	mov	w0, 1
.LVL498:
	.loc 1 2431 0
	cmp	w1, 3
	bne	.L546
	.loc 1 2437 0
	ldrb	w0, [x21,16]
.LVL499:
	.loc 1 2420 0
	cmp	w0, wzr
	mov	w0, 2
	csel	w0, w0, w1, eq
.LVL500:
	b	.L546
.L558:
	.loc 1 2419 0
	ldrb	w0, [x21,10]
.LVL501:
	.loc 1 2420 0
	mov	w1, 3
	cmp	w0, wzr
	mov	w0, 2
	csel	w0, w0, w1, eq
.LVL502:
	b	.L546
	.cfi_endproc
.LFE2664:
	.size	picture_display_extension, .-picture_display_extension
	.align	2
	.global	picture_coding_extension
	.type	picture_coding_extension, %function
picture_coding_extension:
.LFB2665:
	.loc 1 2479 0
	.cfi_startproc
.LVL503:
	stp	x29, x30, [sp, -80]!
	.cfi_def_cfa_offset 80
	.cfi_offset 29, -80
	.cfi_offset 30, -72
	.loc 1 2487 0
	add	x2, x0, 65536
	.loc 1 2479 0
	add	x29, sp, 0
	.cfi_def_cfa_register 29
	stp	x23, x24, [sp,48]
	.cfi_offset 23, -32
	.cfi_offset 24, -24
	.loc 1 2489 0
	add	x23, x0, 45056
	.loc 1 2479 0
	str	x25, [sp,64]
	.loc 1 2489 0
	add	x1, x23, 256
	.loc 1 2486 0
	add	x0, x0, 61440
.LVL504:
	.loc 1 2489 0
	add	x1, x1, 16384
	.loc 1 2479 0
	stp	x19, x20, [sp,16]
	stp	x21, x22, [sp,32]
	.cfi_offset 25, -16
	.cfi_offset 19, -64
	.cfi_offset 20, -56
	.cfi_offset 21, -48
	.cfi_offset 22, -40
	.loc 1 2486 0
	add	x19, x0, 3152
.LVL505:
	.loc 1 2491 0
	mov	w21, 0
	.loc 1 2489 0
	ldr	w0, [x1,2636]
	.loc 1 2499 0
	add	x24, x1, 2636
	.loc 1 2487 0
	ldr	x20, [x2,128]
.LVL506:
	.loc 1 2489 0
	orr	w0, w0, 1048576
	str	w0, [x1,2636]
.L560:
	mov	w25, 0
	.loc 1 2495 0
	ubfiz	x22, x21, 1, 32
.L563:
	mov	w1, 4
	mov	x0, x19
	bl	BsGet
.LVL507:
	uxtb	w0, w0
	uxtw	x1, w25
	.loc 1 2496 0
	sub	w2, w0, #10
	.loc 1 2495 0
	add	x1, x22, x1
	add	x1, x20, x1
	.loc 1 2496 0
	uxtb	w2, w2
	cmp	w2, 4
	.loc 1 2495 0
	strb	w0, [x1,4]
	.loc 1 2496 0
	bls	.L568
	cbz	w0, .L568
	.loc 1 2493 0 discriminator 1
	cbz	w25, .L567
.L575:
	.loc 1 2491 0 discriminator 1
	cmp	w21, 1
	beq	.L564
	mov	w21, w25
	b	.L560
.L568:
	.loc 1 2499 0
	ldr	w0, [x24]
	orr	w0, w0, 16
	str	w0, [x24]
	.loc 1 2493 0 discriminator 1
	cbnz	w25, .L575
.L567:
	mov	w25, 1
	b	.L563
.L564:
	.loc 1 2504 0
	mov	w1, 2
	mov	x0, x19
	bl	BsGet
.LVL508:
	strb	w0, [x20,8]
	.loc 1 2505 0
	mov	w1, 2
	mov	x0, x19
	bl	BsGet
.LVL509:
	uxtb	w0, w0
	strb	w0, [x20,9]
	.loc 1 2506 0
	cbnz	w0, .L565
	.loc 1 2508 0
	add	x23, x23, 256
	add	x23, x23, 16384
	ldr	w0, [x23,2636]
	orr	w0, w0, 16
	str	w0, [x23,2636]
.L559:
	.loc 1 2532 0
	ldp	x19, x20, [sp,16]
	.cfi_remember_state
	.cfi_restore 20
	.cfi_restore 19
.LVL510:
	ldp	x21, x22, [sp,32]
	.cfi_restore 22
	.cfi_restore 21
	ldp	x23, x24, [sp,48]
	.cfi_restore 24
	.cfi_restore 23
	ldr	x25, [sp,64]
	.cfi_restore 25
	ldp	x29, x30, [sp], 80
	.cfi_restore 30
	.cfi_restore 29
	.cfi_def_cfa 31, 0
	ret
.LVL511:
.L565:
	.cfi_restore_state
	.loc 1 2511 0
	mov	w1, w21
	mov	x0, x19
	bl	BsGet
.LVL512:
	strb	w0, [x20,10]
	.loc 1 2512 0
	mov	w1, w21
	mov	x0, x19
	bl	BsGet
.LVL513:
	strb	w0, [x20,11]
	.loc 1 2513 0
	mov	w1, w21
	mov	x0, x19
	bl	BsGet
.LVL514:
	strb	w0, [x20,12]
	.loc 1 2514 0
	mov	w1, w21
	mov	x0, x19
	bl	BsGet
.LVL515:
	strb	w0, [x20,13]
	.loc 1 2515 0
	mov	w1, w21
	mov	x0, x19
	bl	BsGet
.LVL516:
	strb	w0, [x20,14]
	.loc 1 2516 0
	mov	w1, w21
	mov	x0, x19
	bl	BsGet
.LVL517:
	strb	w0, [x20,15]
	.loc 1 2517 0
	mov	w1, w21
	mov	x0, x19
	bl	BsGet
.LVL518:
	strb	w0, [x20,16]
	.loc 1 2518 0
	mov	w1, w21
	mov	x0, x19
	bl	BsGet
.LVL519:
	strb	w0, [x20,17]
	.loc 1 2519 0
	mov	w1, w21
	mov	x0, x19
	bl	BsGet
.LVL520:
	strb	w0, [x20,18]
	.loc 1 2520 0
	mov	w1, w21
	mov	x0, x19
	bl	BsGet
.LVL521:
	uxtb	w0, w0
	strb	w0, [x20,3]
	.loc 1 2522 0
	cbz	w0, .L559
	.loc 1 2524 0
	mov	w1, w21
	mov	x0, x19
	bl	BsGet
.LVL522:
	strb	w0, [x20,19]
	.loc 1 2525 0
	mov	w1, 3
	mov	x0, x19
	bl	BsGet
.LVL523:
	strb	w0, [x20,20]
	.loc 1 2526 0
	mov	w1, w21
	mov	x0, x19
	bl	BsGet
.LVL524:
	strb	w0, [x20,21]
	.loc 1 2527 0
	mov	w1, 7
	mov	x0, x19
	bl	BsGet
.LVL525:
	str	w0, [x20,32]
	.loc 1 2528 0
	mov	w1, 8
	mov	x0, x19
	bl	BsGet
.LVL526:
	str	w0, [x20,36]
	.loc 1 2532 0
	ldp	x19, x20, [sp,16]
	.cfi_restore 19
	.cfi_restore 20
.LVL527:
	ldp	x21, x22, [sp,32]
	.cfi_restore 21
	.cfi_restore 22
	ldp	x23, x24, [sp,48]
	.cfi_restore 23
	.cfi_restore 24
	ldr	x25, [sp,64]
	.cfi_restore 25
	ldp	x29, x30, [sp], 80
	.cfi_restore 29
	.cfi_restore 30
	.cfi_def_cfa 31, 0
	ret
	.cfi_endproc
.LFE2665:
	.size	picture_coding_extension, .-picture_coding_extension
	.align	2
	.global	picture_spatial_scalable_extension
	.type	picture_spatial_scalable_extension, %function
picture_spatial_scalable_extension:
.LFB2666:
	.loc 1 2544 0
	.cfi_startproc
.LVL528:
	stp	x29, x30, [sp, -16]!
	.cfi_def_cfa_offset 16
	.cfi_offset 29, -16
	.cfi_offset 30, -8
	.loc 1 2547 0
	add	x0, x0, 61440
.LVL529:
	.loc 1 2548 0
	mov	w1, 32
	.loc 1 2544 0
	add	x29, sp, 0
	.cfi_def_cfa_register 29
	.loc 1 2548 0
	add	x0, x0, 3152
	.loc 1 2544 0
	.loc 1 2548 0
	bl	BsSkip
.LVL530:
	.loc 1 2551 0
	ldp	x29, x30, [sp], 16
	.cfi_restore 30
	.cfi_restore 29
	.cfi_def_cfa 31, 0
	ret
	.cfi_endproc
.LFE2666:
	.size	picture_spatial_scalable_extension, .-picture_spatial_scalable_extension
	.align	2
	.global	picture_temporal_scalable_extension
	.type	picture_temporal_scalable_extension, %function
picture_temporal_scalable_extension:
.LFB2667:
	.loc 1 2563 0
	.cfi_startproc
.LVL531:
	stp	x29, x30, [sp, -16]!
	.cfi_def_cfa_offset 16
	.cfi_offset 29, -16
	.cfi_offset 30, -8
	.loc 1 2566 0
	add	x0, x0, 61440
.LVL532:
	.loc 1 2567 0
	mov	w1, 32
	.loc 1 2563 0
	add	x29, sp, 0
	.cfi_def_cfa_register 29
	.loc 1 2567 0
	add	x0, x0, 3152
	.loc 1 2563 0
	.loc 1 2567 0
	bl	BsSkip
.LVL533:
	.loc 1 2570 0
	ldp	x29, x30, [sp], 16
	.cfi_restore 30
	.cfi_restore 29
	.cfi_def_cfa 31, 0
	ret
	.cfi_endproc
.LFE2667:
	.size	picture_temporal_scalable_extension, .-picture_temporal_scalable_extension
	.align	2
	.global	extra_bit_information
	.type	extra_bit_information, %function
extra_bit_information:
.LFB2668:
	.loc 1 2582 0
	.cfi_startproc
.LVL534:
	stp	x29, x30, [sp, -32]!
	.cfi_def_cfa_offset 32
	.cfi_offset 29, -32
	.cfi_offset 30, -24
	.loc 1 2586 0
	add	x0, x0, 61440
.LVL535:
	.loc 1 2582 0
	add	x29, sp, 0
	.cfi_def_cfa_register 29
	stp	x19, x20, [sp,16]
	.cfi_offset 19, -16
	.cfi_offset 20, -8
	.loc 1 2583 0
	mov	w20, 0
.LVL536:
	.loc 1 2586 0
	add	x19, x0, 3152
.LVL537:
	.loc 1 2588 0
	b	.L579
.L581:
	.loc 1 2590 0
	mov	x0, x19
	.loc 1 2591 0
	add	w20, w20, 1
	.loc 1 2590 0
	bl	BsSkip
.LVL538:
	.loc 1 2592 0
	mov	x0, x19
	bl	BsResidBits
.LVL539:
	cmp	w0, 8
	ble	.L580
.L579:
	.loc 1 2588 0
	mov	w1, 1
	mov	x0, x19
	bl	BsGet
.LVL540:
	.loc 1 2590 0
	mov	w1, 8
	.loc 1 2588 0
	cbnz	w0, .L581
.L580:
	.loc 1 2601 0
	mov	w0, w20
	ldp	x19, x20, [sp,16]
	.cfi_restore 20
	.cfi_restore 19
.LVL541:
	ldp	x29, x30, [sp], 32
	.cfi_restore 30
	.cfi_restore 29
	.cfi_def_cfa 31, 0
	ret
	.cfi_endproc
.LFE2668:
	.size	extra_bit_information, .-extra_bit_information
	.align	2
	.global	picture_header
	.type	picture_header, %function
picture_header:
.LFB2659:
	.loc 1 2137 0
	.cfi_startproc
.LVL542:
	stp	x29, x30, [sp, -48]!
	.cfi_def_cfa_offset 48
	.cfi_offset 29, -48
	.cfi_offset 30, -40
	.loc 1 2149 0
	mov	x3, 61696
	.loc 1 2145 0
	add	x4, x0, 65536
	.loc 1 2149 0
	add	x3, x0, x3
	.loc 1 2137 0
	add	x29, sp, 0
	.cfi_def_cfa_register 29
	.loc 1 2150 0
	mov	w1, 10
	.loc 1 2137 0
	stp	x19, x20, [sp,16]
	stp	x21, x22, [sp,32]
	.cfi_offset 19, -32
	.cfi_offset 20, -24
	.cfi_offset 21, -16
	.cfi_offset 22, -8
	.loc 1 2144 0
	add	x19, x0, 61440
	.loc 1 2137 0
	mov	x21, x0
	.loc 1 2148 0
	ldr	w2, [x3,2636]
	.loc 1 2144 0
	add	x19, x19, 3152
.LVL543:
	.loc 1 2145 0
	ldr	x20, [x4,128]
.LVL544:
	.loc 1 2150 0
	mov	x0, x19
.LVL545:
	.loc 1 2148 0
	and	w2, w2, -3670073
	.loc 1 2149 0
	orr	w2, w2, 524288
	str	w2, [x3,2636]
	.loc 1 2150 0
	bl	BsGet
.LVL546:
	str	w0, [x20,148]
	.loc 1 2151 0
	mov	w1, 3
	mov	x0, x19
	bl	BsGet
.LVL547:
	strb	w0, [x20,22]
	.loc 1 2152 0
	mov	w1, 16
	mov	x0, x19
	bl	BsGet
.LVL548:
	str	w0, [x20,152]
	.loc 1 2154 0
	ldrb	w1, [x20,22]
	sub	w1, w1, #2
	uxtb	w1, w1
	cmp	w1, 1
	bls	.L584
.L583:
	.loc 1 2165 0
	mov	x0, x21
	bl	extra_bit_information
.LVL549:
	.loc 1 2167 0
	mov	w0, 1
	ldp	x19, x20, [sp,16]
	.cfi_remember_state
	.cfi_restore 20
	.cfi_restore 19
.LVL550:
	ldp	x21, x22, [sp,32]
	.cfi_restore 22
	.cfi_restore 21
.LVL551:
	ldp	x29, x30, [sp], 48
	.cfi_restore 30
	.cfi_restore 29
	.cfi_def_cfa 31, 0
	ret
.LVL552:
.L584:
	.cfi_restore_state
	.loc 1 2156 0
	mov	w1, 1
	mov	x0, x19
	bl	BsGet
.LVL553:
	strb	w0, [x20,23]
	.loc 1 2157 0
	mov	w1, 3
	mov	x0, x19
	bl	BsGet
.LVL554:
	.loc 1 2159 0
	ldrb	w22, [x20,22]
	.loc 1 2157 0
	strb	w0, [x20,24]
	.loc 1 2159 0
	cmp	w22, 3
	bne	.L583
	.loc 1 2161 0
	mov	w1, 1
	mov	x0, x19
	bl	BsGet
.LVL555:
	strb	w0, [x20,25]
	.loc 1 2162 0
	mov	w1, w22
	mov	x0, x19
	bl	BsGet
.LVL556:
	strb	w0, [x20,26]
	.loc 1 2165 0
	mov	x0, x21
	bl	extra_bit_information
.LVL557:
	.loc 1 2167 0
	mov	w0, 1
	ldp	x19, x20, [sp,16]
	.cfi_restore 19
	.cfi_restore 20
.LVL558:
	ldp	x21, x22, [sp,32]
	.cfi_restore 21
	.cfi_restore 22
.LVL559:
	ldp	x29, x30, [sp], 48
	.cfi_restore 29
	.cfi_restore 30
	.cfi_def_cfa 31, 0
	ret
	.cfi_endproc
.LFE2659:
	.size	picture_header, .-picture_header
	.align	2
	.global	copyright_extension
	.type	copyright_extension, %function
copyright_extension:
.LFB2669:
	.loc 1 2612 0
	.cfi_startproc
.LVL560:
	stp	x29, x30, [sp, -16]!
	.cfi_def_cfa_offset 16
	.cfi_offset 29, -16
	.cfi_offset 30, -8
	.loc 1 2615 0
	add	x0, x0, 61440
.LVL561:
	.loc 1 2616 0
	mov	w1, 32
	.loc 1 2612 0
	add	x29, sp, 0
	.cfi_def_cfa_register 29
	.loc 1 2616 0
	add	x0, x0, 3152
	.loc 1 2612 0
	.loc 1 2616 0
	bl	BsSkip
.LVL562:
	.loc 1 2619 0
	ldp	x29, x30, [sp], 16
	.cfi_restore 30
	.cfi_restore 29
	.cfi_def_cfa 31, 0
	ret
	.cfi_endproc
.LFE2669:
	.size	copyright_extension, .-copyright_extension
	.align	2
	.global	extension
	.type	extension, %function
extension:
.LFB2670:
	.loc 1 2630 0
	.cfi_startproc
.LVL563:
	stp	x29, x30, [sp, -80]!
	.cfi_def_cfa_offset 80
	.cfi_offset 29, -80
	.cfi_offset 30, -72
	.loc 1 2646 0
	mov	w1, 4
	.loc 1 2630 0
	add	x29, sp, 0
	.cfi_def_cfa_register 29
	stp	x21, x22, [sp,32]
	.cfi_offset 21, -48
	.cfi_offset 22, -40
	.loc 1 2633 0
	add	x22, x0, 65536
	.loc 1 2630 0
	adrp	x21, __stack_chk_guard
	stp	x19, x20, [sp,16]
	stp	x23, x24, [sp,48]
	.cfi_offset 19, -64
	.cfi_offset 20, -56
	.cfi_offset 23, -32
	.cfi_offset 24, -24
	.loc 1 2645 0
	add	x19, x0, 61440
	.loc 1 2630 0
	ldr	x3, [x21,#:lo12:__stack_chk_guard]
	.loc 1 2633 0
	ldr	x2, [x22,128]
.LVL564:
	.loc 1 2645 0
	add	x19, x19, 3152
.LVL565:
	.loc 1 2630 0
	mov	x20, x0
	.loc 1 2646 0
	mov	x0, x19
.LVL566:
	.loc 1 2630 0
	str	x3, [x29,72]
	.loc 1 2635 0
	str	wzr, [x2,140]
	.loc 1 2636 0
	str	wzr, [x2,144]
	.loc 1 2637 0
	str	wzr, [x2,128]
	.loc 1 2638 0
	str	wzr, [x2,132]
	.loc 1 2639 0
	strb	wzr, [x2,136]
	.loc 1 2640 0
	strb	wzr, [x2,137]
	.loc 1 2641 0
	strb	wzr, [x2,138]
	.loc 1 2646 0
	bl	BsGet
.LVL567:
	.loc 1 2647 0
	sub	w0, w0, #1
	cmp	w0, 9
	bhi	.L587
	adrp	x1, .L589
	add	x1, x1, :lo12:.L589
	ldrb	w0, [x1,w0,uxtw]
	adr	x1, .Lrtx589
	add	x0, x1, w0, sxtb #2
	br	x0
.Lrtx589:
	.section	.rodata
	.align	0
	.align	2
.L589:
	.byte	(.L588 - .Lrtx589) / 4
	.byte	(.L590 - .Lrtx589) / 4
	.byte	(.L591 - .Lrtx589) / 4
	.byte	(.L592 - .Lrtx589) / 4
	.byte	(.L592 - .Lrtx589) / 4
	.byte	(.L587 - .Lrtx589) / 4
	.byte	(.L594 - .Lrtx589) / 4
	.byte	(.L595 - .Lrtx589) / 4
	.byte	(.L592 - .Lrtx589) / 4
	.byte	(.L592 - .Lrtx589) / 4
	.text
.L590:
	.loc 1 2653 0
	mov	x0, x20
	bl	sequence_display_extension
.LVL568:
.LBB75:
.LBB76:
	.loc 1 197 0
	cbz	x20, .L607
	.loc 1 204 0
	ldr	x4, [x22,128]
	.loc 1 202 0
	str	wzr, [x29,64]
	.loc 1 204 0
	cbz	x4, .L608
	.loc 1 217 0
	add	x20, x20, 86016
.LVL569:
	add	x0, x29, 64
	add	x24, x20, 283
	mov	x2, 4
	mov	x1, x24
	.loc 1 213 0
	ldrb	w23, [x4,136]
	.loc 1 214 0
	ldrb	w19, [x4,137]
.LVL570:
	.loc 1 215 0
	ldrb	w22, [x4,138]
	.loc 1 213 0
	strb	w23, [x29,65]
	.loc 1 214 0
	strb	w19, [x29,66]
	.loc 1 215 0
	strb	w22, [x29,67]
	.loc 1 217 0
	bl	memcmp
.LVL571:
	cbz	w0, .L609
	.loc 1 222 0
	ldr	w0, [x29,64]
	.loc 1 224 0
	adrp	x1, .LC39
	.loc 1 222 0
	str	w0, [x24]
	.loc 1 224 0
	mov	w4, w22
	mov	w0, 32
	add	x1, x1, :lo12:.LC39
	mov	w2, 0
	mov	w3, w23
	mov	w5, w19
	bl	dprint_linux_kernel
.LVL572:
	.loc 1 230 0
	adrp	x0, g_event_report
	ldr	x4, [x0,#:lo12:g_event_report]
	cbz	x4, .L587
	.loc 1 230 0 is_stmt 0 discriminator 1
	ldr	w0, [x20,264]
	mov	w1, 121
	add	x2, x29, 64
	mov	w3, 4
	blr	x4
.LVL573:
.L587:
.LBE76:
.LBE75:
	.loc 1 2682 0 is_stmt 1
	ldr	x2, [x29,72]
	mov	w0, 1
	ldr	x1, [x21,#:lo12:__stack_chk_guard]
	cmp	x2, x1
	bne	.L610
	ldp	x19, x20, [sp,16]
	.cfi_remember_state
	.cfi_restore 20
	.cfi_restore 19
.LVL574:
	ldp	x21, x22, [sp,32]
	.cfi_restore 22
	.cfi_restore 21
	ldp	x23, x24, [sp,48]
	.cfi_restore 24
	.cfi_restore 23
	ldp	x29, x30, [sp], 80
	.cfi_restore 30
	.cfi_restore 29
	.cfi_def_cfa 31, 0
	ret
.LVL575:
.L592:
	.cfi_restore_state
.LBB78:
.LBB79:
	.loc 1 2616 0
	mov	x0, x19
	mov	w1, 32
	bl	BsSkip
.LVL576:
	b	.L587
.L591:
.LBE79:
.LBE78:
	.loc 1 2657 0
	mov	x0, x20
	bl	quant_matrix_extension
.LVL577:
	.loc 1 2658 0
	b	.L587
.L595:
	.loc 1 2666 0
	mov	x0, x20
	bl	picture_coding_extension
.LVL578:
	.loc 1 2667 0
	b	.L587
.L594:
	.loc 1 2663 0
	mov	x0, x20
	bl	picture_display_extension
.LVL579:
	.loc 1 2664 0
	b	.L587
.L588:
	.loc 1 2650 0
	mov	x0, x20
	bl	sequence_extension
.LVL580:
	.loc 1 2651 0
	b	.L587
.LVL581:
.L609:
.LBB80:
.LBB77:
	.loc 1 218 0
	adrp	x1, .LC38
	mov	w0, 22
	add	x1, x1, :lo12:.LC38
	bl	dprint_linux_kernel
.LVL582:
	b	.L587
.LVL583:
.L607:
	.loc 1 197 0 discriminator 1
#APP
// 197 "/mnt/disk/jenkins/ci/workspace/chipset_release_960_xloader/opensource/component_code/vendor/huawei/extra/build/build_script/kirin_kernel_release/kernel/drivers/vcodec/hi_vcodec/vdec/vfmw/vfmw_v4.0/firmware/common/syntax/mpeg2.c" 1
	.pushsection __bug_table,"a"
	.align 2
	0:	.long 1f - 0b
	.pushsection .rodata.str,"aMS",@progbits,1
2:	.string "/mnt/disk/jenkins/ci/workspace/chipset_release_960_xloader/opensource/component_code/vendor/huawei/extra/build/build_script/kirin_kernel_release/kernel/drivers/vcodec/hi_vcodec/vdec/vfmw/vfmw_v4.0/firmware/common/syntax/mpeg2.c"
	.popsection
	.long 2b - 0b
	.short 197
	.short 0
	.popsection
1:	brk 2048
// 0 "" 2
#NO_APP
.L608:
	.loc 1 205 0
	adrp	x1, .LC37
	mov	w0, 32
	add	x1, x1, :lo12:.LC37
	bl	dprint_linux_kernel
.LVL584:
	b	.L587
.L610:
.LBE77:
.LBE80:
	.loc 1 2682 0
	bl	__stack_chk_fail
.LVL585:
	.cfi_endproc
.LFE2670:
	.size	extension, .-extension
	.align	2
	.global	MPEG2DEC_Init
	.type	MPEG2DEC_Init, %function
MPEG2DEC_Init:
.LFB2671:
	.loc 1 2694 0
	.cfi_startproc
.LVL586:
	sub	sp, sp, #896
	.cfi_def_cfa_offset 896
	stp	x29, x30, [sp, -80]!
	.cfi_def_cfa_offset 976
	.cfi_offset 29, -976
	.cfi_offset 30, -968
	add	x29, sp, 0
	.cfi_def_cfa_register 29
	stp	x21, x22, [sp,32]
	stp	x19, x20, [sp,16]
	stp	x23, x24, [sp,48]
	stp	x25, x26, [sp,64]
	.cfi_offset 21, -944
	.cfi_offset 22, -936
	.cfi_offset 19, -960
	.cfi_offset 20, -952
	.cfi_offset 23, -928
	.cfi_offset 24, -920
	.cfi_offset 25, -912
	.cfi_offset 26, -904
	.loc 1 2694 0
	adrp	x23, __stack_chk_guard
	mov	x19, x0
	.loc 1 2702 0
	ldr	w0, [x1,688]
.LVL587:
	.loc 1 2694 0
	mov	x21, x1
	.loc 1 2704 0
	add	x22, x19, 61440
	.loc 1 2694 0
	ldr	x1, [x23,#:lo12:__stack_chk_guard]
.LVL588:
	.loc 1 2702 0
	cmp	w0, 1
	.loc 1 2694 0
	str	x1, [x29,968]
	.loc 1 2702 0
	beq	.L618
	add	x20, x19, 65536
.L612:
	.loc 1 2712 0
	mov	x2, 20768
	mov	w1, 0
	movk	x2, 0x1, lsl 16
	mov	x0, x19
	.loc 1 2711 0
	ldr	w26, [x20,752]
	.loc 1 2723 0
	add	x25, x19, 86016
	.loc 1 2712 0
	bl	memset
.LVL589:
	.loc 1 2713 0
	str	w26, [x20,752]
	.loc 1 2714 0
	add	x0, x20, 144
	.loc 1 2725 0
	mov	w24, 1
	.loc 1 2714 0
	bl	ResetVoQueue
.LVL590:
	.loc 1 2716 0
	str	x21, [x19]
	.loc 1 2725 0
	add	x2, x19, 45056
	.loc 1 2721 0
	add	x3, x22, 3864
	.loc 1 2725 0
	add	x2, x2, 256
	.loc 1 2721 0
	str	x3, [x20,136]
	.loc 1 2725 0
	add	x1, x2, 16384
	.loc 1 2722 0
	add	x0, x22, 4044
	str	x0, [x20,128]
	.loc 1 2726 0
	mov	w3, 3
	.loc 1 2723 0
	str	wzr, [x25,276]
	.loc 1 2731 0
	mov	x0, x19
	.loc 1 2725 0
	str	w24, [x1,2648]
	.loc 1 2726 0
	strb	w3, [x2,1]
	.loc 1 2727 0
	str	wzr, [x1,2712]
	.loc 1 2728 0
	ldr	w2, [x21,12]
	str	w2, [x1,2624]
	.loc 1 2729 0
	str	wzr, [x1,2704]
	.loc 1 2731 0
	bl	VCTRL_GetChanIDByCtx
.LVL591:
	.loc 1 2732 0
	cmn	w0, #1
	.loc 1 2731 0
	str	w0, [x25,264]
	.loc 1 2732 0
	beq	.L619
	.loc 1 2738 0
	ldr	w19, [x21,688]
.LVL592:
	cmp	w19, 1
	beq	.L620
	.loc 1 2746 0
	mov	w19, w24
.L614:
	.loc 1 2747 0
	ldr	x2, [x29,968]
	mov	w0, w19
	ldr	x1, [x23,#:lo12:__stack_chk_guard]
	cmp	x2, x1
	bne	.L621
	ldp	x19, x20, [sp,16]
	.cfi_remember_state
	.cfi_restore 20
	.cfi_restore 19
	ldp	x21, x22, [sp,32]
	.cfi_restore 22
	.cfi_restore 21
.LVL593:
	ldp	x23, x24, [sp,48]
	.cfi_restore 24
	.cfi_restore 23
	ldp	x25, x26, [sp,64]
	.cfi_restore 26
	.cfi_restore 25
	ldp	x29, x30, [sp], 80
	.cfi_restore 30
	.cfi_restore 29
	.cfi_def_cfa 31, 896
	add	sp, sp, 896
	.cfi_def_cfa_offset 816
	ret
.LVL594:
.L620:
	.cfi_restore_state
	.loc 1 2740 0
	add	x1, x29, 456
	add	x0, x22, 3192
	mov	x2, 256
	bl	memcpy
.LVL595:
	.loc 1 2741 0
	add	x1, x29, 712
	add	x0, x22, 3448
	mov	x2, 256
	bl	memcpy
.LVL596:
	.loc 1 2742 0
	ldr	x0, [x20,128]
	add	x1, x29, 88
	mov	x2, 180
	bl	memcpy
.LVL597:
	.loc 1 2743 0
	ldr	x0, [x20,136]
	add	x1, x29, 272
	mov	x2, 180
	bl	memcpy
.LVL598:
	b	.L614
.LVL599:
.L618:
	.loc 1 2704 0
	add	x1, x22, 3192
	mov	x2, 256
	add	x0, x29, 456
	.loc 1 2706 0
	add	x20, x19, 65536
	.loc 1 2704 0
	bl	memcpy
.LVL600:
	.loc 1 2705 0
	add	x1, x22, 3448
	mov	x2, 256
	add	x0, x29, 712
	bl	memcpy
.LVL601:
	.loc 1 2706 0
	ldr	x1, [x20,128]
	mov	x2, 180
	add	x0, x29, 88
	bl	memcpy
.LVL602:
	.loc 1 2707 0
	ldr	x1, [x20,136]
	add	x0, x29, 272
	mov	x2, 180
	bl	memcpy
.LVL603:
	b	.L612
.L619:
	.loc 1 2734 0
	adrp	x1, .LC40
	mov	w0, 0
	add	x1, x1, :lo12:.LC40
	.loc 1 2735 0
	mov	w19, -20
.LVL604:
	.loc 1 2734 0
	bl	dprint_linux_kernel
.LVL605:
	.loc 1 2735 0
	b	.L614
.L621:
	.loc 1 2747 0
	bl	__stack_chk_fail
.LVL606:
	.cfi_endproc
.LFE2671:
	.size	MPEG2DEC_Init, .-MPEG2DEC_Init
	.align	2
	.global	MPEG2DEC_Destroy
	.type	MPEG2DEC_Destroy, %function
MPEG2DEC_Destroy:
.LFB2672:
	.loc 1 2759 0
	.cfi_startproc
.LVL607:
	.loc 1 2763 0
	mov	x2, 61696
	adrp	x1, .LC41
	add	x2, x0, x2
	add	x1, x1, :lo12:.LC41
	.loc 1 2759 0
	stp	x29, x30, [sp, -16]!
	.cfi_def_cfa_offset 16
	.cfi_offset 29, -16
	.cfi_offset 30, -8
	.loc 1 2763 0
	mov	w0, 2
.LVL608:
	.loc 1 2759 0
	add	x29, sp, 0
	.cfi_def_cfa_register 29
	.loc 1 2763 0
	ldr	w2, [x2,2644]
	bl	dprint_linux_kernel
.LVL609:
	.loc 1 2766 0
	mov	w0, 1
	ldp	x29, x30, [sp], 16
	.cfi_restore 30
	.cfi_restore 29
	.cfi_def_cfa 31, 0
	ret
	.cfi_endproc
.LFE2672:
	.size	MPEG2DEC_Destroy, .-MPEG2DEC_Destroy
	.align	2
	.global	MPEG2DEC_RecycleImage
	.type	MPEG2DEC_RecycleImage, %function
MPEG2DEC_RecycleImage:
.LFB2674:
	.loc 1 2873 0
	.cfi_startproc
.LVL610:
	stp	x29, x30, [sp, -48]!
	.cfi_def_cfa_offset 48
	.cfi_offset 29, -48
	.cfi_offset 30, -40
	add	x29, sp, 0
	.cfi_def_cfa_register 29
	stp	x19, x20, [sp,16]
	str	x21, [sp,32]
	.cfi_offset 19, -32
	.cfi_offset 20, -24
	.cfi_offset 21, -16
	.loc 1 2878 0
	cbz	x0, .L628
	.loc 1 2885 0
	add	x20, x0, 86016
	mov	w2, 0
	mov	w19, w1
	ldr	w0, [x20,264]
.LVL611:
	bl	FSP_SetDisplay
.LVL612:
	.loc 1 2886 0
	ldr	w0, [x20,264]
	mov	w1, w19
	bl	FSP_GetFsImagePtr
.LVL613:
	add	x19, x0, 248
.LVL614:
	add	x21, x0, 280
	.loc 1 2887 0
	cbz	x0, .L627
.L629:
	.loc 1 2891 0
	ldr	x1, [x19]
	ldr	w0, [x20,264]
.LVL615:
	bl	FreeUsdByDec
.LVL616:
	.loc 1 2892 0
	str	xzr, [x19],8
	.loc 1 2889 0 discriminator 1
	cmp	x19, x21
	bne	.L629
.LVL617:
.L627:
	.loc 1 2895 0
	mov	w0, 1
.LVL618:
	.loc 1 2896 0
	ldr	x21, [sp,32]
	.cfi_remember_state
	.cfi_restore 21
	ldp	x19, x20, [sp,16]
	.cfi_restore 20
	.cfi_restore 19
	ldp	x29, x30, [sp], 48
	.cfi_restore 30
	.cfi_restore 29
	.cfi_def_cfa 31, 0
	ret
.LVL619:
.L628:
	.cfi_restore_state
	.loc 1 2880 0
	mov	w0, 0
.LVL620:
	.loc 1 2896 0
	ldr	x21, [sp,32]
	.cfi_restore 21
	ldp	x19, x20, [sp,16]
	.cfi_restore 19
	.cfi_restore 20
	ldp	x29, x30, [sp], 48
	.cfi_restore 29
	.cfi_restore 30
	.cfi_def_cfa 31, 0
	ret
	.cfi_endproc
.LFE2674:
	.size	MPEG2DEC_RecycleImage, .-MPEG2DEC_RecycleImage
	.align	2
	.global	MPEG2DEC_GetRemainImg
	.type	MPEG2DEC_GetRemainImg, %function
MPEG2DEC_GetRemainImg:
.LFB2675:
	.loc 1 2900 0
	.cfi_startproc
.LVL621:
	stp	x29, x30, [sp, -80]!
	.cfi_def_cfa_offset 80
	.cfi_offset 29, -80
	.cfi_offset 30, -72
	add	x29, sp, 0
	.cfi_def_cfa_register 29
	stp	x19, x20, [sp,16]
	stp	x21, x22, [sp,32]
	stp	x23, x24, [sp,48]
	str	x25, [sp,64]
	.cfi_offset 19, -64
	.cfi_offset 20, -56
	.cfi_offset 21, -48
	.cfi_offset 22, -40
	.cfi_offset 23, -32
	.cfi_offset 24, -24
	.cfi_offset 25, -16
	.loc 1 2900 0
	mov	x19, x0
	.loc 1 2908 0
	ldr	x0, [x0]
.LVL622:
	ldr	w0, [x0,16]
	cmp	w0, 1
	beq	.L660
	.loc 1 2914 0
	add	x24, x19, 45056
	add	x22, x19, 86016
	add	x25, x24, 256
	add	x21, x25, 16384
	ldr	w0, [x22,264]
	ldr	w1, [x21,2736]
	bl	FSP_GetFsImagePtr
.LVL623:
	mov	x23, x0
.LVL624:
	.loc 1 2915 0
	cbz	x0, .L660
	.loc 1 2917 0
	ldr	w0, [x22,264]
	add	x20, x19, 65536
	ldr	w1, [x21,2736]
	bl	FSP_GetDisplay
.LVL625:
	.loc 1 2918 0
	cmp	w0, 2
	beq	.L661
.L632:
	add	x21, x20, 144
.L638:
	.loc 1 2953 0
	mov	x0, x21
	bl	GetVoLastImageID
.LVL626:
.L659:
	.loc 1 2957 0
	ldp	x19, x20, [sp,16]
	.cfi_remember_state
	.cfi_restore 20
	.cfi_restore 19
.LVL627:
.LVL628:
	ldp	x21, x22, [sp,32]
	.cfi_restore 22
	.cfi_restore 21
	ldp	x23, x24, [sp,48]
	.cfi_restore 24
	.cfi_restore 23
.LVL629:
	ldr	x25, [sp,64]
	.cfi_restore 25
	ldp	x29, x30, [sp], 80
	.cfi_restore 30
	.cfi_restore 29
	.cfi_def_cfa 31, 0
	ret
.LVL630:
.L660:
	.cfi_restore_state
	add	x20, x19, 65536
	b	.L632
.LVL631:
.L661:
	.loc 1 2920 0
	mov	x0, x19
	bl	MP2_SetImgFormat
.LVL632:
	.loc 1 2923 0
	ldr	x0, [x25,19040]
	cbz	x0, .L633
	.loc 1 2923 0 is_stmt 0 discriminator 1
	str	x0, [x23,248]
.L633:
	.loc 1 2923 0
	add	x0, x19, 61440
	.loc 1 2924 0 is_stmt 1
	str	xzr, [x24,19296]
	.loc 1 2923 0
	ldr	x1, [x0,2920]
	cbz	x1, .L634
	.loc 1 2923 0 is_stmt 0 discriminator 1
	str	x1, [x23,256]
.L634:
	.loc 1 2923 0
	ldr	x1, [x0,2928]
	.loc 1 2924 0 is_stmt 1
	str	xzr, [x0,2920]
	.loc 1 2923 0
	cbz	x1, .L635
	.loc 1 2923 0 is_stmt 0 discriminator 1
	str	x1, [x23,264]
.L635:
	.loc 1 2923 0
	ldr	x1, [x0,2936]
	.loc 1 2924 0 is_stmt 1
	str	xzr, [x0,2928]
	.loc 1 2923 0
	cbz	x1, .L636
	.loc 1 2923 0 is_stmt 0 discriminator 1
	str	x1, [x23,272]
.L636:
	.loc 1 2926 0 is_stmt 1
	add	x24, x24, 256
	.loc 1 2924 0
	str	xzr, [x0,2936]
	.loc 1 2926 0
	add	x24, x24, 16384
	.loc 1 2927 0
	mov	w0, 1
	.loc 1 2929 0
	mov	w2, w0
	.loc 1 2930 0
	add	x20, x19, 65536
	add	x21, x20, 144
	.loc 1 2926 0
	str	wzr, [x24,2688]
	.loc 1 2927 0
	str	w0, [x23,108]
	.loc 1 2929 0
	ldr	w1, [x23,80]
	ldr	w0, [x22,264]
	bl	FSP_SetDisplay
.LVL633:
	.loc 1 2930 0
	ldr	w0, [x22,264]
	mov	w1, 3
	mov	x2, x19
	mov	x3, x21
	mov	x4, x23
	bl	InsertImgToVoQueue
.LVL634:
	cmp	w0, 1
	beq	.L637
	.loc 1 2932 0
	ldr	w1, [x23,80]
	mov	x0, x19
	bl	MPEG2DEC_RecycleImage
.LVL635:
	b	.L638
.L637:
	.loc 1 2935 0
	ldr	w0, [x23,84]
	cmp	w0, 100
	bhi	.L632
	.loc 1 2935 0 is_stmt 0 discriminator 1
	ldr	w0, [x23,48]
	cmp	w0, 31
	bls	.L632
	.loc 1 2935 0 discriminator 2
	ldr	w0, [x23,52]
	cmp	w0, 31
	bls	.L632
	mov	w0, 0
.LVL636:
	b	.L659
	.cfi_endproc
.LFE2675:
	.size	MPEG2DEC_GetRemainImg, .-MPEG2DEC_GetRemainImg
	.align	2
	.global	MPEG2DEC_GetImageBuffer
	.type	MPEG2DEC_GetImageBuffer, %function
MPEG2DEC_GetImageBuffer:
.LFB2677:
	.loc 1 3116 0 is_stmt 1
	.cfi_startproc
.LVL637:
	stp	x29, x30, [sp, -48]!
	.cfi_def_cfa_offset 48
	.cfi_offset 29, -48
	.cfi_offset 30, -40
	.loc 1 3124 0
	add	x2, x0, 45056
	.loc 1 3116 0
	add	x29, sp, 0
	.cfi_def_cfa_register 29
	stp	x19, x20, [sp,16]
	str	x21, [sp,32]
	.cfi_offset 19, -32
	.cfi_offset 20, -24
	.cfi_offset 21, -16
	.loc 1 3124 0
	add	x2, x2, 256
	ldrb	w1, [x2,1]
	cmp	w1, 3
	beq	.L663
	.loc 1 3124 0 is_stmt 0 discriminator 1
	add	x2, x2, 16384
	ldr	w1, [x2,2648]
	cbz	w1, .L665
.L663:
	.loc 1 3130 0 is_stmt 1
	add	x21, x0, 86016
	mov	x19, x0
	ldr	w0, [x21,264]
.LVL638:
	bl	FSP_IsNewFsAvalible
.LVL639:
	cmp	w0, 1
	beq	.L665
	.loc 1 3134 0
	ldr	w0, [x21,264]
	.loc 1 3139 0
	mov	w20, 0
	.loc 1 3134 0
	bl	FSP_IsNewFsAvalible
.LVL640:
	cmn	w0, #1
	bne	.L664
	.loc 1 3136 0
	add	x1, x19, 65536
	ldr	w0, [x21,264]
	add	x1, x1, 144
	bl	FSP_ClearNotInVoQueue
.LVL641:
	b	.L664
.LVL642:
.L665:
	.loc 1 3126 0
	mov	w20, 1
.L664:
	.loc 1 3140 0
	mov	w0, w20
	ldr	x21, [sp,32]
	.cfi_restore 21
	ldp	x19, x20, [sp,16]
	.cfi_restore 20
	.cfi_restore 19
.LVL643:
	ldp	x29, x30, [sp], 48
	.cfi_restore 30
	.cfi_restore 29
	.cfi_def_cfa 31, 0
	ret
	.cfi_endproc
.LFE2677:
	.size	MPEG2DEC_GetImageBuffer, .-MPEG2DEC_GetImageBuffer
	.align	2
	.global	MP2_ReceivePacket
	.type	MP2_ReceivePacket, %function
MP2_ReceivePacket:
.LFB2678:
	.loc 1 3143 0
	.cfi_startproc
.LVL644:
	stp	x29, x30, [sp, -64]!
	.cfi_def_cfa_offset 64
	.cfi_offset 29, -64
	.cfi_offset 30, -56
	mov	x3, x0
	add	x29, sp, 0
	.cfi_def_cfa_register 29
	stp	x19, x20, [sp,16]
	str	x21, [sp,32]
	.cfi_offset 19, -48
	.cfi_offset 20, -40
	.cfi_offset 21, -32
	.loc 1 3143 0
	mov	x19, x1
	.loc 1 3145 0
	cbz	x1, .L683
	.loc 1 3152 0
	add	x20, x0, 16384
	.loc 1 3159 0
	add	x21, x20, 2576
	.loc 1 3152 0
	str	wzr, [x20,2568]
	.loc 1 3153 0
	ldr	w0, [x1,8]
.LVL645:
	str	w0, [x20,2628]
	.loc 1 3156 0
	ldr	w0, [x1,4]
	str	w0, [x20,2580]
	.loc 1 3157 0
	ldr	x0, [x1,64]
	str	x0, [x3,18992]
	.loc 1 3158 0
	ldr	w0, [x1,8]
	str	w0, [x20,2588]
	.loc 1 3159 0
	ldrb	w0, [x1,1]
	strb	w0, [x20,2576]
	.loc 1 3160 0
	ldr	w1, [x1,12]
	str	w1, [x20,2596]
	.loc 1 3162 0
	ldrb	w0, [x19,1]
	cmp	w0, 1
	beq	.L676
.LBB85:
.LBB86:
	.loc 1 3164 0
	ldr	w4, [x19,84]
	.loc 1 3189 0
	mov	w0, 1
	.loc 1 3164 0
	str	w4, [x20,2584]
	.loc 1 3165 0
	ldr	x4, [x19,144]
	str	x4, [x3,19000]
	.loc 1 3166 0
	ldr	w3, [x19,88]
.LVL646:
	str	w3, [x20,2592]
	.loc 1 3167 0
	ldrb	w3, [x19,81]
	strb	w3, [x20,2577]
	.loc 1 3168 0
	ldr	w3, [x19,92]
	str	w3, [x20,2600]
	.loc 1 3170 0
	ldrb	w3, [x19,81]
	cmp	w3, w0
	beq	.L675
.LBB87:
.LBB88:
	.loc 1 3194 0
	mov	w0, w2
	str	x2, [x29,56]
	bl	SM_ReleaseStreamSeg
.LVL647:
	.loc 1 3196 0
	ldrsb	w0, [x20,2576]
	cmp	w0, 1
	beq	.L677
	.loc 1 3198 0
	ldr	x2, [x29,56]
.LVL648:
	ldr	w1, [x21,24]
	mov	w0, w2
	bl	SM_ReleaseStreamSeg
.LVL649:
.L677:
	.loc 1 3201 0
	stp	xzr, xzr, [x21]
	stp	xzr, xzr, [x21,16]
	stp	xzr, xzr, [x21,32]
.LBE88:
.LBE87:
	.loc 1 3173 0
	adrp	x1, .LC43
	mov	w0, 1
	ldrb	w3, [x19,81]
	add	x1, x1, :lo12:.LC43
	mov	w2, 3173
	bl	dprint_linux_kernel
.LVL650:
	.loc 1 3174 0
	mov	w0, 0
.LVL651:
.L675:
.LBE86:
.LBE85:
	.loc 1 3190 0
	ldp	x19, x20, [sp,16]
	.cfi_remember_state
	.cfi_restore 20
	.cfi_restore 19
.LVL652:
	ldr	x21, [sp,32]
	.cfi_restore 21
	ldp	x29, x30, [sp], 64
	.cfi_restore 30
	.cfi_restore 29
	.cfi_def_cfa 31, 0
	ret
.LVL653:
.L676:
	.cfi_restore_state
	.loc 1 3182 0
	str	wzr, [x20,2584]
	.loc 1 3183 0
	str	xzr, [x3,19000]
	.loc 1 3184 0
	str	wzr, [x20,2592]
	.loc 1 3185 0
	strb	wzr, [x20,2577]
	.loc 1 3186 0
	str	wzr, [x20,2600]
	.loc 1 3190 0
	ldp	x19, x20, [sp,16]
	.cfi_remember_state
	.cfi_restore 19
	.cfi_restore 20
.LVL654:
	ldr	x21, [sp,32]
	.cfi_restore 21
	ldp	x29, x30, [sp], 64
	.cfi_restore 29
	.cfi_restore 30
	.cfi_def_cfa 31, 0
	ret
.LVL655:
.L683:
	.cfi_restore_state
	.loc 1 3147 0
	add	x3, x0, 16384
.LVL656:
	adrp	x1, .LC42
.LVL657:
	mov	w0, 1
.LVL658:
	add	x1, x1, :lo12:.LC42
	ldr	w2, [x3,2644]
.LVL659:
	bl	dprint_linux_kernel
.LVL660:
	.loc 1 3148 0
	mov	w0, 0
	b	.L675
	.cfi_endproc
.LFE2678:
	.size	MP2_ReceivePacket, .-MP2_ReceivePacket
	.align	2
	.global	MP2_ClearCurPacket
	.type	MP2_ClearCurPacket, %function
MP2_ClearCurPacket:
.LFB2679:
	.loc 1 3193 0
	.cfi_startproc
.LVL661:
	stp	x29, x30, [sp, -32]!
	.cfi_def_cfa_offset 32
	.cfi_offset 29, -32
	.cfi_offset 30, -24
	add	x29, sp, 0
	.cfi_def_cfa_register 29
	stp	x19, x20, [sp,16]
	.cfi_offset 19, -16
	.cfi_offset 20, -8
	.loc 1 3193 0
	mov	x19, x1
	mov	w20, w0
	.loc 1 3194 0
	ldr	w1, [x1,20]
.LVL662:
	bl	SM_ReleaseStreamSeg
.LVL663:
	.loc 1 3196 0
	ldrsb	w0, [x19]
	cmp	w0, 1
	beq	.L685
	.loc 1 3198 0
	ldr	w1, [x19,24]
	mov	w0, w20
	bl	SM_ReleaseStreamSeg
.LVL664:
.L685:
	.loc 1 3201 0
	stp	xzr, xzr, [x19]
	stp	xzr, xzr, [x19,16]
	stp	xzr, xzr, [x19,32]
	.loc 1 3202 0
	ldp	x19, x20, [sp,16]
	.cfi_restore 20
	.cfi_restore 19
.LVL665:
	ldp	x29, x30, [sp], 32
	.cfi_restore 30
	.cfi_restore 29
	.cfi_def_cfa 31, 0
	ret
	.cfi_endproc
.LFE2679:
	.size	MP2_ClearCurPacket, .-MP2_ClearCurPacket
	.align	2
	.global	MP2_ClearCurPic
	.type	MP2_ClearCurPic, %function
MP2_ClearCurPic:
.LFB2680:
	.loc 1 3205 0
	.cfi_startproc
.LVL666:
	stp	x29, x30, [sp, -64]!
	.cfi_def_cfa_offset 64
	.cfi_offset 29, -64
	.cfi_offset 30, -56
	add	x29, sp, 0
	.cfi_def_cfa_register 29
	str	x23, [sp,48]
	.cfi_offset 23, -16
	.loc 1 3209 0 discriminator 1
	add	x23, x0, 16
	.loc 1 3205 0
	stp	x21, x22, [sp,32]
	.cfi_offset 21, -32
	.cfi_offset 22, -24
	.loc 1 3209 0 discriminator 1
	add	x22, x23, 45056
	.loc 1 3205 0
	stp	x19, x20, [sp,16]
	.cfi_offset 19, -48
	.cfi_offset 20, -40
	.loc 1 3209 0 discriminator 1
	ldr	w1, [x22,232]
	cbz	w1, .L693
	add	x19, x0, 252
	mov	w20, 0
.LVL667:
	add	x21, x0, 86016
	b	.L692
.LVL668:
.L691:
	ldr	w0, [x22,232]
	add	x19, x19, 44
	cmp	w20, w0
	bcs	.L693
.LVL669:
.L692:
	.loc 1 3211 0
	ldr	w1, [x19,20]
	.loc 1 3209 0 discriminator 2
	add	w20, w20, 1
	.loc 1 3211 0
	ldr	w0, [x21,264]
.LVL670:
	bl	SM_ReleaseStreamSeg
.LVL671:
	.loc 1 3212 0
	ldr	w0, [x19]
	cbz	w0, .L691
	.loc 1 3212 0 is_stmt 0 discriminator 1
	ldr	w0, [x19,8]
	cbz	w0, .L691
	.loc 1 3214 0 is_stmt 1
	ldr	w1, [x19,24]
	add	x19, x19, 44
	ldr	w0, [x21,264]
	bl	SM_ReleaseStreamSeg
.LVL672:
	.loc 1 3209 0 discriminator 1
	ldr	w0, [x22,232]
	cmp	w20, w0
	bcc	.L692
.LVL673:
.L693:
	.loc 1 3217 0
	add	x23, x23, 45056
	str	wzr, [x23,232]
	.loc 1 3219 0
	ldp	x19, x20, [sp,16]
	.cfi_restore 20
	.cfi_restore 19
.LVL674:
	ldp	x21, x22, [sp,32]
	.cfi_restore 22
	.cfi_restore 21
	ldr	x23, [sp,48]
	.cfi_restore 23
	ldp	x29, x30, [sp], 64
	.cfi_restore 30
	.cfi_restore 29
	.cfi_def_cfa 31, 0
	ret
	.cfi_endproc
.LFE2680:
	.size	MP2_ClearCurPic, .-MP2_ClearCurPic
	.align	2
	.global	MPEG2DEC_VDMPostProc
	.type	MPEG2DEC_VDMPostProc, %function
MPEG2DEC_VDMPostProc:
.LFB2676:
	.loc 1 2961 0
	.cfi_startproc
.LVL675:
	stp	x29, x30, [sp, -112]!
	.cfi_def_cfa_offset 112
	.cfi_offset 29, -112
	.cfi_offset 30, -104
	add	x29, sp, 0
	.cfi_def_cfa_register 29
	stp	x19, x20, [sp,16]
	.cfi_offset 19, -96
	.cfi_offset 20, -88
	.loc 1 2971 0
	add	x20, x0, 45056
	.loc 1 2961 0
	str	x27, [sp,80]
	stp	x21, x22, [sp,32]
	.cfi_offset 27, -32
	.cfi_offset 21, -80
	.cfi_offset 22, -72
	.loc 1 2971 0
	add	x21, x20, 256
	.loc 1 2961 0
	mov	w22, w1
	stp	x23, x24, [sp,48]
	stp	x25, x26, [sp,64]
	.cfi_offset 23, -64
	.cfi_offset 24, -56
	.cfi_offset 25, -48
	.cfi_offset 26, -40
	.loc 1 2971 0
	add	x21, x21, 16384
	.loc 1 2969 0
	add	x26, x0, 65536
	.loc 1 2971 0
	ldrb	w1, [x0,160]
.LVL676:
	.loc 1 2982 0
	add	x23, x0, 86016
	.loc 1 2971 0
	add	x24, x0, 16
	.loc 1 2961 0
	mov	x19, x0
	.loc 1 2969 0
	ldr	x25, [x26,128]
.LVL677:
	.loc 1 2971 0
	strb	w1, [x21,2824]
	.loc 1 2973 0
	bl	MP2_RecordVFMWState
.LVL678:
	.loc 1 2978 0
	mov	x0, x19
	bl	MP2_ClearCurPic
.LVL679:
	.loc 1 2980 0
	mov	x2, 45296
	mov	x0, x24
	mov	w1, 0
	bl	memset
.LVL680:
	.loc 1 2982 0
	ldr	w1, [x21,2740]
	ldr	w0, [x23,264]
	bl	FSP_GetFsImagePtr
.LVL681:
	mov	x24, x0
.LVL682:
	.loc 1 2983 0
	ldr	w1, [x21,2736]
	ldr	w0, [x23,264]
	bl	FSP_GetFsImagePtr
.LVL683:
	mov	x27, x0
.LVL684:
	.loc 1 2984 0
	ldr	w1, [x21,2732]
	ldr	w0, [x23,264]
	bl	FSP_GetFsImagePtr
.LVL685:
	mov	x4, x0
.LVL686:
	.loc 1 2986 0
	cbz	x24, .L769
	.loc 1 2992 0
	ldrb	w0, [x25,22]
	strb	w0, [x20,256]
	.loc 1 3001 0
	str	w22, [x24,84]
	.loc 1 3003 0
	tbnz	w22, #31, .L705
	.loc 1 3003 0 is_stmt 0 discriminator 1
	cmp	w22, 100
	mov	w0, 100
	csel	w22, w22, w0, le
.LVL687:
	.loc 1 3003 0 discriminator 4
	str	w22, [x24,84]
	.loc 1 3005 0 is_stmt 1
	ldrb	w0, [x25,22]
	cmp	w0, 3
	beq	.L706
	.loc 1 3005 0 is_stmt 0 discriminator 1
	ldr	x0, [x19]
	ldr	w0, [x0,4]
	cmp	w22, w0
	bhi	.L770
.LVL688:
.L706:
	.loc 1 3013 0 is_stmt 1
	adrp	x1, .LC45
	mov	w0, 22
	add	x1, x1, :lo12:.LC45
	bl	dprint_linux_kernel
.LVL689:
	.loc 1 3014 0
	mov	x0, x19
	bl	MP2_SetImgFormat
.LVL690:
	.loc 1 3015 0
	ldrb	w0, [x25,9]
	cmp	w0, 3
	beq	.L708
	.loc 1 3015 0 is_stmt 0 discriminator 1
	add	x1, x20, 256
	.loc 1 3110 0 is_stmt 1
	mov	w0, 1
	.loc 1 3015 0 discriminator 1
	add	x1, x1, 16384
	ldr	w1, [x1,2648]
	cmp	w1, w0
	beq	.L708
.LVL691:
.L753:
	.loc 1 3111 0
	ldp	x19, x20, [sp,16]
	.cfi_remember_state
	.cfi_restore 20
	.cfi_restore 19
.LVL692:
	ldp	x21, x22, [sp,32]
	.cfi_restore 22
	.cfi_restore 21
.LVL693:
	ldp	x23, x24, [sp,48]
	.cfi_restore 24
	.cfi_restore 23
.LVL694:
	ldp	x25, x26, [sp,64]
	.cfi_restore 26
	.cfi_restore 25
.LVL695:
	ldr	x27, [sp,80]
	.cfi_restore 27
.LVL696:
	ldp	x29, x30, [sp], 112
	.cfi_restore 30
	.cfi_restore 29
	.cfi_def_cfa 31, 0
	ret
.LVL697:
.L708:
	.cfi_restore_state
	.loc 1 3019 0
	add	x21, x19, 61440
	ldr	x0, [x21,2912]
	cbz	x0, .L709
	.loc 1 3019 0 is_stmt 0 discriminator 1
	str	x0, [x24,248]
.L709:
	.loc 1 3019 0
	ldr	x0, [x21,2920]
	.loc 1 3020 0 is_stmt 1
	str	xzr, [x21,2912]
	.loc 1 3019 0
	cbz	x0, .L710
	.loc 1 3019 0 is_stmt 0 discriminator 1
	str	x0, [x24,256]
.L710:
	.loc 1 3019 0
	ldr	x0, [x21,2928]
	.loc 1 3020 0 is_stmt 1
	str	xzr, [x21,2920]
	.loc 1 3019 0
	cbz	x0, .L711
	.loc 1 3019 0 is_stmt 0 discriminator 1
	str	x0, [x24,264]
.L711:
	.loc 1 3019 0
	ldr	x0, [x21,2936]
	.loc 1 3020 0 is_stmt 1
	str	xzr, [x21,2928]
	.loc 1 3019 0
	cbz	x0, .L712
	.loc 1 3019 0 is_stmt 0 discriminator 1
	str	x0, [x24,272]
.L712:
	.loc 1 3022 0 is_stmt 1
	add	x0, x20, 256
	.loc 1 3020 0
	str	xzr, [x21,2936]
	.loc 1 3022 0
	add	x0, x0, 16384
	str	wzr, [x0,2688]
	.loc 1 3024 0
	ldr	x1, [x19]
	ldr	w1, [x1,16]
	cmp	w1, 1
	beq	.L713
	.loc 1 3026 0
	ldrb	w1, [x25,22]
	cmp	w1, 3
	beq	.L713
	.loc 1 3030 0
	ldr	w1, [x0,2732]
	str	w1, [x0,2744]
.L714:
	.loc 1 3045 0
	cmn	w1, #1
	beq	.L716
	.loc 1 3046 0
	ldr	w0, [x23,264]
	bl	FSP_GetDisplay
.LVL698:
	.loc 1 3045 0 discriminator 1
	cmp	w0, 1
	beq	.L720
	.loc 1 3047 0
	add	x1, x20, 256
	ldr	w0, [x23,264]
	add	x1, x1, 16384
	ldr	w1, [x1,2744]
	bl	FSP_GetDisplay
.LVL699:
	.loc 1 3046 0
	cmp	w0, 2
	beq	.L720
.LVL700:
.L716:
	.loc 1 3087 0
	ldrb	w0, [x25,27]
	cmp	w0, 1
	beq	.L771
	.loc 1 3093 0
	ldrb	w0, [x25,18]
	cmp	w0, 1
	beq	.L772
	.loc 1 3102 0
	add	x1, x20, 256
	add	x1, x1, 16384
	ldr	w0, [x1,2812]
	add	w0, w0, 1
	str	w0, [x1,2812]
	.loc 1 3103 0
	lsl	w0, w0, 1
	str	w0, [x1,2808]
.L728:
	.loc 1 3105 0
	ldr	w1, [x21,3060]
	.loc 1 3107 0
	add	x20, x20, 256
	.loc 1 3110 0
	mov	w0, 1
	.loc 1 3107 0
	add	x20, x20, 16384
	.loc 1 3105 0
	add	w1, w1, w0
	str	w1, [x21,3060]
	.loc 1 3107 0
	ldr	w1, [x20,2644]
	add	w1, w1, w0
	str	w1, [x20,2644]
	.loc 1 3111 0
	ldp	x19, x20, [sp,16]
	.cfi_remember_state
	.cfi_restore 19
	.cfi_restore 20
.LVL701:
	ldp	x21, x22, [sp,32]
	.cfi_restore 21
	.cfi_restore 22
.LVL702:
	ldp	x23, x24, [sp,48]
	.cfi_restore 23
	.cfi_restore 24
.LVL703:
	ldp	x25, x26, [sp,64]
	.cfi_restore 25
	.cfi_restore 26
.LVL704:
	ldr	x27, [sp,80]
	.cfi_restore 27
.LVL705:
	ldp	x29, x30, [sp], 112
	.cfi_restore 29
	.cfi_restore 30
	.cfi_def_cfa 31, 0
	ret
.LVL706:
.L705:
	.cfi_restore_state
	.loc 1 3003 0 discriminator 4
	str	wzr, [x24,84]
	b	.L706
.LVL707:
.L770:
.LBB89:
	.loc 1 3007 0
	ldr	w0, [x23,264]
	ldr	w1, [x21,2736]
	bl	FSP_GetFsImagePtr
.LVL708:
	mov	x19, x0
.LVL709:
	cbz	x0, .L707
	.loc 1 3007 0 is_stmt 0 discriminator 2
	ldr	w0, [x23,264]
	ldr	x1, [x19,248]
	bl	FreeUsdByDec
.LVL710:
	.loc 1 3007 0 discriminator 3
	ldr	w0, [x23,264]
	ldr	x1, [x19,256]
	bl	FreeUsdByDec
.LVL711:
	.loc 1 3007 0 discriminator 4
	ldr	w0, [x23,264]
	ldr	x1, [x19,264]
	bl	FreeUsdByDec
.LVL712:
	.loc 1 3007 0 discriminator 5
	ldr	w0, [x23,264]
	ldr	x1, [x19,272]
	bl	FreeUsdByDec
.LVL713:
	.loc 1 3007 0 discriminator 1
	str	xzr, [x19,248]
	str	xzr, [x19,256]
	.loc 1 3007 0 discriminator 6
	mov	w2, 1
	.loc 1 3007 0 discriminator 1
	str	xzr, [x19,264]
	str	xzr, [x19,272]
	.loc 1 3007 0 discriminator 6
	ldr	w0, [x23,264]
	ldr	w1, [x21,2736]
	bl	FSP_ClearLogicFs
.LVL714:
	.loc 1 3007 0 discriminator 7
	ldr	w0, [x23,264]
	mov	w2, 1
	ldr	w1, [x21,2732]
	bl	FSP_ClearLogicFs
.LVL715:
	.loc 1 3007 0 discriminator 1
	str	wzr, [x21,2732]
	str	wzr, [x21,2736]
.L707:
.LBE89:
	.loc 1 3008 0 is_stmt 1
	add	x20, x20, 256
	.loc 1 3009 0
	mov	w0, 1
	.loc 1 3008 0
	add	x20, x20, 16384
	str	wzr, [x20,2696]
	.loc 1 3111 0
	ldp	x19, x20, [sp,16]
	.cfi_remember_state
	.cfi_restore 19
	.cfi_restore 20
.LVL716:
	ldp	x21, x22, [sp,32]
	.cfi_restore 21
	.cfi_restore 22
	ldp	x23, x24, [sp,48]
	.cfi_restore 23
	.cfi_restore 24
.LVL717:
	ldp	x25, x26, [sp,64]
	.cfi_restore 25
	.cfi_restore 26
.LVL718:
	ldr	x27, [sp,80]
	.cfi_restore 27
.LVL719:
	ldp	x29, x30, [sp], 112
	.cfi_restore 29
	.cfi_restore 30
	.cfi_def_cfa 31, 0
	ret
.LVL720:
.L772:
	.cfi_restore_state
	.loc 1 3096 0
	add	x0, x20, 256
	add	x0, x0, 16384
	ldr	w1, [x0,2812]
	.loc 1 3097 0
	ldr	w2, [x0,2808]
	.loc 1 3096 0
	add	w1, w1, 1
	str	w1, [x0,2812]
	.loc 1 3098 0
	ldrb	w1, [x25,16]
	add	w1, w1, 2
	.loc 1 3097 0
	add	w1, w2, w1
	str	w1, [x0,2808]
	b	.L728
.LVL721:
.L720:
	.loc 1 3050 0
	add	x1, x20, 256
	ldr	w0, [x23,264]
	add	x1, x1, 16384
	ldr	w1, [x1,2744]
	bl	FSP_GetFsImagePtr
.LVL722:
	mov	x22, x0
.LVL723:
	.loc 1 3051 0
	cbz	x0, .L773
	.loc 1 3057 0
	ldr	w2, [x0,84]
	cbz	w2, .L722
	.loc 1 3057 0 is_stmt 0 discriminator 1
	ldr	x0, [x19]
	ldr	w3, [x0,8]
	cmp	w2, w3
	bhi	.L723
.L722:
	.loc 1 3059 0 is_stmt 1
	add	x24, x20, 256
.LVL724:
	ldr	w0, [x23,264]
	add	x24, x24, 16384
	ldr	w2, [x24,2744]
	str	x2, [x29,104]
	mov	w1, w2
	bl	FSP_GetRef
.LVL725:
	.loc 1 3059 0 is_stmt 0 discriminator 1
	mov	w3, w0
	ldr	x2, [x29,104]
	adrp	x1, .LC46
	add	x1, x1, :lo12:.LC46
	mov	w0, 12
	bl	dprint_linux_kernel
.LVL726:
	.loc 1 3061 0 is_stmt 1
	ldr	w0, [x23,264]
	mov	w2, 1
	ldr	w1, [x24,2744]
	bl	FSP_SetDisplay
.LVL727:
	.loc 1 3062 0
	ldr	w0, [x23,264]
	mov	w1, 3
	mov	x2, x19
	add	x3, x26, 144
	mov	x4, x22
	bl	InsertImgToVoQueue
.LVL728:
	cmp	w0, 1
	beq	.L724
	add	x21, x22, 248
	add	x22, x22, 280
.LVL729:
.L725:
	.loc 1 3066 0
	ldr	x1, [x21]
	ldr	w0, [x23,264]
	bl	FreeUsdByDec
.LVL730:
	.loc 1 3067 0
	str	xzr, [x21],8
	.loc 1 3064 0 discriminator 1
	cmp	x21, x22
	bne	.L725
	.loc 1 3069 0
	add	x20, x20, 256
	ldr	w0, [x23,264]
	add	x20, x20, 16384
	mov	w2, 0
	ldr	w1, [x20,2744]
	bl	FSP_SetDisplay
.LVL731:
	.loc 1 3070 0
	mov	w0, 0
	b	.L753
.LVL732:
.L713:
	.loc 1 3034 0
	add	x0, x20, 256
	add	x0, x0, 16384
	ldr	w1, [x0,2740]
	str	w1, [x0,2744]
	b	.L714
.LVL733:
.L771:
	.loc 1 3089 0
	add	x0, x20, 256
	.loc 1 3090 0
	ldrb	w3, [x25,16]
	.loc 1 3089 0
	add	x0, x0, 16384
	.loc 1 3090 0
	ldrb	w1, [x25,10]
	add	w1, w3, w1
	.loc 1 3089 0
	ldr	w2, [x0,2812]
	.loc 1 3090 0
	add	w1, w1, 1
	.loc 1 3089 0
	add	w1, w1, w2
	str	w1, [x0,2812]
	.loc 1 3091 0
	lsl	w1, w1, 1
	str	w1, [x0,2808]
	b	.L728
.LVL734:
.L723:
	.loc 1 3076 0
	adrp	x1, .LC47
	mov	w0, 1
	add	x1, x1, :lo12:.LC47
	add	x19, x22, 248
.LVL735:
	add	x22, x22, 280
.LVL736:
	bl	dprint_linux_kernel
.LVL737:
.L726:
	.loc 1 3079 0
	ldr	x1, [x19]
	ldr	w0, [x23,264]
	bl	FreeUsdByDec
.LVL738:
	.loc 1 3080 0
	str	xzr, [x19],8
	.loc 1 3077 0 discriminator 1
	cmp	x19, x22
	bne	.L726
	.loc 1 3082 0
	add	x1, x20, 256
	ldr	w0, [x23,264]
	add	x1, x1, 16384
	mov	w2, 0
	ldr	w1, [x1,2744]
	bl	FSP_SetDisplay
.LVL739:
	b	.L716
.LVL740:
.L769:
	.loc 1 2988 0
	adrp	x1, .LC44
	mov	w0, 0
	add	x1, x1, :lo12:.LC44
	mov	x2, 0
	mov	x3, x27
	bl	dprint_linux_kernel
.LVL741:
	.loc 1 2989 0
	mov	w0, 0
	b	.L753
.LVL742:
.L724:
	.loc 1 3072 0
	ldr	w0, [x23,272]
	add	w0, w0, 1
	str	w0, [x23,272]
	b	.L716
.LVL743:
.L773:
	.loc 1 3053 0
	adrp	x1, .LC20
	mov	w0, 0
.LVL744:
	add	x1, x1, :lo12:.LC20
	mov	w2, 3053
	bl	dprint_linux_kernel
.LVL745:
	.loc 1 3054 0
	mov	w0, 0
	b	.L753
	.cfi_endproc
.LFE2676:
	.size	MPEG2DEC_VDMPostProc, .-MPEG2DEC_VDMPostProc
	.align	2
	.global	MP2_u_v
	.type	MP2_u_v, %function
MP2_u_v:
.LFB2684:
	.loc 1 3317 0
	.cfi_startproc
.LVL746:
	stp	x29, x30, [sp, -64]!
	.cfi_def_cfa_offset 64
	.cfi_offset 29, -64
	.cfi_offset 30, -56
	add	x29, sp, 0
	.cfi_def_cfa_register 29
	stp	x19, x20, [sp,16]
	str	x21, [sp,32]
	.cfi_offset 19, -48
	.cfi_offset 20, -40
	.cfi_offset 21, -32
	.loc 1 3317 0
	mov	w20, w1
	str	x2, [x29,56]
	mov	x21, x0
	.loc 1 3320 0
	bl	BsShow
.LVL747:
	mov	w19, w0
	.loc 1 3321 0
	mov	w1, w20
	mov	x0, x21
	bl	BsSkip
.LVL748:
	.loc 1 3323 0
	ldr	x2, [x29,56]
.LVL749:
	adrp	x1, .LC48
	mov	w3, w19
	add	x1, x1, :lo12:.LC48
	mov	w0, 2
	bl	dprint_linux_kernel
.LVL750:
	.loc 1 3326 0
	ldr	x21, [sp,32]
	.cfi_restore 21
.LVL751:
	mov	w0, w19
	ldp	x19, x20, [sp,16]
	.cfi_restore 20
	.cfi_restore 19
.LVL752:
	ldp	x29, x30, [sp], 64
	.cfi_restore 30
	.cfi_restore 29
	.cfi_def_cfa 31, 0
	ret
	.cfi_endproc
.LFE2684:
	.size	MP2_u_v, .-MP2_u_v
	.align	2
	.global	MP2_DecSliceHeader
	.type	MP2_DecSliceHeader, %function
MP2_DecSliceHeader:
.LFB2683:
	.loc 1 3277 0
	.cfi_startproc
.LVL753:
	stp	x29, x30, [sp, -80]!
	.cfi_def_cfa_offset 80
	.cfi_offset 29, -80
	.cfi_offset 30, -72
	.loc 1 3281 0
	mov	w1, 1
	mov	w2, 0
	.loc 1 3277 0
	add	x29, sp, 0
	.cfi_def_cfa_register 29
	stp	x19, x20, [sp,16]
	stp	x21, x22, [sp,32]
	str	x23, [sp,48]
	.cfi_offset 19, -64
	.cfi_offset 20, -56
	.cfi_offset 21, -48
	.cfi_offset 22, -40
	.cfi_offset 23, -32
	.loc 1 3277 0
	mov	x20, x0
	.loc 1 3285 0
	ldr	w0, [x0,4]
.LVL754:
	.loc 1 3281 0
	str	w1, [x20,16]
	.loc 1 3282 0
	str	wzr, [x20,24]
	.loc 1 3285 0
	cmp	w0, 175
	.loc 1 3279 0
	ldr	x19, [x20,56]
.LVL755:
	.loc 1 3285 0
	bls	.L776
	.loc 1 3285 0 is_stmt 0 discriminator 1
	ldr	w0, [x20]
	cbz	w0, .L787
.L776:
	ldr	w4, [x20,20]
	.loc 1 3294 0 is_stmt 1
	mov	w1, 5
	.loc 1 3293 0
	ldr	w3, [x20,8]
	.loc 1 3294 0
	mov	x0, x19
	sub	w4, w4, #1
	adrp	x23, .LC51
	.loc 1 3292 0
	add	w4, w4, w2
.LVL756:
	.loc 1 3294 0
	adrp	x2, .LC50
	add	x2, x2, :lo12:.LC50
	.loc 1 3293 0
	mul	w3, w4, w3
	.loc 1 3293 0 is_stmt 0 discriminator 1
	cmp	w3, wzr
	cset	w4, ne
.LVL757:
	sub	w3, w3, w4
	.loc 1 3293 0 discriminator 4
	str	w3, [x20,28]
	.loc 1 3294 0 is_stmt 1
	bl	MP2_u_v
.LVL758:
	.loc 1 3297 0
	str	wzr, [x20,32]
	.loc 1 3294 0
	str	w0, [x20,44]
	.loc 1 3298 0
	mov	w1, 1
	mov	x0, x19
	bl	BsShow
.LVL759:
	cbnz	w0, .L788
.L781:
	.loc 1 3311 0
	add	x2, x23, :lo12:.LC51
	mov	x0, x19
	mov	w1, 1
	bl	MP2_u_v
.LVL760:
	.loc 1 3314 0
	ldr	x23, [sp,48]
	.cfi_remember_state
	.cfi_restore 23
	ldp	x19, x20, [sp,16]
	.cfi_restore 20
	.cfi_restore 19
.LVL761:
	ldp	x21, x22, [sp,32]
	.cfi_restore 22
	.cfi_restore 21
	mov	w0, 0
	ldp	x29, x30, [sp], 80
	.cfi_restore 30
	.cfi_restore 29
	.cfi_def_cfa 31, 0
	ret
.LVL762:
.L788:
	.cfi_restore_state
	.loc 1 3300 0
	adrp	x2, .LC52
	mov	w1, 1
	add	x2, x2, :lo12:.LC52
	mov	x0, x19
	adrp	x23, .LC51
.LBB94:
.LBB95:
	.loc 1 3323 0
	adrp	x21, .LC55
.LBE95:
.LBE94:
	.loc 1 3300 0
	bl	MP2_u_v
.LVL763:
.LBB98:
.LBB99:
	.loc 1 3323 0
	add	x22, x23, :lo12:.LC51
.LBE99:
.LBE98:
	.loc 1 3301 0
	adrp	x2, .LC53
	mov	w1, 1
	add	x2, x2, :lo12:.LC53
	mov	x0, x19
.LBB104:
.LBB96:
	.loc 1 3323 0
	add	x21, x21, :lo12:.LC55
.LBE96:
.LBE104:
	.loc 1 3301 0
	bl	MP2_u_v
.LVL764:
	str	w0, [x20,32]
	.loc 1 3302 0
	adrp	x2, .LC54
	mov	w1, 7
	mov	x0, x19
	add	x2, x2, :lo12:.LC54
.LBB105:
.LBB100:
	.loc 1 3323 0
	adrp	x20, .LC48
.LVL765:
.LBE100:
.LBE105:
	.loc 1 3302 0
	bl	MP2_u_v
.LVL766:
.LBB106:
.LBB101:
	.loc 1 3323 0
	add	x20, x20, :lo12:.LC48
.LBE101:
.LBE106:
	.loc 1 3304 0
	b	.L779
.L780:
.LBB107:
.LBB102:
	.loc 1 3320 0
	mov	x0, x19
	bl	BsShow
.LVL767:
	mov	w3, w0
	.loc 1 3321 0
	mov	w1, 1
	mov	x0, x19
	.loc 1 3320 0
	str	x3, [x29,72]
	.loc 1 3321 0
	bl	BsSkip
.LVL768:
	.loc 1 3323 0
	ldr	x3, [x29,72]
	mov	x2, x22
	mov	x1, x20
	mov	w0, 2
	bl	dprint_linux_kernel
.LVL769:
.LBE102:
.LBE107:
.LBB108:
.LBB97:
	.loc 1 3320 0
	mov	w1, 8
	mov	x0, x19
	bl	BsShow
.LVL770:
	mov	w3, w0
	.loc 1 3321 0
	mov	w1, 8
	mov	x0, x19
	.loc 1 3320 0
	str	x3, [x29,72]
	.loc 1 3321 0
	bl	BsSkip
.LVL771:
	.loc 1 3323 0
	ldr	x3, [x29,72]
	mov	w0, 2
	mov	x1, x20
	mov	x2, x21
	bl	dprint_linux_kernel
.LVL772:
.L779:
.LBE97:
.LBE108:
	.loc 1 3304 0
	mov	w1, 1
	mov	x0, x19
	bl	BsShow
.LVL773:
.LBB109:
.LBB103:
	.loc 1 3320 0
	mov	w1, 1
.LBE103:
.LBE109:
	.loc 1 3304 0
	cbnz	w0, .L780
	b	.L781
.LVL774:
.L787:
	.loc 1 3287 0
	adrp	x2, .LC49
	mov	x0, x19
	add	x2, x2, :lo12:.LC49
	mov	w1, 3
	bl	MP2_u_v
.LVL775:
	lsl	w2, w0, 7
	str	w0, [x20,24]
	b	.L776
	.cfi_endproc
.LFE2683:
	.size	MP2_DecSliceHeader, .-MP2_DecSliceHeader
	.align	2
	.global	MP2_ExitMb
	.type	MP2_ExitMb, %function
MP2_ExitMb:
.LFB2686:
	.loc 1 3396 0
	.cfi_startproc
.LVL776:
	.loc 1 3397 0
	str	wzr, [x0,16]
	.loc 1 3398 0
	ret
	.cfi_endproc
.LFE2686:
	.size	MP2_ExitMb, .-MP2_ExitMb
	.align	2
	.global	MP2_WriteSliceInfo
	.type	MP2_WriteSliceInfo, %function
MP2_WriteSliceInfo:
.LFB2687:
	.loc 1 3401 0
	.cfi_startproc
.LVL777:
	stp	x29, x30, [sp, -48]!
	.cfi_def_cfa_offset 48
	.cfi_offset 29, -48
	.cfi_offset 30, -40
	add	x29, sp, 0
	.cfi_def_cfa_register 29
	stp	x21, x22, [sp,32]
	.cfi_offset 21, -16
	.cfi_offset 22, -8
	.loc 1 3413 0
	add	x21, x0, 16
	.loc 1 3401 0
	mov	x22, x0
	.loc 1 3413 0
	add	x1, x21, 45056
	.loc 1 3418 0
	add	x0, x0, 61440
.LVL778:
	.loc 1 3401 0
	stp	x19, x20, [sp,16]
	.cfi_offset 19, -32
	.cfi_offset 20, -24
	.loc 1 3413 0
	ldr	w2, [x1,232]
	.loc 1 3418 0
	ldr	w4, [x0,3120]
	.loc 1 3423 0
	cmp	w2, 1023
	.loc 1 3418 0
	uxtw	x1, w2
	lsl	x19, x1, 4
	sub	x19, x19, x1, lsl 2
	sub	x19, x19, x1
	add	x19, x21, x19, lsl 2
	str	w4, [x19,268]
	.loc 1 3419 0
	ldr	w4, [x0,3132]
	str	w4, [x19,272]
	.loc 1 3420 0
	ldr	w3, [x0,3128]
	str	w3, [x19,264]
	.loc 1 3423 0
	bhi	.L796
	.loc 1 3432 0
	add	x0, x0, 3152
	mov	x20, 61696
	add	x20, x22, x20
	ldr	w2, [x0,32]
	.loc 1 3433 0
	and	w3, w2, 7
.LVL779:
	.loc 1 3432 0
	ldr	w4, [x20,2580]
	.loc 1 3436 0
	str	w3, [x19,248]
	.loc 1 3432 0
	add	w2, w4, w2, lsr 3
.LVL780:
	.loc 1 3435 0
	str	w2, [x19,232]
	.loc 1 3437 0
	ldr	w2, [x20,2596]
.LVL781:
	str	w2, [x19,256]
	.loc 1 3438 0
	bl	BsResidBits
.LVL782:
	str	w0, [x19,240]
	.loc 1 3440 0
	ldrsh	w0, [x20,2576]
	cmp	w0, 1
	beq	.L797
	.loc 1 3447 0
	cmp	w0, 256
	bne	.L795
	.loc 1 3449 0
	ldr	w0, [x20,2584]
	add	x1, x19, 228
	str	w0, [x19,236]
	.loc 1 3450 0
	str	wzr, [x19,252]
	.loc 1 3451 0
	ldr	w0, [x20,2600]
	str	w0, [x19,260]
	.loc 1 3452 0
	ldr	w0, [x20,2592]
	lsl	w0, w0, 3
	str	w0, [x1,16]
.L794:
	.loc 1 3460 0
	add	x21, x21, 45056
	.loc 1 3462 0
	mov	w0, 1
	.loc 1 3460 0
	ldr	w1, [x21,232]
	add	w1, w1, w0
	str	w1, [x21,232]
	.loc 1 3464 0
	ldp	x19, x20, [sp,16]
	.cfi_remember_state
	.cfi_restore 20
	.cfi_restore 19
	ldp	x21, x22, [sp,32]
	.cfi_restore 22
	.cfi_restore 21
.LVL783:
	ldp	x29, x30, [sp], 48
	.cfi_restore 30
	.cfi_restore 29
	.cfi_def_cfa 31, 0
	ret
.LVL784:
.L796:
	.cfi_restore_state
	.loc 1 3425 0
	adrp	x1, .LC56
	mov	w3, 1024
	add	x1, x1, :lo12:.LC56
	mov	w0, 1
	bl	dprint_linux_kernel
.LVL785:
	.loc 1 3426 0
	mov	x0, x22
	bl	MP2_ClearCurPic
.LVL786:
	.loc 1 3427 0
	mov	x0, 61696
	mov	w1, -5767169
	add	x22, x22, x0
.LVL787:
	.loc 1 3429 0
	mov	w0, 0
	.loc 1 3427 0
	ldr	w2, [x22,2636]
	.loc 1 3428 0
	str	wzr, [x22,2712]
	.loc 1 3427 0
	and	w1, w2, w1
	str	w1, [x22,2636]
	.loc 1 3464 0
	ldp	x19, x20, [sp,16]
	.cfi_remember_state
	.cfi_restore 19
	.cfi_restore 20
	ldp	x21, x22, [sp,32]
	.cfi_restore 21
	.cfi_restore 22
	ldp	x29, x30, [sp], 48
	.cfi_restore 29
	.cfi_restore 30
	.cfi_def_cfa 31, 0
	ret
.LVL788:
.L797:
	.cfi_restore_state
	.loc 1 3442 0
	add	x0, x19, 228
	str	wzr, [x19,236]
	.loc 1 3443 0
	str	wzr, [x19,252]
	.loc 1 3444 0
	str	wzr, [x19,260]
	.loc 1 3445 0
	str	wzr, [x0,16]
	b	.L794
.L795:
	.loc 1 3456 0
	ldrsb	w2, [x20,2576]
	adrp	x1, .LC57
	ldrsb	w3, [x20,2577]
	add	x1, x1, :lo12:.LC57
	mov	w0, 1
	bl	dprint_linux_kernel
.LVL789:
	.loc 1 3458 0
	mov	w0, 0
	.loc 1 3464 0
	ldp	x19, x20, [sp,16]
	.cfi_restore 19
	.cfi_restore 20
	ldp	x21, x22, [sp,32]
	.cfi_restore 21
	.cfi_restore 22
.LVL790:
	ldp	x29, x30, [sp], 48
	.cfi_restore 29
	.cfi_restore 30
	.cfi_def_cfa 31, 0
	ret
	.cfi_endproc
.LFE2687:
	.size	MP2_WriteSliceInfo, .-MP2_WriteSliceInfo
	.align	2
	.global	MP2_MbAddrInc
	.type	MP2_MbAddrInc, %function
MP2_MbAddrInc:
.LFB2688:
	.loc 1 3467 0
	.cfi_startproc
.LVL791:
	stp	x29, x30, [sp, -64]!
	.cfi_def_cfa_offset 64
	.cfi_offset 29, -64
	.cfi_offset 30, -56
	.loc 1 3473 0
	mov	w1, 4
	.loc 1 3467 0
	add	x29, sp, 0
	.cfi_def_cfa_register 29
	stp	x19, x20, [sp,16]
	.cfi_offset 19, -48
	.cfi_offset 20, -40
	.loc 1 3475 0
	adrp	x19, .LANCHOR1
	.loc 1 3467 0
	stp	x21, x22, [sp,32]
	.cfi_offset 21, -32
	.cfi_offset 22, -24
	.loc 1 3475 0
	add	x19, x19, :lo12:.LANCHOR1
	.loc 1 3467 0
	mov	x22, x0
	.loc 1 3473 0
	bl	BsShow
.LVL792:
	.loc 1 3475 0
	ubfiz	x0, x0, 3, 32
	add	x1, x19, 80
	add	x2, x1, x0
	ldr	w20, [x1,x0]
	.loc 1 3476 0
	ldr	w1, [x2,4]
	.loc 1 3478 0
	cmp	w20, 6
	bls	.L802
	.loc 1 3484 0
	cmp	w20, 9
	beq	.L803
.LBB114:
.LBB115:
	.loc 1 3491 0
	mov	w1, 11
	mov	x0, x22
	.loc 1 3496 0
	add	x19, x19, 208
	.loc 1 3491 0
	bl	BsShow
.LVL793:
	.loc 1 3492 0
	and	w0, w0, 127
	.loc 1 3496 0
	sub	w1, w0, #24
.LBB116:
.LBB117:
	.loc 1 3320 0
	mov	x0, x22
.LBE117:
.LBE116:
	.loc 1 3496 0
	lsl	x1, x1, 3
	add	x2, x19, x1
	ldr	w21, [x19,x1]
.LBB119:
.LBB118:
	.loc 1 3320 0
	ldr	w19, [x2,4]
	mov	w1, w19
	bl	BsShow
.LVL794:
	mov	w3, w0
	.loc 1 3321 0
	mov	w1, w19
	mov	x0, x22
	.loc 1 3320 0
	str	x3, [x29,56]
	.loc 1 3321 0
	bl	BsSkip
.LVL795:
	.loc 1 3323 0
	ldr	x3, [x29,56]
	adrp	x1, .LC48
	adrp	x2, .LC58
	add	x1, x1, :lo12:.LC48
	add	x2, x2, :lo12:.LC58
	mov	w0, 2
	bl	dprint_linux_kernel
.LVL796:
	mov	w0, w21
.LBE118:
.LBE119:
.LBE115:
.LBE114:
	.loc 1 3502 0
	ldp	x19, x20, [sp,16]
	.cfi_remember_state
	.cfi_restore 20
	.cfi_restore 19
	ldp	x21, x22, [sp,32]
	.cfi_restore 22
	.cfi_restore 21
.LVL797:
	ldp	x29, x30, [sp], 64
	.cfi_restore 30
	.cfi_restore 29
	.cfi_def_cfa 31, 0
	ret
.LVL798:
.L802:
	.cfi_restore_state
	.loc 1 3480 0
	adrp	x2, .LC58
	mov	x0, x22
	add	x2, x2, :lo12:.LC58
	bl	MP2_u_v
.LVL799:
	.loc 1 3482 0
	mov	w0, w20
	.loc 1 3502 0
	ldp	x19, x20, [sp,16]
	.cfi_remember_state
	.cfi_restore 19
	.cfi_restore 20
	ldp	x21, x22, [sp,32]
	.cfi_restore 21
	.cfi_restore 22
.LVL800:
	ldp	x29, x30, [sp], 64
	.cfi_restore 29
	.cfi_restore 30
	.cfi_def_cfa 31, 0
	ret
.LVL801:
.L803:
	.cfi_restore_state
	.loc 1 3486 0
	adrp	x2, .LC58
	mov	x0, x22
	add	x2, x2, :lo12:.LC58
	bl	MP2_u_v
.LVL802:
	sub	w0, w20, w0
	.loc 1 3502 0
	ldp	x21, x22, [sp,32]
	.cfi_restore 21
	.cfi_restore 22
.LVL803:
	ldp	x19, x20, [sp,16]
	.cfi_restore 19
	.cfi_restore 20
	ldp	x29, x30, [sp], 64
	.cfi_restore 29
	.cfi_restore 30
	.cfi_def_cfa 31, 0
	ret
	.cfi_endproc
.LFE2688:
	.size	MP2_MbAddrInc, .-MP2_MbAddrInc
	.align	2
	.global	MP2_InitMb
	.type	MP2_InitMb, %function
MP2_InitMb:
.LFB2685:
	.loc 1 3329 0
	.cfi_startproc
.LVL804:
	stp	x29, x30, [sp, -80]!
	.cfi_def_cfa_offset 80
	.cfi_offset 29, -80
	.cfi_offset 30, -72
	add	x29, sp, 0
	.cfi_def_cfa_register 29
	stp	x21, x22, [sp,32]
	stp	x19, x20, [sp,16]
	str	x23, [sp,48]
	.cfi_offset 21, -48
	.cfi_offset 22, -40
	.cfi_offset 19, -64
	.cfi_offset 20, -56
	.cfi_offset 23, -32
.LBB122:
.LBB123:
	.loc 1 3323 0
	adrp	x22, .LC48
	adrp	x21, .LC60
.LBE123:
.LBE122:
	.loc 1 3329 0
	mov	x23, x0
	.loc 1 3331 0
	mov	w20, 0
.LVL805:
.LBB126:
.LBB124:
	.loc 1 3323 0
	add	x22, x22, :lo12:.LC48
	add	x21, x21, :lo12:.LC60
.LBE124:
.LBE126:
	.loc 1 3333 0
	ldr	x19, [x0,56]
.LVL806:
	.loc 1 3340 0
	b	.L805
.LVL807:
.L809:
	.loc 1 3342 0
	cmp	w0, 15
	beq	.L814
	.loc 1 3344 0
	cmp	w0, 8
	.loc 1 3346 0
	add	w20, w20, 33
	.loc 1 3344 0
	bne	.L818
.L814:
.LBB127:
.LBB125:
	.loc 1 3320 0
	mov	w1, 11
	mov	x0, x19
	bl	BsShow
.LVL808:
	mov	w3, w0
	.loc 1 3321 0
	mov	w1, 11
	mov	x0, x19
	.loc 1 3320 0
	str	x3, [x29,72]
	.loc 1 3321 0
	bl	BsSkip
.LVL809:
	.loc 1 3323 0
	ldr	x3, [x29,72]
	mov	w0, 2
	mov	x1, x22
	mov	x2, x21
	bl	dprint_linux_kernel
.LVL810:
.L805:
.LBE125:
.LBE127:
	.loc 1 3340 0
	mov	w1, 11
	mov	x0, x19
	bl	BsShow
.LVL811:
	cmp	w0, 23
	bls	.L809
	.loc 1 3364 0
	mov	x0, x19
	bl	MP2_MbAddrInc
.LVL812:
	.loc 1 3366 0
	ldr	w1, [x23,16]
	cbz	w1, .L810
	.loc 1 3368 0
	ldr	w2, [x23,28]
.LVL813:
	add	w0, w20, w0
.LVL814:
	cbnz	w2, .L819
	.loc 1 3374 0
	sub	w2, w0, #1
.LVL815:
.L812:
	.loc 1 3380 0
	ldr	w3, [x23,12]
	.loc 1 3330 0
	mov	w0, 1
	.loc 1 3377 0
	str	w2, [x23,40]
	.loc 1 3380 0
	sub	w3, w3, #1
	cmp	w2, w3
	bls	.L808
	.loc 1 3382 0
	adrp	x1, .LC61
	add	x1, x1, :lo12:.LC61
	bl	dprint_linux_kernel
.LVL816:
	.loc 1 3383 0
	mov	w0, 0
	b	.L808
.L818:
	.loc 1 3350 0
	adrp	x1, .LC59
	mov	w0, 1
	add	x1, x1, :lo12:.LC59
	bl	dprint_linux_kernel
.LVL817:
	.loc 1 3351 0
	mov	w0, 0
.LVL818:
.L808:
	.loc 1 3392 0
	ldp	x19, x20, [sp,16]
	.cfi_remember_state
	.cfi_restore 20
	.cfi_restore 19
.LVL819:
	ldp	x21, x22, [sp,32]
	.cfi_restore 22
	.cfi_restore 21
	ldr	x23, [sp,48]
	.cfi_restore 23
.LVL820:
	ldp	x29, x30, [sp], 80
	.cfi_restore 30
	.cfi_restore 29
	.cfi_def_cfa 31, 0
	ret
.LVL821:
.L819:
	.cfi_restore_state
	.loc 1 3370 0
	add	w2, w0, w2
.LVL822:
	b	.L812
.LVL823:
.L810:
	.loc 1 3388 0
	adrp	x1, .LC62
	mov	w2, 0
	add	x1, x1, :lo12:.LC62
	mov	w0, 1
	bl	dprint_linux_kernel
.LVL824:
	.loc 1 3392 0
	ldr	x23, [sp,48]
	.cfi_restore 23
.LVL825:
	ldp	x19, x20, [sp,16]
	.cfi_restore 19
	.cfi_restore 20
.LVL826:
	ldp	x21, x22, [sp,32]
	.cfi_restore 21
	.cfi_restore 22
	.loc 1 3389 0
	mov	w0, 0
	.loc 1 3392 0
	ldp	x29, x30, [sp], 80
	.cfi_restore 29
	.cfi_restore 30
	.cfi_def_cfa 31, 0
	ret
	.cfi_endproc
.LFE2685:
	.size	MP2_InitMb, .-MP2_InitMb
	.align	2
	.global	MP2_GetFirstMbInSlice
	.type	MP2_GetFirstMbInSlice, %function
MP2_GetFirstMbInSlice:
.LFB2682:
	.loc 1 3261 0
	.cfi_startproc
.LVL827:
	stp	x29, x30, [sp, -32]!
	.cfi_def_cfa_offset 32
	.cfi_offset 29, -32
	.cfi_offset 30, -24
	add	x29, sp, 0
	.cfi_def_cfa_register 29
	str	x19, [sp,16]
	.cfi_offset 19, -16
	.loc 1 3261 0
	mov	x19, x0
	.loc 1 3265 0
	bl	MP2_DecSliceHeader
.LVL828:
	.loc 1 3268 0
	mov	x0, x19
	bl	MP2_InitMb
.LVL829:
.LBB128:
.LBB129:
	.loc 1 3397 0
	str	wzr, [x19,16]
.LBE129:
.LBE128:
	.loc 1 3274 0
	ldr	x19, [sp,16]
	.cfi_restore 19
.LVL830:
	ldp	x29, x30, [sp], 32
	.cfi_restore 30
	.cfi_restore 29
	.cfi_def_cfa 31, 0
	ret
	.cfi_endproc
.LFE2682:
	.size	MP2_GetFirstMbInSlice, .-MP2_GetFirstMbInSlice
	.align	2
	.global	MP2_DecSlice
	.type	MP2_DecSlice, %function
MP2_DecSlice:
.LFB2681:
	.loc 1 3222 0
	.cfi_startproc
.LVL831:
	stp	x29, x30, [sp, -48]!
	.cfi_def_cfa_offset 48
	.cfi_offset 29, -48
	.cfi_offset 30, -40
	.loc 1 3239 0
	uxtb	w5, w1
	.loc 1 3222 0
	add	x29, sp, 0
	.cfi_def_cfa_register 29
	stp	x19, x20, [sp,16]
	.cfi_offset 19, -32
	.cfi_offset 20, -24
	mov	x20, x0
	.loc 1 3232 0
	add	x0, x0, 45056
.LVL832:
	add	x0, x0, 256
	.loc 1 3222 0
	str	x21, [sp,32]
	.cfi_offset 21, -16
	.loc 1 3229 0
	add	x2, x20, 61440
	.loc 1 3230 0
	add	x1, x20, 65536
.LVL833:
	.loc 1 3233 0
	add	x3, x0, 16384
	.loc 1 3229 0
	add	x19, x2, 3088
.LVL834:
	.loc 1 3232 0
	ldr	x6, [x0,18992]
	.loc 1 3241 0
	add	x4, x2, 3152
	.loc 1 3230 0
	ldr	x1, [x1,128]
.LVL835:
.LBB140:
.LBB141:
	.loc 1 3265 0
	mov	x0, x19
.LBE141:
.LBE140:
	.loc 1 3232 0
	str	x6, [x2,3136]
	.loc 1 3233 0
	ldr	w6, [x3,2588]
	str	w6, [x2,3124]
	.loc 1 3234 0
	ldr	w3, [x3,2692]
	cmp	w3, 1
	cset	w3, eq
	str	w3, [x2,3088]
	.loc 1 3235 0
	ldr	w2, [x1,60]
	str	w2, [x19,4]
	.loc 1 3236 0
	ldr	w2, [x1,56]
	str	w2, [x19,8]
	.loc 1 3238 0
	ldr	w2, [x1,52]
	.loc 1 3237 0
	ldr	w1, [x1,48]
.LVL836:
	.loc 1 3238 0
	add	w2, w2, 15
	.loc 1 3239 0
	str	w5, [x19,20]
	.loc 1 3237 0
	add	w1, w1, 15
	.loc 1 3238 0
	lsr	w2, w2, 4
	.loc 1 3237 0
	lsr	w1, w1, 4
	.loc 1 3241 0
	str	x4, [x19,56]
	.loc 1 3237 0
	mul	w1, w2, w1
	str	w1, [x19,12]
.LBB146:
.LBB144:
	.loc 1 3265 0
	bl	MP2_DecSliceHeader
.LVL837:
	.loc 1 3268 0
	mov	x0, x19
	bl	MP2_InitMb
.LVL838:
.LBB142:
.LBB143:
	.loc 1 3397 0
	str	wzr, [x19,16]
.LVL839:
.LBE143:
.LBE142:
.LBE144:
.LBE146:
	.loc 1 3243 0
	cmp	w0, 1
.LBB147:
.LBB145:
	.loc 1 3268 0
	mov	w21, w0
.LVL840:
.LBE145:
.LBE147:
	.loc 1 3243 0
	beq	.L822
	.loc 1 3245 0
	adrp	x1, .LC63
	mov	w0, 1
	add	x1, x1, :lo12:.LC63
	bl	dprint_linux_kernel
.LVL841:
	.loc 1 3246 0
	mov	w0, 0
.L823:
	.loc 1 3258 0
	ldp	x19, x20, [sp,16]
	.cfi_remember_state
	.cfi_restore 20
	.cfi_restore 19
.LVL842:
	ldr	x21, [sp,32]
	.cfi_restore 21
.LVL843:
	ldp	x29, x30, [sp], 48
	.cfi_restore 30
	.cfi_restore 29
	.cfi_def_cfa 31, 0
	ret
.LVL844:
.L822:
	.cfi_restore_state
.LBB148:
.LBB149:
	.loc 1 3250 0
	mov	x0, x20
	bl	MP2_WriteSliceInfo
.LVL845:
	cmp	w0, 1
	beq	.L823
	.loc 1 3252 0
	adrp	x1, .LC64
	mov	w0, w21
	add	x1, x1, :lo12:.LC64
	bl	dprint_linux_kernel
.LVL846:
.LBE149:
.LBE148:
	.loc 1 3258 0
	ldr	x21, [sp,32]
	.cfi_restore 21
.LVL847:
.LBB151:
.LBB150:
	.loc 1 3253 0
	mov	w0, 0
.LBE150:
.LBE151:
	.loc 1 3258 0
	ldp	x19, x20, [sp,16]
	.cfi_restore 19
	.cfi_restore 20
.LVL848:
	ldp	x29, x30, [sp], 48
	.cfi_restore 29
	.cfi_restore 30
	.cfi_def_cfa 31, 0
	ret
	.cfi_endproc
.LFE2681:
	.size	MP2_DecSlice, .-MP2_DecSlice
	.align	2
	.global	MP2_GetHDR
	.type	MP2_GetHDR, %function
MP2_GetHDR:
.LFB2641:
	.loc 1 364 0
	.cfi_startproc
.LVL849:
	stp	x29, x30, [sp, -160]!
	.cfi_def_cfa_offset 160
	.cfi_offset 29, -160
	.cfi_offset 30, -152
	.loc 1 377 0
	add	x2, x0, 65536
	.loc 1 381 0
	mov	w1, 32
	.loc 1 364 0
	add	x29, sp, 0
	.cfi_def_cfa_register 29
	stp	x23, x24, [sp,48]
	.cfi_offset 23, -112
	.cfi_offset 24, -104
	adrp	x23, __stack_chk_guard
	.loc 1 379 0
	add	x24, x0, 86016
	.loc 1 364 0
	stp	x27, x28, [sp,80]
	.cfi_offset 27, -80
	.cfi_offset 28, -72
	mov	x27, x0
	stp	x19, x20, [sp,16]
	stp	x21, x22, [sp,32]
	stp	x25, x26, [sp,64]
	.cfi_offset 19, -144
	.cfi_offset 20, -136
	.cfi_offset 21, -128
	.cfi_offset 22, -120
	.cfi_offset 25, -96
	.cfi_offset 26, -88
	.loc 1 376 0
	add	x19, x0, 61440
	.loc 1 384 0
	add	x22, x27, 45056
	.loc 1 364 0
	ldr	x4, [x23,#:lo12:__stack_chk_guard]
	.loc 1 376 0
	add	x19, x19, 3152
.LVL850:
	.loc 1 384 0
	add	x21, x22, 256
	.loc 1 377 0
	ldr	x26, [x2,128]
.LVL851:
	.loc 1 378 0
	ldr	x25, [x2,136]
.LVL852:
	.loc 1 384 0
	add	x21, x21, 16384
	.loc 1 381 0
	mov	x0, x19
.LVL853:
	.loc 1 379 0
	strb	wzr, [x24,280]
	.loc 1 364 0
	str	x4, [x29,152]
	.loc 1 381 0
	bl	BsShow
.LVL854:
	mov	w20, w0
	.loc 1 384 0
	ldr	w1, [x21,2636]
	.loc 1 385 0
	mov	x0, x19
.LVL855:
	.loc 1 384 0
	str	w1, [x29,108]
	.loc 1 385 0
	bl	BsPos
.LVL856:
	str	w0, [x21,2716]
	.loc 1 386 0
	mov	w1, 32
	mov	x0, x19
	bl	BsSkip
.LVL857:
	.loc 1 388 0
	cmp	w20, 439
	beq	.L902
	.loc 1 430 0
	cmp	w20, 440
	beq	.L831
	cmp	w20, 435
	beq	.L831
	.loc 1 430 0 is_stmt 0 discriminator 1
	cmp	w20, 256
	bne	.L832
.L831:
	.loc 1 431 0 is_stmt 1
	add	x1, x22, 256
	add	x1, x1, 16384
	ldr	w28, [x1,2712]
	cmp	w28, 1
	beq	.L903
.L832:
	.loc 1 443 0
	cmp	w20, 435
	beq	.L838
	ble	.L904
	cmp	w20, 437
	beq	.L842
	blt	.L860
	cmp	w20, 439
	beq	.L860
	cmp	w20, 440
	bne	.L837
	.loc 1 482 0
	add	x20, x22, 256
	mov	x0, x19
	add	x20, x20, 16384
	ldr	w1, [x20,2568]
	ldr	w21, [x20,2708]
	add	w21, w21, w1
	bl	BsPos
.LVL858:
	.loc 1 482 0 is_stmt 0 discriminator 1
	adrp	x1, .LC67
	.loc 1 482 0
	add	w2, w21, w0, lsr 3
	.loc 1 482 0 discriminator 1
	add	x1, x1, :lo12:.LC67
	mov	w0, 22
	bl	dprint_linux_kernel
.LVL859:
	.loc 1 483 0 is_stmt 1
	mov	x0, x27
	bl	group_of_pictures_header
.LVL860:
	.loc 1 484 0
	mov	x0, x19
	bl	BsResidBits
.LVL861:
	tbnz	w0, #31, .L905
.L860:
	.loc 1 443 0
	mov	w28, 0
.L834:
	.loc 1 628 0
	ldr	x2, [x29,152]
	mov	w0, w28
	ldr	x1, [x23,#:lo12:__stack_chk_guard]
	cmp	x2, x1
	bne	.L906
	ldp	x19, x20, [sp,16]
	.cfi_remember_state
	.cfi_restore 20
	.cfi_restore 19
.LVL862:
	ldp	x21, x22, [sp,32]
	.cfi_restore 22
	.cfi_restore 21
	ldp	x23, x24, [sp,48]
	.cfi_restore 24
	.cfi_restore 23
	ldp	x25, x26, [sp,64]
	.cfi_restore 26
	.cfi_restore 25
.LVL863:
	ldp	x27, x28, [sp,80]
	.cfi_restore 28
	.cfi_restore 27
.LVL864:
	ldp	x29, x30, [sp], 160
	.cfi_restore 30
	.cfi_restore 29
	.cfi_def_cfa 31, 0
	ret
.LVL865:
.L904:
	.cfi_restore_state
	.loc 1 443 0
	cmp	w20, 256
	beq	.L840
	blt	.L837
	cmp	w20, 433
	blt	.L837
	.loc 1 527 0
	add	x22, x22, 256
	mov	x0, x19
	add	x22, x22, 16384
	ldr	w19, [x22,2708]
.LVL866:
	ldr	w21, [x22,2568]
	bl	BsPos
.LVL867:
	.loc 1 527 0 is_stmt 0 discriminator 1
	adrp	x1, .LC71
	.loc 1 527 0
	add	w19, w19, w21
	.loc 1 527 0 discriminator 1
	add	x1, x1, :lo12:.LC71
	.loc 1 527 0
	add	w2, w19, w0, lsr 3
	.loc 1 527 0 discriminator 1
	mov	w0, 22
	bl	dprint_linux_kernel
.LVL868:
	.loc 1 528 0 is_stmt 1
	mov	x0, x27
	bl	MP2_GetUsrData
.LVL869:
	mov	w28, w0
	.loc 1 529 0
	cbnz	w0, .L853
	.loc 1 531 0
	ldr	w0, [x24,264]
	add	x1, x22, 2576
	bl	MP2_ClearCurPacket
.LVL870:
	.loc 1 533 0
	adrp	x0, g_event_report
	ldr	x4, [x0,#:lo12:g_event_report]
	cbz	x4, .L861
	.loc 1 533 0 is_stmt 0 discriminator 1
	ldr	w0, [x24,264]
	mov	w1, 113
	mov	x2, 0
	mov	w3, 0
	.loc 1 534 0 is_stmt 1
	mov	w28, -1
	.loc 1 533 0 discriminator 1
	blr	x4
.LVL871:
	b	.L834
.LVL872:
.L840:
	.loc 1 495 0
	add	x20, x22, 256
	mov	x0, x19
	add	x20, x20, 16384
	ldr	w1, [x20,2568]
	ldr	w21, [x20,2708]
	add	w21, w21, w1
	bl	BsPos
.LVL873:
	.loc 1 495 0 is_stmt 0 discriminator 1
	adrp	x1, .LC69
	.loc 1 495 0
	add	w2, w21, w0, lsr 3
	.loc 1 495 0 discriminator 1
	add	x1, x1, :lo12:.LC69
	mov	w0, 22
	bl	dprint_linux_kernel
.LVL874:
	.loc 1 496 0 is_stmt 1
	mov	x0, x27
	bl	picture_header
.LVL875:
	.loc 1 497 0
	mov	x0, x19
	bl	BsResidBits
.LVL876:
	tbz	w0, #31, .L860
	.loc 1 499 0
	ldr	w0, [x29,108]
.LVL877:
	str	w0, [x20,2636]
	.loc 1 500 0
	adrp	x0, g_event_report
.LVL878:
	ldr	x4, [x0,#:lo12:g_event_report]
	cbz	x4, .L852
	.loc 1 500 0 is_stmt 0 discriminator 1
	ldr	w0, [x24,264]
	mov	w1, 113
	mov	x2, 0
	mov	w3, 0
	blr	x4
.LVL879:
.L852:
	.loc 1 501 0 is_stmt 1
	ldr	w0, [x24,264]
	mov	x1, 19216
	add	x1, x22, x1
	.loc 1 503 0
	mov	w28, -1
	.loc 1 501 0
	bl	MP2_ClearCurPacket
.LVL880:
	.loc 1 502 0
	adrp	x1, .LC70
	mov	w2, 256
	add	x1, x1, :lo12:.LC70
	mov	w0, 1
	bl	dprint_linux_kernel
.LVL881:
	.loc 1 503 0
	b	.L834
.L903:
	.loc 1 432 0
	ldr	w0, [x1,2636]
	tbz	x0, 22, .L832
	.loc 1 434 0
	strb	w28, [x24,280]
	.loc 1 435 0
	orr	w2, w0, 8388608
	.loc 1 436 0
	str	wzr, [x1,2712]
	.loc 1 437 0
	mov	x0, x27
	.loc 1 435 0
	str	w2, [x1,2636]
	.loc 1 437 0
	bl	MP2_ProtocolPPSCheck
.LVL882:
	.loc 1 438 0
	b	.L834
.L902:
	.loc 1 390 0
	ldr	x2, [x19,32]
	.loc 1 391 0
	mov	w1, 32
	.loc 1 390 0
	ldp	x6, x7, [x19]
	ldp	x4, x5, [x19,16]
	.loc 1 391 0
	add	x0, x29, 112
	.loc 1 390 0
	str	x2, [x29,144]
	stp	x6, x7, [x29,112]
	stp	x4, x5, [x29,128]
	.loc 1 391 0
	bl	BsGet
.LVL883:
	mov	w28, w0
	.loc 1 392 0
	mov	w1, 32
	add	x0, x29, 112
	bl	BsGet
.LVL884:
	.loc 1 393 0
	mov	w1, 20036
	movk	w1, 0x4345, lsl 16
	cmp	w0, w1
	bne	.L831
	mov	w0, 20553
	movk	w0, 0x4853, lsl 16
	cmp	w28, w0
	bne	.L831
	.loc 1 399 0
	ldr	w28, [x21,2712]
	cmp	w28, 1
	beq	.L907
.L833:
	.loc 1 410 0
	mov	w0, 1
	.loc 1 411 0
	mov	w28, 0
	.loc 1 410 0
	strb	w0, [x24,282]
	.loc 1 411 0
	b	.L834
.L838:
	.loc 1 446 0
	add	x20, x22, 256
	mov	x0, x19
	add	x20, x20, 16384
	ldr	w1, [x20,2568]
	ldr	w21, [x20,2708]
	add	w21, w21, w1
	bl	BsPos
.LVL885:
	.loc 1 446 0 is_stmt 0 discriminator 1
	adrp	x1, .LC65
	.loc 1 446 0
	add	w2, w21, w0, lsr 3
	.loc 1 446 0 discriminator 1
	add	x1, x1, :lo12:.LC65
	mov	w0, 22
	bl	dprint_linux_kernel
.LVL886:
	.loc 1 447 0 is_stmt 1
	mov	x0, x27
	bl	sequence_header
.LVL887:
	.loc 1 448 0
	mov	x0, x19
	bl	BsResidBits
.LVL888:
	tbnz	w0, #31, .L908
	.loc 1 456 0
	ldr	w0, [x20,2636]
	and	w0, w0, 7
	cbnz	w0, .L847
	.loc 1 461 0
	mov	w1, 1
	.loc 1 462 0
	mov	x0, x25
	.loc 1 461 0
	strb	w1, [x26]
	.loc 1 462 0
	mov	x2, 180
	mov	x1, x26
	mov	w28, 0
	bl	memcpy
.LVL889:
	.loc 1 463 0
	ldr	w0, [x20,2640]
	add	w0, w0, 1
	str	w0, [x20,2640]
	b	.L834
.L837:
	.loc 1 591 0
	sub	w0, w20, #257
	cmp	w0, 174
	bhi	.L855
	.loc 1 593 0
	add	x19, x22, 256
.LVL890:
	add	x19, x19, 16384
	ldr	w0, [x19,2632]
	cbz	w0, .L856
.L858:
	.loc 1 601 0
	add	x22, x22, 256
	mov	w1, 589824
	add	x22, x22, 16384
	ldr	w0, [x22,2636]
	tst	w0, w1
	beq	.L860
	.loc 1 605 0
	orr	w0, w0, 4194304
	.loc 1 604 0
	mov	w19, 1
	.loc 1 605 0
	str	w0, [x22,2636]
	.loc 1 606 0
	mov	w1, w20
	mov	x0, x27
	.loc 1 604 0
	str	w19, [x22,2712]
	.loc 1 606 0
	bl	MP2_DecSlice
.LVL891:
	cmp	w0, w19
	mov	w28, w0
	beq	.L834
	.loc 1 613 0
	adrp	x1, .LC74
	mov	w0, w19
	add	x1, x1, :lo12:.LC74
	mov	w2, w20
	mov	w28, 0
	bl	dprint_linux_kernel
.LVL892:
	b	.L834
.LVL893:
.L842:
	.loc 1 560 0
	add	x20, x22, 256
	mov	x0, x19
	add	x20, x20, 16384
	ldr	w1, [x20,2568]
	ldr	w21, [x20,2708]
	add	w21, w21, w1
	bl	BsPos
.LVL894:
	.loc 1 560 0 is_stmt 0 discriminator 1
	adrp	x1, .LC73
	.loc 1 560 0
	add	w2, w21, w0, lsr 3
	.loc 1 560 0 discriminator 1
	add	x1, x1, :lo12:.LC73
	mov	w0, 22
	bl	dprint_linux_kernel
.LVL895:
	.loc 1 561 0 is_stmt 1
	mov	x0, x27
	bl	extension
.LVL896:
	.loc 1 562 0
	mov	x0, x19
	bl	BsResidBits
.LVL897:
	tbz	w0, #31, .L860
	.loc 1 564 0
	ldr	w0, [x29,108]
.LVL898:
	str	w0, [x20,2636]
	.loc 1 565 0
	adrp	x0, g_event_report
.LVL899:
	ldr	x4, [x0,#:lo12:g_event_report]
	cbz	x4, .L854
	.loc 1 565 0 is_stmt 0 discriminator 1
	ldr	w0, [x24,264]
	mov	w1, 113
	mov	x2, 0
	mov	w3, 0
	blr	x4
.LVL900:
.L854:
	.loc 1 566 0 is_stmt 1
	ldr	w0, [x24,264]
	mov	x1, 19216
	add	x1, x22, x1
	.loc 1 567 0
	mov	w28, -1
	.loc 1 566 0
	bl	MP2_ClearCurPacket
.LVL901:
	.loc 1 567 0
	b	.L834
.L847:
	.loc 1 465 0
	ldrb	w0, [x25]
	cmp	w0, 1
	beq	.L909
.L855:
	.loc 1 620 0
	adrp	x0, g_event_report
	ldr	x4, [x0,#:lo12:g_event_report]
	cbz	x4, .L860
.L899:
	.loc 1 620 0 is_stmt 0 discriminator 1
	ldr	w0, [x24,264]
	mov	w1, 113
	mov	x2, 0
	mov	w3, 0
	mov	w28, 0
	blr	x4
.LVL902:
	b	.L834
.LVL903:
.L853:
	.loc 1 540 0 is_stmt 1
	adrp	x1, .LC72
	mov	w0, 1
	add	x1, x1, :lo12:.LC72
	bl	dprint_linux_kernel
.LVL904:
	.loc 1 557 0
	b	.L834
.LVL905:
.L907:
	.loc 1 399 0 discriminator 1
	ldr	w0, [x21,2636]
	tbz	x0, 22, .L833
	.loc 1 401 0
	strb	w28, [x24,282]
	.loc 1 403 0
	orr	w1, w0, 8388608
	.loc 1 402 0
	strb	w28, [x24,280]
	.loc 1 405 0
	mov	x0, x27
	.loc 1 403 0
	str	w1, [x21,2636]
	.loc 1 404 0
	str	wzr, [x21,2712]
	.loc 1 405 0
	bl	MP2_ProtocolPPSCheck
.LVL906:
	.loc 1 406 0
	b	.L834
.LVL907:
.L861:
	.loc 1 534 0
	mov	w28, -1
	b	.L834
.L856:
	.loc 1 595 0
	mov	x0, x27
	.loc 1 598 0
	mov	w28, 0
	.loc 1 595 0
	bl	MP2_GetSequenceInfo
.LVL908:
	.loc 1 596 0
	ldr	w0, [x19,2704]
	cbz	w0, .L834
	.loc 1 596 0 is_stmt 0 discriminator 1
	ldrb	w0, [x24,281]
	cmp	w0, 1
	bne	.L858
	b	.L834
.LVL909:
.L909:
	.loc 1 470 0 is_stmt 1
	mov	x1, x25
	mov	x0, x26
	mov	x2, 180
	bl	memcpy
.LVL910:
	.loc 1 473 0
	adrp	x1, g_event_report
	.loc 1 472 0
	ldr	w0, [x20,2636]
	and	w0, w0, -8
	str	w0, [x20,2636]
	.loc 1 473 0
	ldr	x4, [x1,#:lo12:g_event_report]
	cbnz	x4, .L899
	b	.L860
.L905:
	.loc 1 486 0
	ldr	w0, [x29,108]
.LVL911:
	str	w0, [x20,2636]
	.loc 1 487 0
	adrp	x0, g_event_report
.LVL912:
	ldr	x4, [x0,#:lo12:g_event_report]
	cbz	x4, .L851
	.loc 1 487 0 is_stmt 0 discriminator 1
	ldr	w0, [x24,264]
	mov	w1, 113
	mov	x2, 0
	mov	w3, 0
	blr	x4
.LVL913:
.L851:
	.loc 1 488 0 is_stmt 1
	ldr	w0, [x24,264]
	mov	x1, 19216
	add	x1, x22, x1
	.loc 1 490 0
	mov	w28, -1
	.loc 1 488 0
	bl	MP2_ClearCurPacket
.LVL914:
	.loc 1 489 0
	adrp	x1, .LC68
	mov	w2, 440
	add	x1, x1, :lo12:.LC68
	mov	w0, 1
	bl	dprint_linux_kernel
.LVL915:
	.loc 1 490 0
	b	.L834
.L908:
	.loc 1 450 0
	ldr	w0, [x29,108]
.LVL916:
	str	w0, [x20,2636]
	.loc 1 451 0
	adrp	x0, g_event_report
.LVL917:
	ldr	x4, [x0,#:lo12:g_event_report]
	cbz	x4, .L846
	.loc 1 451 0 is_stmt 0 discriminator 1
	ldr	w0, [x24,264]
	mov	w1, 113
	mov	x2, 0
	mov	w3, 0
	blr	x4
.LVL918:
.L846:
	.loc 1 452 0 is_stmt 1
	ldr	w0, [x24,264]
	mov	x1, 19216
	add	x1, x22, x1
	.loc 1 454 0
	mov	w28, -1
	.loc 1 452 0
	bl	MP2_ClearCurPacket
.LVL919:
	.loc 1 453 0
	adrp	x1, .LC66
	mov	w2, 435
	add	x1, x1, :lo12:.LC66
	mov	w0, 1
	bl	dprint_linux_kernel
.LVL920:
	.loc 1 454 0
	b	.L834
.L906:
	.loc 1 628 0
	bl	__stack_chk_fail
.LVL921:
	.cfi_endproc
.LFE2641:
	.size	MP2_GetHDR, .-MP2_GetHDR
	.align	2
	.global	MPEG2DEC_Decode
	.type	MPEG2DEC_Decode, %function
MPEG2DEC_Decode:
.LFB2673:
	.loc 1 2778 0
	.cfi_startproc
.LVL922:
	stp	x29, x30, [sp, -64]!
	.cfi_def_cfa_offset 64
	.cfi_offset 29, -64
	.cfi_offset 30, -56
	.loc 1 2784 0
	mov	x2, 160
	.loc 1 2778 0
	add	x29, sp, 0
	.cfi_def_cfa_register 29
	stp	x19, x20, [sp,16]
	.cfi_offset 19, -48
	.cfi_offset 20, -40
	.loc 1 2784 0
	add	x20, x0, 61440
	.loc 1 2778 0
	str	x23, [sp,48]
	.loc 1 2784 0
	add	x3, x20, 3704
	.cfi_offset 23, -16
	.loc 1 2786 0
	add	x23, x0, 86016
	.loc 1 2778 0
	stp	x21, x22, [sp,32]
	.cfi_offset 21, -32
	.cfi_offset 22, -24
	.loc 1 2778 0
	mov	x19, x0
	.loc 1 2782 0
	add	x22, x0, 45056
	.loc 1 2784 0
	mov	x0, x3
.LVL923:
	.loc 1 2782 0
	add	x21, x22, 256
.LVL924:
	.loc 1 2784 0
	bl	memcpy
.LVL925:
	mov	x3, x0
	.loc 1 2786 0
	ldr	w2, [x23,264]
	mov	x0, x21
	mov	x1, x3
	bl	MP2_ReceivePacket
.LVL926:
	cmp	w0, 1
	beq	.L911
	.loc 1 2788 0
	adrp	x1, .LC75
	mov	w0, 1
	add	x1, x1, :lo12:.LC75
	mov	w2, 2788
	.loc 1 2789 0
	mov	w20, 0
	.loc 1 2788 0
	bl	dprint_linux_kernel
.LVL927:
.L912:
	.loc 1 2861 0
	mov	w0, w20
	ldr	x23, [sp,48]
	.cfi_remember_state
	.cfi_restore 23
	ldp	x19, x20, [sp,16]
	.cfi_restore 20
	.cfi_restore 19
.LVL928:
	ldp	x21, x22, [sp,32]
	.cfi_restore 22
	.cfi_restore 21
.LVL929:
	ldp	x29, x30, [sp], 64
	.cfi_restore 30
	.cfi_restore 29
	.cfi_def_cfa 31, 0
	ret
.LVL930:
.L911:
	.cfi_restore_state
	.loc 1 2792 0
	add	x2, x21, 16384
	ldr	x1, [x21,18992]
	add	x0, x20, 3152
	ldr	w2, [x2,2588]
	bl	BsInit
.LVL931:
	.loc 1 2794 0
	ldr	x0, [x19]
	ldr	w1, [x0,792]
	cmp	w1, 1
	beq	.L942
.L913:
	.loc 1 2801 0
	ldr	w0, [x20,2892]
	str	w0, [x20,3084]
.L914:
	.loc 1 2805 0
	mov	x0, x19
	bl	MP2_GetHDR
.LVL932:
	.loc 1 2806 0
	add	w0, w0, 1
	cmp	w0, 1
	bls	.L943
	.loc 1 2818 0
	mov	x0, x19
	bl	MP2_DecodingDecide
.LVL933:
	.loc 1 2819 0
	cbz	w0, .L944
	.loc 1 2827 0
	cmn	w0, #1
	beq	.L917
	.loc 1 2836 0
	mov	x0, x19
	bl	MP2_GetPictureInfo
.LVL934:
	cbnz	w0, .L920
	.loc 1 2838 0
	ldr	w0, [x23,264]
	mov	x1, 19216
	add	x1, x22, x1
	bl	MP2_ClearCurPacket
.LVL935:
	.loc 1 2839 0
	mov	x0, x19
	bl	MP2_ClearCurPic
.LVL936:
	.loc 1 2840 0
	adrp	x0, g_event_report
	ldr	x4, [x0,#:lo12:g_event_report]
	cbz	x4, .L921
	.loc 1 2840 0 is_stmt 0 discriminator 1
	ldr	w0, [x23,264]
	mov	w1, 113
	mov	x2, 0
	mov	w3, 0
	blr	x4
.LVL937:
.L921:
	.loc 1 2841 0 is_stmt 1
	adrp	x1, .LC77
	mov	w0, 1
	add	x1, x1, :lo12:.LC77
	.loc 1 2843 0
	mov	w20, 0
	.loc 1 2841 0
	bl	dprint_linux_kernel
.LVL938:
	.loc 1 2843 0
	b	.L912
.L943:
	.loc 1 2808 0
	ldr	x0, [x19]
	ldr	w1, [x0,792]
	cmp	w1, 1
	beq	.L945
.L916:
	.loc 1 2810 0
	ldrb	w0, [x23,281]
	cmp	w0, 1
	beq	.L917
	.loc 1 2812 0
	ldr	w0, [x23,264]
	mov	x1, 19216
	add	x1, x22, x1
	.loc 1 2815 0
	mov	w20, 0
	.loc 1 2812 0
	bl	MP2_ClearCurPacket
.LVL939:
	b	.L912
.L945:
	.loc 1 2808 0 discriminator 1
	ldr	w0, [x0,888]
	cbz	w0, .L916
.L917:
	.loc 1 2815 0
	mov	w20, 0
	.loc 1 2861 0
	ldr	x23, [sp,48]
	.cfi_remember_state
	.cfi_restore 23
	mov	w0, w20
	ldp	x19, x20, [sp,16]
	.cfi_restore 19
	.cfi_restore 20
.LVL940:
	ldp	x21, x22, [sp,32]
	.cfi_restore 21
	.cfi_restore 22
.LVL941:
	ldp	x29, x30, [sp], 64
	.cfi_restore 29
	.cfi_restore 30
	.cfi_def_cfa 31, 0
	ret
.LVL942:
.L942:
	.cfi_restore_state
	.loc 1 2794 0 discriminator 1
	ldr	w0, [x0,888]
	cmp	w0, 1
	bne	.L913
	.loc 1 2797 0
	ldr	w0, [x20,3084]
	str	w0, [x20,2892]
	b	.L914
.L944:
	.loc 1 2821 0
	ldr	w0, [x23,264]
	mov	x1, 19216
	add	x1, x22, x1
	bl	MP2_ClearCurPacket
.LVL943:
	.loc 1 2822 0
	mov	x0, x19
	bl	MP2_ClearCurPic
.LVL944:
	.loc 1 2823 0
	adrp	x0, g_event_report
	ldr	x4, [x0,#:lo12:g_event_report]
	cbz	x4, .L919
	.loc 1 2823 0 is_stmt 0 discriminator 1
	ldr	w0, [x23,264]
	mov	w1, 113
	mov	x2, 0
	mov	w3, 0
	blr	x4
.LVL945:
.L919:
	.loc 1 2824 0 is_stmt 1
	adrp	x1, .LC76
	mov	w0, 22
	add	x1, x1, :lo12:.LC76
	.loc 1 2825 0
	mov	w20, 0
	.loc 1 2824 0
	bl	dprint_linux_kernel
.LVL946:
	.loc 1 2825 0
	b	.L912
.L920:
	.loc 1 2846 0
	mov	x0, x19
	.loc 1 2848 0
	add	x22, x22, 256
	.loc 1 2846 0
	bl	MP2_DecNewPic
.LVL947:
	mov	w20, w0
	cbz	w0, .L946
	.loc 1 2857 0
	add	x22, x22, 16384
	ldr	w1, [x22,2708]
	ldr	w0, [x22,2588]
	.loc 1 2859 0
	ldr	w20, [x22,2568]
	.loc 1 2857 0
	add	w0, w1, w0
	str	w0, [x22,2708]
	.loc 1 2859 0
	lsl	w20, w20, 3
	b	.L912
.L946:
	.loc 1 2848 0
	add	x22, x22, 16384
	ldr	w0, [x23,264]
	mov	w2, 1
	ldr	w1, [x22,2740]
	bl	FSP_ClearLogicFs
.LVL948:
	.loc 1 2849 0
	ldr	w0, [x23,264]
	add	x1, x22, 2576
	bl	MP2_ClearCurPacket
.LVL949:
	.loc 1 2850 0
	mov	x0, x19
	bl	MP2_ClearCurPic
.LVL950:
	.loc 1 2851 0
	adrp	x0, g_event_report
	ldr	x4, [x0,#:lo12:g_event_report]
	cbz	x4, .L923
	.loc 1 2851 0 is_stmt 0 discriminator 1
	ldr	w0, [x23,264]
	mov	w1, 113
	mov	x2, 0
	mov	w3, 0
	blr	x4
.LVL951:
.L923:
	.loc 1 2852 0 is_stmt 1
	adrp	x1, .LC78
	mov	w0, 1
	add	x1, x1, :lo12:.LC78
	bl	dprint_linux_kernel
.LVL952:
	.loc 1 2854 0
	b	.L912
	.cfi_endproc
.LFE2673:
	.size	MPEG2DEC_Decode, .-MPEG2DEC_Decode
	.align	2
	.global	MP2_GetPacketState
	.type	MP2_GetPacketState, %function
MP2_GetPacketState:
.LFB2689:
	.loc 1 3505 0
	.cfi_startproc
.LVL953:
	.loc 1 3507 0
	add	x0, x0, 86016
.LVL954:
	ldrb	w0, [x0,280]
	.loc 1 3509 0
	cmp	w0, 1
	.loc 1 3513 0
	mov	w0, 2
	csel	w0, w0, wzr, eq
	ret
	.cfi_endproc
.LFE2689:
	.size	MP2_GetPacketState, .-MP2_GetPacketState
	.align	2
	.global	MPEG2DEC_GetImageWidth
	.type	MPEG2DEC_GetImageWidth, %function
MPEG2DEC_GetImageWidth:
.LFB2690:
	.loc 1 3516 0
	.cfi_startproc
.LVL955:
	.loc 1 3519 0
	add	x0, x0, 65536
.LVL956:
	ldr	x0, [x0,128]
	.loc 1 3522 0
	ldr	w0, [x0,48]
	ret
	.cfi_endproc
.LFE2690:
	.size	MPEG2DEC_GetImageWidth, .-MPEG2DEC_GetImageWidth
	.align	2
	.global	MPEG2DEC_GetImageHeight
	.type	MPEG2DEC_GetImageHeight, %function
MPEG2DEC_GetImageHeight:
.LFB2691:
	.loc 1 3525 0
	.cfi_startproc
.LVL957:
	.loc 1 3528 0
	add	x0, x0, 65536
.LVL958:
	ldr	x0, [x0,128]
	.loc 1 3531 0
	ldr	w0, [x0,52]
	ret
	.cfi_endproc
.LFE2691:
	.size	MPEG2DEC_GetImageHeight, .-MPEG2DEC_GetImageHeight
	.global	g_tmpusd
	.global	zigzag
	.global	default_intra_quantizer_matrix
	.section	.rodata
	.align	3
.LANCHOR0 = . + 0
	.type	__FUNCTION__.42393, %object
	.size	__FUNCTION__.42393, 19
__FUNCTION__.42393:
	.string	"MP2_DecodingDecide"
	.zero	5
.LC0:
	.word	0
	.word	1
	.word	2
	.word	3
	.word	4
	.word	5
	.word	6
	.word	7
	.word	8
	.word	10
	.word	12
	.word	14
	.word	16
	.word	18
	.word	20
	.word	22
	.word	24
	.word	28
	.word	32
	.word	36
	.word	40
	.word	44
	.word	48
	.word	52
	.word	56
	.word	64
	.word	72
	.word	80
	.word	88
	.word	96
	.word	104
	.word	112
	.align	3
.LANCHOR1 = . + 0
	.type	CSWTCH.43, %object
	.size	CSWTCH.43, 12
CSWTCH.43:
	.word	5
	.word	1
	.word	2
	.zero	4
	.type	frame_rate_Table, %object
	.size	frame_rate_Table, 64
frame_rate_Table:
	.word	0
	.word	24551
	.word	24576
	.word	25600
	.word	30689
	.word	30720
	.word	51200
	.word	61378
	.word	61440
	.word	-1
	.word	-1
	.word	-1
	.word	-1
	.word	-1
	.word	-1
	.word	-1
	.type	tab_for_first_4bit, %object
	.size	tab_for_first_4bit, 128
tab_for_first_4bit:
	.word	8
	.word	4
	.word	9
	.word	5
	.word	5
	.word	4
	.word	4
	.word	4
	.word	3
	.word	3
	.word	3
	.word	3
	.word	2
	.word	3
	.word	2
	.word	3
	.word	1
	.word	1
	.word	1
	.word	1
	.word	1
	.word	1
	.word	1
	.word	1
	.word	1
	.word	1
	.word	1
	.word	1
	.word	1
	.word	1
	.word	1
	.word	1
	.type	tab_for_last_7bit, %object
	.size	tab_for_last_7bit, 832
tab_for_last_7bit:
	.word	33
	.word	11
	.word	32
	.word	11
	.word	31
	.word	11
	.word	30
	.word	11
	.word	29
	.word	11
	.word	28
	.word	11
	.word	27
	.word	11
	.word	26
	.word	11
	.word	25
	.word	11
	.word	24
	.word	11
	.word	23
	.word	11
	.word	22
	.word	11
	.word	21
	.word	10
	.word	21
	.word	10
	.word	20
	.word	10
	.word	20
	.word	10
	.word	19
	.word	10
	.word	19
	.word	10
	.word	18
	.word	10
	.word	18
	.word	10
	.word	17
	.word	10
	.word	17
	.word	10
	.word	16
	.word	10
	.word	16
	.word	10
	.word	15
	.word	8
	.word	15
	.word	8
	.word	15
	.word	8
	.word	15
	.word	8
	.word	15
	.word	8
	.word	15
	.word	8
	.word	15
	.word	8
	.word	15
	.word	8
	.word	14
	.word	8
	.word	14
	.word	8
	.word	14
	.word	8
	.word	14
	.word	8
	.word	14
	.word	8
	.word	14
	.word	8
	.word	14
	.word	8
	.word	14
	.word	8
	.word	13
	.word	8
	.word	13
	.word	8
	.word	13
	.word	8
	.word	13
	.word	8
	.word	13
	.word	8
	.word	13
	.word	8
	.word	13
	.word	8
	.word	13
	.word	8
	.word	12
	.word	8
	.word	12
	.word	8
	.word	12
	.word	8
	.word	12
	.word	8
	.word	12
	.word	8
	.word	12
	.word	8
	.word	12
	.word	8
	.word	12
	.word	8
	.word	11
	.word	8
	.word	11
	.word	8
	.word	11
	.word	8
	.word	11
	.word	8
	.word	11
	.word	8
	.word	11
	.word	8
	.word	11
	.word	8
	.word	11
	.word	8
	.word	10
	.word	8
	.word	10
	.word	8
	.word	10
	.word	8
	.word	10
	.word	8
	.word	10
	.word	8
	.word	10
	.word	8
	.word	10
	.word	8
	.word	10
	.word	8
	.word	9
	.word	7
	.word	9
	.word	7
	.word	9
	.word	7
	.word	9
	.word	7
	.word	9
	.word	7
	.word	9
	.word	7
	.word	9
	.word	7
	.word	9
	.word	7
	.word	9
	.word	7
	.word	9
	.word	7
	.word	9
	.word	7
	.word	9
	.word	7
	.word	9
	.word	7
	.word	9
	.word	7
	.word	9
	.word	7
	.word	9
	.word	7
	.word	8
	.word	7
	.word	8
	.word	7
	.word	8
	.word	7
	.word	8
	.word	7
	.word	8
	.word	7
	.word	8
	.word	7
	.word	8
	.word	7
	.word	8
	.word	7
	.word	8
	.word	7
	.word	8
	.word	7
	.word	8
	.word	7
	.word	8
	.word	7
	.word	8
	.word	7
	.word	8
	.word	7
	.word	8
	.word	7
	.word	8
	.word	7
	.data
	.align	3
.LANCHOR3 = . + 0
	.type	default_intra_quantizer_matrix, %object
	.size	default_intra_quantizer_matrix, 64
default_intra_quantizer_matrix:
	.byte	8
	.byte	16
	.byte	19
	.byte	22
	.byte	26
	.byte	27
	.byte	29
	.byte	34
	.byte	16
	.byte	16
	.byte	22
	.byte	24
	.byte	27
	.byte	29
	.byte	34
	.byte	37
	.byte	19
	.byte	22
	.byte	26
	.byte	27
	.byte	29
	.byte	34
	.byte	34
	.byte	38
	.byte	22
	.byte	22
	.byte	26
	.byte	27
	.byte	29
	.byte	34
	.byte	37
	.byte	40
	.byte	22
	.byte	26
	.byte	27
	.byte	29
	.byte	32
	.byte	35
	.byte	40
	.byte	48
	.byte	26
	.byte	27
	.byte	29
	.byte	32
	.byte	35
	.byte	40
	.byte	48
	.byte	58
	.byte	26
	.byte	27
	.byte	29
	.byte	34
	.byte	38
	.byte	46
	.byte	56
	.byte	69
	.byte	27
	.byte	29
	.byte	35
	.byte	38
	.byte	46
	.byte	56
	.byte	69
	.byte	83
	.type	zigzag, %object
	.size	zigzag, 64
zigzag:
	.byte	0
	.byte	1
	.byte	8
	.byte	16
	.byte	9
	.byte	2
	.byte	3
	.byte	10
	.byte	17
	.byte	24
	.byte	32
	.byte	25
	.byte	18
	.byte	11
	.byte	4
	.byte	5
	.byte	12
	.byte	19
	.byte	26
	.byte	33
	.byte	40
	.byte	48
	.byte	41
	.byte	34
	.byte	27
	.byte	20
	.byte	13
	.byte	6
	.byte	7
	.byte	14
	.byte	21
	.byte	28
	.byte	35
	.byte	42
	.byte	49
	.byte	56
	.byte	57
	.byte	50
	.byte	43
	.byte	36
	.byte	29
	.byte	22
	.byte	15
	.byte	23
	.byte	30
	.byte	37
	.byte	44
	.byte	51
	.byte	58
	.byte	59
	.byte	52
	.byte	45
	.byte	38
	.byte	31
	.byte	39
	.byte	46
	.byte	53
	.byte	60
	.byte	61
	.byte	54
	.byte	47
	.byte	55
	.byte	62
	.byte	63
	.section	.rodata.str1.8,"aMS",%progbits,1
	.align	3
.LC1:
	.string	"image size abnormal(%dx%d)\n"
	.zero	4
.LC2:
	.string	"mp2 actual frame size(%dx%d) exeed max config(%dx%d)\n"
	.zero	2
.LC3:
	.string	"FSP_ConfigInstance fail!\n"
	.zero	6
.LC4:
	.string	"ERROR: frm %d, integrality: %#x\n"
	.zero	7
.LC5:
	.string	"ERROR: frm %d, No Img buffer is allocated\n"
	.zero	5
.LC6:
	.string	"----------------- mp2 Imode -> %d ------------------\n"
	.zero	2
.LC7:
	.string	"frm %d pic type %d struct is %d total pos %#x\n"
	.zero	1
.LC8:
	.string	"NOTE: Drop non-I, cur is B\n"
	.zero	4
.LC9:
	.string	"NOTE: Drop non-I, cur is P\n"
	.zero	4
.LC10:
	.string	"NOTE: Drop non-I\n"
	.zero	6
.LC11:
	.string	"NOTE: Drop B\n"
	.zero	2
.LC12:
	.string	"%s %d pFwdImg = NULL,  pBwdImg = NULL!!\n"
	.zero	7
.LC13:
	.string	"dec P frame, fwd ref err(%d) > ref_thr(%d)\n"
	.zero	4
.LC14:
	.string	"dec B frame, bwd ref err(%d) > ref_thr(%d)\n"
	.zero	4
.LC15:
	.string	"dec B frame, fwd ref err(%d) > ref_thr(%d)\n"
	.zero	4
.LC16:
	.string	"Protocol %d\n"
	.zero	3
.LC17:
	.string	"seq size change, wait for all frames out.\n"
	.zero	5
.LC18:
	.string	"new seq size %dx%d -> %dx%d\n"
	.zero	3
.LC19:
	.string	"get frame store fail!\n"
	.zero	1
.LC20:
	.string	"line: %d, pImage is NULL!\n"
	.zero	5
.LC21:
	.string	"get image buffer ok: LogicFsID = %d\n"
	.zero	3
.LC22:
	.string	"decode %pK, disp %pK, tf %pK\n"
	.zero	2
.LC23:
	.string	"ERROR: frm %d, lost one field\n"
	.zero	1
.LC24:
	.string	"ERROR: frm %d, lost one field flg = %d, last_struct = %d\n"
	.zero	6
.LC25:
	.string	"Fatal Error: frm%d, get image buffer failed\n"
	.zero	3
.LC26:
	.string	"dec_pts: %lld Usertag: %lld\n"
	.zero	3
.LC27:
	.string	"---------- unref %d\n"
	.zero	3
.LC28:
	.string	"++++++++++ ref %d\n"
	.zero	5
.LC29:
	.string	"line: %d(pCur, pFwd, pBwd)(%pK, %pK, %pK)\n"
	.zero	5
.LC30:
	.string	"CurFsID(fwd%d,%d,bwd%d) abnormal!(%pK,%pK,%pK)\n"
.LC31:
	.string	"dec addr: cur,cur2d,fwd,bwd,pmv = %pK,%pK,%pK,%pK,%pK\n"
	.zero	1
.LC32:
	.string	"MP2_GetUsrData mpeg2 copy last 3 bytes of the first packet!\n\n"
	.zero	2
.LC33:
	.string	"pMp2CodecInfo->pUsrDatArray[%d] is null\n"
	.zero	7
.LC34:
	.string	"next_start_code mpeg2 copy last 3 bytes of the first packet!\n\n"
	.zero	1
.LC35:
	.string	"ERROR: unsupported profile %d\n"
	.zero	1
.LC36:
	.string	"ERROR: unsupported level %d\n"
	.zero	3
.LC37:
	.string	"no color aspects info\n"
	.zero	1
.LC38:
	.string	"the color aspects info is no need to report\n"
	.zero	3
.LC39:
	.string	"syntax value : range %u primaries %u matrix %u transfer %u\n"
	.zero	4
.LC40:
	.string	"-1 == VCTRL_GetChanIDByCtx() Err! \n"
	.zero	4
.LC41:
	.string	"Decoding quits at frm %d\n"
	.zero	6
.LC42:
	.string	"ERROR: frm %d, Invalid packet pointer!\n"
.LC43:
	.string	"line %d, pPacket->StreamPack[1].IsLastSeg = %d\n"
.LC44:
	.string	"pImg is null, pCurImg %pK pBwdImg %pK pFwdImg %pK\n"
	.zero	5
.LC45:
	.string	"DEBUG: DEC over\n"
	.zero	7
.LC46:
	.string	"insert buf %d ref %d\n"
	.zero	2
.LC47:
	.string	"err(%d) > out_thr(%d)\n"
	.zero	1
.LC48:
	.string	"%-40s%20d\n"
	.zero	5
.LC49:
	.string	"slice_vertical_position"
.LC50:
	.string	"quantiser_scale_code"
	.zero	3
.LC51:
	.string	"extra_bit_slice"
.LC52:
	.string	"intra_slice_flag"
	.zero	7
.LC53:
	.string	"intra_slice"
	.zero	4
.LC54:
	.string	"reserved_bits"
	.zero	2
.LC55:
	.string	"extra_infrmation_slice"
	.zero	1
.LC56:
	.string	"Slice num = %d >= %d\n"
	.zero	2
.LC57:
	.string	"seg info is wrong! IsLastSeg[0] = %d, IsLastSeg[1] = %d\n"
	.zero	7
.LC58:
	.string	"macroblock_address_increment"
	.zero	3
.LC59:
	.string	"macroblock_escape ERROR\n"
	.zero	7
.LC60:
	.string	"macroblock_escape"
	.zero	6
.LC61:
	.string	"SlcStartMbNum = %d > PicEndMum = %d\n"
	.zero	3
.LC62:
	.string	"FirstMbInSliceFlag = %d\n"
	.zero	7
.LC63:
	.string	"MP2_GetFirstMbInSlice Failed!\n"
	.zero	1
.LC64:
	.string	"MP2_WriteSliceInfo Failed!\n"
	.zero	4
.LC65:
	.string	"found sh %#x\n"
	.zero	2
.LC66:
	.string	"SEQUENCE_HEADER_CODE Bitstream is not enough!\n"
	.zero	1
.LC67:
	.string	"found gh %#x\n"
	.zero	2
.LC68:
	.string	"GROUP_START_CODE Bitstream is not enough!\n"
	.zero	5
.LC69:
	.string	"found ph %#x\n"
	.zero	2
.LC70:
	.string	"PICTURE_START_CODE Bitstream is not enough!\n"
	.zero	3
.LC71:
	.string	"found ud %#x\n"
	.zero	2
.LC72:
	.string	"cann't get ud pointer\n"
	.zero	1
.LC73:
	.string	"found ext %#x\n"
	.zero	1
.LC74:
	.string	"MP2_DecSlice is wrong!\n"
.LC75:
	.string	"line %d, MP2_ReceivePacket receive packet failed!\n"
	.zero	5
.LC76:
	.string	"MP2 Decode Decide is wrong!\n"
	.zero	3
.LC77:
	.string	"MP2 get picture info is wrong!\n"
.LC78:
	.string	"MP2 dec new pic failed!\n"
	.bss
	.align	3
.LANCHOR2 = . + 0
	.type	g_tmpusd, %object
	.size	g_tmpusd, 1024
g_tmpusd:
	.zero	1024
	.text
.Letext0:
	.file 2 "/mnt/disk/jenkins/ci/workspace/chipset_release_960_xloader/opensource/component_code/vendor/huawei/extra/build/build_script/kirin_kernel_release/kernel/include/uapi/asm-generic/int-ll64.h"
	.file 3 "/mnt/disk/jenkins/ci/workspace/chipset_release_960_xloader/opensource/component_code/vendor/huawei/extra/build/build_script/kirin_kernel_release/kernel/include/asm-generic/int-ll64.h"
	.file 4 "/mnt/disk/jenkins/ci/workspace/chipset_release_960_xloader/opensource/component_code/vendor/huawei/extra/build/build_script/kirin_kernel_release/kernel/include/uapi/asm-generic/posix_types.h"
	.file 5 "/mnt/disk/jenkins/ci/workspace/chipset_release_960_xloader/opensource/component_code/vendor/huawei/extra/build/build_script/kirin_kernel_release/kernel/include/linux/export.h"
	.file 6 "/mnt/disk/jenkins/ci/workspace/chipset_release_960_xloader/opensource/component_code/vendor/huawei/extra/build/build_script/kirin_kernel_release/kernel/include/linux/types.h"
	.file 7 "/mnt/disk/jenkins/ci/workspace/chipset_release_960_xloader/opensource/component_code/vendor/huawei/extra/build/build_script/kirin_kernel_release/kernel/include/asm-generic/bug.h"
	.file 8 "/mnt/disk/jenkins/ci/workspace/chipset_release_960_xloader/opensource/component_code/vendor/huawei/extra/build/build_script/kirin_kernel_release/kernel/drivers/vcodec/hi_vcodec/vdec/include/hi_type.h"
	.file 9 "/mnt/disk/jenkins/ci/workspace/chipset_release_960_xloader/opensource/component_code/vendor/huawei/extra/build/build_script/kirin_kernel_release/kernel/drivers/vcodec/hi_vcodec/vdec/vfmw/vfmw_v4.0/vfmw.h"
	.file 10 "/mnt/disk/jenkins/ci/workspace/chipset_release_960_xloader/opensource/component_code/vendor/huawei/extra/build/build_script/kirin_kernel_release/kernel/include/linux/restart_block.h"
	.file 11 "/mnt/disk/jenkins/ci/workspace/chipset_release_960_xloader/opensource/component_code/vendor/huawei/extra/build/build_script/kirin_kernel_release/kernel/include/uapi/linux/time.h"
	.file 12 "/mnt/disk/jenkins/ci/workspace/chipset_release_960_xloader/opensource/component_code/vendor/huawei/extra/build/build_script/kirin_kernel_release/kernel/arch/arm64/include/asm/compat.h"
	.file 13 "/mnt/disk/jenkins/ci/workspace/chipset_release_960_xloader/opensource/component_code/vendor/huawei/extra/build/build_script/kirin_kernel_release/kernel/include/uapi/asm-generic/poll.h"
	.file 14 "/mnt/disk/jenkins/ci/workspace/chipset_release_960_xloader/opensource/component_code/vendor/huawei/extra/build/build_script/kirin_kernel_release/kernel/arch/arm64/include/asm/thread_info.h"
	.file 15 "/mnt/disk/jenkins/ci/workspace/chipset_release_960_xloader/opensource/component_code/vendor/huawei/extra/build/build_script/kirin_kernel_release/kernel/arch/arm64/include/uapi/asm/ptrace.h"
	.file 16 "/mnt/disk/jenkins/ci/workspace/chipset_release_960_xloader/opensource/component_code/vendor/huawei/extra/build/build_script/kirin_kernel_release/kernel/arch/arm64/include/asm/ptrace.h"
	.file 17 "/mnt/disk/jenkins/ci/workspace/chipset_release_960_xloader/opensource/component_code/vendor/huawei/extra/build/build_script/kirin_kernel_release/kernel/arch/arm64/include/asm/spinlock_types.h"
	.file 18 "/mnt/disk/jenkins/ci/workspace/chipset_release_960_xloader/opensource/component_code/vendor/huawei/extra/build/build_script/kirin_kernel_release/kernel/include/linux/spinlock_types.h"
	.file 19 "/mnt/disk/jenkins/ci/workspace/chipset_release_960_xloader/opensource/component_code/vendor/huawei/extra/build/build_script/kirin_kernel_release/kernel/include/linux/rwlock_types.h"
	.file 20 "/mnt/disk/jenkins/ci/workspace/chipset_release_960_xloader/opensource/component_code/vendor/huawei/extra/build/build_script/kirin_kernel_release/kernel/arch/arm64/include/asm/fpsimd.h"
	.file 21 "/mnt/disk/jenkins/ci/workspace/chipset_release_960_xloader/opensource/component_code/vendor/huawei/extra/build/build_script/kirin_kernel_release/kernel/include/linux/jump_label.h"
	.file 22 "/mnt/disk/jenkins/ci/workspace/chipset_release_960_xloader/opensource/component_code/vendor/huawei/extra/build/build_script/kirin_kernel_release/kernel/include/asm-generic/atomic-long.h"
	.file 23 "/mnt/disk/jenkins/ci/workspace/chipset_release_960_xloader/opensource/component_code/vendor/huawei/extra/build/build_script/kirin_kernel_release/kernel/arch/arm64/include/asm/hw_breakpoint.h"
	.file 24 "/mnt/disk/jenkins/ci/workspace/chipset_release_960_xloader/opensource/component_code/vendor/huawei/extra/build/build_script/kirin_kernel_release/kernel/arch/arm64/include/asm/processor.h"
	.file 25 "/mnt/disk/jenkins/ci/workspace/chipset_release_960_xloader/opensource/component_code/vendor/huawei/extra/build/build_script/kirin_kernel_release/kernel/include/linux/perf_event.h"
	.file 26 "/mnt/disk/jenkins/ci/workspace/chipset_release_960_xloader/opensource/component_code/vendor/huawei/extra/build/build_script/kirin_kernel_release/kernel/include/linux/wait.h"
	.file 27 "/mnt/disk/jenkins/ci/workspace/chipset_release_960_xloader/opensource/component_code/vendor/huawei/extra/build/build_script/kirin_kernel_release/kernel/include/linux/seqlock.h"
	.file 28 "/mnt/disk/jenkins/ci/workspace/chipset_release_960_xloader/opensource/component_code/vendor/huawei/extra/build/build_script/kirin_kernel_release/kernel/include/linux/nodemask.h"
	.file 29 "/mnt/disk/jenkins/ci/workspace/chipset_release_960_xloader/opensource/component_code/vendor/huawei/extra/build/build_script/kirin_kernel_release/kernel/include/linux/cpumask.h"
	.file 30 "/mnt/disk/jenkins/ci/workspace/chipset_release_960_xloader/opensource/component_code/vendor/huawei/extra/build/build_script/kirin_kernel_release/kernel/include/linux/completion.h"
	.file 31 "/mnt/disk/jenkins/ci/workspace/chipset_release_960_xloader/opensource/component_code/vendor/huawei/extra/build/build_script/kirin_kernel_release/kernel/include/linux/time64.h"
	.file 32 "/mnt/disk/jenkins/ci/workspace/chipset_release_960_xloader/opensource/component_code/vendor/huawei/extra/build/build_script/kirin_kernel_release/kernel/include/linux/ktime.h"
	.file 33 "/mnt/disk/jenkins/ci/workspace/chipset_release_960_xloader/opensource/component_code/vendor/huawei/extra/build/build_script/kirin_kernel_release/kernel/include/linux/rbtree.h"
	.file 34 "/mnt/disk/jenkins/ci/workspace/chipset_release_960_xloader/opensource/component_code/vendor/huawei/extra/build/build_script/kirin_kernel_release/kernel/include/linux/osq_lock.h"
	.file 35 "/mnt/disk/jenkins/ci/workspace/chipset_release_960_xloader/opensource/component_code/vendor/huawei/extra/build/build_script/kirin_kernel_release/kernel/include/linux/rwsem.h"
	.file 36 "/mnt/disk/jenkins/ci/workspace/chipset_release_960_xloader/opensource/component_code/vendor/huawei/extra/build/build_script/kirin_kernel_release/kernel/include/linux/sched.h"
	.file 37 "/mnt/disk/jenkins/ci/workspace/chipset_release_960_xloader/opensource/component_code/vendor/huawei/extra/build/build_script/kirin_kernel_release/kernel/include/linux/mm_types.h"
	.file 38 "/mnt/disk/jenkins/ci/workspace/chipset_release_960_xloader/opensource/component_code/vendor/huawei/extra/build/build_script/kirin_kernel_release/kernel/include/linux/lockdep.h"
	.file 39 "/mnt/disk/jenkins/ci/workspace/chipset_release_960_xloader/opensource/component_code/vendor/huawei/extra/build/build_script/kirin_kernel_release/kernel/include/linux/uprobes.h"
	.file 40 "/mnt/disk/jenkins/ci/workspace/chipset_release_960_xloader/opensource/component_code/vendor/huawei/extra/build/build_script/kirin_kernel_release/kernel/include/linux/timer.h"
	.file 41 "/mnt/disk/jenkins/ci/workspace/chipset_release_960_xloader/opensource/component_code/vendor/huawei/extra/build/build_script/kirin_kernel_release/kernel/include/linux/uidgid.h"
	.file 42 "/mnt/disk/jenkins/ci/workspace/chipset_release_960_xloader/opensource/component_code/vendor/huawei/extra/build/build_script/kirin_kernel_release/kernel/include/linux/sysctl.h"
	.file 43 "/mnt/disk/jenkins/ci/workspace/chipset_release_960_xloader/opensource/component_code/vendor/huawei/extra/build/build_script/kirin_kernel_release/kernel/include/linux/workqueue.h"
	.file 44 "/mnt/disk/jenkins/ci/workspace/chipset_release_960_xloader/opensource/component_code/vendor/huawei/extra/build/build_script/kirin_kernel_release/kernel/arch/arm64/include/asm/pgtable-types.h"
	.file 45 "/mnt/disk/jenkins/ci/workspace/chipset_release_960_xloader/opensource/component_code/vendor/huawei/extra/build/build_script/kirin_kernel_release/kernel/arch/arm64/include/asm/page.h"
	.file 46 "/mnt/disk/jenkins/ci/workspace/chipset_release_960_xloader/opensource/component_code/vendor/huawei/extra/build/build_script/kirin_kernel_release/kernel/include/linux/llist.h"
	.file 47 "/mnt/disk/jenkins/ci/workspace/chipset_release_960_xloader/opensource/component_code/vendor/huawei/extra/build/build_script/kirin_kernel_release/kernel/arch/arm64/include/asm/smp.h"
	.file 48 "/mnt/disk/jenkins/ci/workspace/chipset_release_960_xloader/opensource/component_code/vendor/huawei/extra/build/build_script/kirin_kernel_release/kernel/arch/arm64/include/asm/mmu.h"
	.file 49 "/mnt/disk/jenkins/ci/workspace/chipset_release_960_xloader/opensource/component_code/vendor/huawei/extra/build/build_script/kirin_kernel_release/kernel/include/linux/fs.h"
	.file 50 "/mnt/disk/jenkins/ci/workspace/chipset_release_960_xloader/opensource/component_code/vendor/huawei/extra/build/build_script/kirin_kernel_release/kernel/include/linux/mm.h"
	.file 51 "/mnt/disk/jenkins/ci/workspace/chipset_release_960_xloader/opensource/component_code/vendor/huawei/extra/build/build_script/kirin_kernel_release/kernel/include/linux/user_namespace.h"
	.file 52 "/mnt/disk/jenkins/ci/workspace/chipset_release_960_xloader/opensource/component_code/vendor/huawei/extra/build/build_script/kirin_kernel_release/kernel/include/linux/mmzone.h"
	.file 53 "/mnt/disk/jenkins/ci/workspace/chipset_release_960_xloader/opensource/component_code/vendor/huawei/extra/build/build_script/kirin_kernel_release/kernel/include/linux/mutex.h"
	.file 54 "/mnt/disk/jenkins/ci/workspace/chipset_release_960_xloader/opensource/component_code/vendor/huawei/extra/build/build_script/kirin_kernel_release/kernel/include/linux/percpu-refcount.h"
	.file 55 "/mnt/disk/jenkins/ci/workspace/chipset_release_960_xloader/opensource/component_code/vendor/huawei/extra/build/build_script/kirin_kernel_release/kernel/include/linux/shrinker.h"
	.file 56 "/mnt/disk/jenkins/ci/workspace/chipset_release_960_xloader/opensource/component_code/vendor/huawei/extra/build/build_script/kirin_kernel_release/kernel/include/uapi/linux/resource.h"
	.file 57 "/mnt/disk/jenkins/ci/workspace/chipset_release_960_xloader/opensource/component_code/vendor/huawei/extra/build/build_script/kirin_kernel_release/kernel/include/linux/tracepoint-defs.h"
	.file 58 "/mnt/disk/jenkins/ci/workspace/chipset_release_960_xloader/opensource/component_code/vendor/huawei/extra/build/build_script/kirin_kernel_release/kernel/include/linux/vmstat.h"
	.file 59 "/mnt/disk/jenkins/ci/workspace/chipset_release_960_xloader/opensource/component_code/vendor/huawei/extra/build/build_script/kirin_kernel_release/kernel/include/linux/capability.h"
	.file 60 "/mnt/disk/jenkins/ci/workspace/chipset_release_960_xloader/opensource/component_code/vendor/huawei/extra/build/build_script/kirin_kernel_release/kernel/include/linux/plist.h"
	.file 61 "/mnt/disk/jenkins/ci/workspace/chipset_release_960_xloader/opensource/component_code/vendor/huawei/extra/build/build_script/kirin_kernel_release/kernel/include/asm-generic/cputime_jiffies.h"
	.file 62 "/mnt/disk/jenkins/ci/workspace/chipset_release_960_xloader/opensource/component_code/vendor/huawei/extra/build/build_script/kirin_kernel_release/kernel/include/uapi/asm-generic/signal.h"
	.file 63 "/mnt/disk/jenkins/ci/workspace/chipset_release_960_xloader/opensource/component_code/vendor/huawei/extra/build/build_script/kirin_kernel_release/kernel/include/uapi/asm-generic/signal-defs.h"
	.file 64 "/mnt/disk/jenkins/ci/workspace/chipset_release_960_xloader/opensource/component_code/vendor/huawei/extra/build/build_script/kirin_kernel_release/kernel/include/uapi/asm-generic/siginfo.h"
	.file 65 "/mnt/disk/jenkins/ci/workspace/chipset_release_960_xloader/opensource/component_code/vendor/huawei/extra/build/build_script/kirin_kernel_release/kernel/include/linux/signal.h"
	.file 66 "/mnt/disk/jenkins/ci/workspace/chipset_release_960_xloader/opensource/component_code/vendor/huawei/extra/build/build_script/kirin_kernel_release/kernel/include/linux/pid.h"
	.file 67 "/mnt/disk/jenkins/ci/workspace/chipset_release_960_xloader/opensource/component_code/vendor/huawei/extra/build/build_script/kirin_kernel_release/kernel/include/linux/pid_namespace.h"
	.file 68 "/mnt/disk/jenkins/ci/workspace/chipset_release_960_xloader/opensource/component_code/vendor/huawei/extra/build/build_script/kirin_kernel_release/kernel/include/linux/seccomp.h"
	.file 69 "/mnt/disk/jenkins/ci/workspace/chipset_release_960_xloader/opensource/component_code/vendor/huawei/extra/build/build_script/kirin_kernel_release/kernel/include/linux/timerqueue.h"
	.file 70 "/mnt/disk/jenkins/ci/workspace/chipset_release_960_xloader/opensource/component_code/vendor/huawei/extra/build/build_script/kirin_kernel_release/kernel/include/linux/hrtimer.h"
	.file 71 "/mnt/disk/jenkins/ci/workspace/chipset_release_960_xloader/opensource/component_code/vendor/huawei/extra/build/build_script/kirin_kernel_release/kernel/include/linux/task_io_accounting.h"
	.file 72 "/mnt/disk/jenkins/ci/workspace/chipset_release_960_xloader/opensource/component_code/vendor/huawei/extra/build/build_script/kirin_kernel_release/kernel/include/linux/assoc_array.h"
	.file 73 "/mnt/disk/jenkins/ci/workspace/chipset_release_960_xloader/opensource/component_code/vendor/huawei/extra/build/build_script/kirin_kernel_release/kernel/include/linux/key.h"
	.file 74 "/mnt/disk/jenkins/ci/workspace/chipset_release_960_xloader/opensource/component_code/vendor/huawei/extra/build/build_script/kirin_kernel_release/kernel/include/linux/cred.h"
	.file 75 "/mnt/disk/jenkins/ci/workspace/chipset_release_960_xloader/opensource/component_code/vendor/huawei/extra/build/build_script/kirin_kernel_release/kernel/include/linux/idr.h"
	.file 76 "/mnt/disk/jenkins/ci/workspace/chipset_release_960_xloader/opensource/component_code/vendor/huawei/extra/build/build_script/kirin_kernel_release/kernel/include/linux/rcu_sync.h"
	.file 77 "/mnt/disk/jenkins/ci/workspace/chipset_release_960_xloader/opensource/component_code/vendor/huawei/extra/build/build_script/kirin_kernel_release/kernel/include/linux/percpu-rwsem.h"
	.file 78 "/mnt/disk/jenkins/ci/workspace/chipset_release_960_xloader/opensource/component_code/vendor/huawei/extra/build/build_script/kirin_kernel_release/kernel/include/linux/bpf-cgroup.h"
	.file 79 "/mnt/disk/jenkins/ci/workspace/chipset_release_960_xloader/opensource/component_code/vendor/huawei/extra/build/build_script/kirin_kernel_release/kernel/include/linux/cgroup-defs.h"
	.file 80 "/mnt/disk/jenkins/ci/workspace/chipset_release_960_xloader/opensource/component_code/vendor/huawei/extra/build/build_script/kirin_kernel_release/kernel/include/linux/kernfs.h"
	.file 81 "/mnt/disk/jenkins/ci/workspace/chipset_release_960_xloader/opensource/component_code/vendor/huawei/extra/build/build_script/kirin_kernel_release/kernel/include/linux/seq_file.h"
	.file 82 "/mnt/disk/jenkins/ci/workspace/chipset_release_960_xloader/opensource/component_code/vendor/huawei/extra/build/build_script/kirin_kernel_release/kernel/include/uapi/linux/taskstats.h"
	.file 83 "/mnt/disk/jenkins/ci/workspace/chipset_release_960_xloader/opensource/component_code/vendor/huawei/extra/build/build_script/kirin_kernel_release/kernel/include/linux/nsproxy.h"
	.file 84 "/mnt/disk/jenkins/ci/workspace/chipset_release_960_xloader/opensource/component_code/vendor/huawei/extra/build/build_script/kirin_kernel_release/kernel/include/linux/compat.h"
	.file 85 "/mnt/disk/jenkins/ci/workspace/chipset_release_960_xloader/opensource/component_code/vendor/huawei/extra/build/build_script/kirin_kernel_release/kernel/include/linux/stat.h"
	.file 86 "/mnt/disk/jenkins/ci/workspace/chipset_release_960_xloader/opensource/component_code/vendor/huawei/extra/build/build_script/kirin_kernel_release/kernel/include/uapi/linux/elf.h"
	.file 87 "/mnt/disk/jenkins/ci/workspace/chipset_release_960_xloader/opensource/component_code/vendor/huawei/extra/build/build_script/kirin_kernel_release/kernel/include/linux/kobject_ns.h"
	.file 88 "/mnt/disk/jenkins/ci/workspace/chipset_release_960_xloader/opensource/component_code/vendor/huawei/extra/build/build_script/kirin_kernel_release/kernel/include/linux/sysfs.h"
	.file 89 "/mnt/disk/jenkins/ci/workspace/chipset_release_960_xloader/opensource/component_code/vendor/huawei/extra/build/build_script/kirin_kernel_release/kernel/include/linux/kobject.h"
	.file 90 "/mnt/disk/jenkins/ci/workspace/chipset_release_960_xloader/opensource/component_code/vendor/huawei/extra/build/build_script/kirin_kernel_release/kernel/include/linux/kref.h"
	.file 91 "/mnt/disk/jenkins/ci/workspace/chipset_release_960_xloader/opensource/component_code/vendor/huawei/extra/build/build_script/kirin_kernel_release/kernel/include/linux/moduleparam.h"
	.file 92 "/mnt/disk/jenkins/ci/workspace/chipset_release_960_xloader/opensource/component_code/vendor/huawei/extra/build/build_script/kirin_kernel_release/kernel/include/linux/module.h"
	.file 93 "/mnt/disk/jenkins/ci/workspace/chipset_release_960_xloader/opensource/component_code/vendor/huawei/extra/build/build_script/kirin_kernel_release/kernel/include/linux/rbtree_latch.h"
	.file 94 "/mnt/disk/jenkins/ci/workspace/chipset_release_960_xloader/opensource/component_code/vendor/huawei/extra/build/build_script/kirin_kernel_release/kernel/arch/arm64/include/asm/module.h"
	.file 95 "/mnt/disk/jenkins/ci/workspace/chipset_release_960_xloader/opensource/component_code/vendor/huawei/extra/build/build_script/kirin_kernel_release/kernel/arch/arm64/include/asm/uaccess.h"
	.file 96 "/mnt/disk/jenkins/ci/workspace/chipset_release_960_xloader/opensource/component_code/vendor/huawei/extra/build/build_script/kirin_kernel_release/kernel/include/linux/trace_events.h"
	.file 97 "/mnt/disk/jenkins/ci/workspace/chipset_release_960_xloader/opensource/component_code/vendor/huawei/extra/build/build_script/kirin_kernel_release/kernel/include/linux/tracepoint.h"
	.file 98 "/mnt/disk/jenkins/ci/workspace/chipset_release_960_xloader/opensource/component_code/vendor/huawei/extra/build/build_script/kirin_kernel_release/kernel/include/linux/percpu_counter.h"
	.file 99 "/mnt/disk/jenkins/ci/workspace/chipset_release_960_xloader/opensource/component_code/vendor/huawei/extra/build/build_script/kirin_kernel_release/kernel/include/linux/quota.h"
	.file 100 "/mnt/disk/jenkins/ci/workspace/chipset_release_960_xloader/opensource/component_code/vendor/huawei/extra/build/build_script/kirin_kernel_release/kernel/include/linux/projid.h"
	.file 101 "/mnt/disk/jenkins/ci/workspace/chipset_release_960_xloader/opensource/component_code/vendor/huawei/extra/build/build_script/kirin_kernel_release/kernel/include/linux/path.h"
	.file 102 "/mnt/disk/jenkins/ci/workspace/chipset_release_960_xloader/opensource/component_code/vendor/huawei/extra/build/build_script/kirin_kernel_release/kernel/include/linux/list_bl.h"
	.file 103 "/mnt/disk/jenkins/ci/workspace/chipset_release_960_xloader/opensource/component_code/vendor/huawei/extra/build/build_script/kirin_kernel_release/kernel/include/linux/lockref.h"
	.file 104 "/mnt/disk/jenkins/ci/workspace/chipset_release_960_xloader/opensource/component_code/vendor/huawei/extra/build/build_script/kirin_kernel_release/kernel/include/linux/dcache.h"
	.file 105 "/mnt/disk/jenkins/ci/workspace/chipset_release_960_xloader/opensource/component_code/vendor/huawei/extra/build/build_script/kirin_kernel_release/kernel/include/linux/list_lru.h"
	.file 106 "/mnt/disk/jenkins/ci/workspace/chipset_release_960_xloader/opensource/component_code/vendor/huawei/extra/build/build_script/kirin_kernel_release/kernel/include/linux/radix-tree.h"
	.file 107 "/mnt/disk/jenkins/ci/workspace/chipset_release_960_xloader/opensource/component_code/vendor/huawei/extra/build/build_script/kirin_kernel_release/kernel/include/uapi/linux/fiemap.h"
	.file 108 "/mnt/disk/jenkins/ci/workspace/chipset_release_960_xloader/opensource/component_code/vendor/huawei/extra/build/build_script/kirin_kernel_release/kernel/include/linux/migrate_mode.h"
	.file 109 "/mnt/disk/jenkins/ci/workspace/chipset_release_960_xloader/opensource/component_code/vendor/huawei/extra/build/build_script/kirin_kernel_release/kernel/include/linux/bvec.h"
	.file 110 "/mnt/disk/jenkins/ci/workspace/chipset_release_960_xloader/opensource/component_code/vendor/huawei/extra/build/build_script/kirin_kernel_release/kernel/include/linux/delayed_call.h"
	.file 111 "/mnt/disk/jenkins/ci/workspace/chipset_release_960_xloader/opensource/component_code/vendor/huawei/extra/build/build_script/kirin_kernel_release/kernel/include/linux/uio.h"
	.file 112 "/mnt/disk/jenkins/ci/workspace/chipset_release_960_xloader/opensource/component_code/vendor/huawei/extra/build/build_script/kirin_kernel_release/kernel/include/linux/nfs_fs_i.h"
	.file 113 "/mnt/disk/jenkins/ci/workspace/chipset_release_960_xloader/opensource/component_code/vendor/huawei/extra/build/build_script/kirin_kernel_release/kernel/include/linux/poll.h"
	.file 114 "/mnt/disk/jenkins/ci/workspace/chipset_release_960_xloader/opensource/component_code/vendor/huawei/extra/build/build_script/kirin_kernel_release/kernel/include/linux/seq_buf.h"
	.file 115 "/mnt/disk/jenkins/ci/workspace/chipset_release_960_xloader/opensource/component_code/vendor/huawei/extra/build/build_script/kirin_kernel_release/kernel/include/linux/trace_seq.h"
	.file 116 "/mnt/disk/jenkins/ci/workspace/chipset_release_960_xloader/opensource/component_code/vendor/huawei/extra/build/build_script/kirin_kernel_release/kernel/include/uapi/linux/perf_event.h"
	.file 117 "/mnt/disk/jenkins/ci/workspace/chipset_release_960_xloader/opensource/component_code/vendor/huawei/extra/build/build_script/kirin_kernel_release/kernel/include/asm-generic/local.h"
	.file 118 "/mnt/disk/jenkins/ci/workspace/chipset_release_960_xloader/opensource/component_code/vendor/huawei/extra/build/build_script/kirin_kernel_release/kernel/include/asm-generic/local64.h"
	.file 119 "/mnt/disk/jenkins/ci/workspace/chipset_release_960_xloader/opensource/component_code/vendor/huawei/extra/build/build_script/kirin_kernel_release/kernel/include/linux/cgroup.h"
	.file 120 "/mnt/disk/jenkins/ci/workspace/chipset_release_960_xloader/opensource/component_code/vendor/huawei/extra/build/build_script/kirin_kernel_release/kernel/include/linux/ns_common.h"
	.file 121 "/mnt/disk/jenkins/ci/workspace/chipset_release_960_xloader/opensource/component_code/vendor/huawei/extra/build/build_script/kirin_kernel_release/kernel/include/uapi/linux/uio.h"
	.file 122 "/mnt/disk/jenkins/ci/workspace/chipset_release_960_xloader/opensource/component_code/vendor/huawei/extra/build/build_script/kirin_kernel_release/kernel/include/linux/ftrace.h"
	.file 123 "/mnt/disk/jenkins/ci/workspace/chipset_release_960_xloader/opensource/component_code/vendor/huawei/extra/build/build_script/kirin_kernel_release/kernel/include/linux/klist.h"
	.file 124 "/mnt/disk/jenkins/ci/workspace/chipset_release_960_xloader/opensource/component_code/vendor/huawei/extra/build/build_script/kirin_kernel_release/kernel/include/linux/pinctrl/devinfo.h"
	.file 125 "/mnt/disk/jenkins/ci/workspace/chipset_release_960_xloader/opensource/component_code/vendor/huawei/extra/build/build_script/kirin_kernel_release/kernel/include/linux/pm.h"
	.file 126 "/mnt/disk/jenkins/ci/workspace/chipset_release_960_xloader/opensource/component_code/vendor/huawei/extra/build/build_script/kirin_kernel_release/kernel/include/linux/device.h"
	.file 127 "/mnt/disk/jenkins/ci/workspace/chipset_release_960_xloader/opensource/component_code/vendor/huawei/extra/build/build_script/kirin_kernel_release/kernel/include/linux/pm_wakeup.h"
	.file 128 "/mnt/disk/jenkins/ci/workspace/chipset_release_960_xloader/opensource/component_code/vendor/huawei/extra/build/build_script/kirin_kernel_release/kernel/arch/arm64/include/asm/device.h"
	.file 129 "/mnt/disk/jenkins/ci/workspace/chipset_release_960_xloader/opensource/component_code/vendor/huawei/extra/build/build_script/kirin_kernel_release/kernel/include/linux/irq_work.h"
	.file 130 "/mnt/disk/jenkins/ci/workspace/chipset_release_960_xloader/opensource/component_code/vendor/huawei/extra/build/build_script/kirin_kernel_release/kernel/include/linux/perf_regs.h"
	.file 131 "/mnt/disk/jenkins/ci/workspace/chipset_release_960_xloader/opensource/component_code/vendor/huawei/extra/build/build_script/kirin_kernel_release/kernel/include/linux/interrupt.h"
	.file 132 "/mnt/disk/jenkins/ci/workspace/chipset_release_960_xloader/opensource/component_code/vendor/huawei/extra/build/build_script/kirin_kernel_release/kernel/drivers/vcodec/hi_vcodec/vdec/vfmw/vfmw_v4.0/firmware/driver/HiSCDV200/scd_drv.h"
	.file 133 "/mnt/disk/jenkins/ci/workspace/chipset_release_960_xloader/opensource/component_code/vendor/huawei/extra/build/build_script/kirin_kernel_release/kernel/drivers/vcodec/hi_vcodec/vdec/vfmw/vfmw_v4.0/firmware/common/syn_cmn.h"
	.file 134 "/mnt/disk/jenkins/ci/workspace/chipset_release_960_xloader/opensource/component_code/vendor/huawei/extra/build/build_script/kirin_kernel_release/kernel/drivers/vcodec/hi_vcodec/vdec/vfmw/vfmw_v4.0/firmware/common/decparam.h"
	.file 135 "/mnt/disk/jenkins/ci/workspace/chipset_release_960_xloader/opensource/component_code/vendor/huawei/extra/build/build_script/kirin_kernel_release/kernel/drivers/vcodec/hi_vcodec/vdec/vfmw/vfmw_v4.0/firmware/common/vdm_hal.h"
	.file 136 "/mnt/disk/jenkins/ci/workspace/chipset_release_960_xloader/opensource/component_code/vendor/huawei/extra/build/build_script/kirin_kernel_release/kernel/drivers/vcodec/hi_vcodec/vdec/vfmw/vfmw_v4.0/firmware/common/public.h"
	.file 137 "/mnt/disk/jenkins/ci/workspace/chipset_release_960_xloader/opensource/component_code/vendor/huawei/extra/build/build_script/kirin_kernel_release/kernel/drivers/vcodec/hi_vcodec/vdec/vfmw/vfmw_v4.0/firmware/common/bitstream.h"
	.file 138 "/mnt/disk/jenkins/ci/workspace/chipset_release_960_xloader/opensource/component_code/vendor/huawei/extra/build/build_script/kirin_kernel_release/kernel/drivers/vcodec/hi_vcodec/vdec/vfmw/vfmw_v4.0/firmware/common/syntax/mpeg2.h"
	.file 139 "/mnt/disk/jenkins/ci/workspace/chipset_release_960_xloader/opensource/component_code/vendor/huawei/extra/build/build_script/kirin_kernel_release/kernel/drivers/vcodec/hi_vcodec/vdec/vfmw/vfmw_v4.0/firmware/common/syntax/hevc.h"
	.file 140 "/mnt/disk/jenkins/ci/workspace/chipset_release_960_xloader/opensource/component_code/vendor/huawei/extra/build/build_script/kirin_kernel_release/kernel/drivers/vcodec/hi_vcodec/vdec/vfmw/vfmw_v4.0/firmware/common/syntax/vp8.h"
	.file 141 "/mnt/disk/jenkins/ci/workspace/chipset_release_960_xloader/opensource/component_code/vendor/huawei/extra/build/build_script/kirin_kernel_release/kernel/drivers/vcodec/hi_vcodec/vdec/vfmw/vfmw_v4.0/firmware/common/fsp.h"
	.file 142 "/mnt/disk/jenkins/ci/workspace/chipset_release_960_xloader/opensource/component_code/vendor/huawei/extra/build/build_script/kirin_kernel_release/kernel/arch/arm64/include/asm/cachetype.h"
	.file 143 "/mnt/disk/jenkins/ci/workspace/chipset_release_960_xloader/opensource/component_code/vendor/huawei/extra/build/build_script/kirin_kernel_release/kernel/include/linux/printk.h"
	.file 144 "/mnt/disk/jenkins/ci/workspace/chipset_release_960_xloader/opensource/component_code/vendor/huawei/extra/build/build_script/kirin_kernel_release/kernel/include/linux/kernel.h"
	.file 145 "/mnt/disk/jenkins/ci/workspace/chipset_release_960_xloader/opensource/component_code/vendor/huawei/extra/build/build_script/kirin_kernel_release/kernel/arch/arm64/include/asm/stack_pointer.h"
	.file 146 "/mnt/disk/jenkins/ci/workspace/chipset_release_960_xloader/opensource/component_code/vendor/huawei/extra/build/build_script/kirin_kernel_release/kernel/arch/arm64/include/asm/hwcap.h"
	.file 147 "/mnt/disk/jenkins/ci/workspace/chipset_release_960_xloader/opensource/component_code/vendor/huawei/extra/build/build_script/kirin_kernel_release/kernel/arch/arm64/include/asm/cpufeature.h"
	.file 148 "/mnt/disk/jenkins/ci/workspace/chipset_release_960_xloader/opensource/component_code/vendor/huawei/extra/build/build_script/kirin_kernel_release/kernel/arch/arm64/include/asm/virt.h"
	.file 149 "/mnt/disk/jenkins/ci/workspace/chipset_release_960_xloader/opensource/component_code/vendor/huawei/extra/build/build_script/kirin_kernel_release/kernel/include/linux/jiffies.h"
	.file 150 "/mnt/disk/jenkins/ci/workspace/chipset_release_960_xloader/opensource/component_code/vendor/huawei/extra/build/build_script/kirin_kernel_release/kernel/include/linux/highuid.h"
	.file 151 "/mnt/disk/jenkins/ci/workspace/chipset_release_960_xloader/opensource/component_code/vendor/huawei/extra/build/build_script/kirin_kernel_release/kernel/arch/arm64/include/asm/memory.h"
	.file 152 "/mnt/disk/jenkins/ci/workspace/chipset_release_960_xloader/opensource/component_code/vendor/huawei/extra/build/build_script/kirin_kernel_release/kernel/include/asm-generic/percpu.h"
	.file 153 "/mnt/disk/jenkins/ci/workspace/chipset_release_960_xloader/opensource/component_code/vendor/huawei/extra/build/build_script/kirin_kernel_release/kernel/include/linux/debug_locks.h"
	.file 154 "/mnt/disk/jenkins/ci/workspace/chipset_release_960_xloader/opensource/component_code/vendor/huawei/extra/build/build_script/kirin_kernel_release/kernel/include/asm-generic/pgtable.h"
	.file 155 "/mnt/disk/jenkins/ci/workspace/chipset_release_960_xloader/opensource/component_code/vendor/huawei/extra/build/build_script/kirin_kernel_release/kernel/arch/arm64/include/asm/irq.h"
	.file 156 "/mnt/disk/jenkins/ci/workspace/chipset_release_960_xloader/opensource/component_code/vendor/huawei/extra/build/build_script/kirin_kernel_release/kernel/arch/arm64/include/asm/hardirq.h"
	.file 157 "/mnt/disk/jenkins/ci/workspace/chipset_release_960_xloader/opensource/component_code/vendor/huawei/extra/build/build_script/kirin_kernel_release/kernel/include/linux/slab.h"
	.file 158 "/mnt/disk/jenkins/ci/workspace/chipset_release_960_xloader/opensource/component_code/vendor/huawei/extra/build/build_script/kirin_kernel_release/kernel/drivers/vcodec/hi_vcodec/vdec/vfmw/vfmw_v4.0/firmware/common/vfmw_ctrl.h"
	.file 159 "/mnt/disk/jenkins/ci/workspace/chipset_release_960_xloader/opensource/component_code/vendor/huawei/extra/build/build_script/kirin_kernel_release/kernel/drivers/vcodec/hi_vcodec/vdec/vfmw/vfmw_v4.0/firmware/common/syntax/syntax.h"
	.file 160 "/mnt/disk/jenkins/ci/workspace/chipset_release_960_xloader/opensource/component_code/vendor/huawei/extra/build/build_script/kirin_kernel_release/kernel/arch/arm64/include/asm/string.h"
	.section	.note.GNU-stack,"",%progbits
