	.cpu generic+fp+simd
	.file	"real9.c"
	.text
.Ltext0:
	.cfi_sections	.debug_frame
	.align	2
	.global	Real9_CB_GetBits
	.type	Real9_CB_GetBits, %function
Real9_CB_GetBits:
.LFB2638:
	.file 1 "/mnt/disk/jenkins/ci/workspace/chipset_release_960_xloader/opensource/component_code/vendor/huawei/extra/build/build_script/kirin_kernel_release/kernel/drivers/vcodec/hi_vcodec/vdec/vfmw/vfmw_v4.0/firmware/common/syntax/real9.c"
	.loc 1 158 0
	.cfi_startproc
.LVL0:
	stp	x29, x30, [sp, -48]!
	.cfi_def_cfa_offset 48
	.cfi_offset 29, -48
	.cfi_offset 30, -40
	add	x29, sp, 0
	.cfi_def_cfa_register 29
	stp	x19, x20, [sp,16]
	str	x21, [sp,32]
	.cfi_offset 19, -32
	.cfi_offset 20, -24
	.cfi_offset 21, -16
	.loc 1 158 0
	mov	w20, w1
	mov	x21, x0
	.loc 1 162 0
	bl	BsShow
.LVL1:
	.loc 1 163 0
	mov	w1, w20
	.loc 1 162 0
	mov	w19, w0
	.loc 1 163 0
	mov	x0, x21
	bl	BsSkip
.LVL2:
	.loc 1 166 0
	ldr	x21, [sp,32]
	.cfi_restore 21
.LVL3:
	mov	w0, w19
	ldp	x19, x20, [sp,16]
	.cfi_restore 20
	.cfi_restore 19
.LVL4:
	ldp	x29, x30, [sp], 48
	.cfi_restore 30
	.cfi_restore 29
	.cfi_def_cfa 31, 0
	ret
	.cfi_endproc
.LFE2638:
	.size	Real9_CB_GetBits, .-Real9_CB_GetBits
	.align	2
	.global	Real9_CB_Get1Bit
	.type	Real9_CB_Get1Bit, %function
Real9_CB_Get1Bit:
.LFB2639:
	.loc 1 170 0
	.cfi_startproc
.LVL5:
	stp	x29, x30, [sp, -32]!
	.cfi_def_cfa_offset 32
	.cfi_offset 29, -32
	.cfi_offset 30, -24
	.loc 1 173 0
	mov	w1, 1
	.loc 1 170 0
	add	x29, sp, 0
	.cfi_def_cfa_register 29
	stp	x19, x20, [sp,16]
	.cfi_offset 19, -16
	.cfi_offset 20, -8
	.loc 1 170 0
	mov	x20, x0
	.loc 1 173 0
	bl	BsShow
.LVL6:
	.loc 1 174 0
	mov	w1, 1
	.loc 1 173 0
	mov	w19, w0
	.loc 1 174 0
	mov	x0, x20
	bl	BsSkip
.LVL7:
	.loc 1 177 0
	mov	w0, w19
	ldp	x19, x20, [sp,16]
	.cfi_restore 20
	.cfi_restore 19
.LVL8:
	ldp	x29, x30, [sp], 32
	.cfi_restore 30
	.cfi_restore 29
	.cfi_def_cfa 31, 0
	ret
	.cfi_endproc
.LFE2639:
	.size	Real9_CB_Get1Bit, .-Real9_CB_Get1Bit
	.align	2
	.global	Real9_CB_GetVLCBits
	.type	Real9_CB_GetVLCBits, %function
Real9_CB_GetVLCBits:
.LFB2640:
	.loc 1 465 0
	.cfi_startproc
.LVL9:
	stp	x29, x30, [sp, -64]!
	.cfi_def_cfa_offset 64
	.cfi_offset 29, -64
	.cfi_offset 30, -56
	add	x29, sp, 0
	.cfi_def_cfa_register 29
	stp	x19, x20, [sp,16]
	stp	x21, x22, [sp,32]
	str	x23, [sp,48]
	.cfi_offset 19, -48
	.cfi_offset 20, -40
	.cfi_offset 21, -32
	.cfi_offset 22, -24
	.cfi_offset 23, -16
	.loc 1 465 0
	mov	x21, x0
	mov	x23, x1
	.loc 1 466 0
	mov	w20, 0
.LVL10:
	mov	w19, 0
.LVL11:
	adrp	x22, .LANCHOR0
.L4:
	.loc 1 473 0
	mov	w1, 8
	mov	x0, x21
	bl	BsShow
.LVL12:
	.loc 1 475 0
	add	x1, x22, :lo12:.LANCHOR0
	ldrb	w2, [x1,w0,uxtw]
	.loc 1 481 0
	mov	x0, x21
	.loc 1 476 0
	lsr	w1, w2, 4
.LVL13:
	.loc 1 478 0
	lsr	w4, w2, 5
	and	w3, w2, 15
	.loc 1 479 0
	add	w20, w20, w1
	.loc 1 478 0
	lsl	w19, w19, w4
.LVL14:
	orr	w19, w19, w3
.LVL15:
	.loc 1 481 0
	bl	BsSkip
.LVL16:
	.loc 1 483 0 discriminator 1
	tbz	x20, 0, .L4
	.loc 1 485 0
	str	w19, [x23]
	.loc 1 488 0
	mov	w0, w20
	ldp	x19, x20, [sp,16]
	.cfi_restore 20
	.cfi_restore 19
.LVL17:
	ldp	x21, x22, [sp,32]
	.cfi_restore 22
	.cfi_restore 21
.LVL18:
	ldr	x23, [sp,48]
	.cfi_restore 23
.LVL19:
	ldp	x29, x30, [sp], 64
	.cfi_restore 30
	.cfi_restore 29
	.cfi_def_cfa 31, 0
	ret
	.cfi_endproc
.LFE2640:
	.size	Real9_CB_GetVLCBits, .-Real9_CB_GetVLCBits
	.align	2
	.global	Real9_GetImageBuffer
	.type	Real9_GetImageBuffer, %function
Real9_GetImageBuffer:
.LFB2641:
	.loc 1 500 0
	.cfi_startproc
.LVL20:
	stp	x29, x30, [sp, -48]!
	.cfi_def_cfa_offset 48
	.cfi_offset 29, -48
	.cfi_offset 30, -40
	.loc 1 508 0
	mov	w1, 1
	.loc 1 500 0
	add	x29, sp, 0
	.cfi_def_cfa_register 29
	stp	x21, x22, [sp,32]
	.cfi_offset 21, -16
	.cfi_offset 22, -8
	mov	x21, x0
	.loc 1 508 0
	add	x22, x0, 49152
	.loc 1 500 0
	stp	x19, x20, [sp,16]
	.cfi_offset 19, -32
	.cfi_offset 20, -24
	.loc 1 508 0
	add	x19, x21, 8192
	add	x19, x19, 3168
	ldr	w0, [x22,3328]
.LVL21:
	add	x20, x19, 16384
	bl	FSP_NewLogicFs
.LVL22:
	mov	w1, w0
	str	w0, [x20,4088]
	.loc 1 509 0
	tbnz	w1, #31, .L15
.LBB77:
	.loc 1 522 0
	ldr	w0, [x22,3328]
	bl	FSP_GetLogicFs
.LVL23:
	mov	x19, x0
.LVL24:
	.loc 1 523 0
	cbz	x0, .L16
	.loc 1 529 0
	ldr	w2, [x20,4088]
	adrp	x1, .LC2
	mov	w0, 18
	add	x1, x1, :lo12:.LC2
	bl	dprint_linux_kernel
.LVL25:
	.loc 1 530 0
	ldr	x0, [x19,296]
	cbz	x0, .L14
	.loc 1 530 0 is_stmt 0 discriminator 1
	ldr	x1, [x19,304]
	cbz	x1, .L14
	.loc 1 530 0 discriminator 2
	ldr	x4, [x19,312]
	cbz	x4, .L14
	.loc 1 532 0 is_stmt 1
	ldr	w2, [x0,12]
	mov	w0, 18
	ldr	w3, [x1,12]
	adrp	x1, .LC3
	ldr	w4, [x4,12]
	add	x1, x1, :lo12:.LC3
	bl	dprint_linux_kernel
.LVL26:
.LBE77:
	.loc 1 540 0
	mov	w0, 1
.L10:
	.loc 1 541 0
	ldp	x19, x20, [sp,16]
	.cfi_remember_state
	.cfi_restore 20
	.cfi_restore 19
.LVL27:
	ldp	x21, x22, [sp,32]
	.cfi_restore 22
	.cfi_restore 21
.LVL28:
	ldp	x29, x30, [sp], 48
	.cfi_restore 30
	.cfi_restore 29
	.cfi_def_cfa 31, 0
	ret
.LVL29:
.L14:
	.cfi_restore_state
	.loc 1 540 0
	mov	w0, 1
	.loc 1 541 0
	ldp	x19, x20, [sp,16]
	.cfi_remember_state
	.cfi_restore 19
	.cfi_restore 20
.LVL30:
	ldp	x21, x22, [sp,32]
	.cfi_restore 21
	.cfi_restore 22
.LVL31:
	ldp	x29, x30, [sp], 48
	.cfi_restore 29
	.cfi_restore 30
	.cfi_def_cfa 31, 0
	ret
.LVL32:
.L15:
	.cfi_restore_state
	.loc 1 512 0
	adrp	x1, .LC0
	mov	w0, 0
	add	x1, x1, :lo12:.LC0
	bl	dprint_linux_kernel
.LVL33:
	.loc 1 513 0
	ldr	w0, [x22,3328]
	mov	w2, 1
	ldr	w1, [x20,4084]
	bl	FSP_ClearLogicFs
.LVL34:
	.loc 1 513 0 is_stmt 0 discriminator 1
	ldr	w1, [x20,4080]
	mov	w2, 1
	ldr	w0, [x22,3328]
	bl	FSP_ClearLogicFs
.LVL35:
	.loc 1 513 0
	str	wzr, [x20,4080]
	str	wzr, [x20,4084]
	.loc 1 513 0 discriminator 2
	ldr	w0, [x22,3328]
	bl	FSP_GetNullLogicFs
.LVL36:
	.loc 1 513 0
	str	w0, [x20,4084]
	str	w0, [x20,4080]
	.loc 1 515 0 is_stmt 1
	add	x1, x21, 28672
	.loc 1 514 0
	strb	wzr, [x19,25]
	.loc 1 515 0
	add	x1, x1, 3208
	ldr	w0, [x22,3328]
	bl	FSP_ClearNotInVoQueue
.LVL37:
	.loc 1 517 0
	mov	w0, 0
	.loc 1 541 0
	ldp	x19, x20, [sp,16]
	.cfi_remember_state
	.cfi_restore 19
	.cfi_restore 20
	ldp	x21, x22, [sp,32]
	.cfi_restore 21
	.cfi_restore 22
.LVL38:
	ldp	x29, x30, [sp], 48
	.cfi_restore 29
	.cfi_restore 30
	.cfi_def_cfa 31, 0
	ret
.LVL39:
.L16:
	.cfi_restore_state
.LBB78:
	.loc 1 525 0
	adrp	x1, .LC1
	mov	w0, 22
.LVL40:
	add	x1, x1, :lo12:.LC1
	mov	w2, 525
	bl	dprint_linux_kernel
.LVL41:
	.loc 1 526 0
	mov	w0, 0
	b	.L10
.LBE78:
	.cfi_endproc
.LFE2641:
	.size	Real9_GetImageBuffer, .-Real9_GetImageBuffer
	.align	2
	.global	Real9_ArrangeVHBMem
	.type	Real9_ArrangeVHBMem, %function
Real9_ArrangeVHBMem:
.LFB2642:
	.loc 1 553 0
	.cfi_startproc
.LVL42:
	stp	x29, x30, [sp, -96]!
	.cfi_def_cfa_offset 96
	.cfi_offset 29, -96
	.cfi_offset 30, -88
	add	x29, sp, 0
	.cfi_def_cfa_register 29
	stp	x19, x20, [sp,16]
	stp	x21, x22, [sp,32]
	.cfi_offset 19, -80
	.cfi_offset 20, -72
	.cfi_offset 21, -64
	.cfi_offset 22, -56
	.loc 1 553 0
	adrp	x20, __stack_chk_guard
	mov	x19, x1
	.loc 1 565 0
	ldr	w4, [x2,24]
	ldr	w3, [x2,20]
	.loc 1 553 0
	ldr	x0, [x20,#:lo12:__stack_chk_guard]
.LVL43:
	.loc 1 565 0
	cmp	w4, 1
	.loc 1 553 0
	str	x0, [x29,88]
	.loc 1 565 0
	bls	.L19
	.loc 1 565 0 is_stmt 0 discriminator 1
	cmp	w3, 1
	bls	.L19
	.loc 1 571 0 is_stmt 1
	ldr	x0, [x1]
	ldr	w1, [x0,772]
.LVL44:
	cbnz	w1, .L22
	.loc 1 571 0 is_stmt 0 discriminator 1
	ldr	w1, [x0,28]
	cmp	w1, 25
	beq	.L45
.L23:
	.loc 1 604 0 is_stmt 1
	ldr	w6, [x2,16]
	mov	w8, 5
	.loc 1 605 0
	ldr	w3, [x2,12]
	.loc 1 606 0
	mov	w7, 4
.LVL45:
	.loc 1 607 0
	mov	w2, 2
.LVL46:
	.loc 1 604 0
	mov	w4, w6
.LVL47:
	.loc 1 605 0
	mov	w5, w3
.LVL48:
.L28:
	.loc 1 635 0
	add	x1, x19, 28672
	.loc 1 638 0
	str	wzr, [x29,80]
	stp	xzr, xzr, [x29,64]
	.loc 1 639 0
	str	w4, [x29,68]
	.loc 1 635 0
	str	w6, [x1,1980]
	.loc 1 636 0
	str	w3, [x1,1984]
	.loc 1 640 0
	str	w5, [x29,72]
	.loc 1 641 0
	ldr	w0, [x0,28]
	cmp	w0, 24
	beq	.L40
	.loc 1 641 0 is_stmt 0 discriminator 1
	strb	w7, [x29,65]
	.loc 1 643 0 is_stmt 1 discriminator 1
	sxtb	w2, w2
.LVL49:
.L34:
	.loc 1 646 0
	add	x22, x19, 49152
	add	x1, x29, 64
	strb	w8, [x29,66]
	.loc 1 659 0
	mov	w21, 0
	.loc 1 643 0 discriminator 4
	strb	w2, [x29,67]
	.loc 1 646 0
	ldr	w0, [x22,3328]
	bl	FSP_ConfigInstance
.LVL50:
	cbz	w0, .L46
.LVL51:
.L21:
	.loc 1 665 0
	ldr	x2, [x29,88]
.LVL52:
	mov	w0, w21
	ldr	x1, [x20,#:lo12:__stack_chk_guard]
	cmp	x2, x1
	bne	.L47
	ldp	x19, x20, [sp,16]
	.cfi_remember_state
	.cfi_restore 20
	.cfi_restore 19
.LVL53:
	ldp	x21, x22, [sp,32]
	.cfi_restore 22
	.cfi_restore 21
	ldp	x29, x30, [sp], 96
	.cfi_restore 30
	.cfi_restore 29
	.cfi_def_cfa 31, 0
	ret
.LVL54:
.L22:
	.cfi_restore_state
	.loc 1 602 0
	ldr	w1, [x0,28]
	cmp	w1, 25
	bne	.L23
	.loc 1 612 0
	ldr	w6, [x2,16]
	ldr	w4, [x0,732]
	cmp	w6, w4
	bhi	.L48
	.loc 1 612 0 is_stmt 0 discriminator 1
	ldr	w3, [x2,12]
	ldr	w5, [x0,736]
	cmp	w3, w5
	bhi	.L31
	.loc 1 623 0 is_stmt 1
	ldr	w1, [x0,760]
	.loc 1 625 0
	mov	w2, 1
.LVL55:
	.loc 1 622 0
	ldr	w7, [x0,756]
	.loc 1 619 0
	mov	w4, w6
.LVL56:
	.loc 1 620 0
	mov	w5, w3
.LVL57:
	.loc 1 622 0
	add	w7, w7, w2
.LVL58:
	.loc 1 623 0
	cbnz	w1, .L44
.L33:
	ldrsb	w8, [x0,780]
	b	.L28
.LVL59:
.L19:
	.loc 1 567 0
	adrp	x1, .LC4
	mov	w2, w4
.LVL60:
	add	x1, x1, :lo12:.LC4
	mov	w0, 0
	.loc 1 568 0
	mov	w21, 0
	.loc 1 567 0
	bl	dprint_linux_kernel
.LVL61:
	.loc 1 568 0
	b	.L21
.L46:
.LBB79:
	.loc 1 649 0
	ldr	x2, [x19]
	add	x3, x29, 60
	ldr	w0, [x22,3328]
	ldr	w1, [x2,20]
	ldr	w2, [x2,24]
	bl	FSP_PartitionFsMemory
.LVL62:
	.loc 1 651 0
	cbnz	w0, .L21
.LBE79:
	.loc 1 662 0
	add	x19, x19, 8192
.LVL63:
	mov	w0, 1
	.loc 1 664 0
	mov	w21, 1
	.loc 1 662 0
	strb	w0, [x19,3196]
	.loc 1 664 0
	b	.L21
.LVL64:
.L45:
	.loc 1 573 0
	ldr	w4, [x0,732]
	ldr	w7, [x2,16]
.LVL65:
	mov	w6, w4
	ldr	w5, [x0,736]
	cmp	w7, w4
	ldr	w8, [x2,12]
	bhi	.L25
.LVL66:
	.loc 1 573 0 is_stmt 0 discriminator 1
	cmp	w8, w5
	mov	w3, w5
	bhi	.L25
	.loc 1 585 0 is_stmt 1
	add	x1, x19, 8192
	ldrb	w21, [x1,3196]
	cmp	w21, 1
	beq	.L21
	.loc 1 591 0
	ldr	w1, [x0,760]
	.loc 1 593 0
	mov	w2, 1
.LVL67:
	.loc 1 590 0
	ldr	w7, [x0,756]
	add	w7, w7, w2
.LVL68:
	.loc 1 591 0
	cbz	w1, .L33
.L44:
	.loc 1 630 0
	cmp	w7, 17
	mov	w2, 17
	csel	w2, w7, w2, le
.LVL69:
	ldrsb	w8, [x0,780]
	b	.L28
.L40:
	.loc 1 643 0 discriminator 2
	mov	w2, 1
.LVL70:
	b	.L34
.LVL71:
.L48:
	ldr	w5, [x0,736]
	ldr	w3, [x2,12]
.L31:
	.loc 1 614 0
	adrp	x1, .LC5
	mov	w2, w6
.LVL72:
	add	x1, x1, :lo12:.LC5
	mov	w0, 0
	.loc 1 617 0
	mov	w21, 0
	.loc 1 614 0
	bl	dprint_linux_kernel
.LVL73:
	.loc 1 617 0
	b	.L21
.LVL74:
.L25:
	.loc 1 575 0
	adrp	x1, .LC5
	mov	w2, w7
.LVL75:
	add	x1, x1, :lo12:.LC5
	mov	w3, w8
	mov	w0, 0
	.loc 1 578 0
	mov	w21, 0
	.loc 1 575 0
	bl	dprint_linux_kernel
.LVL76:
	.loc 1 578 0
	b	.L21
.LVL77:
.L47:
	.loc 1 665 0
	bl	__stack_chk_fail
.LVL78:
	.cfi_endproc
.LFE2642:
	.size	Real9_ArrangeVHBMem, .-Real9_ArrangeVHBMem
	.align	2
	.global	Real9_CB_GetCPFMT
	.type	Real9_CB_GetCPFMT, %function
Real9_CB_GetCPFMT:
.LFB2643:
	.loc 1 669 0
	.cfi_startproc
.LVL79:
	stp	x29, x30, [sp, -48]!
	.cfi_def_cfa_offset 48
	.cfi_offset 29, -48
	.cfi_offset 30, -40
	add	x29, sp, 0
	.cfi_def_cfa_register 29
	stp	x21, x22, [sp,32]
	.cfi_offset 21, -16
	.cfi_offset 22, -8
	mov	x21, x1
.LBB94:
.LBB95:
	.loc 1 162 0
	mov	w1, 4
.LVL80:
.LBE95:
.LBE94:
	.loc 1 669 0
	stp	x19, x20, [sp,16]
	.cfi_offset 19, -32
	.cfi_offset 20, -24
	.loc 1 669 0
	mov	x19, x0
.LBB97:
.LBB96:
	.loc 1 162 0
	bl	BsShow
.LVL81:
	.loc 1 163 0
	mov	w1, 4
	.loc 1 162 0
	mov	w20, w0
	.loc 1 163 0
	mov	x0, x19
	bl	BsSkip
.LVL82:
.LBE96:
.LBE97:
	.loc 1 670 0
	strb	w20, [x21]
.LBB98:
.LBB99:
	.loc 1 162 0
	mov	w1, 9
	mov	x0, x19
	bl	BsShow
.LVL83:
	mov	w20, w0
	.loc 1 163 0
	mov	w1, 9
	mov	x0, x19
.LBE99:
.LBE98:
	.loc 1 671 0
	add	w20, w20, 1
.LBB101:
.LBB100:
	.loc 1 163 0
	bl	BsSkip
.LVL84:
.LBE100:
.LBE101:
	.loc 1 671 0
	lsl	w20, w20, 2
.LBB102:
.LBB103:
	.loc 1 173 0
	mov	w1, 1
.LBE103:
.LBE102:
	.loc 1 671 0
	str	w20, [x21,16]
.LBB105:
.LBB104:
	.loc 1 173 0
	mov	x0, x19
	bl	BsShow
.LVL85:
	mov	w20, w0
	.loc 1 174 0
	mov	w1, 1
	mov	x0, x19
	bl	BsSkip
.LVL86:
.LBE104:
.LBE105:
	.loc 1 674 0
	cmp	w20, 1
	beq	.L52
	.loc 1 676 0
	mov	w20, 0
	.loc 1 683 0
	mov	w0, w20
	ldp	x19, x20, [sp,16]
	.cfi_remember_state
	.cfi_restore 20
	.cfi_restore 19
.LVL87:
	ldp	x21, x22, [sp,32]
	.cfi_restore 22
	.cfi_restore 21
.LVL88:
	ldp	x29, x30, [sp], 48
	.cfi_restore 30
	.cfi_restore 29
	.cfi_def_cfa 31, 0
	ret
.LVL89:
.L52:
	.cfi_restore_state
.LBB106:
.LBB107:
.LBB108:
.LBB109:
	.loc 1 162 0
	mov	w1, 9
	mov	x0, x19
	bl	BsShow
.LVL90:
	mov	w22, w0
	.loc 1 163 0
	mov	w1, 9
	mov	x0, x19
.LBE109:
.LBE108:
	.loc 1 680 0
	lsl	w22, w22, 2
.LBB111:
.LBB110:
	.loc 1 163 0
	bl	BsSkip
.LVL91:
.LBE110:
.LBE111:
	.loc 1 680 0
	str	w22, [x21,12]
.LBE107:
.LBE106:
	.loc 1 683 0
	mov	w0, w20
	ldp	x19, x20, [sp,16]
	.cfi_restore 19
	.cfi_restore 20
.LVL92:
	ldp	x21, x22, [sp,32]
	.cfi_restore 21
	.cfi_restore 22
.LVL93:
	ldp	x29, x30, [sp], 48
	.cfi_restore 29
	.cfi_restore 30
	.cfi_def_cfa 31, 0
	ret
	.cfi_endproc
.LFE2643:
	.size	Real9_CB_GetCPFMT, .-Real9_CB_GetCPFMT
	.align	2
	.global	Real9_CB_SetDimensions
	.type	Real9_CB_SetDimensions, %function
Real9_CB_SetDimensions:
.LFB2644:
	.loc 1 696 0
	.cfi_startproc
.LVL94:
	.loc 1 703 0
	ldr	w1, [x0,16]
	.loc 1 703 0 is_stmt 0 discriminator 1
	ldr	w2, [x0,12]
	.loc 1 703 0
	cmp	w1, 128
	beq	.L70
	.loc 1 708 0 is_stmt 1
	cmp	w1, 176
	beq	.L71
	.loc 1 713 0
	cmp	w1, 352
	bne	.L59
	.loc 1 713 0 is_stmt 0 discriminator 1
	cmp	w2, 288
	beq	.L72
.L55:
	.loc 1 730 0 is_stmt 1
	add	x0, x0, 64
.LVL95:
	add	w1, w1, 15
	.loc 1 731 0
	add	w2, w2, 15
	.loc 1 730 0
	lsr	w1, w1, 4
	.loc 1 731 0
	lsr	w2, w2, 4
	.loc 1 730 0
	str	w1, [x0,12]
	mul	w1, w2, w1
	.loc 1 731 0
	str	w2, [x0,8]
	.loc 1 736 0
	mov	w2, 0
.LVL96:
	sub	w1, w1, #1
	.loc 1 736 0 is_stmt 0 discriminator 3
	cmp	w1, 47
	bls	.L62
	cmp	w1, 98
	bls	.L65
	cmp	w1, 395
	bls	.L66
	cmp	w1, 1583
	bls	.L67
.L69:
	mov	w2, 6335
.LVL97:
	.loc 1 736 0 discriminator 4
	cmp	w1, w2
	mov	w2, 4
	mov	w1, 5
	csel	w2, w1, w2, hi
.LVL98:
.L62:
	.loc 1 738 0 is_stmt 1
	adrp	x1, .LANCHOR0
	add	x1, x1, :lo12:.LANCHOR0
	add	x1, x1, 256
	ldr	w1, [x1,w2,uxtw 2]
	str	w1, [x0,16]
	.loc 1 739 0
	ret
.LVL99:
.L71:
	.loc 1 708 0 discriminator 1
	cmp	w2, 144
	bne	.L55
	.loc 1 710 0
	add	x0, x0, 64
.LVL100:
	mov	w1, 11
	str	w1, [x0,12]
	.loc 1 711 0
	mov	w1, 9
	str	w1, [x0,8]
.LVL101:
.L65:
	.loc 1 736 0 discriminator 4
	mov	w2, 1
	b	.L62
.LVL102:
.L59:
	.loc 1 718 0
	cmp	w1, 704
	beq	.L73
	.loc 1 723 0
	cmp	w1, 1408
	bne	.L55
	.loc 1 723 0 is_stmt 0 discriminator 1
	cmp	w2, 1152
	bne	.L55
	.loc 1 725 0 is_stmt 1
	add	x0, x0, 64
.LVL103:
	mov	w2, 88
	.loc 1 726 0
	mov	w1, 6335
	.loc 1 725 0
	str	w2, [x0,12]
	.loc 1 726 0
	mov	w2, 72
	str	w2, [x0,8]
	b	.L69
.LVL104:
.L70:
	.loc 1 703 0 discriminator 1
	cmp	w2, 96
	bne	.L55
	.loc 1 705 0
	add	x0, x0, 64
.LVL105:
	mov	w1, 8
	.loc 1 736 0
	mov	w2, 0
.LVL106:
	.loc 1 705 0
	str	w1, [x0,12]
	.loc 1 706 0
	mov	w1, 6
	str	w1, [x0,8]
	b	.L62
.LVL107:
.L73:
	.loc 1 718 0 discriminator 1
	cmp	w2, 576
	bne	.L55
	.loc 1 720 0
	add	x0, x0, 64
.LVL108:
	mov	w1, 44
	str	w1, [x0,12]
	.loc 1 721 0
	mov	w1, 36
	str	w1, [x0,8]
.LVL109:
.L67:
	.loc 1 736 0 discriminator 4
	mov	w2, 3
	b	.L62
.LVL110:
.L72:
	.loc 1 715 0
	add	x0, x0, 64
.LVL111:
	mov	w1, 22
	str	w1, [x0,12]
	.loc 1 716 0
	mov	w1, 18
	str	w1, [x0,8]
.LVL112:
.L66:
	.loc 1 736 0 discriminator 4
	mov	w2, 2
	b	.L62
	.cfi_endproc
.LFE2644:
	.size	Real9_CB_SetDimensions, .-Real9_CB_SetDimensions
	.align	2
	.global	Real9_CB_GetPicSize
	.type	Real9_CB_GetPicSize, %function
Real9_CB_GetPicSize:
.LFB2645:
	.loc 1 747 0
	.cfi_startproc
.LVL113:
	stp	x29, x30, [sp, -192]!
	.cfi_def_cfa_offset 192
	.cfi_offset 29, -192
	.cfi_offset 30, -184
	.loc 1 751 0
	mov	w5, 240
	.loc 1 747 0
	add	x29, sp, 0
	.cfi_def_cfa_register 29
	str	x25, [sp,64]
	.cfi_offset 25, -128
	mov	x25, x2
	.loc 1 751 0
	mov	w2, 320
.LVL114:
	str	w2, [x29,132]
	mov	w2, 352
	str	w2, [x29,136]
	mov	w2, 640
	str	w2, [x29,140]
	mov	w2, 704
	str	w2, [x29,144]
	.loc 1 752 0
	mov	w2, 120
	.loc 1 747 0
	stp	x23, x24, [sp,48]
	stp	x19, x20, [sp,16]
	stp	x21, x22, [sp,32]
	.cfi_offset 23, -144
	.cfi_offset 24, -136
	.cfi_offset 19, -176
	.cfi_offset 20, -168
	.cfi_offset 21, -160
	.cfi_offset 22, -152
	.loc 1 752 0
	str	w2, [x29,152]
	mov	w2, 132
	str	w2, [x29,156]
	mov	w2, 144
	.loc 1 747 0
	adrp	x23, __stack_chk_guard
	.loc 1 757 0
	ldr	w4, [x1,20]
	.loc 1 752 0
	str	w2, [x29,160]
	mov	w2, 288
	str	w2, [x29,168]
	mov	w2, 480
	.loc 1 757 0
	sub	w4, w4, #2
	.loc 1 752 0
	str	w2, [x29,172]
	.loc 1 753 0
	mov	w2, 180
	.loc 1 747 0
	ldr	x6, [x23,#:lo12:__stack_chk_guard]
	.loc 1 757 0
	cmp	w4, 1
	.loc 1 753 0
	str	w2, [x29,104]
	.loc 1 751 0
	mov	w4, 160
	.loc 1 753 0
	mov	w2, 360
	.loc 1 751 0
	str	w4, [x29,120]
	mov	w4, 176
	.loc 1 753 0
	str	w2, [x29,108]
	mov	w2, 576
	.loc 1 747 0
	str	x6, [x29,184]
	mov	x19, x0
	.loc 1 751 0
	str	w4, [x29,124]
	.loc 1 747 0
	mov	x24, x3
	.loc 1 751 0
	str	w5, [x29,128]
	str	wzr, [x29,148]
	.loc 1 752 0
	str	w5, [x29,164]
	str	wzr, [x29,176]
	str	wzr, [x29,180]
	.loc 1 753 0
	str	w2, [x29,112]
	str	wzr, [x29,116]
	.loc 1 757 0
	bls	.L89
.L75:
.LBB112:
.LBB113:
	.loc 1 162 0
	mov	w1, 3
.LVL115:
	mov	x0, x19
	bl	BsShow
.LVL116:
	mov	w20, w0
	.loc 1 163 0
	mov	w1, 3
	mov	x0, x19
	bl	BsSkip
.LVL117:
.LBE113:
.LBE112:
	.loc 1 770 0
	add	x0, x29, 120
	ldr	w21, [x0,w20,uxtw 2]
.LVL118:
	.loc 1 771 0
	cbz	w21, .L78
.L77:
.LBB114:
.LBB115:
	.loc 1 162 0
	mov	w1, 3
	mov	x0, x19
	bl	BsShow
.LVL119:
	mov	w22, w0
	.loc 1 163 0
	mov	w1, 3
	mov	x0, x19
	bl	BsSkip
.LVL120:
.LBE115:
.LBE114:
	.loc 1 784 0
	add	x0, x29, 152
	ldr	w20, [x0,w22,uxtw 2]
.LVL121:
	.loc 1 785 0
	cbz	w20, .L90
.L79:
	.loc 1 802 0
	str	w21, [x25]
	.loc 1 803 0
	str	w20, [x24]
.LVL122:
.L74:
	.loc 1 804 0
	ldr	x1, [x29,184]
.LVL123:
	ldr	x0, [x23,#:lo12:__stack_chk_guard]
	cmp	x1, x0
	bne	.L91
	ldp	x19, x20, [sp,16]
	.cfi_remember_state
	.cfi_restore 20
	.cfi_restore 19
.LVL124:
	ldp	x21, x22, [sp,32]
	.cfi_restore 22
	.cfi_restore 21
.LVL125:
	ldp	x23, x24, [sp,48]
	.cfi_restore 24
	.cfi_restore 23
.LVL126:
	ldr	x25, [sp,64]
	.cfi_restore 25
.LVL127:
	ldp	x29, x30, [sp], 192
	.cfi_restore 30
	.cfi_restore 29
	.cfi_def_cfa 31, 0
	ret
.LVL128:
.L78:
	.cfi_restore_state
.LBB116:
.LBB117:
	.loc 1 162 0
	mov	w1, 8
	mov	x0, x19
	bl	BsShow
.LVL129:
	mov	w20, w0
	.loc 1 163 0
	mov	w1, 8
	mov	x0, x19
.LBE117:
.LBE116:
	.loc 1 776 0
	add	w21, w21, w20, lsl 2
.LBB119:
.LBB118:
	.loc 1 163 0
	bl	BsSkip
.LVL130:
.LBE118:
.LBE119:
	.loc 1 778 0 discriminator 1
	cmp	w20, 255
	beq	.L78
	b	.L77
.LVL131:
.L89:
	str	x1, [x29,88]
	.loc 1 760 0
	bl	Real9_CB_Get1Bit
.LVL132:
	ldr	x1, [x29,88]
.LVL133:
	cbz	w0, .L75
	.loc 1 762 0
	ldr	w0, [x1,52]
	str	w0, [x25]
	.loc 1 763 0
	ldr	w0, [x1,56]
	str	w0, [x24]
	b	.L74
.LVL134:
.L90:
	.loc 1 788 0
	mov	x0, x19
	.loc 1 787 0
	lsl	w22, w22, 1
	.loc 1 788 0
	bl	Real9_CB_Get1Bit
.LVL135:
	orr	w0, w0, w22
	.loc 1 789 0
	and	w0, w0, 3
	.loc 1 790 0
	add	x1, x29, 104
	ldr	w20, [x1,w0,uxtw 2]
.LVL136:
	.loc 1 791 0
	cbnz	w20, .L79
.L80:
.LBB120:
.LBB121:
	.loc 1 162 0
	mov	w1, 8
	mov	x0, x19
	bl	BsShow
.LVL137:
	mov	w22, w0
	.loc 1 163 0
	mov	w1, 8
	mov	x0, x19
.LBE121:
.LBE120:
	.loc 1 796 0
	add	w20, w20, w22, lsl 2
.LBB123:
.LBB122:
	.loc 1 163 0
	bl	BsSkip
.LVL138:
.LBE122:
.LBE123:
	.loc 1 798 0 discriminator 1
	cmp	w22, 255
	beq	.L80
	b	.L79
.L91:
	.loc 1 804 0
	bl	__stack_chk_fail
.LVL139:
	.cfi_endproc
.LFE2645:
	.size	Real9_CB_GetPicSize, .-Real9_CB_GetPicSize
	.align	2
	.global	Real9_CB_FindNextSliceStartCode
	.type	Real9_CB_FindNextSliceStartCode, %function
Real9_CB_FindNextSliceStartCode:
.LFB2646:
	.loc 1 825 0
	.cfi_startproc
.LVL140:
	stp	x29, x30, [sp, -48]!
	.cfi_def_cfa_offset 48
	.cfi_offset 29, -48
	.cfi_offset 30, -40
	add	x29, sp, 0
	.cfi_def_cfa_register 29
	stp	x19, x20, [sp,16]
	str	x21, [sp,32]
	.cfi_offset 19, -32
	.cfi_offset 20, -24
	.cfi_offset 21, -16
	.loc 1 825 0
	mov	x20, x0
	.loc 1 828 0
	bl	BsToNextByte
.LVL141:
	.loc 1 831 0 discriminator 1
	mov	w19, 0
.LVL142:
	.loc 1 830 0
	mov	x0, x20
	bl	BsResidBits
.LVL143:
	cmp	w0, wzr
	add	w1, w0, 7
	csel	w21, w1, w0, lt
	asr	w21, w21, 3
	sub	w21, w21, #2
.LVL144:
	.loc 1 831 0 discriminator 1
	cmp	w21, wzr
	bgt	.L98
	b	.L96
.L100:
	.loc 1 838 0
	bl	BsSkip
.LVL145:
	.loc 1 831 0 discriminator 1
	cmp	w19, w21
	beq	.L96
.L98:
	.loc 1 833 0
	mov	w1, 24
	mov	x0, x20
	.loc 1 831 0 discriminator 2
	add	w19, w19, 1
	.loc 1 833 0
	bl	BsShow
.LVL146:
	mov	w2, 7184
	.loc 1 838 0
	mov	w1, 8
	.loc 1 833 0
	movk	w2, 0x1d, lsl 16
	cmp	w0, w2
	.loc 1 838 0
	mov	x0, x20
	.loc 1 833 0
	bne	.L100
	.loc 1 835 0
	mov	w0, 1
	.loc 1 842 0
	ldr	x21, [sp,32]
	.cfi_remember_state
	.cfi_restore 21
.LVL147:
	ldp	x19, x20, [sp,16]
	.cfi_restore 19
	.cfi_restore 20
.LVL148:
	ldp	x29, x30, [sp], 48
	.cfi_restore 29
	.cfi_restore 30
	.cfi_def_cfa 31, 0
	ret
.LVL149:
.L96:
	.cfi_restore_state
	.loc 1 841 0
	mov	w0, 0
	.loc 1 842 0
	ldr	x21, [sp,32]
	.cfi_restore 21
.LVL150:
	ldp	x19, x20, [sp,16]
	.cfi_restore 20
	.cfi_restore 19
.LVL151:
	ldp	x29, x30, [sp], 48
	.cfi_restore 30
	.cfi_restore 29
	.cfi_def_cfa 31, 0
	ret
	.cfi_endproc
.LFE2646:
	.size	Real9_CB_FindNextSliceStartCode, .-Real9_CB_FindNextSliceStartCode
	.align	2
	.global	Real9_CB_SearchBits_IgnoreOnly0
	.type	Real9_CB_SearchBits_IgnoreOnly0, %function
Real9_CB_SearchBits_IgnoreOnly0:
.LFB2647:
	.loc 1 858 0
	.cfi_startproc
.LVL152:
	stp	x29, x30, [sp, -80]!
	.cfi_def_cfa_offset 80
	.cfi_offset 29, -80
	.cfi_offset 30, -72
	.loc 1 861 0
	sub	w4, w1, #1
	.loc 1 858 0
	add	x29, sp, 0
	.cfi_def_cfa_register 29
	stp	x21, x22, [sp,32]
	.cfi_offset 21, -48
	.cfi_offset 22, -40
	.loc 1 861 0
	mov	w22, 1
	.loc 1 858 0
	str	x25, [sp,64]
	stp	x23, x24, [sp,48]
	stp	x19, x20, [sp,16]
	.cfi_offset 25, -16
	.cfi_offset 23, -32
	.cfi_offset 24, -24
	.cfi_offset 19, -64
	.cfi_offset 20, -56
	.loc 1 858 0
	mov	w23, w2
	mov	w25, w1
	mov	x21, x0
	mov	w24, w3
	.loc 1 861 0
	lsl	w22, w22, w4
.LVL153:
.LBB128:
.LBB129:
	.loc 1 162 0
	bl	BsShow
.LVL154:
	.loc 1 163 0
	mov	w1, w25
	.loc 1 162 0
	mov	w19, w0
.LVL155:
	.loc 1 163 0
	mov	x0, x21
	bl	BsSkip
.LVL156:
.LBE129:
.LBE128:
	.loc 1 865 0 discriminator 1
	cmp	w23, w19
	beq	.L102
	cbz	w24, .L102
	.loc 1 867 0
	tst	w19, w22
	bne	.L103
	adrp	x0, .LANCHOR0
	mov	w20, 0
.LVL157:
	add	x0, x0, :lo12:.LANCHOR0
	add	x0, x0, 280
	ldr	w25, [x0,w25,uxtw 2]
.LVL158:
.L104:
.LBB130:
.LBB131:
	.loc 1 173 0
	mov	w1, 1
	mov	x0, x21
.LBE131:
.LBE130:
	.loc 1 865 0 discriminator 2
	add	w20, w20, w1
	.loc 1 868 0
	and	w19, w25, w19, lsl 1
.LVL159:
.LBB134:
.LBB132:
	.loc 1 173 0
	bl	BsShow
.LVL160:
	mov	w2, w0
	.loc 1 174 0
	mov	w1, 1
	mov	x0, x21
.LBE132:
.LBE134:
	.loc 1 868 0
	orr	w19, w2, w19
.LVL161:
.LBB135:
.LBB133:
	.loc 1 174 0
	bl	BsSkip
.LVL162:
.LBE133:
.LBE135:
	.loc 1 865 0 discriminator 1
	cmp	w23, w19
	beq	.L102
	cmp	w24, w20
	bls	.L102
	.loc 1 867 0
	tst	w19, w22
	beq	.L104
.LVL163:
.L103:
	.loc 1 877 0
	mov	w0, 0
	.loc 1 879 0
	ldr	x25, [sp,64]
	.cfi_remember_state
	.cfi_restore 25
.LVL164:
	ldp	x19, x20, [sp,16]
	.cfi_restore 19
	.cfi_restore 20
.LVL165:
	ldp	x21, x22, [sp,32]
	.cfi_restore 21
	.cfi_restore 22
.LVL166:
	ldp	x23, x24, [sp,48]
	.cfi_restore 23
	.cfi_restore 24
.LVL167:
	ldp	x29, x30, [sp], 80
	.cfi_restore 29
	.cfi_restore 30
	.cfi_def_cfa 31, 0
	ret
.LVL168:
.L102:
	.cfi_restore_state
	.loc 1 871 0
	cmp	w23, w19
	.loc 1 879 0
	ldr	x25, [sp,64]
	.cfi_restore 25
.LVL169:
	.loc 1 871 0
	cset	w0, eq
	.loc 1 879 0
	ldp	x19, x20, [sp,16]
	.cfi_restore 20
	.cfi_restore 19
.LVL170:
	ldp	x21, x22, [sp,32]
	.cfi_restore 22
	.cfi_restore 21
.LVL171:
	ldp	x23, x24, [sp,48]
	.cfi_restore 24
	.cfi_restore 23
.LVL172:
	ldp	x29, x30, [sp], 80
	.cfi_restore 30
	.cfi_restore 29
	.cfi_def_cfa 31, 0
	ret
	.cfi_endproc
.LFE2647:
	.size	Real9_CB_SearchBits_IgnoreOnly0, .-Real9_CB_SearchBits_IgnoreOnly0
	.align	2
	.global	Real9_CB_GetSSC
	.type	Real9_CB_GetSSC, %function
Real9_CB_GetSSC:
.LFB2648:
	.loc 1 883 0
	.cfi_startproc
.LVL173:
	stp	x29, x30, [sp, -16]!
	.cfi_def_cfa_offset 16
	.cfi_offset 29, -16
	.cfi_offset 30, -8
	add	x29, sp, 0
	.cfi_def_cfa_register 29
	.loc 1 884 0
	ldr	w2, [x1,4]
	.loc 1 894 0
	mov	w1, 0
.LVL174:
	.loc 1 884 0
	cmp	w2, 1
	beq	.L118
	.loc 1 889 0
	bl	Real9_CB_FindNextSliceStartCode
.LVL175:
	cmp	w0, wzr
	cset	w1, ne
.LVL176:
.L118:
	.loc 1 895 0
	mov	w0, w1
.LVL177:
	ldp	x29, x30, [sp], 16
	.cfi_restore 30
	.cfi_restore 29
	.cfi_def_cfa 31, 0
	ret
	.cfi_endproc
.LFE2648:
	.size	Real9_CB_GetSSC, .-Real9_CB_GetSSC
	.align	2
	.global	Real9_CB_GetSliceHeader
	.type	Real9_CB_GetSliceHeader, %function
Real9_CB_GetSliceHeader:
.LFB2649:
	.loc 1 905 0
	.cfi_startproc
.LVL178:
	stp	x29, x30, [sp, -112]!
	.cfi_def_cfa_offset 112
	.cfi_offset 29, -112
	.cfi_offset 30, -104
	add	x29, sp, 0
	.cfi_def_cfa_register 29
	stp	x19, x20, [sp,16]
	stp	x23, x24, [sp,48]
	stp	x21, x22, [sp,32]
	str	x25, [sp,64]
	.cfi_offset 19, -96
	.cfi_offset 20, -88
	.cfi_offset 23, -64
	.cfi_offset 24, -56
	.cfi_offset 21, -80
	.cfi_offset 22, -72
	.cfi_offset 25, -48
	.loc 1 905 0
	adrp	x19, __stack_chk_guard
	mov	w20, w1
	mov	x24, x0
	.loc 1 908 0
	ldr	w21, [x5,4]
	.loc 1 905 0
	mov	x22, x2
	ldr	x1, [x19,#:lo12:__stack_chk_guard]
.LVL179:
	mov	x23, x3
	str	x1, [x29,104]
	.loc 1 908 0
	cmp	w21, 1
	beq	.L161
	.loc 1 1029 0
	cbz	w20, .L162
	.loc 1 1067 0
	str	wzr, [x2]
	.loc 1 1068 0
	mov	w1, -1
	.loc 1 1072 0
	mov	w0, 1
	.loc 1 1068 0
	str	w1, [x4]
.LVL180:
.L127:
	.loc 1 1073 0
	ldr	x2, [x29,104]
	ldr	x1, [x19,#:lo12:__stack_chk_guard]
	cmp	x2, x1
	bne	.L163
	ldp	x19, x20, [sp,16]
	.cfi_remember_state
	.cfi_restore 20
	.cfi_restore 19
.LVL181:
	ldp	x21, x22, [sp,32]
	.cfi_restore 22
	.cfi_restore 21
.LVL182:
	ldp	x23, x24, [sp,48]
	.cfi_restore 24
	.cfi_restore 23
.LVL183:
	ldr	x25, [sp,64]
	.cfi_restore 25
	ldp	x29, x30, [sp], 112
	.cfi_restore 30
	.cfi_restore 29
	.cfi_def_cfa 31, 0
	ret
.LVL184:
.L161:
	.cfi_restore_state
	.loc 1 915 0
	add	x25, x5, 64
	.loc 1 912 0
	cbnz	w20, .L123
	.loc 1 915 0
	ldr	w1, [x25,24]
	cmn	w1, #1
	beq	.L164
	str	x5, [x29,80]
	str	x4, [x29,88]
	.loc 1 921 0
	bl	Real9_CB_Get1Bit
.LVL185:
	ldr	x4, [x29,88]
.LVL186:
	ldr	x5, [x29,80]
.LVL187:
	cbnz	w0, .L134
.LBB136:
.LBB137:
	.loc 1 162 0
	mov	w1, 2
	mov	x0, x24
	str	x5, [x29,80]
	str	x4, [x29,88]
	bl	BsShow
.LVL188:
	.loc 1 163 0
	mov	w1, 2
	.loc 1 162 0
	mov	w21, w0
	.loc 1 163 0
	mov	x0, x24
	bl	BsSkip
.LVL189:
.LBE137:
.LBE136:
	.loc 1 932 0
	ldr	w0, [x25,20]
	ldr	x4, [x29,88]
.LVL190:
	cmp	w0, w21
	ldr	x5, [x29,80]
.LVL191:
	beq	.L126
.LVL192:
.L134:
.LBB138:
	.loc 1 1003 0 discriminator 1
	mov	w0, 0
	b	.L127
.LVL193:
.L162:
	str	x5, [x29,80]
	str	x4, [x29,88]
.LBE138:
	.loc 1 1032 0
	bl	Real9_CB_Get1Bit
.LVL194:
	cmp	w0, 1
	ldr	x4, [x29,88]
.LVL195:
	ldr	x5, [x29,80]
.LVL196:
	bne	.L134
.LBB139:
.LBB140:
	.loc 1 162 0
	ldr	w21, [x5,80]
	mov	x0, x24
.LBE140:
.LBE139:
	.loc 1 1038 0
	add	x20, x5, 64
.LVL197:
	str	x4, [x29,80]
.LBB143:
.LBB141:
	.loc 1 162 0
	mov	w1, w21
.LBE141:
.LBE143:
	.loc 1 1038 0
	str	x5, [x29,88]
.LBB144:
.LBB142:
	.loc 1 162 0
	bl	BsShow
.LVL198:
	mov	w25, w0
	.loc 1 163 0
	mov	w1, w21
	mov	x0, x24
	bl	BsSkip
.LVL199:
.LBE142:
.LBE144:
	.loc 1 1038 0
	str	w25, [x22]
	.loc 1 1039 0
	ldr	x5, [x29,88]
.LVL200:
	ldr	w0, [x20,16]
	ldr	x4, [x29,80]
.LVL201:
	cmp	w0, 11
	bls	.L139
	.loc 1 1042 0
	mov	x0, x24
	str	x5, [x29,80]
	str	x4, [x29,88]
	bl	Real9_CB_Get1Bit
.LVL202:
	cmp	w0, 1
	ldr	x4, [x29,88]
.LVL203:
	ldr	x5, [x29,80]
.LVL204:
	bne	.L134
.L139:
.LBB145:
.LBB146:
	.loc 1 162 0
	mov	w1, 5
	mov	x0, x24
	str	x5, [x29,80]
	str	x4, [x29,88]
	bl	BsShow
.LVL205:
	.loc 1 163 0
	mov	w1, 5
	.loc 1 162 0
	mov	w20, w0
	.loc 1 163 0
	mov	x0, x24
	bl	BsSkip
.LVL206:
.LBE146:
.LBE145:
	.loc 1 1048 0
	ldr	x4, [x29,88]
.LVL207:
	.loc 1 1050 0
	cmp	w20, 31
	ldr	x5, [x29,80]
.LVL208:
	.loc 1 1048 0
	str	w20, [x4]
	.loc 1 1050 0
	bgt	.L134
.LBB147:
.LBB148:
	.loc 1 162 0
	mov	w1, 2
	mov	x0, x24
	str	x5, [x29,88]
	bl	BsShow
.LVL209:
	mov	w20, w0
	.loc 1 163 0
	mov	w1, 2
	mov	x0, x24
	bl	BsSkip
.LVL210:
.LBE148:
.LBE147:
	.loc 1 1055 0
	ldr	x5, [x29,88]
.LVL211:
	.loc 1 1058 0
	mov	x0, x24
	.loc 1 1055 0
	str	w20, [x5,52]
	.loc 1 1058 0
	bl	Real9_CB_Get1Bit
.LVL212:
	cmp	w0, 1
	mov	w20, w0
	bne	.L134
.LBB149:
.LBB150:
	.loc 1 162 0
	mov	w1, 2
	mov	x0, x24
	bl	BsShow
.LVL213:
	mov	w21, w0
	.loc 1 163 0
	mov	w1, 2
	mov	x0, x24
	bl	BsSkip
.LVL214:
.LBE150:
.LBE149:
	.loc 1 1063 0
	str	w21, [x23]
	.loc 1 1072 0
	mov	w0, w20
	b	.L127
.LVL215:
.L164:
	str	x5, [x29,80]
	str	x4, [x29,88]
	.loc 1 921 0
	bl	Real9_CB_Get1Bit
.LVL216:
	ldr	x4, [x29,88]
.LVL217:
	ldr	x5, [x29,80]
.LVL218:
	cbnz	w0, .L134
.LBB151:
.LBB152:
	.loc 1 162 0
	mov	w1, 2
	mov	x0, x24
	str	x5, [x29,80]
.LBE152:
.LBE151:
	.loc 1 917 0
	mov	w20, w21
	str	x4, [x29,88]
.LBB154:
.LBB153:
	.loc 1 162 0
	bl	BsShow
.LVL219:
	.loc 1 163 0
	mov	w1, 2
	.loc 1 162 0
	mov	w21, w0
	.loc 1 163 0
	mov	x0, x24
	bl	BsSkip
.LVL220:
.LBE153:
.LBE154:
	.loc 1 928 0
	str	w21, [x25,20]
	ldr	x4, [x29,88]
.LVL221:
	ldr	x5, [x29,80]
.LVL222:
.L126:
.LBB155:
.LBB156:
	.loc 1 162 0
	mov	w1, 5
	mov	x0, x24
	str	x5, [x29,80]
	str	x4, [x29,88]
	bl	BsShow
.LVL223:
	.loc 1 163 0
	mov	w1, 5
	.loc 1 162 0
	mov	w21, w0
	.loc 1 163 0
	mov	x0, x24
	bl	BsSkip
.LVL224:
.LBE156:
.LBE155:
	.loc 1 938 0
	uxtb	w0, w21
	strb	w0, [x25,2]
	.loc 1 940 0
	cmp	w0, 31
	bhi	.L134
	.loc 1 945 0
	mov	x0, x24
	bl	Real9_CB_Get1Bit
.LVL225:
	cbnz	w0, .L134
	.loc 1 949 0
	mov	x0, x24
	bl	Real9_CB_Get1Bit
.LVL226:
	ldr	x4, [x29,88]
.LVL227:
	ldr	x5, [x29,80]
.LVL228:
	cbnz	w0, .L134
.LBB157:
.LBB158:
	.loc 1 162 0
	mov	w1, 2
	mov	x0, x24
	str	x4, [x29,80]
	str	x5, [x29,88]
	bl	BsShow
.LVL229:
	.loc 1 163 0
	mov	w1, 2
	.loc 1 162 0
	mov	w21, w0
	.loc 1 163 0
	mov	x0, x24
	bl	BsSkip
.LVL230:
.LBE158:
.LBE157:
	.loc 1 954 0
	ldr	x5, [x29,88]
.LVL231:
.LBB159:
.LBB160:
	.loc 1 162 0
	mov	w1, 1
	mov	x0, x24
.LBE160:
.LBE159:
	.loc 1 954 0
	str	w21, [x5,52]
.LBB162:
.LBB161:
	.loc 1 162 0
	bl	BsShow
.LVL232:
	mov	w21, w0
	.loc 1 163 0
	mov	w1, 1
	mov	x0, x24
	bl	BsSkip
.LVL233:
.LBE161:
.LBE162:
	.loc 1 957 0
	cmp	w21, wzr
	.loc 1 959 0
	ldr	x5, [x29,88]
.LVL234:
	.loc 1 957 0
	cset	w0, ne
	strb	w0, [x25,1]
	.loc 1 959 0
	ldr	x4, [x29,80]
.LVL235:
	cbz	w20, .L129
.LBB163:
.LBB164:
	.loc 1 162 0
	mov	w1, 13
	mov	x0, x24
	str	x5, [x29,80]
	str	x4, [x29,88]
	bl	BsShow
.LVL236:
	.loc 1 163 0
	mov	w1, 13
	.loc 1 162 0
	mov	w20, w0
.LVL237:
	.loc 1 163 0
	mov	x0, x24
	bl	BsSkip
.LVL238:
.LBE164:
.LBE163:
	.loc 1 961 0
	str	w20, [x25,28]
.LBB165:
	.loc 1 976 0
	ldr	w0, [x25,20]
	ldr	x4, [x29,88]
.LVL239:
	cmp	w0, 1
	ldr	x5, [x29,80]
.LVL240:
	bls	.L131
	cmp	w0, 2
	bne	.L130
	.loc 1 984 0
	ldr	w1, [x25,44]
	.loc 1 985 0
	ldr	w0, [x25,48]
	.loc 1 984 0
	str	w1, [x25,52]
	.loc 1 985 0
	str	w0, [x25,56]
.L130:
	.loc 1 992 0
	mov	x0, x24
	mov	x1, x25
	add	x2, x29, 96
	add	x3, x29, 100
	str	x5, [x29,80]
	str	x4, [x29,88]
	bl	Real9_CB_GetPicSize
.LVL241:
	.loc 1 995 0
	ldr	w1, [x29,96]
	.loc 1 1000 0
	mov	w2, 8144
	.loc 1 998 0
	ldr	x5, [x29,80]
.LVL242:
	.loc 1 996 0
	ldr	w0, [x29,100]
	.loc 1 1000 0
	sub	w3, w1, #48
	.loc 1 995 0
	str	w1, [x25,44]
	.loc 1 1000 0
	cmp	w3, w2
	.loc 1 996 0
	str	w0, [x25,48]
	.loc 1 998 0
	str	w1, [x5,16]
	.loc 1 999 0
	str	w0, [x5,12]
	.loc 1 1000 0
	ldr	x4, [x29,88]
.LVL243:
	bhi	.L134
	.loc 1 1001 0
	sub	w0, w0, #48
	.loc 1 1000 0 discriminator 1
	cmp	w0, w2
	bhi	.L134
	.loc 1 1005 0
	mov	x0, x5
	str	x4, [x29,88]
	bl	Real9_CB_SetDimensions
.LVL244:
	ldr	x4, [x29,88]
.LVL245:
.L135:
.LBE165:
.LBB166:
.LBB167:
	.loc 1 162 0
	ldr	w20, [x25,16]
	mov	x0, x24
	str	x4, [x29,88]
	mov	w1, w20
	bl	BsShow
.LVL246:
	mov	w21, w0
	.loc 1 163 0
	mov	w1, w20
	mov	x0, x24
	bl	BsSkip
.LVL247:
.LBE167:
.LBE166:
	.loc 1 1017 0
	str	w21, [x25,24]
	ldr	x4, [x29,88]
.LVL248:
.L123:
	.loc 1 1020 0
	ldr	w1, [x25,24]
	.loc 1 1072 0
	mov	w0, 1
	.loc 1 1020 0
	str	w1, [x22]
	.loc 1 1021 0
	ldrb	w1, [x25,2]
	str	w1, [x4]
	.loc 1 1022 0
	str	wzr, [x23]
	b	.L127
.LVL249:
.L129:
.LBB168:
.LBB169:
	.loc 1 162 0
	mov	w1, 13
	mov	x0, x24
	str	x4, [x29,88]
	bl	BsShow
.LVL250:
	mov	w20, w0
.LVL251:
	.loc 1 163 0
	mov	w1, 13
	mov	x0, x24
	bl	BsSkip
.LVL252:
.LBE169:
.LBE168:
	.loc 1 965 0
	ldr	w0, [x25,28]
	ldr	x4, [x29,88]
.LVL253:
	cmp	w0, w20
	bne	.L134
.LBB170:
	.loc 1 992 0
	mov	x0, x24
	mov	x1, x25
	add	x2, x29, 96
	add	x3, x29, 100
	str	x4, [x29,88]
	bl	Real9_CB_GetPicSize
.LVL254:
	.loc 1 1009 0
	ldr	w1, [x25,44]
.LVL255:
	ldr	w0, [x29,96]
	ldr	x4, [x29,88]
.LVL256:
	cmp	w1, w0
	bne	.L134
	.loc 1 1009 0 is_stmt 0 discriminator 1
	ldr	w1, [x25,48]
.LVL257:
	ldr	w0, [x29,100]
	cmp	w1, w0
	beq	.L135
	.loc 1 1003 0 is_stmt 1 discriminator 1
	mov	w0, 0
	b	.L127
.LVL258:
.L131:
	.loc 1 980 0
	str	wzr, [x25,52]
	.loc 1 981 0
	str	wzr, [x25,56]
	.loc 1 982 0
	b	.L130
.LVL259:
.L163:
.LBE170:
	.loc 1 1073 0
	bl	__stack_chk_fail
.LVL260:
	.cfi_endproc
.LFE2649:
	.size	Real9_CB_GetSliceHeader, .-Real9_CB_GetSliceHeader
	.align	2
	.global	Real9_CB_GetPictureHeader
	.type	Real9_CB_GetPictureHeader, %function
Real9_CB_GetPictureHeader:
.LFB2650:
	.loc 1 1077 0
	.cfi_startproc
.LVL261:
	stp	x29, x30, [sp, -96]!
	.cfi_def_cfa_offset 96
	.cfi_offset 29, -96
	.cfi_offset 30, -88
	add	x29, sp, 0
	.cfi_def_cfa_register 29
	stp	x19, x20, [sp,16]
	stp	x21, x22, [sp,32]
	str	x23, [sp,48]
	.cfi_offset 19, -80
	.cfi_offset 20, -72
	.cfi_offset 21, -64
	.cfi_offset 22, -56
	.cfi_offset 23, -48
	.loc 1 1077 0
	adrp	x21, __stack_chk_guard
	mov	x19, x1
	mov	x20, x0
	.loc 1 1083 0
	ldr	w1, [x1,4]
.LVL262:
	.loc 1 1077 0
	ldr	x2, [x21,#:lo12:__stack_chk_guard]
	str	x2, [x29,88]
	.loc 1 1083 0
	cmp	w1, 1
	beq	.L191
.LBB171:
.LBB172:
.LBB173:
	.loc 1 162 0
	mov	w1, 16
.LBE173:
.LBE172:
	.loc 1 1135 0
	stp	xzr, xzr, [x19]
	stp	xzr, xzr, [x19,16]
	stp	xzr, xzr, [x19,32]
	stp	xzr, xzr, [x19,48]
	stp	xzr, xzr, [x19,64]
	stp	xzr, xzr, [x19,80]
	stp	xzr, xzr, [x19,96]
	stp	xzr, xzr, [x19,112]
.LBB175:
.LBB174:
	.loc 1 162 0
	bl	BsShow
.LVL263:
	mov	w22, w0
	.loc 1 163 0
	mov	w1, 16
	mov	x0, x20
	bl	BsSkip
.LVL264:
.LBE174:
.LBE175:
	.loc 1 1139 0
	mov	w0, 21845
	cmp	w22, w0
	bne	.L185
.LBB176:
.LBB177:
	.loc 1 162 0
	mov	w1, 16
	mov	x0, x20
	bl	BsShow
.LVL265:
	mov	w23, w0
	.loc 1 163 0
	mov	w1, 16
	mov	x0, x20
	bl	BsSkip
.LVL266:
.LBE177:
.LBE176:
	.loc 1 1144 0
	cmp	w23, w22
	bne	.L185
	.loc 1 1148 0
	mov	x0, x20
	add	x1, x29, 84
	bl	Real9_CB_GetVLCBits
.LVL267:
	.loc 1 1149 0
	cmp	w0, 30
	bls	.L185
.LVL268:
	.loc 1 1153 0
	ldr	w0, [x29,84]
	tbnz	x0, 0, .L185
	.loc 1 1161 0
	ands	w1, w0, 2
	mov	w3, 144
	csel	w3, wzr, w3, ne
	cmp	w1, wzr
	mov	w1, 176
	.loc 1 1169 0
	ubfx	x4, x0, 2, 5
	.loc 1 1161 0
	csel	w1, wzr, w1, ne
	.loc 1 1170 0
	ubfx	x2, x0, 7, 8
	str	w1, [x19,16]
	.loc 1 1173 0
	mov	x0, x20
	str	w3, [x19,12]
	add	x1, x29, 84
	.loc 1 1169 0
	str	w4, [x19,48]
	.loc 1 1170 0
	str	w2, [x19,36]
	.loc 1 1173 0
	bl	Real9_CB_GetVLCBits
.LVL269:
	.loc 1 1174 0
	cmp	w0, 1
	beq	.L190
	.loc 1 1178 0
	cmp	w0, 3
	beq	.L192
	.loc 1 1182 0
	cmp	w0, 5
	bne	.L185
	.loc 1 1182 0 is_stmt 0 discriminator 1
	ldr	w0, [x29,84]
.LVL270:
	cbnz	w0, .L185
	.loc 1 1184 0 is_stmt 1
	mov	w0, 2
.L190:
	str	w0, [x19,8]
.LVL271:
.L178:
	.loc 1 1191 0
	ldr	w0, [x19,16]
	cbz	w0, .L193
.L180:
	.loc 1 1199 0
	sub	w0, w0, #48
	mov	w1, 8144
	cmp	w0, w1
	bhi	.L185
	.loc 1 1200 0
	ldr	w0, [x19,12]
	sub	w0, w0, #48
	.loc 1 1199 0 discriminator 1
	cmp	w0, w1
	bhi	.L185
	.loc 1 1204 0
	mov	x0, x19
.LBE171:
	.loc 1 1078 0
	mov	w22, 1
.LVL272:
.LBB180:
	.loc 1 1204 0
	bl	Real9_CB_SetDimensions
.LVL273:
.LBB178:
.LBB179:
	.loc 1 162 0
	mov	w1, 2
	mov	x0, x20
	bl	BsShow
.LVL274:
	mov	w23, w0
	.loc 1 163 0
	mov	w1, 2
	mov	x0, x20
	bl	BsSkip
.LVL275:
.LBE179:
.LBE178:
	.loc 1 1207 0
	str	w23, [x19,52]
.L167:
.LBE180:
	.loc 1 1210 0
	ldr	w20, [x19,16]
.LVL276:
	.loc 1 1214 0
	mov	w0, w22
	.loc 1 1211 0
	ldr	w1, [x19,12]
	.loc 1 1210 0
	add	w20, w20, 15
	.loc 1 1211 0
	add	w1, w1, 15
	.loc 1 1210 0
	lsr	w20, w20, 4
	.loc 1 1211 0
	lsr	w1, w1, 4
	str	w1, [x19,20]
	.loc 1 1210 0
	str	w20, [x19,24]
	.loc 1 1212 0
	mul	w1, w1, w20
	str	w1, [x19,28]
.LVL277:
.L174:
	.loc 1 1215 0
	ldr	x2, [x29,88]
	ldr	x1, [x21,#:lo12:__stack_chk_guard]
	cmp	x2, x1
	bne	.L194
	ldp	x19, x20, [sp,16]
	.cfi_remember_state
	.cfi_restore 20
	.cfi_restore 19
.LVL278:
	ldp	x21, x22, [sp,32]
	.cfi_restore 22
	.cfi_restore 21
.LVL279:
	ldr	x23, [sp,48]
	.cfi_restore 23
	ldp	x29, x30, [sp], 96
	.cfi_restore 30
	.cfi_restore 29
	.cfi_def_cfa 31, 0
	ret
.LVL280:
.L192:
	.cfi_restore_state
.LBB181:
	.loc 1 1178 0 discriminator 1
	ldr	w0, [x29,84]
.LVL281:
	cmp	w0, 1
	beq	.L195
.LVL282:
.L185:
.LBE181:
	.loc 1 1121 0
	mov	w0, -2
	b	.L174
.LVL283:
.L191:
	.loc 1 1088 0
	add	x20, x19, 64
.LVL284:
	mov	w5, -1
	.loc 1 1089 0
	mov	w1, 0
	add	x2, x29, 80
	add	x3, x29, 76
	add	x4, x29, 84
	.loc 1 1088 0
	str	w5, [x20,24]
	.loc 1 1089 0
	mov	x5, x19
	.loc 1 1127 0
	mov	w22, -2
.LVL285:
	.loc 1 1089 0
	bl	Real9_CB_GetSliceHeader
.LVL286:
	cmp	w0, 1
	bne	.L167
	.loc 1 1091 0
	ldr	w0, [x20,20]
	cmp	w0, 3
	bls	.L196
.L168:
	.loc 1 1111 0
	ldrb	w0, [x20,1]
	.loc 1 1118 0
	mov	w1, 8144
	.loc 1 1111 0
	str	w0, [x19,44]
	.loc 1 1118 0
	ldr	w0, [x19,16]
	.loc 1 1112 0
	ldrb	w2, [x20,2]
	str	w2, [x19,48]
	.loc 1 1118 0
	sub	w0, w0, #48
	cmp	w0, w1
	.loc 1 1113 0
	ldr	w0, [x20,28]
	str	w0, [x19,36]
	.loc 1 1114 0
	ldr	w0, [x20,32]
	str	w0, [x19,56]
	.loc 1 1115 0
	ldr	w0, [x20,36]
	str	w0, [x19,60]
	.loc 1 1118 0
	bhi	.L185
	.loc 1 1119 0
	ldr	w0, [x19,12]
	sub	w0, w0, #48
	.loc 1 1118 0 discriminator 1
	cmp	w0, w1
	bhi	.L185
	.loc 1 1123 0
	mov	x0, x19
	bl	Real9_CB_SetDimensions
.LVL287:
	b	.L167
.LVL288:
.L193:
.LBB182:
	.loc 1 1193 0
	mov	x0, x20
	mov	x1, x19
	bl	Real9_CB_GetCPFMT
.LVL289:
	cbz	w0, .L185
	ldr	w0, [x19,16]
	b	.L180
.LVL290:
.L196:
.LBE182:
	.loc 1 1091 0
	adrp	x1, .L170
	add	x1, x1, :lo12:.L170
	ldrb	w0, [x1,w0,uxtw]
	adr	x1, .Lrtx170
	add	x0, x1, w0, sxtb #2
	br	x0
.Lrtx170:
	.section	.rodata
	.align	0
	.align	2
.L170:
	.byte	(.L169 - .Lrtx170) / 4
	.byte	(.L171 - .Lrtx170) / 4
	.byte	(.L172 - .Lrtx170) / 4
	.byte	(.L173 - .Lrtx170) / 4
	.text
.LVL291:
.L195:
.LBB183:
	.loc 1 1180 0
	str	wzr, [x19,8]
	b	.L178
.LVL292:
.L172:
.LBE183:
	.loc 1 1102 0
	mov	w22, 1
.LVL293:
	str	w22, [x19,8]
	.loc 1 1103 0
	b	.L168
.LVL294:
.L171:
	.loc 1 1098 0
	str	wzr, [x19,8]
	.loc 1 1078 0
	mov	w22, 1
	.loc 1 1099 0
	str	wzr, [x20,4]
	.loc 1 1100 0
	b	.L168
.L169:
	.loc 1 1094 0
	str	wzr, [x19,8]
	.loc 1 1095 0
	mov	w22, 1
.LVL295:
	str	w22, [x20,4]
	.loc 1 1096 0
	b	.L168
.LVL296:
.L173:
	.loc 1 1105 0
	mov	w0, 2
	.loc 1 1078 0
	mov	w22, 1
	.loc 1 1105 0
	str	w0, [x19,8]
	.loc 1 1106 0
	b	.L168
.LVL297:
.L194:
	.loc 1 1215 0
	bl	__stack_chk_fail
.LVL298:
	.cfi_endproc
.LFE2650:
	.size	Real9_CB_GetPictureHeader, .-Real9_CB_GetPictureHeader
	.align	2
	.global	Real9_SetImgFormat
	.type	Real9_SetImgFormat, %function
Real9_SetImgFormat:
.LFB2651:
	.loc 1 1219 0
	.cfi_startproc
.LVL299:
	stp	x29, x30, [sp, -32]!
	.cfi_def_cfa_offset 32
	.cfi_offset 29, -32
	.cfi_offset 30, -24
	add	x29, sp, 0
	.cfi_def_cfa_register 29
	stp	x19, x20, [sp,16]
	.cfi_offset 19, -16
	.cfi_offset 20, -8
	.loc 1 1219 0
	mov	x20, x0
	.loc 1 1228 0
	mov	x0, 27744
.LVL300:
	add	x0, x20, x0
	add	x2, x20, 49152
	ldr	w1, [x0,4088]
	ldr	w0, [x2,3328]
	bl	FSP_GetFsImagePtr
.LVL301:
	mov	x19, x0
.LVL302:
	.loc 1 1229 0
	cbz	x0, .L197
	.loc 1 1234 0
	add	x2, x20, 28672
	.loc 1 1243 0
	mov	w4, 7200
	.loc 1 1234 0
	add	x2, x2, 1800
	.loc 1 1250 0
	mov	w1, 0
	.loc 1 1243 0
	ldr	w3, [x2,8]
	.loc 1 1246 0
	str	wzr, [x0,32]
	.loc 1 1243 0
	and	w3, w3, 3
	.loc 1 1244 0
	str	w3, [x0,36]
	.loc 1 1245 0
	str	w3, [x0,40]
	.loc 1 1243 0
	orr	w3, w3, w4
	str	w3, [x0,44]
	.loc 1 1247 0
	ldr	w3, [x2,16]
	str	w3, [x0,48]
	.loc 1 1248 0
	ldr	w2, [x2,12]
	str	w2, [x0,52]
	.loc 1 1250 0
	bl	SetAspectRatio
.LVL303:
	.loc 1 1252 0
	ldr	x0, [x20]
	ldr	w0, [x0,28]
	cmp	w0, 25
	beq	.L201
.L197:
	.loc 1 1265 0
	ldp	x19, x20, [sp,16]
	.cfi_remember_state
	.cfi_restore 20
	.cfi_restore 19
.LVL304:
	ldp	x29, x30, [sp], 32
	.cfi_restore 30
	.cfi_restore 29
	.cfi_def_cfa 31, 0
	ret
.LVL305:
.L201:
	.cfi_restore_state
.LBB184:
	.loc 1 1255 0
	ldr	w0, [x19,52]
	.loc 1 1254 0
	ldr	w2, [x19,76]
	.loc 1 1257 0
	ldr	w3, [x19,168]
	.loc 1 1255 0
	add	w0, w0, 15
	lsl	w1, w2, 4
	lsr	w0, w0, 4
	.loc 1 1260 0
	add	w4, w3, w2
	.loc 1 1258 0
	str	w3, [x19,136]
	.loc 1 1257 0
	madd	w0, w1, w0, w3
	str	w0, [x19,172]
	.loc 1 1259 0
	str	w0, [x19,140]
	.loc 1 1261 0
	add	w2, w0, w2
	.loc 1 1260 0
	str	w4, [x19,144]
	.loc 1 1261 0
	str	w2, [x19,148]
	.loc 1 1262 0
	str	w3, [x19,176]
	.loc 1 1263 0
	str	w0, [x19,180]
.LBE184:
	.loc 1 1265 0
	ldp	x19, x20, [sp,16]
	.cfi_restore 19
	.cfi_restore 20
.LVL306:
	ldp	x29, x30, [sp], 32
	.cfi_restore 29
	.cfi_restore 30
	.cfi_def_cfa 31, 0
	ret
	.cfi_endproc
.LFE2651:
	.size	Real9_SetImgFormat, .-Real9_SetImgFormat
	.align	2
	.global	RV9_RecordVFMWState
	.type	RV9_RecordVFMWState, %function
RV9_RecordVFMWState:
.LFB2652:
	.loc 1 1276 0
	.cfi_startproc
.LVL307:
	.loc 1 1282 0
	ret
	.cfi_endproc
.LFE2652:
	.size	RV9_RecordVFMWState, .-RV9_RecordVFMWState
	.align	2
	.global	Real9_WriteSliceMsg
	.type	Real9_WriteSliceMsg, %function
Real9_WriteSliceMsg:
.LFB2653:
	.loc 1 1286 0
	.cfi_startproc
.LVL308:
	.loc 1 1300 0
	sxtw	x4, w1
.LVL309:
	add	x6, x0, 28672
	lsl	x2, x4, 4
	add	x0, x0, 16
.LVL310:
	sub	x2, x2, x4, lsl 2
	.loc 1 1314 0
	add	w1, w1, 1
	.loc 1 1300 0
	sub	x2, x2, x4
	ldr	w9, [x6,1956]
	add	x2, x0, x2, lsl 2
	.loc 1 1302 0
	add	x4, x2, 80
.LVL311:
	.loc 1 1310 0
	add	x5, x2, 96
	.loc 1 1300 0
	str	w9, [x2,72]
	.loc 1 1301 0
	ldr	w9, [x6,1948]
	str	w9, [x2,80]
	.loc 1 1302 0
	ldr	w8, [x6,1952]
	str	w8, [x2,88]
	.loc 1 1304 0
	ldr	w8, [x6,1968]
	str	w8, [x2,76]
	.loc 1 1305 0
	ldr	w8, [x6,1960]
	str	w8, [x2,84]
	.loc 1 1306 0
	ldr	w7, [x6,1964]
	str	w7, [x2,92]
	.loc 1 1308 0
	ldr	w2, [x6,1936]
	str	w2, [x4,16]
	.loc 1 1309 0
	ldr	w2, [x6,1932]
	str	w2, [x4,20]
	.loc 1 1310 0
	ldr	w2, [x6,1928]
	str	w2, [x5,8]
	.loc 1 1311 0
	ldr	w2, [x6,1940]
	str	w2, [x5,12]
	.loc 1 1314 0
	str	w1, [x0,32]
	.loc 1 1317 0
	ret
	.cfi_endproc
.LFE2653:
	.size	Real9_WriteSliceMsg, .-Real9_WriteSliceMsg
	.align	2
	.global	Real9_WritePicMsg
	.type	Real9_WritePicMsg, %function
Real9_WritePicMsg:
.LFB2654:
	.loc 1 1321 0
	.cfi_startproc
.LVL312:
	.loc 1 1330 0
	add	x3, x0, 28672
	add	x1, x0, 16
	.loc 1 1333 0
	mov	x2, 27744
	add	x2, x0, x2
	.loc 1 1330 0
	ldr	w4, [x3,1808]
	strb	w4, [x0,16]
	.loc 1 1340 0
	cmp	w4, 2
	.loc 1 1331 0
	ldr	w0, [x3,1824]
.LVL313:
	str	w0, [x1,4]
	.loc 1 1332 0
	ldr	w0, [x3,1820]
	str	w0, [x1,8]
	.loc 1 1333 0
	ldr	w0, [x2,4004]
	str	w0, [x1,12]
	.loc 1 1334 0
	ldr	w0, [x2,4008]
	str	w0, [x1,16]
	.loc 1 1336 0
	ldr	w0, [x3,1848]
	str	w0, [x1,20]
	.loc 1 1337 0
	ldr	w3, [x2,2900]
	str	w3, [x1,24]
	.loc 1 1338 0
	ldr	w3, [x2,2904]
	str	w3, [x1,28]
	.loc 1 1340 0
	beq	.L204
	.loc 1 1342 0
	str	w0, [x2,2900]
.L204:
	.loc 1 1346 0
	ret
	.cfi_endproc
.LFE2654:
	.size	Real9_WritePicMsg, .-Real9_WritePicMsg
	.align	2
	.global	Real9_WriteReg
	.type	Real9_WriteReg, %function
Real9_WriteReg:
.LFB2655:
	.loc 1 1350 0
	.cfi_startproc
.LVL314:
	.loc 1 1354 0
	str	w1, [x0,52]
	.loc 1 1357 0
	ret
	.cfi_endproc
.LFE2655:
	.size	Real9_WriteReg, .-Real9_WriteReg
	.align	2
	.global	Real9_ModifySliceMsg
	.type	Real9_ModifySliceMsg, %function
Real9_ModifySliceMsg:
.LFB2656:
	.loc 1 1361 0
	.cfi_startproc
.LVL315:
	.loc 1 1369 0
	add	x9, x0, 16
	.loc 1 1371 0
	ldr	w5, [x9,108]
	.loc 1 1369 0
	ldr	w2, [x9,4]
	ldr	w1, [x9,8]
	.loc 1 1371 0
	cbnz	w5, .L214
	.loc 1 1376 0
	ldr	w10, [x9,32]
	.loc 1 1369 0
	mul	w2, w1, w2
	.loc 1 1376 0
	cmp	w10, 2
	.loc 1 1369 0
	sub	w2, w2, #1
.LVL316:
	.loc 1 1376 0
	bls	.L213
	.loc 1 1380 0
	ldr	w1, [x9,152]
	.loc 1 1378 0 discriminator 1
	sub	w6, w10, #1
	.loc 1 1380 0 discriminator 1
	cmp	w2, w1
	ble	.L214
	cmp	w1, wzr
	ble	.L214
	sub	w3, w10, #3
	mov	x4, 212
	mov	w5, 44
	add	x1, x0, 212
	umaddl	x4, w3, w5, x4
	add	x4, x0, x4
	b	.L217
.L218:
	.loc 1 1380 0 is_stmt 0
	ldr	w3, [x1],44
	.loc 1 1380 0 discriminator 1
	cmp	w3, wzr
	ble	.L214
	cmp	w2, w3
	ble	.L214
.L217:
	.loc 1 1378 0 is_stmt 1 discriminator 1
	cmp	x1, x4
	bne	.L218
.L219:
	mov	x5, 124
	mov	w3, 44
	add	x1, x0, 124
	umaddl	x5, w6, w3, x5
	add	x5, x0, x5
	b	.L216
.L222:
	.loc 1 1391 0
	ldr	w4, [x1]
	ldr	w3, [x1,44]!
	cmp	w4, w3
	bge	.L214
.L216:
	.loc 1 1389 0 discriminator 1
	cmp	x1, x5
	bne	.L222
	.loc 1 1397 0
	lsl	x1, x6, 4
	sub	x1, x1, x6, lsl 2
	sub	x6, x1, x6
	add	x6, x9, x6, lsl 2
	ldr	w1, [x6,108]
	.loc 1 1397 0 is_stmt 0 discriminator 1
	cmp	w2, w1
	blt	.L214
	cmp	w1, wzr
	ble	.L214
.L223:
	.loc 1 1404 0 is_stmt 1 discriminator 1
	cbz	w10, .L247
	sub	w7, w10, #1
	add	x3, x0, 124
	mov	w6, 0
.LVL317:
.L225:
	.loc 1 1406 0
	cmp	w7, w6
	beq	.L234
	.loc 1 1412 0
	ldr	w1, [x3,44]
	sub	w1, w1, #1
.L224:
	.loc 1 1415 0
	ldr	w5, [x3]
	.loc 1 1404 0 discriminator 2
	add	w6, w6, 1
	str	w1, [x3,4]
	add	x3, x3, 44
	.loc 1 1416 0
	cmp	w2, w5
	cset	w8, lt
	.loc 1 1415 0
	cmp	w1, w5
	cset	w4, lt
	orr	w5, w8, w5, lsr 31
	orr	w5, w4, w5
	.loc 1 1417 0
	cmp	w2, w1
	orr	w1, w5, w1, lsr 31
	cbnz	w1, .L214
	blt	.L214
	.loc 1 1404 0 discriminator 1
	cmp	w6, w10
	bne	.L225
	mov	w2, 44
.LVL318:
	mov	x6, 132
.LVL319:
	add	x1, x0, 88
	.loc 1 1425 0
	ldr	w3, [x9,72]
	nop // between mem op and mult-accumulate
	umaddl	x6, w7, w2, x6
	mov	x2, x1
	add	x6, x0, x6
.L227:
	.loc 1 1429 0
	ldr	w4, [x2]
	.loc 1 1434 0
	ldr	w5, [x2,4]
	cmp	w3, w4
	csel	w3, w3, w4, ls
	cmp	w5, w3
	bcs	.L226
	.loc 1 1434 0 is_stmt 0 discriminator 1
	ldr	w4, [x2,20]
	cmp	w4, wzr
	csel	w3, w3, w5, eq
.L226:
	add	x2, x2, 44
	.loc 1 1427 0 is_stmt 1 discriminator 1
	cmp	x2, x6
	bne	.L227
	mov	x2, 132
	mov	w8, 44
	.loc 1 1440 0
	and	w4, w3, -16
	str	w4, [x9,40]
	nop // between mem op and mult-accumulate
	umaddl	x8, w7, w8, x2
	add	x0, x0, x8
.LVL320:
	b	.L231
.L248:
	.loc 1 1447 0
	ldr	w3, [x1,8]
	ldr	w2, [x1]
	.loc 1 1451 0
	and	w5, w3, 7
	sub	w2, w2, w4
	.loc 1 1446 0
	add	w2, w2, w3, lsr 3
	.loc 1 1450 0
	ubfiz	w3, w2, 3, 4
	.loc 1 1449 0
	and	w2, w2, -16
	.loc 1 1451 0
	add	w3, w3, w5
.L230:
	str	w3, [x1,8]
	str	w2, [x1],44
	.loc 1 1442 0 discriminator 1
	cmp	x1, x0
	beq	.L232
.L231:
	.loc 1 1444 0
	ldr	w2, [x1,4]
	sub	w8, w2, w4
	cbz	w2, .L248
	.loc 1 1462 0
	ldr	w5, [x1,12]
	.loc 1 1456 0
	ldr	w2, [x1,8]
	ldr	w7, [x1]
	.loc 1 1465 0
	and	w6, w5, 7
	.loc 1 1459 0
	and	w3, w2, 7
	.loc 1 1461 0
	add	w5, w8, w5, lsr 3
.LVL321:
	sub	w7, w7, w4
	.loc 1 1455 0
	add	w2, w7, w2, lsr 3
	.loc 1 1464 0
	ubfiz	w7, w5, 3, 4
	.loc 1 1458 0
	ubfiz	w8, w2, 3, 4
	.loc 1 1463 0
	and	w5, w5, -16
.LVL322:
	.loc 1 1465 0
	add	w6, w7, w6
	.loc 1 1457 0
	and	w2, w2, -16
	.loc 1 1459 0
	add	w3, w8, w3
	.loc 1 1463 0
	str	w5, [x1,4]
	.loc 1 1464 0
	str	w6, [x1,12]
	b	.L230
.LVL323:
.L214:
	.loc 1 1373 0
	mov	w0, 0
.LVL324:
	.loc 1 1470 0
	ret
.LVL325:
.L213:
	mov	x6, 1
	.loc 1 1387 0
	beq	.L219
	b	.L223
.L247:
	.loc 1 1440 0
	ldr	w0, [x9,72]
.LVL326:
	and	w0, w0, -16
	str	w0, [x9,40]
.L232:
	.loc 1 1469 0
	mov	w0, 1
	.loc 1 1470 0
	ret
.LVL327:
.L234:
	.loc 1 1369 0
	mov	w1, w2
	b	.L224
	.cfi_endproc
.LFE2656:
	.size	Real9_ModifySliceMsg, .-Real9_ModifySliceMsg
	.align	2
	.global	REAL9DEC_Init
	.type	REAL9DEC_Init, %function
REAL9DEC_Init:
.LFB2657:
	.loc 1 1474 0
	.cfi_startproc
.LVL328:
	stp	x29, x30, [sp, -48]!
	.cfi_def_cfa_offset 48
	.cfi_offset 29, -48
	.cfi_offset 30, -40
	.loc 1 1480 0
	mov	x2, 52488
	.loc 1 1474 0
	add	x29, sp, 0
	.cfi_def_cfa_register 29
	str	x21, [sp,32]
	.cfi_offset 21, -16
	mov	x21, x1
	.loc 1 1480 0
	mov	w1, 0
.LVL329:
	.loc 1 1474 0
	stp	x19, x20, [sp,16]
	.cfi_offset 19, -32
	.cfi_offset 20, -24
	.loc 1 1474 0
	mov	x19, x0
	.loc 1 1483 0
	add	x20, x0, 28672
	.loc 1 1480 0
	bl	memset
.LVL330:
	.loc 1 1483 0
	add	x0, x20, 3208
	bl	ResetVoQueue
.LVL331:
	.loc 1 1485 0
	str	x21, [x19]
	.loc 1 1489 0
	add	x1, x19, 8192
	mov	w5, 15
	add	x1, x1, 3168
	.loc 1 1498 0
	mov	x0, x19
	.loc 1 1489 0
	add	x4, x1, 16384
	.loc 1 1498 0
	add	x19, x19, 49152
.LVL332:
	.loc 1 1494 0
	mov	w2, 1
	.loc 1 1489 0
	str	w5, [x4,2900]
	.loc 1 1490 0
	str	w5, [x4,2904]
	.loc 1 1491 0
	ldr	w4, [x21,12]
	strb	w4, [x1,24]
	.loc 1 1492 0
	strb	wzr, [x1,28]
	.loc 1 1495 0
	mov	w1, 8192
	.loc 1 1494 0
	str	w2, [x20,1804]
	.loc 1 1495 0
	str	w1, [x20,1832]
	.loc 1 1496 0
	strb	w2, [x20,1800]
	.loc 1 1498 0
	bl	VCTRL_GetChanIDByCtx
.LVL333:
	.loc 1 1499 0
	cmn	w0, #1
	.loc 1 1498 0
	str	w0, [x19,3328]
	.loc 1 1505 0
	mov	w1, 0
	.loc 1 1499 0
	beq	.L252
.L250:
	.loc 1 1506 0
	mov	w0, w1
	ldr	x21, [sp,32]
	.cfi_remember_state
	.cfi_restore 21
.LVL334:
	ldp	x19, x20, [sp,16]
	.cfi_restore 20
	.cfi_restore 19
	ldp	x29, x30, [sp], 48
	.cfi_restore 30
	.cfi_restore 29
	.cfi_def_cfa 31, 0
	ret
.LVL335:
.L252:
	.cfi_restore_state
	.loc 1 1501 0
	adrp	x1, .LC6
	mov	w0, 0
	add	x1, x1, :lo12:.LC6
	bl	dprint_linux_kernel
.LVL336:
	.loc 1 1502 0
	mov	w1, -20
	b	.L250
	.cfi_endproc
.LFE2657:
	.size	REAL9DEC_Init, .-REAL9DEC_Init
	.align	2
	.global	REAL9DEC_Destroy
	.type	REAL9DEC_Destroy, %function
REAL9DEC_Destroy:
.LFB2658:
	.loc 1 1510 0
	.cfi_startproc
.LVL337:
	.loc 1 1514 0
	mov	x2, 27744
	adrp	x1, .LC7
	add	x2, x0, x2
	add	x1, x1, :lo12:.LC7
	.loc 1 1510 0
	stp	x29, x30, [sp, -16]!
	.cfi_def_cfa_offset 16
	.cfi_offset 29, -16
	.cfi_offset 30, -8
	.loc 1 1514 0
	mov	w0, 2
.LVL338:
	.loc 1 1510 0
	add	x29, sp, 0
	.cfi_def_cfa_register 29
	.loc 1 1514 0
	ldr	w2, [x2,3980]
	bl	dprint_linux_kernel
.LVL339:
	.loc 1 1517 0
	ldp	x29, x30, [sp], 16
	.cfi_restore 30
	.cfi_restore 29
	.cfi_def_cfa 31, 0
	ret
	.cfi_endproc
.LFE2658:
	.size	REAL9DEC_Destroy, .-REAL9DEC_Destroy
	.align	2
	.global	REAL9DEC_Decode
	.type	REAL9DEC_Decode, %function
REAL9DEC_Decode:
.LFB2659:
	.loc 1 1521 0
	.cfi_startproc
.LVL340:
	stp	x29, x30, [sp, -368]!
	.cfi_def_cfa_offset 368
	.cfi_offset 29, -368
	.cfi_offset 30, -360
	.loc 1 1557 0
	mov	w6, 8192
	.loc 1 1521 0
	add	x29, sp, 0
	.cfi_def_cfa_register 29
	stp	x21, x22, [sp,32]
	stp	x23, x24, [sp,48]
	stp	x25, x26, [sp,64]
	.cfi_offset 21, -336
	.cfi_offset 22, -328
	.cfi_offset 23, -320
	.cfi_offset 24, -312
	.cfi_offset 25, -304
	.cfi_offset 26, -296
	.loc 1 1549 0
	add	x23, x0, 28672
	.loc 1 1522 0
	add	x25, x29, 232
	.loc 1 1521 0
	adrp	x22, __stack_chk_guard
	.loc 1 1528 0
	str	wzr, [x29,200]
.LVL341:
	.loc 1 1521 0
	stp	x19, x20, [sp,16]
	stp	x27, x28, [sp,80]
	.cfi_offset 19, -352
	.cfi_offset 20, -344
	.cfi_offset 27, -288
	.cfi_offset 28, -280
	.loc 1 1522 0
	stp	xzr, xzr, [x25,112]
	.loc 1 1550 0
	ldr	w3, [x23,1912]
	.loc 1 1521 0
	mov	x20, x0
	.loc 1 1549 0
	ldr	w5, [x23,1908]
	.loc 1 1521 0
	mov	x19, x1
	ldr	x7, [x22,#:lo12:__stack_chk_guard]
	.loc 1 1543 0
	add	x1, x20, 16
.LVL342:
	.loc 1 1522 0
	stp	xzr, xzr, [x25]
	stp	xzr, xzr, [x25,32]
	stp	xzr, xzr, [x25,96]
	.loc 1 1521 0
	str	x7, [x29,360]
	.loc 1 1556 0
	mov	w0, 1
.LVL343:
	.loc 1 1522 0
	stp	xzr, xzr, [x25,16]
	stp	xzr, xzr, [x25,48]
	stp	xzr, xzr, [x25,64]
	stp	xzr, xzr, [x25,80]
	.loc 1 1543 0
	str	x1, [x29,184]
	.loc 1 1528 0
	str	wzr, [x29,204]
.LVL344:
	str	wzr, [x29,208]
.LVL345:
	.loc 1 1549 0
	str	w5, [x23,1916]
	.loc 1 1550 0
	str	w3, [x23,1920]
	.loc 1 1551 0
	str	w5, [x29,348]
	.loc 1 1552 0
	str	w3, [x29,352]
	.loc 1 1553 0
	str	w5, [x29,340]
	.loc 1 1554 0
	str	w3, [x29,344]
	.loc 1 1556 0
	str	w0, [x23,1804]
	.loc 1 1557 0
	str	w6, [x23,1832]
	.loc 1 1559 0
	str	w0, [x29,236]
	.loc 1 1560 0
	str	w6, [x29,264]
	.loc 1 1562 0
	cbz	x19, .L385
	.loc 1 1568 0
	ldr	x0, [x29,184]
	mov	w1, 0
	mov	x2, 11340
	.loc 1 1571 0
	add	x24, x20, 8192
	.loc 1 1568 0
	bl	memset
.LVL346:
	.loc 1 1571 0
	add	x1, x24, 3168
	add	x0, x1, 16384
	str	wzr, [x0,3944]
	.loc 1 1572 0
	ldr	w2, [x19,8]
	str	w2, [x0,3964]
	.loc 1 1575 0
	ldr	w2, [x19,4]
	str	w2, [x0,3948]
	.loc 1 1576 0
	ldr	x2, [x19,64]
	str	x2, [x20,11360]
	.loc 1 1577 0
	ldr	w2, [x19,8]
	str	w2, [x0,3952]
	.loc 1 1578 0
	ldrb	w3, [x19,1]
	strb	w3, [x1,8]
	.loc 1 1580 0
	ldrb	w3, [x19,1]
	cmp	w3, 1
	beq	.L257
	.loc 1 1582 0
	ldr	w3, [x19,84]
	str	w3, [x0,3956]
	.loc 1 1583 0
	ldr	x3, [x19,144]
	str	x3, [x1,16]
	.loc 1 1584 0
	ldr	w3, [x19,88]
	str	w3, [x0,3960]
	.loc 1 1585 0
	ldrb	w0, [x19,81]
	strb	w0, [x1,9]
	.loc 1 1586 0
	ldrb	w0, [x19,81]
	cmp	w0, 1
	bne	.L386
	.loc 1 1601 0
	mov	w1, 65525
	sub	w0, w2, #10
	movk	w1, 0x2f, lsl 16
	cmp	w0, w1
	bhi	.L260
.L259:
	.loc 1 1607 0
	ldr	x1, [x20,11360]
	add	x26, x24, 3168
	cbz	x1, .L260
	.loc 1 1545 0
	add	x19, x23, 3168
.LVL347:
	.loc 1 1613 0
	add	x26, x26, 16384
	.loc 1 1611 0
	mov	x0, x19
	bl	BsInit
.LVL348:
.LBB185:
.LBB186:
	.loc 1 162 0
	mov	w1, 8
	mov	x0, x19
	bl	BsShow
.LVL349:
	mov	w27, w0
	.loc 1 163 0
	mov	w1, 8
	mov	x0, x19
.LBE186:
.LBE185:
	.loc 1 1613 0
	add	w21, w27, 1
.LBB188:
.LBB187:
	.loc 1 163 0
	bl	BsSkip
.LVL350:
.LBE187:
.LBE188:
	.loc 1 1613 0
	str	w21, [x26,2916]
	.loc 1 1614 0
	cmp	w27, 255
	bhi	.L260
	.loc 1 1619 0 discriminator 1
	cbz	w21, .L261
	add	x28, x23, 1992
	mov	w27, 0
	add	x26, x26, 2916
	b	.L262
.L387:
	ldr	w21, [x26]
	.loc 1 1619 0 is_stmt 0 discriminator 2
	add	w27, w27, 1
	add	x28, x28, 4
	.loc 1 1619 0 discriminator 1
	cmp	w21, w27
	bls	.L261
.L262:
	.loc 1 1621 0 is_stmt 1
	mov	w1, 32
	mov	x0, x19
	bl	BsSkip
.LVL351:
.LBB189:
.LBB190:
	.loc 1 162 0
	mov	w1, 32
	mov	x0, x19
	bl	BsShow
.LVL352:
	mov	w21, w0
	.loc 1 163 0
	mov	w1, 32
	mov	x0, x19
	bl	BsSkip
.LVL353:
	rev	w0, w21
.LBE190:
.LBE189:
	.loc 1 1624 0
	mov	w1, 3145727
	cmp	w0, w1
	.loc 1 1623 0
	str	w0, [x28]
	.loc 1 1624 0
	ble	.L387
.LVL354:
.L260:
	.loc 1 1603 0
	mov	w28, 0
.LVL355:
.L256:
	.loc 1 2069 0
	ldr	x2, [x29,360]
	mov	w0, w28
	ldr	x1, [x22,#:lo12:__stack_chk_guard]
	cmp	x2, x1
	bne	.L388
	ldp	x19, x20, [sp,16]
	.cfi_remember_state
	.cfi_restore 20
	.cfi_restore 19
.LVL356:
	ldp	x21, x22, [sp,32]
	.cfi_restore 22
	.cfi_restore 21
.LVL357:
	ldp	x23, x24, [sp,48]
	.cfi_restore 24
	.cfi_restore 23
	ldp	x25, x26, [sp,64]
	.cfi_restore 26
	.cfi_restore 25
.LVL358:
	ldp	x27, x28, [sp,80]
	.cfi_restore 28
	.cfi_restore 27
.LVL359:
	ldp	x29, x30, [sp], 368
	.cfi_restore 30
	.cfi_restore 29
	.cfi_def_cfa 31, 0
	ret
.LVL360:
.L386:
	.cfi_restore_state
	.loc 1 1588 0
	add	x20, x20, 49152
.LVL361:
	ldr	w1, [x19,12]
	.loc 1 1590 0
	mov	w28, 0
	.loc 1 1588 0
	ldr	w0, [x20,3328]
	bl	SM_ReleaseStreamSeg
.LVL362:
	.loc 1 1589 0
	ldr	w0, [x20,3328]
	ldr	w1, [x19,92]
	bl	SM_ReleaseStreamSeg
.LVL363:
	.loc 1 1590 0
	b	.L256
.LVL364:
.L257:
	.loc 1 1595 0
	str	wzr, [x0,3956]
	.loc 1 1596 0
	str	xzr, [x1,16]
	.loc 1 1597 0
	str	wzr, [x0,3960]
	.loc 1 1601 0
	sub	w0, w2, #10
	.loc 1 1598 0
	strb	wzr, [x1,9]
	.loc 1 1601 0
	mov	w1, 65525
	movk	w1, 0x2f, lsl 16
	cmp	w0, w1
	bls	.L259
	b	.L260
.L385:
	.loc 1 1564 0
	mov	x1, 27744
	.loc 1 1565 0
	mov	w28, 0
	.loc 1 1564 0
	add	x20, x20, x1
.LVL365:
	adrp	x1, .LC8
	add	x1, x1, :lo12:.LC8
	ldr	w2, [x20,3980]
	bl	dprint_linux_kernel
.LVL366:
	.loc 1 1565 0
	b	.L256
.LVL367:
.L261:
	sub	w3, w21, #1
	add	x0, x23, 1992
	add	x3, x3, 4096
	add	x3, x3, 3570
	add	x3, x20, x3, lsl 2
	b	.L263
.L264:
	.loc 1 1632 0
	ldr	w2, [x0,4]
	ldr	w1, [x0],4
	cmp	w2, w1
	ble	.L260
.L263:
	.loc 1 1630 0 discriminator 1
	cmp	x0, x3
	bne	.L264
	.loc 1 1640 0
	add	x26, x24, 3168
	.loc 1 1639 0
	lsl	w21, w21, 3
	.loc 1 1640 0
	add	x8, x26, 16384
	.loc 1 1639 0
	add	w21, w21, 1
.LVL368:
	.loc 1 1645 0
	mov	w27, 65534
	movk	w27, 0x2f, lsl 16
	.loc 1 1640 0
	ldr	w9, [x8,2920]
	add	w9, w21, w9
	.loc 1 1645 0
	sub	w0, w9, #1
	cmp	w0, w27
	bhi	.L260
	.loc 1 1641 0
	mov	w0, 3145727
	.loc 1 1645 0
	cmp	w21, w0
	bgt	.L260
	.loc 1 1645 0 is_stmt 0 discriminator 1
	ldr	w2, [x8,3952]
	sub	w2, w2, w9
	cmp	w2, wzr
	ble	.L260
	.loc 1 1649 0 is_stmt 1
	mov	x0, x19
	str	x9, [x29,176]
	ldr	x1, [x20,11360]
	add	x1, x1, x9, sxtw
	bl	BsInit
.LVL369:
	.loc 1 1651 0
	mov	x0, x19
	mov	x1, x25
	bl	Real9_CB_GetPictureHeader
.LVL370:
	cmp	w0, 1
	mov	w28, w0
	ldr	x9, [x29,176]
	bne	.L389
	.loc 1 1658 0
	ldrb	w0, [x26,28]
	cbz	w0, .L266
	.loc 1 1658 0 is_stmt 0 discriminator 1
	ldr	w2, [x25,24]
	ldr	w1, [x23,1824]
	cmp	w2, w1
	beq	.L390
.L266:
	.loc 1 1663 0 is_stmt 1
	adrp	x0, g_event_report
	add	x26, x20, 49152
	ldr	x5, [x0,#:lo12:g_event_report]
	cbz	x5, .L268
.LBB191:
	.loc 1 1663 0 is_stmt 0 discriminator 1
	add	x26, x20, 49152
	ldr	w6, [x23,1820]
	strh	w6, [x29,226]
	mov	w1, 2
	ldr	w6, [x29,256]
	add	x2, x29, 224
	ldr	w7, [x23,1824]
	mov	w3, 8
	strh	w6, [x29,228]
	ldr	w0, [x26,3328]
	ldr	w6, [x29,252]
	strh	w7, [x29,224]
	strh	w6, [x29,230]
	str	x9, [x29,176]
	blr	x5
.LVL371:
	ldr	x9, [x29,176]
.L268:
.LBE191:
	.loc 1 1665 0 is_stmt 1
	ldr	w0, [x26,3328]
	add	x1, x29, 200
	add	x2, x29, 204
	add	x3, x29, 208
	str	x9, [x29,176]
	bl	VCTRL_GetChanImgNum
.LVL372:
	.loc 1 1667 0
	ldr	x0, [x20]
	ldr	x9, [x29,176]
	ldr	w0, [x0,772]
	cmp	w0, 1
	bne	.L269
	.loc 1 1670 0
	ldr	w0, [x29,208]
.LVL373:
	cmp	w0, wzr
	bgt	.L327
.L269:
	.loc 1 1683 0
	add	x0, x24, 3168
	str	x0, [x29,176]
	mov	x1, x0
	ldr	w0, [x26,3328]
	add	x27, x1, 16384
	.loc 1 1685 0
	add	x3, x23, 3208
	.loc 1 1683 0
	mov	w2, 1
	str	x9, [x29,160]
	.loc 1 1685 0
	str	x3, [x29,168]
	.loc 1 1683 0
	ldr	w1, [x27,4084]
	bl	FSP_ClearLogicFs
.LVL374:
	.loc 1 1683 0 is_stmt 0 discriminator 1
	ldr	w1, [x27,4080]
	mov	w2, 1
	ldr	w0, [x26,3328]
	bl	FSP_ClearLogicFs
.LVL375:
	.loc 1 1683 0
	str	wzr, [x27,4080]
	str	wzr, [x27,4084]
	.loc 1 1683 0 discriminator 2
	ldr	w0, [x26,3328]
	bl	FSP_GetNullLogicFs
.LVL376:
	.loc 1 1683 0
	str	w0, [x27,4084]
	str	w0, [x27,4080]
	.loc 1 1684 0 is_stmt 1
	ldr	x0, [x29,176]
	.loc 1 1685 0
	ldr	x1, [x29,168]
	.loc 1 1684 0
	strb	wzr, [x0,25]
	.loc 1 1685 0
	ldr	w0, [x26,3328]
	bl	FSP_ClearNotInVoQueue
.LVL377:
	.loc 1 1687 0
	ldr	w2, [x29,256]
	ldr	x9, [x29,160]
	cmp	w2, 512
	bhi	.L391
	.loc 1 1688 0
	ldr	w5, [x29,252]
	.loc 1 1687 0 discriminator 1
	cmp	w5, 512
	.loc 1 1688 0
	mov	w3, w5
	.loc 1 1687 0 discriminator 1
	bhi	.L271
	.loc 1 1696 0
	ldr	x0, [x20]
	ldr	w1, [x0,772]
	cbnz	w1, .L273
	.loc 1 1696 0 is_stmt 0 discriminator 1
	ldr	w0, [x0,28]
	cmp	w0, 25
	beq	.L392
.L273:
	.loc 1 1706 0 is_stmt 1
	ldr	x0, [x29,168]
	str	x9, [x29,176]
	bl	ResetVoQueue
.LVL378:
	ldr	w2, [x29,256]
	ldr	w5, [x29,252]
	ldr	x9, [x29,176]
.L274:
	.loc 1 1708 0
	adrp	x1, .LC11
	mov	w3, w5
	add	x1, x1, :lo12:.LC11
	mov	w0, 1
	str	x9, [x29,176]
	bl	dprint_linux_kernel
.LVL379:
	.loc 1 1710 0
	mov	w0, 6
	mov	x1, x20
	mov	x2, x25
	bl	Real9_ArrangeVHBMem
.LVL380:
	ldr	x9, [x29,176]
	cbz	w0, .L393
.L267:
	.loc 1 1546 0
	add	x0, x23, 1800
.LVL381:
	.loc 1 1717 0
	mov	x1, x25
	mov	x2, 128
	str	x9, [x29,176]
	.loc 1 1546 0
	str	x0, [x29,136]
	.loc 1 1722 0
	add	x27, x24, 3168
	.loc 1 1717 0
	bl	memcpy
.LVL382:
	.loc 1 1722 0
	ldr	x1, [x20]
	.loc 1 1725 0
	mov	x0, x20
	.loc 1 1722 0
	ldr	w1, [x1,12]
	strb	w1, [x27,24]
	.loc 1 1725 0
	bl	Real9_GetImageBuffer
.LVL383:
	ldr	x9, [x29,176]
	cbz	w0, .L394
	.loc 1 1732 0
	add	x4, x27, 16384
	add	x26, x20, 49152
	str	x4, [x29,176]
	str	x9, [x29,168]
	ldr	w1, [x4,4088]
	ldr	w0, [x26,3328]
	bl	FSP_GetFsImagePtr
.LVL384:
	mov	x25, x0
.LVL385:
	.loc 1 1733 0
	ldr	x4, [x29,176]
	cbz	x0, .L381
	.loc 1 1735 0
	ldr	x2, [x20]
	.loc 1 1743 0
	mov	x3, -1
	.loc 1 1744 0
	adrp	x1, .LC14
	mov	w0, 29
	add	x1, x1, :lo12:.LC14
	.loc 1 1735 0
	ldr	x2, [x2,48]
	str	x2, [x25,224]
	.loc 1 1736 0
	ldr	x2, [x20]
	ldr	x2, [x2,64]
	str	x2, [x25,232]
	.loc 1 1737 0
	ldr	x2, [x20]
	ldr	x2, [x2,80]
	str	x2, [x25,240]
	.loc 1 1738 0
	ldr	x2, [x20]
	ldr	w2, [x2,96]
	str	w2, [x25,8]
	.loc 1 1739 0
	ldr	x2, [x20]
	ldr	w2, [x2,100]
	str	w2, [x25,12]
	.loc 1 1740 0
	ldr	x2, [x20]
	ldr	w2, [x2,104]
	str	w2, [x25,16]
	.loc 1 1741 0
	ldr	x2, [x20]
	ldr	w2, [x2,120]
	str	w2, [x25,20]
	.loc 1 1743 0
	ldr	x2, [x20]
	str	x3, [x2,48]
	.loc 1 1744 0
	ldr	x2, [x25,224]
	ldr	x3, [x25,232]
	bl	dprint_linux_kernel
.LVL386:
	.loc 1 1753 0
	ldr	x0, [x29,136]
.LVL387:
	ldr	x4, [x29,176]
	ldr	x9, [x29,168]
	ldr	w0, [x0,8]
.LVL388:
	cmp	w0, 2
	beq	.L382
	.loc 1 1755 0
	cmp	w0, 1
	.loc 1 1755 0 is_stmt 0 discriminator 1
	ldrb	w0, [x27,25]
	.loc 1 1755 0
	beq	.L395
	.loc 1 1759 0 is_stmt 1 discriminator 2
	cmp	w0, wzr
	mov	w0, 2
	csinc	w0, w0, wzr, ne
.L280:
	.loc 1 1759 0 is_stmt 0 discriminator 4
	add	x27, x24, 3168
	strb	w0, [x24,3193]
	.loc 1 1760 0 is_stmt 1
	add	x27, x27, 16384
	ldr	w2, [x27,4080]
	ldr	w0, [x27,4084]
	cmp	w2, w0
	beq	.L281
	.loc 1 1763 0
	adrp	x1, .LC15
	mov	w0, 13
	add	x1, x1, :lo12:.LC15
	str	x9, [x29,176]
	bl	dprint_linux_kernel
.LVL389:
	.loc 1 1764 0
	ldr	w0, [x26,3328]
	mov	w2, 0
	ldr	w1, [x27,4080]
	bl	FSP_SetRef
.LVL390:
	ldr	x9, [x29,176]
.L281:
	.loc 1 1766 0
	add	x27, x24, 3168
	.loc 1 1768 0
	mov	w2, 1
	.loc 1 1766 0
	add	x27, x27, 16384
	str	x9, [x29,176]
	ldr	w0, [x27,4084]
	.loc 1 1767 0
	ldr	w1, [x27,4088]
	str	w1, [x27,4084]
	.loc 1 1766 0
	str	w0, [x27,4080]
	.loc 1 1768 0
	ldr	w0, [x26,3328]
	bl	FSP_SetRef
.LVL391:
	.loc 1 1770 0
	ldr	w0, [x26,3328]
	ldr	w1, [x27,4080]
	bl	FSP_RemovePmv
.LVL392:
	.loc 1 1771 0
	ldr	w2, [x27,4088]
	adrp	x1, .LC16
	add	x1, x1, :lo12:.LC16
	mov	w0, 13
	bl	dprint_linux_kernel
.LVL393:
	ldr	x9, [x29,176]
.L282:
	.loc 1 1782 0
	add	x2, x24, 3168
	ldr	w0, [x26,3328]
	add	x2, x2, 16384
	str	x9, [x29,160]
	str	x2, [x29,176]
	ldr	w1, [x2,4088]
	bl	FSP_GetLogicFs
.LVL394:
	mov	x27, x0
.LVL395:
	.loc 1 1783 0
	ldr	x2, [x29,176]
	ldr	w0, [x26,3328]
	str	x2, [x29,168]
	ldr	w1, [x2,4080]
	bl	FSP_GetLogicFs
.LVL396:
	str	x0, [x29,176]
	.loc 1 1784 0
	ldr	x2, [x29,168]
	ldr	w0, [x26,3328]
.LVL397:
	ldr	w1, [x2,4084]
	bl	FSP_GetLogicFs
.LVL398:
	mov	x10, x0
.LVL399:
	.loc 1 1786 0
	ldr	x11, [x29,176]
.LVL400:
	cmp	x11, xzr
	cset	w1, eq
	cmp	x27, xzr
	cset	w0, eq
	.loc 1 1786 0 is_stmt 0 discriminator 1
	orr	w0, w1, w0
	cbnz	w0, .L332
	ldr	x9, [x29,160]
	cbz	x10, .L332
	.loc 1 1792 0 is_stmt 1
	ldr	x0, [x27,296]
	cbz	x0, .L285
	.loc 1 1792 0 is_stmt 0 discriminator 1
	ldr	x1, [x27,312]
	cbz	x1, .L285
	.loc 1 1792 0 discriminator 2
	ldr	x1, [x27,304]
	cbz	x1, .L285
	.loc 1 1800 0 is_stmt 1
	ldr	x1, [x10,296]
	cbz	x1, .L287
	.loc 1 1800 0 is_stmt 0 discriminator 1
	ldr	w5, [x1,12]
.L288:
	.loc 1 1800 0 discriminator 4
	ldr	x0, [x29,184]
	str	w5, [x0,44]
	.loc 1 1801 0 is_stmt 1
	ldr	x0, [x11,296]
	cbz	x0, .L396
.L378:
	.loc 1 1801 0 is_stmt 0 discriminator 4
	ldr	x8, [x29,184]
	.loc 1 1809 0 is_stmt 1
	adrp	x1, .LC19
	.loc 1 1801 0 discriminator 2
	ldr	w4, [x0,12]
	.loc 1 1809 0
	add	x1, x1, :lo12:.LC19
	mov	w0, 13
	str	x9, [x29,160]
	.loc 1 1801 0 discriminator 4
	str	w4, [x8,48]
	str	x11, [x29,168]
	.loc 1 1802 0
	ldr	x2, [x27,296]
	.loc 1 1805 0
	str	x10, [x29,176]
	.loc 1 1802 0
	ldr	w2, [x2,12]
	str	w2, [x8,52]
	.loc 1 1803 0
	ldr	w6, [x27,320]
	str	w6, [x8,64]
	.loc 1 1805 0
	ldr	w7, [x10,320]
	str	w7, [x8,68]
	.loc 1 1806 0
	ldr	x3, [x27,304]
	ldr	w3, [x3,12]
	str	w3, [x8,56]
	.loc 1 1809 0
	bl	dprint_linux_kernel
.LVL401:
	.loc 1 1812 0
	ldr	x1, [x27,304]
	.loc 1 1813 0
	add	x0, x24, 3168
	.loc 1 1812 0
	ldr	x3, [x29,184]
	.loc 1 1813 0
	add	x0, x0, 16384
	.loc 1 1816 0
	ldr	x10, [x29,176]
.LVL402:
	.loc 1 1812 0
	ldr	w1, [x1,20]
	str	w1, [x3,60]
	.loc 1 1816 0
	ldr	x11, [x29,168]
.LVL403:
	.loc 1 1813 0
	ldr	x1, [x27,304]
	.loc 1 1816 0
	ldr	x9, [x29,160]
	.loc 1 1813 0
	ldr	w1, [x1,20]
	str	w1, [x0,4052]
	.loc 1 1816 0
	ldr	w0, [x23,1808]
	cmp	w0, 2
	beq	.L397
.LVL404:
.L291:
	.loc 1 1851 0
	ldr	w0, [x23,1836]
.LVL405:
	.loc 1 1853 0
	adrp	x1, s_pstVfmwChan
.LVL406:
	.loc 1 1851 0
	str	w0, [x27,328]
	.loc 1 1853 0
	add	x1, x1, :lo12:s_pstVfmwChan
	ldrsw	x2, [x26,3328]
	ldr	x1, [x1,x2,lsl 3]
	cbz	x1, .L296
	.loc 1 1853 0 is_stmt 0 discriminator 1
	ldrsb	w1, [x1,38]
	cmp	w1, 1
	beq	.L398
.L296:
	.loc 1 1862 0 is_stmt 1
	ldr	w2, [x23,1852]
	.loc 1 1859 0
	ldr	w0, [x23,1848]
.LVL407:
	str	w0, [x29,148]
	.loc 1 1862 0
	cmp	w2, 2
	bhi	.L399
	ldr	w1, [x29,148]
.L298:
.LBB192:
.LBB193:
	.loc 1 1330 0
	ldr	w3, [x23,1808]
	.loc 1 1333 0
	add	x0, x24, 3168
.LVL408:
	.loc 1 1330 0
	strb	w3, [x20,16]
	.loc 1 1333 0
	add	x0, x0, 16384
	.loc 1 1331 0
	ldr	x4, [x29,184]
	.loc 1 1340 0
	cmp	w3, 2
	.loc 1 1331 0
	ldr	w3, [x23,1824]
	str	w3, [x4,4]
	.loc 1 1332 0
	ldr	w2, [x23,1820]
	str	w2, [x4,8]
	.loc 1 1333 0
	ldr	w2, [x0,4004]
	str	w2, [x4,12]
	.loc 1 1334 0
	ldr	w2, [x0,4008]
	str	w2, [x4,16]
	.loc 1 1336 0
	str	w1, [x4,20]
	.loc 1 1337 0
	ldr	w2, [x0,2900]
	str	w2, [x4,24]
	.loc 1 1338 0
	ldr	w2, [x0,2904]
	str	w2, [x4,28]
	.loc 1 1340 0
	beq	.L299
	.loc 1 1342 0
	str	w1, [x0,2900]
.L299:
.LBE193:
.LBE192:
	.loc 1 1897 0
	mov	x0, x19
	str	x9, [x29,176]
	add	x27, x23, 1928
.LVL409:
	bl	BsPos
.LVL410:
	asr	w2, w0, 31
	lsr	w2, w2, 29
	.loc 1 1898 0
	add	x1, x24, 3168
	.loc 1 1897 0
	add	w0, w0, w2
	.loc 1 1898 0
	add	x1, x1, 16384
	.loc 1 1897 0
	and	w0, w0, 7
	.loc 1 1898 0
	ldr	x9, [x29,176]
	.loc 1 1897 0
	sub	w0, w0, w2
	str	w0, [x27,20]
	.loc 1 1898 0
	ldr	w0, [x1,2916]
	cmp	w0, 1
	beq	.L400
	.loc 1 1904 0
	ldr	w2, [x1,2924]
	mov	x0, x19
	ldr	w1, [x1,2920]
	str	x9, [x29,176]
.L379:
	sub	w1, w2, w1
	lsl	w25, w1, 3
.LVL411:
	bl	BsPos
.LVL412:
	sub	w0, w25, w0
	.loc 1 1906 0
	add	x3, x24, 3168
	.loc 1 1904 0
	str	w0, [x27,24]
	.loc 1 1906 0
	add	x25, x3, 16384
	.loc 1 1904 0
	ldr	x9, [x29,176]
	.loc 1 1906 0
	mov	x0, x19
	str	x3, [x29,176]
	ldr	w2, [x25,3948]
	add	w27, w9, w2
	bl	BsPos
.LVL413:
	cmp	w0, wzr
	add	w1, w0, 7
.LBB194:
.LBB195:
	.loc 1 1300 0
	ldr	x3, [x29,184]
.LBE195:
.LBE194:
	.loc 1 1906 0
	csel	w0, w1, w0, lt
	.loc 1 1912 0
	ldr	w5, [x29,148]
	.loc 1 1914 0
	ldr	w1, [x23,1844]
	.loc 1 1906 0
	add	w9, w27, w0, asr 3
	.loc 1 1913 0
	ldr	w0, [x23,1852]
	.loc 1 1908 0
	str	wzr, [x23,1960]
.LBB198:
.LBB196:
	.loc 1 1314 0
	mov	w27, 1
.LBE196:
.LBE198:
	.loc 1 1909 0
	str	wzr, [x23,1964]
	.loc 1 1910 0
	str	wzr, [x23,1968]
	.loc 1 1906 0
	str	w9, [x23,1956]
.LVL414:
	.loc 1 1912 0
	str	w5, [x23,1928]
	.loc 1 1913 0
	str	w0, [x23,1932]
	.loc 1 1914 0
	str	w1, [x23,1936]
	.loc 1 1915 0
	str	wzr, [x23,1940]
.LBB199:
.LBB197:
	.loc 1 1300 0
	str	w9, [x3,72]
	.loc 1 1301 0
	ldr	w2, [x23,1948]
	str	w2, [x3,80]
	.loc 1 1302 0
	ldr	w2, [x23,1952]
	str	w2, [x3,88]
	.loc 1 1304 0
	str	wzr, [x3,76]
	.loc 1 1305 0
	str	wzr, [x3,84]
	.loc 1 1306 0
	str	wzr, [x3,92]
	.loc 1 1308 0
	str	w1, [x3,96]
	.loc 1 1309 0
	str	w0, [x3,100]
	.loc 1 1310 0
	str	w5, [x3,104]
	.loc 1 1311 0
	str	wzr, [x3,108]
	.loc 1 1314 0
	str	w27, [x3,32]
.LBE197:
.LBE199:
	.loc 1 1921 0 discriminator 1
	ldr	x3, [x29,176]
	ldr	w0, [x25,2916]
	cmp	w0, w27
	bls	.L321
	.loc 1 1923 0
	ldr	w6, [x25,2924]
	.loc 1 1924 0
	mov	w0, 3145727
	.loc 1 1923 0
	add	w6, w21, w6
	.loc 1 1924 0
	cmp	w6, w0
	bgt	.L307
	.loc 1 1929 0
	cmp	w6, wzr
	ble	.L307
	.loc 1 1929 0 is_stmt 0 discriminator 1
	ldr	w2, [x25,3952]
	sub	w2, w2, w6
	cmp	w2, wzr
	ble	.L307
	mov	w1, w27
	str	w1, [x29,124]
	.loc 1 1986 0 is_stmt 1
	add	x1, x25, 2916
	str	x1, [x29,128]
	.loc 1 1980 0
	adrp	x1, .LC22
	.loc 1 1929 0 discriminator 1
	str	w27, [x29,176]
	.loc 1 1980 0
	add	x1, x1, :lo12:.LC22
	.loc 1 1986 0
	str	x25, [x29,168]
	add	x27, x23, 2000
	.loc 1 1934 0
	str	x3, [x29,152]
	.loc 1 1980 0
	str	x1, [x29,112]
	.loc 1 1924 0
	str	w0, [x29,144]
	b	.L310
.LVL415:
.L311:
	.loc 1 1921 0 discriminator 1
	ldr	x0, [x29,128]
	.loc 1 1921 0 is_stmt 0 discriminator 2
	ldr	w1, [x29,176]
	.loc 1 1921 0 discriminator 1
	ldr	w0, [x0]
	.loc 1 1921 0 discriminator 2
	add	w1, w1, 1
	str	w1, [x29,176]
	.loc 1 1921 0 discriminator 1
	cmp	w0, w1
	bls	.L321
	.loc 1 1923 0 is_stmt 1
	ldr	w6, [x27]
	.loc 1 1924 0
	ldr	w0, [x29,144]
	.loc 1 1923 0
	add	w6, w21, w6
	.loc 1 1924 0
	cmp	w6, w0
	bgt	.L307
	.loc 1 1929 0
	cmp	w6, wzr
	ble	.L307
	.loc 1 1929 0 is_stmt 0 discriminator 1
	ldr	x0, [x29,168]
	add	x27, x27, 4
	ldr	w2, [x0,3952]
.LVL416:
	sub	w2, w2, w6
	cmp	w2, wzr
	ble	.L307
.L310:
	.loc 1 1934 0 is_stmt 1
	ldr	x1, [x29,152]
	mov	x0, x19
	str	x6, [x29,160]
	ldr	x1, [x1]
	add	x1, x1, x6, sxtw
	bl	BsInit
.LVL417:
	.loc 1 1937 0
	ldr	x5, [x29,136]
	add	x2, x29, 212
	mov	x0, x19
	mov	w1, 0
	add	x3, x29, 216
	add	x4, x29, 220
	bl	Real9_CB_GetSliceHeader
.LVL418:
	.loc 1 1938 0
	cmp	w0, 1
	.loc 1 1937 0
	mov	w2, w0
.LVL419:
	.loc 1 1938 0
	ldr	x6, [x29,160]
	bne	.L311
	.loc 1 1945 0
	add	x1, x23, 1800
	.loc 1 1943 0
	ldr	w3, [x29,212]
	.loc 1 1945 0
	ldr	w0, [x1,24]
.LVL420:
	.loc 1 1943 0
	str	w3, [x29,160]
	.loc 1 1945 0
	cbz	w0, .L401
	.loc 1 1954 0
	ldr	w0, [x29,220]
	.loc 1 1959 0
	ldr	w2, [x1,52]
.LVL421:
	.loc 1 1956 0
	ldr	w1, [x29,148]
	cmp	w0, wzr
.LVL422:
	csel	w0, w1, w0, lt
.LVL423:
	.loc 1 1959 0
	cmp	w2, 2
	.loc 1 1956 0
	str	w0, [x29,148]
	.loc 1 1959 0
	bhi	.L402
.L315:
	.loc 1 1985 0
	mov	x0, x19
.LVL424:
	str	x6, [x29,104]
	add	x25, x23, 1928
	bl	BsPos
.LVL425:
	asr	w1, w0, 31
	lsr	w1, w1, 29
	.loc 1 1986 0
	ldr	x6, [x29,104]
	.loc 1 1985 0
	add	w0, w0, w1
	and	w0, w0, 7
	sub	w0, w0, w1
	str	w0, [x25,20]
	.loc 1 1986 0
	ldr	x0, [x29,128]
	ldr	w1, [x29,176]
	ldr	w0, [x0]
	sub	w0, w0, #1
	cmp	w0, w1
	beq	.L403
	.loc 1 1992 0
	ldr	w0, [x29,176]
	cmp	w0, 254
	bhi	.L404
	.loc 1 1997 0
	ldr	w1, [x27]
	mov	x0, x19
	ldr	w2, [x27,-4]
	str	x6, [x29,96]
.L380:
	sub	w1, w1, w2
	lsl	w1, w1, 3
	str	x1, [x29,104]
	bl	BsPos
.LVL426:
	ldr	x1, [x29,104]
	ldr	x6, [x29,96]
	sub	w0, w1, w0
	str	w0, [x25,24]
	.loc 1 2000 0
	ldr	x0, [x29,168]
	ldr	w5, [x0,3948]
	mov	x0, x19
	add	w6, w6, w5
	str	x6, [x29,104]
	bl	BsPos
.LVL427:
	cmp	w0, wzr
.LBB200:
.LBB201:
	.loc 1 1300 0
	ldr	w5, [x29,124]
.LBE201:
.LBE200:
	.loc 1 2000 0
	add	w2, w0, 7
	csel	w2, w2, w0, lt
.LBB208:
.LBB202:
	.loc 1 1300 0
	ldr	x11, [x29,184]
.LBE202:
.LBE208:
	.loc 1 2000 0
	ldr	x6, [x29,104]
.LVL428:
.LBB209:
.LBB203:
	.loc 1 1300 0
	sxtw	x4, w5
.LVL429:
.LBE203:
.LBE209:
	.loc 1 2005 0
	ldr	w8, [x29,148]
.LBB210:
.LBB204:
	.loc 1 1300 0
	lsl	x0, x4, 4
.LBE204:
.LBE210:
	.loc 1 2000 0
	add	w6, w6, w2, asr 3
.LBB211:
.LBB205:
	.loc 1 1300 0
	sub	x0, x0, x4, lsl 2
	.loc 1 1314 0
	add	w2, w5, 1
.LVL430:
	.loc 1 1300 0
	sub	x0, x0, x4
.LBE205:
.LBE211:
	.loc 1 2007 0
	ldr	w5, [x23,1844]
	.loc 1 2006 0
	ldr	w4, [x23,1852]
.LBB212:
.LBB206:
	.loc 1 1314 0
	mov	w7, w2
	.loc 1 1300 0
	add	x0, x11, x0, lsl 2
.LBE206:
.LBE212:
	.loc 1 2008 0
	ldr	w12, [x29,160]
	.loc 1 2000 0
	str	w6, [x23,1956]
	.loc 1 2013 0
	cmp	w2, 195
	.loc 1 2001 0
	str	wzr, [x23,1960]
	.loc 1 2002 0
	str	wzr, [x23,1964]
	.loc 1 2003 0
	str	wzr, [x23,1968]
.LVL431:
	.loc 1 2005 0
	str	w8, [x23,1928]
	.loc 1 2006 0
	str	w4, [x23,1932]
	.loc 1 2007 0
	str	w5, [x23,1936]
.LVL432:
	.loc 1 2008 0
	str	w12, [x23,1940]
.LBB213:
.LBB207:
	.loc 1 1300 0
	str	w6, [x0,72]
	.loc 1 1314 0
	str	w2, [x29,124]
	.loc 1 1301 0
	ldr	w6, [x23,1948]
	str	w6, [x0,80]
	.loc 1 1302 0
	ldr	w1, [x23,1952]
	str	w1, [x0,88]
	.loc 1 1304 0
	str	wzr, [x0,76]
	.loc 1 1305 0
	str	wzr, [x0,84]
	.loc 1 1306 0
	str	wzr, [x0,92]
	.loc 1 1308 0
	str	w5, [x0,96]
	.loc 1 1309 0
	str	w4, [x0,100]
	.loc 1 1310 0
	str	w8, [x0,104]
	.loc 1 1311 0
	str	w12, [x0,108]
	.loc 1 1314 0
	mov	x0, x11
	str	w7, [x0,32]
.LBE207:
.LBE213:
	.loc 1 2013 0
	ble	.L311
	.loc 1 2016 0
	mov	x0, x20
	bl	Real9_ModifySliceMsg
.LVL433:
	cmp	w0, 1
	bne	.L405
	.loc 1 2021 0
	ldr	x0, [x29,184]
	str	x0, [x20,8]
	b	.L311
.LVL434:
.L389:
	.loc 1 1653 0
	adrp	x1, .LC9
	mov	w0, 1
	add	x1, x1, :lo12:.LC9
	.loc 1 1654 0
	mov	w28, 0
	.loc 1 1653 0
	bl	dprint_linux_kernel
.LVL435:
	.loc 1 1654 0
	b	.L256
.L391:
	ldr	w3, [x29,252]
.L271:
	.loc 1 1690 0
	adrp	x1, .LC10
	mov	w0, 18
	add	x1, x1, :lo12:.LC10
	.loc 1 1693 0
	mov	w28, 0
	.loc 1 1690 0
	bl	dprint_linux_kernel
.LVL436:
	.loc 1 1693 0
	b	.L256
.L394:
	.loc 1 1727 0
	add	x27, x27, 16384
	adrp	x1, .LC13
	add	x1, x1, :lo12:.LC13
	.loc 1 1728 0
	mov	w28, 0
	.loc 1 1727 0
	ldr	w2, [x27,3980]
	bl	dprint_linux_kernel
.LVL437:
	.loc 1 1728 0
	b	.L256
.L390:
	.loc 1 1659 0
	ldr	w1, [x25,20]
	ldr	w0, [x23,1820]
	cmp	w1, w0
	bne	.L266
	b	.L267
.LVL438:
.L402:
	.loc 1 1980 0
	ldr	x1, [x29,112]
	mov	w0, 22
.LVL439:
	str	x6, [x29,104]
	bl	dprint_linux_kernel
.LVL440:
	ldr	x6, [x29,104]
	.loc 1 1981 0
	b	.L315
.LVL441:
.L393:
	.loc 1 1712 0
	adrp	x1, .LC12
	mov	w0, 1
	add	x1, x1, :lo12:.LC12
	.loc 1 1713 0
	mov	w28, 0
	.loc 1 1712 0
	bl	dprint_linux_kernel
.LVL442:
	.loc 1 1713 0
	b	.L256
.L392:
	.loc 1 1698 0
	ldr	x0, [x29,176]
	ldrb	w0, [x0,28]
	cbnz	w0, .L274
	b	.L273
.LVL443:
.L307:
	.loc 1 1931 0
	add	x24, x24, 3168
	ldr	w0, [x26,3328]
	add	x24, x24, 16384
	mov	w2, 1
.LVL444:
	.loc 1 1932 0
	mov	w28, 0
	.loc 1 1931 0
	ldr	w1, [x24,4088]
	bl	FSP_ClearLogicFs
.LVL445:
	.loc 1 1932 0
	b	.L256
.LVL446:
.L382:
	.loc 1 1775 0
	ldrb	w0, [x27,25]
	cmp	w0, 1
	bhi	.L282
.L381:
	.loc 1 1777 0
	ldr	w0, [x26,3328]
	mov	w2, 1
	ldr	w1, [x4,4088]
	.loc 1 1778 0
	mov	w28, 0
	.loc 1 1777 0
	bl	FSP_ClearLogicFs
.LVL447:
	.loc 1 1778 0
	b	.L256
.L395:
	.loc 1 1755 0 discriminator 1
	cbz	w0, .L260
	.loc 1 1759 0 discriminator 1
	mov	w0, 2
	b	.L280
.LVL448:
.L403:
	.loc 1 1988 0
	mov	x2, x1
	ldr	x0, [x29,168]
	add	x2, x2, 4096
	ldr	x3, [x29,152]
	str	x6, [x29,96]
	add	x2, x3, x2, lsl 2
	ldr	w1, [x0,3952]
	mov	x0, x19
	sub	w1, w1, w21
	ldr	w2, [x2,2920]
	b	.L380
.LVL449:
.L388:
	.loc 1 2069 0
	bl	__stack_chk_fail
.LVL450:
.L327:
	.loc 1 1672 0
	mov	w28, -2
	b	.L256
.LVL451:
.L332:
	.loc 1 1788 0
	adrp	x1, .LC17
	adrp	x2, .LANCHOR1
	add	x1, x1, :lo12:.LC17
	add	x2, x2, :lo12:.LANCHOR1
	mov	w3, 1788
	mov	w0, 0
	.loc 1 1789 0
	mov	w28, 0
	.loc 1 1788 0
	bl	dprint_linux_kernel
.LVL452:
	.loc 1 1789 0
	b	.L256
.LVL453:
.L398:
	.loc 1 1855 0
	uxtw	x0, w0
	str	x0, [x25,232]
	.loc 1 1856 0
	adrp	x1, .LC20
	mov	w0, 29
	ldr	w2, [x27,328]
	add	x1, x1, :lo12:.LC20
	str	x9, [x29,176]
	bl	dprint_linux_kernel
.LVL454:
	ldr	x9, [x29,176]
	b	.L296
.LVL455:
.L287:
	.loc 1 1800 0 discriminator 2
	ldr	w5, [x0,12]
	b	.L288
.L285:
	.loc 1 1794 0
	add	x24, x24, 3168
	ldr	w0, [x26,3328]
	add	x24, x24, 16384
	mov	w2, 1
	.loc 1 1796 0
	mov	w28, 0
	.loc 1 1794 0
	ldr	w1, [x24,4088]
	bl	FSP_ClearLogicFs
.LVL456:
	.loc 1 1795 0
	adrp	x1, .LC18
	mov	w0, 0
	add	x1, x1, :lo12:.LC18
	bl	dprint_linux_kernel
.LVL457:
	.loc 1 1796 0
	b	.L256
.LVL458:
.L321:
.LBB214:
.LBB215:
	.loc 1 1354 0
	ldr	x0, [x29,184]
	mov	w2, 1
.LVL459:
	str	w2, [x0,36]
.LBE215:
.LBE214:
	.loc 1 2030 0
	ldr	x3, [x20,8]
	cbz	x3, .L406
	.loc 1 2040 0
	ldr	x0, [x20]
	ldr	w1, [x0,880]
	cmp	w1, 1
	beq	.L325
.L323:
	.loc 1 2050 0
	cmp	w1, 2
	beq	.L407
.L324:
	.loc 1 2062 0
	ldr	w0, [x0,676]
	str	w0, [x20,11352]
	.loc 1 2068 0
	b	.L256
.LVL460:
.L400:
	.loc 1 1900 0
	ldr	w2, [x1,3952]
	mov	x0, x19
	ldr	w1, [x1,2920]
	sub	w2, w2, w21
	b	.L379
.LVL461:
.L397:
	.loc 1 1819 0
	ldr	w3, [x11,328]
	ldr	w1, [x23,1836]
	.loc 1 1820 0
	ldr	w0, [x10,328]
	.loc 1 1822 0
	subs	w1, w1, w3
.LVL462:
	.loc 1 1820 0
	sub	w0, w0, w3
.LVL463:
	.loc 1 1822 0
	bmi	.L408
.L292:
	.loc 1 1826 0
	tbnz	w0, #31, .L409
.L293:
	.loc 1 1832 0
	cmp	w1, w0
	csel	w1, w1, wzr, le
	.loc 1 1834 0
	cmp	w0, wzr
	ble	.L330
	.loc 1 1837 0
	sub	w2, w0, w1
	.loc 1 1836 0
	lsl	w4, w1, 14
	.loc 1 1837 0
	lsl	w2, w2, 14
	.loc 1 1836 0
	sdiv	w4, w4, w0
	.loc 1 1837 0
	sdiv	w2, w2, w0
.L295:
	.loc 1 1844 0
	add	x3, x24, 3168
	add	x3, x3, 16384
	str	w1, [x3,3996]
	.loc 1 1845 0
	str	w0, [x3,4000]
	.loc 1 1847 0
	str	w4, [x3,4004]
	.loc 1 1848 0
	str	w2, [x3,4008]
	b	.L291
.LVL464:
.L396:
	.loc 1 1801 0 discriminator 2
	ldr	x0, [x27,296]
	b	.L378
.LVL465:
.L399:
	.loc 1 1883 0
	adrp	x1, .LC21
	mov	w0, 22
.LVL466:
	add	x1, x1, :lo12:.LC21
	str	x9, [x29,176]
	bl	dprint_linux_kernel
.LVL467:
	ldr	w1, [x23,1848]
	.loc 1 1884 0
	ldr	x9, [x29,176]
	b	.L298
.LVL468:
.L407:
	.loc 1 2052 0
	ldr	w1, [x0,884]
	cmp	w1, wzr
	ble	.L324
	.loc 1 2052 0 is_stmt 0 discriminator 1
	ldr	x1, [x20,8]
	cbz	x1, .L324
	.loc 1 2053 0 is_stmt 1
	ldrb	w1, [x1]
	cmp	w1, 2
	bne	.L324
	.loc 1 2055 0
	str	xzr, [x20,8]
	.loc 1 2056 0
	mov	w2, 0
	.loc 1 2059 0
	mov	w28, 0
	.loc 1 2056 0
	ldr	w0, [x26,3328]
	ldr	w1, [x23,3160]
	bl	FSP_SetDisplay
.LVL469:
	.loc 1 2057 0
	ldr	x3, [x20]
	.loc 1 2058 0
	mov	w0, 9
	mov	x1, x20
	.loc 1 2057 0
	ldr	w2, [x3,884]
	sub	w2, w2, #1
	str	w2, [x3,884]
	.loc 1 2058 0
	bl	ReleasePacket
.LVL470:
	.loc 1 2059 0
	b	.L256
.LVL471:
.L408:
	.loc 1 1824 0
	ldr	w2, [x23,1832]
	add	w1, w1, w2
	b	.L292
.LVL472:
.L401:
	.loc 1 1947 0
	ldr	x0, [x29,152]
	.loc 1 1948 0
	mov	w28, 0
	.loc 1 1947 0
	add	x1, x0, 16384
	ldr	w0, [x26,3328]
	ldr	w1, [x1,4088]
	bl	FSP_ClearLogicFs
.LVL473:
	.loc 1 1948 0
	b	.L256
.LVL474:
.L406:
	.loc 1 2032 0
	mov	x0, x20
	str	x2, [x29,176]
	bl	Real9_ModifySliceMsg
.LVL475:
	cmp	w0, 1
	ldr	x2, [x29,176]
	bne	.L410
	.loc 1 2037 0
	ldr	x1, [x29,184]
	.loc 1 2040 0
	ldr	x0, [x20]
	.loc 1 2037 0
	str	x1, [x20,8]
	.loc 1 2040 0
	ldr	w1, [x0,880]
	cmp	w1, 1
	bne	.L323
	.loc 1 2042 0
	ldr	x1, [x29,184]
	cbz	x1, .L324
	mov	x3, x1
.LVL476:
.L325:
	.loc 1 2042 0 is_stmt 0 discriminator 1
	ldrb	w1, [x3]
	cmp	w1, 2
	bne	.L324
	.loc 1 2044 0 is_stmt 1
	str	xzr, [x20,8]
	.loc 1 2045 0
	mov	w2, 0
	.loc 1 2047 0
	mov	w28, 0
	.loc 1 2045 0
	ldr	w0, [x26,3328]
	ldr	w1, [x23,3160]
	bl	FSP_SetDisplay
.LVL477:
	.loc 1 2046 0
	mov	w0, 9
	mov	x1, x20
	bl	ReleasePacket
.LVL478:
	.loc 1 2047 0
	b	.L256
.L404:
	.loc 1 1994 0
	adrp	x1, .LC23
	mov	w2, 1994
	add	x1, x1, :lo12:.LC23
	mov	w0, 22
	.loc 1 1995 0
	mov	w28, 0
	.loc 1 1994 0
	bl	dprint_linux_kernel
.LVL479:
	.loc 1 1995 0
	b	.L256
.LVL480:
.L330:
	.loc 1 1841 0
	mov	w2, 0
	mov	w4, 0
	b	.L295
.L409:
	.loc 1 1828 0
	ldr	w2, [x23,1832]
	add	w0, w0, w2
	b	.L293
.LVL481:
.L405:
	.loc 1 2018 0
	ldr	x1, [x29,168]
	mov	w2, 1
	ldr	w0, [x26,3328]
	.loc 1 2019 0
	mov	w28, 0
	.loc 1 2018 0
	ldr	w1, [x1,4088]
	bl	FSP_ClearLogicFs
.LVL482:
	.loc 1 2019 0
	b	.L256
.L410:
	.loc 1 2034 0
	add	x24, x24, 3168
	ldr	w0, [x26,3328]
	add	x24, x24, 16384
	.loc 1 2035 0
	mov	w28, 0
	.loc 1 2034 0
	ldr	w1, [x24,4088]
	bl	FSP_ClearLogicFs
.LVL483:
	.loc 1 2035 0
	b	.L256
	.cfi_endproc
.LFE2659:
	.size	REAL9DEC_Decode, .-REAL9DEC_Decode
	.align	2
	.global	REAL9DEC_Decode_User
	.type	REAL9DEC_Decode_User, %function
REAL9DEC_Decode_User:
.LFB2660:
	.loc 1 2072 0
	.cfi_startproc
.LVL484:
	stp	x29, x30, [sp, -96]!
	.cfi_def_cfa_offset 96
	.cfi_offset 29, -96
	.cfi_offset 30, -88
	add	x29, sp, 0
	.cfi_def_cfa_register 29
	stp	x19, x20, [sp,16]
	.cfi_offset 19, -80
	.cfi_offset 20, -72
	.loc 1 2095 0
	add	x19, x0, 28672
	.loc 1 2072 0
	stp	x21, x22, [sp,32]
	stp	x23, x24, [sp,48]
	stp	x25, x26, [sp,64]
	stp	x27, x28, [sp,80]
	.cfi_offset 21, -64
	.cfi_offset 22, -56
	.cfi_offset 23, -48
	.cfi_offset 24, -40
	.cfi_offset 25, -32
	.cfi_offset 26, -24
	.cfi_offset 27, -16
	.cfi_offset 28, -8
	.loc 1 2072 0
	mov	x23, x1
	.loc 1 2097 0
	mov	w26, 1
	.loc 1 2096 0
	ldr	w1, [x19,1912]
.LVL485:
	.loc 1 2072 0
	mov	x22, x0
	.loc 1 2095 0
	ldr	w2, [x19,1908]
	.loc 1 2089 0
	add	x21, x0, 16
	.loc 1 2096 0
	str	w1, [x19,1920]
	.loc 1 2098 0
	mov	w1, 8192
	.loc 1 2095 0
	str	w2, [x19,1916]
	.loc 1 2097 0
	str	w26, [x19,1804]
	.loc 1 2098 0
	str	w1, [x19,1832]
	.loc 1 2100 0
	cbz	x23, .L467
	.loc 1 2106 0
	mov	w1, 0
	mov	x2, 11340
	mov	x0, x21
	.loc 1 2109 0
	add	x24, x22, 8192
	.loc 1 2106 0
	bl	memset
.LVL486:
	.loc 1 2109 0
	add	x1, x24, 3168
	.loc 1 2115 0
	mov	w2, 32
	.loc 1 2109 0
	add	x0, x1, 16384
	str	wzr, [x0,3944]
	.loc 1 2110 0
	ldr	w4, [x23,8]
	str	w4, [x0,3964]
	.loc 1 2114 0
	ldr	x20, [x23,64]
.LVL487:
	.loc 1 2115 0
	str	w2, [x0,3944]
	.loc 1 2117 0
	ldr	w3, [x20,28]
	.loc 1 2116 0
	ldr	x25, [x23,64]
	.loc 1 2117 0
	lsl	w3, w3, 5
	add	w3, w3, w2
	str	w3, [x0,3944]
	.loc 1 2119 0
	cmp	w4, w3
	ble	.L468
	.loc 1 2126 0
	ldr	w2, [x23,4]
	add	w2, w3, w2
	str	w2, [x0,3948]
	.loc 1 2127 0
	ldr	x2, [x23,64]
	add	x2, x2, x3, sxtw
	str	x2, [x22,11360]
	.loc 1 2128 0
	ldr	w2, [x23,8]
	sub	w2, w2, w3
	str	w2, [x0,3952]
	.loc 1 2129 0
	ldrb	w3, [x23,1]
	strb	w3, [x1,8]
	.loc 1 2131 0
	ldrb	w3, [x23,1]
	cmp	w3, 1
	beq	.L415
	.loc 1 2133 0
	ldr	w3, [x23,84]
	str	w3, [x0,3956]
	.loc 1 2134 0
	ldr	x3, [x23,144]
	str	x3, [x1,16]
	.loc 1 2135 0
	ldr	w3, [x23,88]
	str	w3, [x0,3960]
	.loc 1 2136 0
	ldrb	w0, [x23,81]
	strb	w0, [x1,9]
	.loc 1 2137 0
	ldrb	w0, [x23,81]
	cmp	w0, 1
	bne	.L469
	.loc 1 2153 0
	mov	w1, 65526
	sub	w0, w2, #9
	movk	w1, 0x2f, lsl 16
	cmp	w0, w1
	bhi	.L470
.L417:
	.loc 1 2159 0
	add	x27, x24, 3168
	ldr	w0, [x20,28]
	add	x26, x27, 16384
	.loc 1 2160 0
	sub	w1, w0, #1
	cmp	w1, 255
	.loc 1 2159 0
	str	w0, [x26,2916]
	.loc 1 2160 0
	bhi	.L471
	.loc 1 2166 0
	ldr	w0, [x20,4]
	add	x23, x19, 1800
.LVL488:
	str	w0, [x19,1808]
	.loc 1 2167 0
	ldr	w1, [x20,8]
	add	w1, w1, 15
	lsr	w1, w1, 4
	str	w1, [x19,1824]
	.loc 1 2169 0
	lsl	w2, w1, 4
	.loc 1 2168 0
	ldr	w0, [x20,12]
	.loc 1 2169 0
	str	w2, [x19,1816]
	.loc 1 2168 0
	add	w0, w0, 15
	lsr	w0, w0, 4
	str	w0, [x19,1820]
	.loc 1 2170 0
	lsl	w2, w0, 4
	str	w2, [x19,1812]
	.loc 1 2173 0
	mul	w0, w0, w1
	.loc 1 2171 0
	ldr	w1, [x20,24]
	str	w1, [x19,1840]
	.loc 1 2172 0
	ldr	w1, [x26,3948]
	.loc 1 2173 0
	str	w0, [x19,1828]
	.loc 1 2172 0
	and	w1, w1, -16
	str	w1, [x19,1924]
	.loc 1 2176 0
	ldrb	w0, [x27,28]
	cbnz	w0, .L419
	.loc 1 2178 0
	add	x28, x22, 49152
	ldr	w1, [x26,4084]
	mov	w2, 1
	ldr	w0, [x28,3328]
	bl	FSP_ClearLogicFs
.LVL489:
	.loc 1 2178 0 is_stmt 0 discriminator 1
	ldr	w1, [x26,4080]
	mov	w2, 1
	ldr	w0, [x28,3328]
	bl	FSP_ClearLogicFs
.LVL490:
	.loc 1 2178 0
	str	wzr, [x26,4080]
	str	wzr, [x26,4084]
	.loc 1 2178 0 discriminator 2
	ldr	w0, [x28,3328]
	bl	FSP_GetNullLogicFs
.LVL491:
	.loc 1 2178 0
	str	w0, [x26,4084]
	str	w0, [x26,4080]
	.loc 1 2180 0 is_stmt 1
	add	x1, x19, 3208
	.loc 1 2179 0
	strb	wzr, [x27,25]
	.loc 1 2180 0
	ldr	w0, [x28,3328]
	bl	FSP_ClearNotInVoQueue
.LVL492:
	.loc 1 2181 0
	mov	w0, 6
	mov	x1, x22
	mov	x2, x23
	bl	Real9_ArrangeVHBMem
.LVL493:
	cbz	w0, .L472
.L419:
	.loc 1 2189 0
	ldr	x1, [x22]
	add	x23, x24, 3168
	.loc 1 2192 0
	mov	x0, x22
	.loc 1 2189 0
	ldr	w1, [x1,12]
	strb	w1, [x23,24]
	.loc 1 2192 0
	bl	Real9_GetImageBuffer
.LVL494:
	cbz	w0, .L473
	.loc 1 2199 0
	add	x26, x22, 49152
	add	x27, x23, 16384
	ldr	w0, [x26,3328]
	ldr	w1, [x27,4088]
	bl	FSP_GetFsImagePtr
.LVL495:
	mov	x3, x0
.LVL496:
	.loc 1 2200 0
	cbz	x0, .L421
	.loc 1 2202 0
	ldr	x2, [x22]
	.loc 1 2210 0
	mov	x4, -1
	.loc 1 2211 0
	adrp	x1, .LC14
	mov	w0, 29
	add	x1, x1, :lo12:.LC14
	.loc 1 2202 0
	ldr	x2, [x2,48]
	str	x2, [x3,224]
	.loc 1 2203 0
	ldr	x2, [x22]
	ldr	x2, [x2,64]
	str	x2, [x3,232]
	.loc 1 2204 0
	ldr	x2, [x22]
	ldr	x2, [x2,80]
	str	x2, [x3,240]
	.loc 1 2205 0
	ldr	x2, [x22]
	ldr	w2, [x2,96]
	str	w2, [x3,8]
	.loc 1 2206 0
	ldr	x2, [x22]
	ldr	w2, [x2,100]
	str	w2, [x3,12]
	.loc 1 2207 0
	ldr	x2, [x22]
	ldr	w2, [x2,104]
	str	w2, [x3,16]
	.loc 1 2208 0
	ldr	x2, [x22]
	ldr	w2, [x2,120]
	str	w2, [x3,20]
	.loc 1 2210 0
	ldr	x2, [x22]
	str	x4, [x2,48]
	.loc 1 2211 0
	ldr	x2, [x3,224]
	ldr	x3, [x3,232]
.LVL497:
	bl	dprint_linux_kernel
.LVL498:
	.loc 1 2221 0
	ldr	w0, [x19,1808]
	cmp	w0, 2
	beq	.L474
	.loc 1 2223 0
	cmp	w0, 1
	beq	.L475
	.loc 1 2228 0
	ldrb	w0, [x23,25]
	.loc 1 2228 0 is_stmt 0 discriminator 2
	mov	w1, 2
	cmp	w0, wzr
	csinc	w1, w1, wzr, ne
.L425:
	.loc 1 2228 0 discriminator 4
	add	x23, x24, 3168
	strb	w1, [x24,3193]
	.loc 1 2229 0 is_stmt 1
	add	x23, x23, 16384
	ldr	w2, [x23,4080]
	ldr	w0, [x23,4084]
	cmp	w2, w0
	beq	.L426
	.loc 1 2232 0
	adrp	x1, .LC15
	mov	w0, 13
	add	x1, x1, :lo12:.LC15
	bl	dprint_linux_kernel
.LVL499:
	.loc 1 2233 0
	ldr	w0, [x26,3328]
	mov	w2, 0
	ldr	w1, [x23,4080]
	bl	FSP_SetRef
.LVL500:
	ldr	w0, [x23,4084]
.L426:
	.loc 1 2235 0
	add	x23, x24, 3168
	.loc 1 2237 0
	mov	w2, 1
	.loc 1 2235 0
	add	x23, x23, 16384
	.loc 1 2236 0
	ldr	w1, [x23,4088]
	str	w1, [x23,4084]
	.loc 1 2235 0
	str	w0, [x23,4080]
	.loc 1 2237 0
	ldr	w0, [x26,3328]
	bl	FSP_SetRef
.LVL501:
	.loc 1 2239 0
	ldr	w0, [x26,3328]
	ldr	w1, [x23,4080]
	bl	FSP_RemovePmv
.LVL502:
	.loc 1 2240 0
	adrp	x1, .LC16
	ldr	w2, [x23,4088]
	add	x1, x1, :lo12:.LC16
	mov	w0, 13
	bl	dprint_linux_kernel
.LVL503:
.L427:
	.loc 1 2252 0
	add	x23, x24, 3168
	ldr	w0, [x26,3328]
	add	x23, x23, 16384
	ldr	w1, [x23,4088]
	bl	FSP_GetLogicFs
.LVL504:
	mov	x27, x0
.LVL505:
	.loc 1 2253 0
	ldr	w1, [x23,4080]
	ldr	w0, [x26,3328]
	bl	FSP_GetLogicFs
.LVL506:
	mov	x28, x0
.LVL507:
	.loc 1 2254 0
	ldr	w1, [x23,4084]
	ldr	w0, [x26,3328]
	bl	FSP_GetLogicFs
.LVL508:
	.loc 1 2256 0
	cmp	x28, xzr
	cset	w2, eq
	cmp	x27, xzr
	cset	w1, eq
	.loc 1 2256 0 is_stmt 0 discriminator 1
	orr	w1, w2, w1
	cbnz	w1, .L450
.LVL509:
	cbz	x0, .L450
	.loc 1 2262 0 is_stmt 1
	ldr	x2, [x27,296]
	cbz	x2, .L430
	.loc 1 2262 0 is_stmt 0 discriminator 1
	ldr	x1, [x27,312]
	cbz	x1, .L430
	.loc 1 2262 0 discriminator 2
	ldr	x1, [x27,304]
	cbz	x1, .L430
	.loc 1 2270 0 is_stmt 1
	ldr	x1, [x0,296]
	cbz	x1, .L432
	.loc 1 2270 0 is_stmt 0 discriminator 1
	ldr	w1, [x1,12]
.L433:
	.loc 1 2270 0 discriminator 4
	str	w1, [x21,44]
	.loc 1 2271 0 is_stmt 1
	ldr	x1, [x28,296]
	cbz	x1, .L476
.L465:
	.loc 1 2271 0 is_stmt 0 discriminator 2
	ldr	w1, [x1,12]
	.loc 1 2271 0 discriminator 4
	str	w1, [x21,48]
	.loc 1 2280 0 is_stmt 1
	add	x1, x24, 3168
	add	x1, x1, 16384
	.loc 1 2272 0
	ldr	x3, [x27,296]
	ldr	w3, [x3,12]
	str	w3, [x21,52]
	.loc 1 2273 0
	ldr	w3, [x27,320]
	str	w3, [x21,64]
	.loc 1 2275 0
	ldr	w0, [x0,320]
.LVL510:
	str	w0, [x21,68]
	.loc 1 2276 0
	ldr	x0, [x27,304]
	ldr	w0, [x0,12]
	str	w0, [x21,56]
	.loc 1 2279 0
	ldr	x0, [x27,304]
	ldr	w0, [x0,20]
	str	w0, [x21,60]
	.loc 1 2280 0
	ldr	x0, [x27,304]
	ldr	w0, [x0,20]
	str	w0, [x1,4052]
	.loc 1 2281 0
	ldr	w0, [x19,1924]
	str	w0, [x21,40]
	.loc 1 2284 0
	ldr	w2, [x19,1808]
	cmp	w2, 2
	beq	.L436
	ldr	w5, [x1,4004]
	ldr	w4, [x1,4008]
.L437:
	.loc 1 2310 0
	ldr	w3, [x25,36]
.LBB216:
.LBB217:
	.loc 1 1337 0
	add	x24, x24, 3168
.LBE217:
.LBE216:
	.loc 1 2310 0
	str	w3, [x19,1848]
.LBB219:
.LBB218:
	.loc 1 1337 0
	add	x24, x24, 16384
	.loc 1 1330 0
	strb	w2, [x22,16]
	.loc 1 1340 0
	cmp	w2, 2
	.loc 1 1331 0
	ldr	w13, [x19,1824]
	str	w13, [x21,4]
	.loc 1 1332 0
	ldr	w1, [x19,1820]
	str	w1, [x21,8]
	.loc 1 1333 0
	str	w5, [x21,12]
	.loc 1 1334 0
	str	w4, [x21,16]
	.loc 1 1336 0
	str	w3, [x21,20]
	.loc 1 1337 0
	ldr	w0, [x24,2900]
	str	w0, [x21,24]
	.loc 1 1338 0
	ldr	w0, [x24,2904]
	str	w0, [x21,28]
	.loc 1 1340 0
	beq	.L440
	.loc 1 1342 0
	str	w3, [x24,2900]
.L440:
.LBE218:
.LBE219:
	.loc 1 2316 0 discriminator 1
	ldr	w0, [x20,28]
	cbz	w0, .L445
	.loc 1 2337 0
	mul	w13, w1, w13
	add	x2, x25, 36
	add	x0, x22, 88
	sub	w13, w13, #1
	mov	w8, 1
	mov	w7, 0
.LVL511:
.L444:
	.loc 1 2318 0
	ldr	w4, [x2,16]
	.loc 1 2320 0
	cmp	w7, wzr
	add	w3, w7, 7
	sub	w6, w8, #1
	.loc 1 2318 0
	add	w4, w7, w4
	.loc 1 2320 0
	csel	w3, w3, w7, lt
.LVL512:
	.loc 1 2318 0
	and	w4, w4, 127
	str	w4, [x19,1948]
	.loc 1 2320 0
	asr	w3, w3, 3
.LVL513:
	mov	w15, w8
	.loc 1 2319 0
	ldr	w10, [x2,16]
	.loc 1 2320 0
	and	w3, w3, -16
	.loc 1 2319 0
	ldr	w5, [x2,20]
	.loc 1 2337 0
	mov	w9, w13
	.loc 1 2320 0
	str	w3, [x19,1956]
	.loc 1 2321 0
	str	wzr, [x19,1960]
	.loc 1 2319 0
	sub	w5, w5, w10
	.loc 1 2322 0
	str	wzr, [x19,1964]
	.loc 1 2319 0
	str	w5, [x19,1952]
	.loc 1 2323 0
	str	wzr, [x19,1968]
	.loc 1 2326 0
	ldr	w11, [x2]
	.loc 1 2324 0
	ldr	w10, [x2,20]
	.loc 1 2326 0
	str	w11, [x19,1928]
.LVL514:
	.loc 1 2324 0
	add	w7, w7, w10
	.loc 1 2327 0
	ldr	w12, [x2,4]
	str	w12, [x19,1932]
	.loc 1 2328 0
	ldr	w14, [x2,8]
	str	w14, [x19,1936]
	.loc 1 2329 0
	ldr	w10, [x2,12]
	str	w10, [x19,1940]
	.loc 1 2331 0
	ldr	w1, [x20,28]
	sub	w1, w1, #1
	cmp	w1, w6
	bls	.L443
	.loc 1 2333 0
	ldr	w9, [x2,44]
	sub	w9, w9, #1
.L443:
	str	w9, [x19,1944]
	add	x0, x0, 44
.LBB220:
.LBB221:
	.loc 1 1300 0
	str	w3, [x0,-44]
	add	x2, x2, 32
	.loc 1 1301 0
	str	w4, [x0,-36]
	.loc 1 1302 0
	str	w5, [x0,-28]
	.loc 1 1304 0
	str	wzr, [x0,-40]
	.loc 1 1305 0
	str	wzr, [x0,-32]
	.loc 1 1306 0
	str	wzr, [x0,-24]
	.loc 1 1308 0
	str	w14, [x0,-20]
	.loc 1 1309 0
	str	w12, [x0,-16]
	.loc 1 1310 0
	str	w11, [x0,-12]
	.loc 1 1311 0
	str	w10, [x0,-8]
	.loc 1 1314 0
	str	w8, [x21,32]
	add	w8, w8, 1
.LBE221:
.LBE220:
	.loc 1 2316 0 discriminator 1
	ldr	w1, [x20,28]
	cmp	w1, w15
	bhi	.L444
.L445:
.LBB222:
.LBB223:
	.loc 1 1354 0
	mov	w0, 1
	str	w0, [x21,36]
.LBE223:
.LBE222:
	.loc 1 2347 0
	str	x21, [x22,8]
	.loc 1 2348 0
	ldr	x1, [x22]
	ldr	w1, [x1,676]
	str	w1, [x22,11352]
	.loc 1 2350 0
	b	.L413
.LVL515:
.L469:
	.loc 1 2139 0
	add	x22, x22, 49152
.LVL516:
	ldr	w1, [x23,12]
	ldr	w0, [x22,3328]
	bl	SM_ReleaseStreamSeg
.LVL517:
	.loc 1 2140 0
	ldr	w1, [x23,92]
	ldr	w0, [x22,3328]
	bl	SM_ReleaseStreamSeg
.LVL518:
	.loc 1 2141 0
	adrp	x1, .LC25
	mov	w0, w26
	add	x1, x1, :lo12:.LC25
	bl	dprint_linux_kernel
.LVL519:
	.loc 1 2142 0
	mov	w0, 0
.LVL520:
.L413:
	.loc 1 2351 0
	ldp	x19, x20, [sp,16]
	.cfi_remember_state
	.cfi_restore 20
	.cfi_restore 19
.LVL521:
	ldp	x21, x22, [sp,32]
	.cfi_restore 22
	.cfi_restore 21
.LVL522:
	ldp	x23, x24, [sp,48]
	.cfi_restore 24
	.cfi_restore 23
.LVL523:
	ldp	x25, x26, [sp,64]
	.cfi_restore 26
	.cfi_restore 25
	ldp	x27, x28, [sp,80]
	.cfi_restore 28
	.cfi_restore 27
.LVL524:
	ldp	x29, x30, [sp], 96
	.cfi_restore 30
	.cfi_restore 29
	.cfi_def_cfa 31, 0
	ret
.LVL525:
.L473:
	.cfi_restore_state
	.loc 1 2194 0
	add	x23, x23, 16384
	adrp	x1, .LC13
	add	x1, x1, :lo12:.LC13
	ldr	w2, [x23,3980]
	bl	dprint_linux_kernel
.LVL526:
	.loc 1 2195 0
	mov	w0, 0
	.loc 1 2351 0
	ldp	x19, x20, [sp,16]
	.cfi_remember_state
	.cfi_restore 19
	.cfi_restore 20
.LVL527:
	ldp	x21, x22, [sp,32]
	.cfi_restore 21
	.cfi_restore 22
.LVL528:
	ldp	x23, x24, [sp,48]
	.cfi_restore 23
	.cfi_restore 24
	ldp	x25, x26, [sp,64]
	.cfi_restore 25
	.cfi_restore 26
	ldp	x27, x28, [sp,80]
	.cfi_restore 27
	.cfi_restore 28
	ldp	x29, x30, [sp], 96
	.cfi_restore 29
	.cfi_restore 30
	.cfi_def_cfa 31, 0
	ret
.LVL529:
.L470:
	.cfi_restore_state
	.loc 1 2155 0
	adrp	x1, .LC26
	mov	w0, 1
	add	x1, x1, :lo12:.LC26
	bl	dprint_linux_kernel
.LVL530:
	.loc 1 2156 0
	mov	w0, 0
	.loc 1 2351 0
	ldp	x19, x20, [sp,16]
	.cfi_remember_state
	.cfi_restore 19
	.cfi_restore 20
.LVL531:
	ldp	x21, x22, [sp,32]
	.cfi_restore 21
	.cfi_restore 22
.LVL532:
	ldp	x23, x24, [sp,48]
	.cfi_restore 23
	.cfi_restore 24
.LVL533:
	ldp	x25, x26, [sp,64]
	.cfi_restore 25
	.cfi_restore 26
	ldp	x27, x28, [sp,80]
	.cfi_restore 27
	.cfi_restore 28
	ldp	x29, x30, [sp], 96
	.cfi_restore 29
	.cfi_restore 30
	.cfi_def_cfa 31, 0
	ret
.LVL534:
.L415:
	.cfi_restore_state
	.loc 1 2147 0
	str	wzr, [x0,3956]
	.loc 1 2148 0
	str	xzr, [x1,16]
	.loc 1 2149 0
	str	wzr, [x0,3960]
	.loc 1 2153 0
	sub	w0, w2, #9
	.loc 1 2150 0
	strb	wzr, [x1,9]
	.loc 1 2153 0
	mov	w1, 65526
	movk	w1, 0x2f, lsl 16
	cmp	w0, w1
	bls	.L417
	b	.L470
.L468:
	.loc 1 2121 0
	adrp	x2, .LANCHOR1
	adrp	x1, .LC24
	add	x2, x2, :lo12:.LANCHOR1
	mov	w0, w26
	add	x1, x1, :lo12:.LC24
	add	x2, x2, 16
	bl	dprint_linux_kernel
.LVL535:
	.loc 1 2122 0
	mov	w0, 0
	.loc 1 2351 0
	ldp	x19, x20, [sp,16]
	.cfi_remember_state
	.cfi_restore 19
	.cfi_restore 20
.LVL536:
	ldp	x21, x22, [sp,32]
	.cfi_restore 21
	.cfi_restore 22
.LVL537:
	ldp	x23, x24, [sp,48]
	.cfi_restore 23
	.cfi_restore 24
.LVL538:
	ldp	x25, x26, [sp,64]
	.cfi_restore 25
	.cfi_restore 26
	ldp	x27, x28, [sp,80]
	.cfi_restore 27
	.cfi_restore 28
	ldp	x29, x30, [sp], 96
	.cfi_restore 29
	.cfi_restore 30
	.cfi_def_cfa 31, 0
	ret
.LVL539:
.L467:
	.cfi_restore_state
	.loc 1 2102 0
	mov	x0, 27744
.LVL540:
	adrp	x1, .LC8
	add	x22, x22, x0
.LVL541:
	add	x1, x1, :lo12:.LC8
	mov	w0, w26
	ldr	w2, [x22,3980]
	bl	dprint_linux_kernel
.LVL542:
	.loc 1 2103 0
	mov	w0, 0
	.loc 1 2351 0
	ldp	x19, x20, [sp,16]
	.cfi_remember_state
	.cfi_restore 19
	.cfi_restore 20
	ldp	x21, x22, [sp,32]
	.cfi_restore 21
	.cfi_restore 22
	ldp	x23, x24, [sp,48]
	.cfi_restore 23
	.cfi_restore 24
.LVL543:
	ldp	x25, x26, [sp,64]
	.cfi_restore 25
	.cfi_restore 26
	ldp	x27, x28, [sp,80]
	.cfi_restore 27
	.cfi_restore 28
	ldp	x29, x30, [sp], 96
	.cfi_restore 29
	.cfi_restore 30
	.cfi_def_cfa 31, 0
	ret
.LVL544:
.L471:
	.cfi_restore_state
	.loc 1 2162 0
	adrp	x1, .LC27
	mov	w0, 1
	add	x1, x1, :lo12:.LC27
	bl	dprint_linux_kernel
.LVL545:
	.loc 1 2163 0
	mov	w0, 0
	b	.L413
.LVL546:
.L472:
	.loc 1 2183 0
	adrp	x1, .LC28
	mov	w0, 1
	add	x1, x1, :lo12:.LC28
	bl	dprint_linux_kernel
.LVL547:
	.loc 1 2184 0
	mov	w0, 0
	b	.L413
.L474:
	.loc 1 2244 0
	ldrb	w0, [x23,25]
	cmp	w0, 1
	bhi	.L427
	.loc 1 2246 0
	ldr	w0, [x26,3328]
	mov	w2, 1
	ldr	w1, [x27,4088]
	bl	FSP_ClearLogicFs
.LVL548:
	.loc 1 2247 0
	adrp	x1, .LC31
	mov	w0, 1
	add	x1, x1, :lo12:.LC31
	bl	dprint_linux_kernel
.LVL549:
	.loc 1 2248 0
	mov	w0, 0
	b	.L413
.LVL550:
.L450:
	.loc 1 2258 0
	adrp	x2, .LANCHOR1
	adrp	x1, .LC17
	add	x2, x2, :lo12:.LANCHOR1
	mov	w0, 0
.LVL551:
	add	x1, x1, :lo12:.LC17
	add	x2, x2, 40
	mov	w3, 2258
	bl	dprint_linux_kernel
.LVL552:
	.loc 1 2259 0
	mov	w0, 0
	b	.L413
.LVL553:
.L475:
	.loc 1 2223 0 discriminator 1
	ldrb	w2, [x23,25]
	.loc 1 2228 0 discriminator 1
	mov	w1, 2
	.loc 1 2223 0 discriminator 1
	cbnz	w2, .L425
	.loc 1 2225 0
	adrp	x1, .LC30
	add	x1, x1, :lo12:.LC30
	bl	dprint_linux_kernel
.LVL554:
	.loc 1 2226 0
	mov	w0, 0
	b	.L413
.LVL555:
.L430:
	.loc 1 2264 0
	add	x24, x24, 3168
	ldr	w0, [x26,3328]
.LVL556:
	add	x24, x24, 16384
	mov	w2, 1
	ldr	w1, [x24,4088]
	bl	FSP_ClearLogicFs
.LVL557:
	.loc 1 2265 0
	adrp	x1, .LC32
	mov	w0, 0
	add	x1, x1, :lo12:.LC32
	bl	dprint_linux_kernel
.LVL558:
	.loc 1 2266 0
	mov	w0, 0
	b	.L413
.L436:
	.loc 1 2286 0
	ldr	w0, [x20,16]
.LVL559:
	str	w0, [x1,3996]
	.loc 1 2287 0
	ldr	w3, [x20,20]
	str	w3, [x1,4000]
	.loc 1 2294 0
	cmp	w0, w3
	csel	w0, w0, wzr, le
	.loc 1 2296 0
	cmp	w3, wzr
	ble	.L449
	.loc 1 2299 0
	sub	w1, w3, w0
	.loc 1 2298 0
	lsl	w0, w0, 14
.LVL560:
	.loc 1 2299 0
	lsl	w1, w1, 14
	.loc 1 2298 0
	sdiv	w0, w0, w3
	mov	w5, w0
	.loc 1 2299 0
	sdiv	w1, w1, w3
	mov	w4, w1
.L439:
	.loc 1 2306 0
	add	x3, x24, 3168
	add	x3, x3, 16384
	str	w0, [x3,4004]
	.loc 1 2307 0
	str	w1, [x3,4008]
	b	.L437
.LVL561:
.L421:
	.loc 1 2215 0
	ldr	w0, [x26,3328]
.LVL562:
	mov	w2, 1
	ldr	w1, [x27,4088]
	bl	FSP_ClearLogicFs
.LVL563:
	.loc 1 2216 0
	adrp	x1, .LC29
	mov	w0, 1
	add	x1, x1, :lo12:.LC29
	bl	dprint_linux_kernel
.LVL564:
	.loc 1 2217 0
	mov	w0, 0
	b	.L413
.LVL565:
.L476:
	.loc 1 2271 0 discriminator 2
	ldr	x1, [x27,296]
	b	.L465
.L432:
	.loc 1 2270 0 discriminator 2
	ldr	w1, [x2,12]
	b	.L433
.LVL566:
.L449:
	mov	w4, 0
	mov	w5, 0
	mov	w1, 0
	mov	w0, 0
.LVL567:
	b	.L439
	.cfi_endproc
.LFE2660:
	.size	REAL9DEC_Decode_User, .-REAL9DEC_Decode_User
	.align	2
	.global	REAL9DEC_RecycleImage
	.type	REAL9DEC_RecycleImage, %function
REAL9DEC_RecycleImage:
.LFB2661:
	.loc 1 2354 0
	.cfi_startproc
.LVL568:
	stp	x29, x30, [sp, -32]!
	.cfi_def_cfa_offset 32
	.cfi_offset 29, -32
	.cfi_offset 30, -24
	.loc 1 2360 0
	mov	w2, 0
	.loc 1 2354 0
	add	x29, sp, 0
	.cfi_def_cfa_register 29
	stp	x19, x20, [sp,16]
	.cfi_offset 19, -16
	.cfi_offset 20, -8
	.loc 1 2360 0
	add	x19, x0, 49152
	.loc 1 2354 0
	mov	w20, w1
	.loc 1 2360 0
	ldr	w0, [x19,3328]
.LVL569:
	bl	FSP_SetDisplay
.LVL570:
	.loc 1 2361 0
	ldr	w0, [x19,3328]
	mov	w1, w20
	bl	FSP_GetFsImagePtr
.LVL571:
	.loc 1 2371 0
	mov	w0, 1
	ldp	x19, x20, [sp,16]
	.cfi_restore 20
	.cfi_restore 19
.LVL572:
	ldp	x29, x30, [sp], 32
	.cfi_restore 30
	.cfi_restore 29
	.cfi_def_cfa 31, 0
	ret
	.cfi_endproc
.LFE2661:
	.size	REAL9DEC_RecycleImage, .-REAL9DEC_RecycleImage
	.align	2
	.global	REAL9DEC_GetRemainImg
	.type	REAL9DEC_GetRemainImg, %function
REAL9DEC_GetRemainImg:
.LFB2662:
	.loc 1 2375 0
	.cfi_startproc
.LVL573:
	stp	x29, x30, [sp, -64]!
	.cfi_def_cfa_offset 64
	.cfi_offset 29, -64
	.cfi_offset 30, -56
	add	x29, sp, 0
	.cfi_def_cfa_register 29
	stp	x19, x20, [sp,16]
	stp	x21, x22, [sp,32]
	stp	x23, x24, [sp,48]
	.cfi_offset 19, -48
	.cfi_offset 20, -40
	.cfi_offset 21, -32
	.cfi_offset 22, -24
	.cfi_offset 23, -16
	.cfi_offset 24, -8
	.loc 1 2375 0
	mov	x19, x0
	.loc 1 2383 0
	ldr	x0, [x0]
.LVL574:
	ldr	w0, [x0,16]
	cmp	w0, 1
	beq	.L491
	.loc 1 2389 0
	mov	x20, 27744
	add	x23, x19, 49152
	add	x20, x19, x20
	ldr	w0, [x23,3328]
	ldr	w1, [x20,4084]
	bl	FSP_GetFsImagePtr
.LVL575:
	mov	x24, x0
.LVL576:
	.loc 1 2390 0
	cbz	x0, .L491
	.loc 1 2392 0
	ldr	w0, [x23,3328]
	add	x22, x19, 28672
	ldr	w1, [x20,4084]
	bl	FSP_GetDisplay
.LVL577:
	.loc 1 2393 0
	cmp	w0, 2
	beq	.L492
.L479:
	add	x21, x22, 3208
.L481:
	.loc 1 2427 0
	mov	x0, x21
	bl	GetVoLastImageID
.LVL578:
.L490:
	.loc 1 2431 0
	ldp	x19, x20, [sp,16]
	.cfi_remember_state
	.cfi_restore 20
	.cfi_restore 19
.LVL579:
.LVL580:
	ldp	x21, x22, [sp,32]
	.cfi_restore 22
	.cfi_restore 21
	ldp	x23, x24, [sp,48]
	.cfi_restore 24
	.cfi_restore 23
.LVL581:
	ldp	x29, x30, [sp], 64
	.cfi_restore 30
	.cfi_restore 29
	.cfi_def_cfa 31, 0
	ret
.LVL582:
.L491:
	.cfi_restore_state
	add	x22, x19, 28672
	b	.L479
.LVL583:
.L492:
	.loc 1 2395 0
	mov	x0, x19
	.loc 1 2400 0
	add	x21, x22, 3208
	.loc 1 2395 0
	bl	Real9_SetImgFormat
.LVL584:
	.loc 1 2396 0
	mov	w2, 1
	str	w2, [x24,108]
	.loc 1 2399 0
	ldr	w0, [x23,3328]
	ldr	w1, [x20,4084]
	bl	FSP_SetDisplay
.LVL585:
	.loc 1 2400 0
	ldr	w0, [x23,3328]
	mov	w1, 9
	mov	x2, x19
	mov	x3, x21
	mov	x4, x24
	bl	InsertImgToVoQueue
.LVL586:
	cmp	w0, 1
	beq	.L480
	.loc 1 2402 0
	ldr	w0, [x23,3328]
	mov	w2, 0
	ldr	w1, [x20,4084]
	bl	FSP_SetDisplay
.LVL587:
	b	.L481
.L480:
	.loc 1 2409 0
	ldr	w0, [x24,84]
	cmp	w0, 100
	bhi	.L479
	.loc 1 2409 0 is_stmt 0 discriminator 1
	ldr	w0, [x24,48]
	cmp	w0, 31
	bls	.L479
	.loc 1 2409 0 discriminator 2
	ldr	w0, [x24,52]
	cmp	w0, 31
	bls	.L479
	mov	w0, 0
.LVL588:
	b	.L490
	.cfi_endproc
.LFE2662:
	.size	REAL9DEC_GetRemainImg, .-REAL9DEC_GetRemainImg
	.align	2
	.global	REAL9DEC_VDMPostProc
	.type	REAL9DEC_VDMPostProc, %function
REAL9DEC_VDMPostProc:
.LFB2663:
	.loc 1 2435 0 is_stmt 1
	.cfi_startproc
.LVL589:
	stp	x29, x30, [sp, -96]!
	.cfi_def_cfa_offset 96
	.cfi_offset 29, -96
	.cfi_offset 30, -88
	add	x29, sp, 0
	.cfi_def_cfa_register 29
	stp	x21, x22, [sp,32]
	.cfi_offset 21, -64
	.cfi_offset 22, -56
	mov	w21, w1
	.loc 1 2441 0
	adrp	x1, .LC33
.LVL590:
	.loc 1 2435 0
	stp	x19, x20, [sp,16]
	stp	x23, x24, [sp,48]
	.cfi_offset 19, -80
	.cfi_offset 20, -72
	.cfi_offset 23, -48
	.cfi_offset 24, -40
	mov	x20, x0
	.loc 1 2441 0
	add	x1, x1, :lo12:.LC33
	.loc 1 2435 0
	mov	w24, w2
	.loc 1 2441 0
	mov	w0, 22
.LVL591:
	mov	w2, w21
.LVL592:
	.loc 1 2446 0
	add	x19, x20, 8192
	.loc 1 2435 0
	str	x25, [sp,64]
	.cfi_offset 25, -32
	.loc 1 2446 0
	add	x25, x19, 3168
	.loc 1 2441 0
	bl	dprint_linux_kernel
.LVL593:
	.loc 1 2446 0
	add	x22, x20, 49152
	.loc 1 2444 0
	mov	w0, 9
	mov	x1, x20
	.loc 1 2446 0
	add	x23, x25, 16384
	.loc 1 2444 0
	bl	ReleasePacket
.LVL594:
	.loc 1 2446 0
	ldr	w0, [x22,3328]
	ldr	w1, [x23,4088]
	bl	FSP_GetFsImagePtr
.LVL595:
	.loc 1 2448 0
	cbz	x0, .L502
	.loc 1 2453 0
	ldr	w1, [x23,2736]
	strb	w1, [x19,3194]
	.loc 1 2454 0
	cmp	w1, 2
	beq	.L495
	.loc 1 2456 0
	and	w24, w24, 31
.LVL596:
	str	w24, [x23,2904]
.LVL597:
.L495:
	.loc 1 2461 0
	tbnz	w21, #31, .L503
	.loc 1 2461 0 is_stmt 0 discriminator 1
	cmp	w21, 100
	mov	w1, 100
	csel	w21, w21, w1, le
.LVL598:
.L496:
	.loc 1 2464 0 is_stmt 1
	adrp	x1, .LC34
	.loc 1 2461 0 discriminator 4
	str	w21, [x0,84]
	.loc 1 2464 0
	add	x1, x1, :lo12:.LC34
	mov	w0, 22
.LVL599:
	bl	dprint_linux_kernel
.LVL600:
	.loc 1 2466 0
	mov	x0, x20
	bl	Real9_SetImgFormat
.LVL601:
	.loc 1 2468 0
	ldrb	w1, [x19,3192]
	add	x0, x19, 3168
	cmp	w1, 2
	beq	.L499
	.loc 1 2474 0
	ldr	x1, [x20]
	ldr	w1, [x1,16]
	cmp	w1, 1
	beq	.L499
	.loc 1 2476 0
	add	x1, x0, 16384
	ldr	w2, [x1,2736]
	cmp	w2, 2
	beq	.L499
	.loc 1 2478 0
	ldrb	w0, [x0,25]
	cmp	w0, 1
	bls	.L504
	.loc 1 2478 0 is_stmt 0 discriminator 1
	ldr	w1, [x1,4080]
.L500:
	.loc 1 2478 0 discriminator 4
	add	x0, x19, 3168
	.loc 1 2491 0 is_stmt 1
	cmn	w1, #1
	.loc 1 2478 0 discriminator 4
	add	x0, x0, 16384
	str	w1, [x0,4092]
	.loc 1 2491 0
	beq	.L501
.L521:
	.loc 1 2493 0
	ldr	w0, [x22,3328]
	.loc 1 2494 0
	add	x21, x19, 3168
	add	x21, x21, 16384
	.loc 1 2493 0
	bl	FSP_GetFsImagePtr
.LVL602:
	str	x0, [x29,80]
	.loc 1 2494 0
	ldr	w2, [x21,4092]
	ldr	w0, [x22,3328]
.LVL603:
	mov	w1, w2
	str	x2, [x29,88]
	bl	FSP_GetRef
.LVL604:
	.loc 1 2494 0 is_stmt 0 discriminator 1
	mov	w3, w0
	ldr	x2, [x29,88]
	adrp	x1, .LC35
	add	x1, x1, :lo12:.LC35
	mov	w0, 12
	bl	dprint_linux_kernel
.LVL605:
	.loc 1 2496 0 is_stmt 1
	ldr	w0, [x22,3328]
	mov	w2, 1
	ldr	w1, [x21,4092]
	bl	FSP_SetDisplay
.LVL606:
	.loc 1 2497 0
	add	x3, x20, 28672
	ldr	w0, [x22,3328]
	ldr	x4, [x29,80]
.LVL607:
	mov	w1, 9
	mov	x2, x20
	add	x3, x3, 3208
	bl	InsertImgToVoQueue
.LVL608:
	cmp	w0, 1
	bne	.L520
.L501:
	.loc 1 2504 0
	add	x19, x19, 3168
	.loc 1 2506 0
	mov	w0, 1
	.loc 1 2504 0
	add	x19, x19, 16384
	ldr	w1, [x19,3980]
	add	w1, w1, w0
	str	w1, [x19,3980]
	.loc 1 2507 0
	ldp	x19, x20, [sp,16]
	.cfi_remember_state
	.cfi_restore 20
	.cfi_restore 19
.LVL609:
	ldp	x21, x22, [sp,32]
	.cfi_restore 22
	.cfi_restore 21
	ldp	x23, x24, [sp,48]
	.cfi_restore 24
	.cfi_restore 23
.LVL610:
	ldr	x25, [sp,64]
	.cfi_restore 25
	ldp	x29, x30, [sp], 96
	.cfi_restore 30
	.cfi_restore 29
	.cfi_def_cfa 31, 0
	ret
.LVL611:
.L499:
	.cfi_restore_state
	.loc 1 2470 0
	add	x0, x19, 3168
	add	x0, x0, 16384
	ldr	w1, [x0,4088]
	str	w1, [x0,4092]
	.loc 1 2491 0
	cmn	w1, #1
	bne	.L521
	b	.L501
.LVL612:
.L503:
	.loc 1 2461 0 discriminator 2
	mov	w21, 0
.LVL613:
	b	.L496
.LVL614:
.L520:
	.loc 1 2499 0
	ldr	w0, [x22,3328]
	mov	w2, 0
	ldr	w1, [x21,4092]
	bl	FSP_SetDisplay
.LVL615:
	.loc 1 2507 0
	ldr	x25, [sp,64]
	.cfi_remember_state
	.cfi_restore 25
	ldp	x19, x20, [sp,16]
	.cfi_restore 19
	.cfi_restore 20
.LVL616:
	ldp	x21, x22, [sp,32]
	.cfi_restore 21
	.cfi_restore 22
	ldp	x23, x24, [sp,48]
	.cfi_restore 23
	.cfi_restore 24
.LVL617:
	.loc 1 2500 0
	mov	w0, 0
	.loc 1 2507 0
	ldp	x29, x30, [sp], 96
	.cfi_restore 29
	.cfi_restore 30
	.cfi_def_cfa 31, 0
	ret
.LVL618:
.L502:
	.cfi_restore_state
	ldp	x19, x20, [sp,16]
	.cfi_remember_state
	.cfi_restore 19
	.cfi_restore 20
.LVL619:
	ldp	x21, x22, [sp,32]
	.cfi_restore 21
	.cfi_restore 22
.LVL620:
	ldp	x23, x24, [sp,48]
	.cfi_restore 23
	.cfi_restore 24
.LVL621:
	ldr	x25, [sp,64]
	.cfi_restore 25
	.loc 1 2450 0
	mov	w0, 0
.LVL622:
	.loc 1 2507 0
	ldp	x29, x30, [sp], 96
	.cfi_restore 29
	.cfi_restore 30
	.cfi_def_cfa 31, 0
	ret
.LVL623:
.L504:
	.cfi_restore_state
	.loc 1 2478 0 discriminator 2
	mov	w1, -1
	b	.L500
	.cfi_endproc
.LFE2663:
	.size	REAL9DEC_VDMPostProc, .-REAL9DEC_VDMPostProc
	.align	2
	.global	REAL9DEC_GetImageBuffer
	.type	REAL9DEC_GetImageBuffer, %function
REAL9DEC_GetImageBuffer:
.LFB2664:
	.loc 1 2511 0
	.cfi_startproc
.LVL624:
	stp	x29, x30, [sp, -48]!
	.cfi_def_cfa_offset 48
	.cfi_offset 29, -48
	.cfi_offset 30, -40
	add	x29, sp, 0
	.cfi_def_cfa_register 29
	stp	x19, x20, [sp,16]
	.cfi_offset 19, -32
	.cfi_offset 20, -24
	.loc 1 2519 0
	add	x20, x0, 49152
	.loc 1 2511 0
	str	x21, [sp,32]
	.cfi_offset 21, -16
	.loc 1 2511 0
	mov	x21, x0
	.loc 1 2519 0
	ldr	w0, [x20,3328]
.LVL625:
	bl	FSP_IsNewFsAvalible
.LVL626:
	cmp	w0, 1
	mov	w19, w0
	beq	.L523
	.loc 1 2523 0
	ldr	w0, [x20,3328]
	.loc 1 2528 0
	mov	w19, 0
	.loc 1 2523 0
	bl	FSP_IsNewFsAvalible
.LVL627:
	cmn	w0, #1
	beq	.L528
.L523:
	.loc 1 2529 0
	mov	w0, w19
	ldr	x21, [sp,32]
	.cfi_remember_state
	.cfi_restore 21
.LVL628:
	ldp	x19, x20, [sp,16]
	.cfi_restore 20
	.cfi_restore 19
	ldp	x29, x30, [sp], 48
	.cfi_restore 30
	.cfi_restore 29
	.cfi_def_cfa 31, 0
	ret
.LVL629:
.L528:
	.cfi_restore_state
	.loc 1 2525 0
	add	x1, x21, 28672
	ldr	w0, [x20,3328]
	add	x1, x1, 3208
	bl	FSP_ClearNotInVoQueue
.LVL630:
	.loc 1 2529 0
	ldr	x21, [sp,32]
	.cfi_restore 21
.LVL631:
	mov	w0, w19
	ldp	x19, x20, [sp,16]
	.cfi_restore 19
	.cfi_restore 20
	ldp	x29, x30, [sp], 48
	.cfi_restore 29
	.cfi_restore 30
	.cfi_def_cfa 31, 0
	ret
	.cfi_endproc
.LFE2664:
	.size	REAL9DEC_GetImageBuffer, .-REAL9DEC_GetImageBuffer
	.align	2
	.global	REAL9DEC_Support
	.type	REAL9DEC_Support, %function
REAL9DEC_Support:
.LFB2665:
	.loc 1 2532 0
	.cfi_startproc
.LVL632:
	.loc 1 2533 0
	mov	w1, 1
	str	w1, [x0]
	.loc 1 2535 0
	ret
	.cfi_endproc
.LFE2665:
	.size	REAL9DEC_Support, .-REAL9DEC_Support
	.align	2
	.global	REAL9DEC_GetImageWidth
	.type	REAL9DEC_GetImageWidth, %function
REAL9DEC_GetImageWidth:
.LFB2666:
	.loc 1 2538 0
	.cfi_startproc
.LVL633:
	.loc 1 2541 0
	add	x0, x0, 28672
.LVL634:
	.loc 1 2544 0
	ldr	w0, [x0,1980]
	ret
	.cfi_endproc
.LFE2666:
	.size	REAL9DEC_GetImageWidth, .-REAL9DEC_GetImageWidth
	.align	2
	.global	REAL9DEC_GetImageHeight
	.type	REAL9DEC_GetImageHeight, %function
REAL9DEC_GetImageHeight:
.LFB2667:
	.loc 1 2547 0
	.cfi_startproc
.LVL635:
	.loc 1 2550 0
	add	x0, x0, 28672
.LVL636:
	.loc 1 2553 0
	ldr	w0, [x0,1984]
	ret
	.cfi_endproc
.LFE2667:
	.size	REAL9DEC_GetImageHeight, .-REAL9DEC_GetImageHeight
	.section	.rodata
	.align	3
.LANCHOR0 = . + 0
	.type	gs_VLCDecodeTable, %object
	.size	gs_VLCDecodeTable, 256
gs_VLCDecodeTable:
	.byte	-128
	.byte	-127
	.byte	112
	.byte	112
	.byte	-126
	.byte	-125
	.byte	113
	.byte	113
	.byte	80
	.byte	80
	.byte	80
	.byte	80
	.byte	80
	.byte	80
	.byte	80
	.byte	80
	.byte	-124
	.byte	-123
	.byte	114
	.byte	114
	.byte	-122
	.byte	-121
	.byte	115
	.byte	115
	.byte	81
	.byte	81
	.byte	81
	.byte	81
	.byte	81
	.byte	81
	.byte	81
	.byte	81
	.byte	48
	.byte	48
	.byte	48
	.byte	48
	.byte	48
	.byte	48
	.byte	48
	.byte	48
	.byte	48
	.byte	48
	.byte	48
	.byte	48
	.byte	48
	.byte	48
	.byte	48
	.byte	48
	.byte	48
	.byte	48
	.byte	48
	.byte	48
	.byte	48
	.byte	48
	.byte	48
	.byte	48
	.byte	48
	.byte	48
	.byte	48
	.byte	48
	.byte	48
	.byte	48
	.byte	48
	.byte	48
	.byte	-120
	.byte	-119
	.byte	116
	.byte	116
	.byte	-118
	.byte	-117
	.byte	117
	.byte	117
	.byte	82
	.byte	82
	.byte	82
	.byte	82
	.byte	82
	.byte	82
	.byte	82
	.byte	82
	.byte	-116
	.byte	-115
	.byte	118
	.byte	118
	.byte	-114
	.byte	-113
	.byte	119
	.byte	119
	.byte	83
	.byte	83
	.byte	83
	.byte	83
	.byte	83
	.byte	83
	.byte	83
	.byte	83
	.byte	49
	.byte	49
	.byte	49
	.byte	49
	.byte	49
	.byte	49
	.byte	49
	.byte	49
	.byte	49
	.byte	49
	.byte	49
	.byte	49
	.byte	49
	.byte	49
	.byte	49
	.byte	49
	.byte	49
	.byte	49
	.byte	49
	.byte	49
	.byte	49
	.byte	49
	.byte	49
	.byte	49
	.byte	49
	.byte	49
	.byte	49
	.byte	49
	.byte	49
	.byte	49
	.byte	49
	.byte	49
	.byte	16
	.byte	16
	.byte	16
	.byte	16
	.byte	16
	.byte	16
	.byte	16
	.byte	16
	.byte	16
	.byte	16
	.byte	16
	.byte	16
	.byte	16
	.byte	16
	.byte	16
	.byte	16
	.byte	16
	.byte	16
	.byte	16
	.byte	16
	.byte	16
	.byte	16
	.byte	16
	.byte	16
	.byte	16
	.byte	16
	.byte	16
	.byte	16
	.byte	16
	.byte	16
	.byte	16
	.byte	16
	.byte	16
	.byte	16
	.byte	16
	.byte	16
	.byte	16
	.byte	16
	.byte	16
	.byte	16
	.byte	16
	.byte	16
	.byte	16
	.byte	16
	.byte	16
	.byte	16
	.byte	16
	.byte	16
	.byte	16
	.byte	16
	.byte	16
	.byte	16
	.byte	16
	.byte	16
	.byte	16
	.byte	16
	.byte	16
	.byte	16
	.byte	16
	.byte	16
	.byte	16
	.byte	16
	.byte	16
	.byte	16
	.byte	16
	.byte	16
	.byte	16
	.byte	16
	.byte	16
	.byte	16
	.byte	16
	.byte	16
	.byte	16
	.byte	16
	.byte	16
	.byte	16
	.byte	16
	.byte	16
	.byte	16
	.byte	16
	.byte	16
	.byte	16
	.byte	16
	.byte	16
	.byte	16
	.byte	16
	.byte	16
	.byte	16
	.byte	16
	.byte	16
	.byte	16
	.byte	16
	.byte	16
	.byte	16
	.byte	16
	.byte	16
	.byte	16
	.byte	16
	.byte	16
	.byte	16
	.byte	16
	.byte	16
	.byte	16
	.byte	16
	.byte	16
	.byte	16
	.byte	16
	.byte	16
	.byte	16
	.byte	16
	.byte	16
	.byte	16
	.byte	16
	.byte	16
	.byte	16
	.byte	16
	.byte	16
	.byte	16
	.byte	16
	.byte	16
	.byte	16
	.byte	16
	.byte	16
	.byte	16
	.byte	16
	.byte	16
	.byte	16
	.byte	16
	.type	MBA_FieldWidth, %object
	.size	MBA_FieldWidth, 24
MBA_FieldWidth:
	.word	6
	.word	7
	.word	9
	.word	11
	.word	13
	.word	14
	.type	GetBitsMask, %object
	.size	GetBitsMask, 100
GetBitsMask:
	.word	0
	.word	1
	.word	3
	.word	7
	.word	15
	.word	31
	.word	63
	.word	127
	.word	255
	.word	511
	.word	1023
	.word	2047
	.word	4095
	.word	8191
	.word	16383
	.word	32767
	.word	65535
	.word	131071
	.word	262143
	.word	524287
	.word	1048575
	.word	2097151
	.word	4194303
	.word	8388607
	.word	16777215
	.align	3
.LANCHOR1 = . + 0
	.type	__FUNCTION__.42513, %object
	.size	__FUNCTION__.42513, 16
__FUNCTION__.42513:
	.string	"REAL9DEC_Decode"
	.type	__func__.42551, %object
	.size	__func__.42551, 21
__func__.42551:
	.string	"REAL9DEC_Decode_User"
	.zero	3
	.type	__FUNCTION__.42552, %object
	.size	__FUNCTION__.42552, 21
__FUNCTION__.42552:
	.string	"REAL9DEC_Decode_User"
	.section	.rodata.str1.8,"aMS",%progbits,1
	.align	3
.LC0:
	.string	"get frame store fail!\n"
	.zero	1
.LC1:
	.string	"line: %d, pImage is NULL!\n"
	.zero	5
.LC2:
	.string	"get image buffer ok: LogicFsID = %d\n"
	.zero	3
.LC3:
	.string	"decode %pK, disp %pK, tf %pK\n"
	.zero	2
.LC4:
	.string	"image size abnormal (%dx%d) in MB\n"
	.zero	5
.LC5:
	.string	"real9 actual frame size(%dx%d) exeed max config(%dx%d)\n"
.LC6:
	.string	"-1 == VCTRL_GetChanIDByCtx() Err! \n"
	.zero	4
.LC7:
	.string	"Decoding quits at frm %d\n"
	.zero	6
.LC8:
	.string	"ERROR: frm %d, Invalid packet pointer!\n"
.LC9:
	.string	"Real9_CB_GetPictureHeader Error!\n"
	.zero	6
.LC10:
	.string	"pic width/height to large,MbWidth = %d, MbHeight = %d"
	.zero	2
.LC11:
	.string	"new seq size %d * %d\n"
	.zero	2
.LC12:
	.string	"Real9_ArrangeVHBMem err\n"
	.zero	7
.LC13:
	.string	"Fatal Error: frm%d, get image buffer failed\n"
	.zero	3
.LC14:
	.string	"dec_pts: %lld Usertag = %lld\n"
	.zero	2
.LC15:
	.string	"---------- unref %d\n"
	.zero	3
.LC16:
	.string	"++++++++++ ref %d\n"
	.zero	5
.LC17:
	.string	"CurFsID abnormal!,%s %d (NULL == pCur) || (NULL == pFwd) || (NULL == pBwd)!!\n"
	.zero	2
.LC18:
	.string	"CurFsID abnormal!\n"
	.zero	5
.LC19:
	.string	"dec addr: cur,cur2d,fwd,bwd,currpmv,colpmv = %pK,%pK,%pK,%pK,%pK,%pK\n"
	.zero	2
.LC20:
	.string	"parse pCur->TR: %d\n"
	.zero	4
.LC21:
	.string	"Pos0: Illegal OSVQUANT=%d"
	.zero	6
.LC22:
	.string	"Pos1: Illegal OSVQUANT=%d"
	.zero	6
.LC23:
	.string	"line:%d! i > (RV9_MAX_SLC_PARAM_NUM - 2)\n"
	.zero	6
.LC24:
	.string	"%s ERROR: BsOffset(%d) >= PacketTail(%d)\n"
	.zero	6
.LC25:
	.string	"ERROR: 1 != pPacket->StreamPack[1].IsLastSeg\n"
	.zero	2
.LC26:
	.string	"pRv9CodecInfo->BsLength<%d> out of range\n"
	.zero	6
.LC27:
	.string	"ERROR: pRv9CodecInfo->TotalSliceNum out of range\n"
	.zero	6
.LC28:
	.string	"ERROR: Real9_ArrangeVHBMem err\n"
.LC29:
	.string	"ERROR: FSP_GetFsImagePtr err\n"
	.zero	2
.LC30:
	.string	"ERROR: PicCodType = RV9_INTERPIC, but RefNum %d < 1\n"
	.zero	3
.LC31:
	.string	"ERROR: pRv9CodecInfo->RefNum < 2\n"
	.zero	6
.LC32:
	.string	"ERROR: CurFsID abnormal!\n"
	.zero	6
.LC33:
	.string	"ErrRatio = %d\n"
	.zero	1
.LC34:
	.string	"DEBUG: DEC over\n"
	.zero	7
.LC35:
	.string	"insert buf %d ref %d\n"
	.text
.Letext0:
	.file 2 "/mnt/disk/jenkins/ci/workspace/chipset_release_960_xloader/opensource/component_code/vendor/huawei/extra/build/build_script/kirin_kernel_release/kernel/drivers/vcodec/hi_vcodec/vdec/include/hi_type.h"
	.file 3 "/mnt/disk/jenkins/ci/workspace/chipset_release_960_xloader/opensource/component_code/vendor/huawei/extra/build/build_script/kirin_kernel_release/kernel/drivers/vcodec/hi_vcodec/vdec/vfmw/vfmw_v4.0/vfmw.h"
	.file 4 "/mnt/disk/jenkins/ci/workspace/chipset_release_960_xloader/opensource/component_code/vendor/huawei/extra/build/build_script/kirin_kernel_release/kernel/include/uapi/asm-generic/int-ll64.h"
	.file 5 "/mnt/disk/jenkins/ci/workspace/chipset_release_960_xloader/opensource/component_code/vendor/huawei/extra/build/build_script/kirin_kernel_release/kernel/include/asm-generic/int-ll64.h"
	.file 6 "/mnt/disk/jenkins/ci/workspace/chipset_release_960_xloader/opensource/component_code/vendor/huawei/extra/build/build_script/kirin_kernel_release/kernel/include/uapi/asm-generic/posix_types.h"
	.file 7 "/mnt/disk/jenkins/ci/workspace/chipset_release_960_xloader/opensource/component_code/vendor/huawei/extra/build/build_script/kirin_kernel_release/kernel/include/linux/export.h"
	.file 8 "/mnt/disk/jenkins/ci/workspace/chipset_release_960_xloader/opensource/component_code/vendor/huawei/extra/build/build_script/kirin_kernel_release/kernel/include/linux/types.h"
	.file 9 "/mnt/disk/jenkins/ci/workspace/chipset_release_960_xloader/opensource/component_code/vendor/huawei/extra/build/build_script/kirin_kernel_release/kernel/include/asm-generic/bug.h"
	.file 10 "/mnt/disk/jenkins/ci/workspace/chipset_release_960_xloader/opensource/component_code/vendor/huawei/extra/build/build_script/kirin_kernel_release/kernel/include/linux/restart_block.h"
	.file 11 "/mnt/disk/jenkins/ci/workspace/chipset_release_960_xloader/opensource/component_code/vendor/huawei/extra/build/build_script/kirin_kernel_release/kernel/include/uapi/linux/time.h"
	.file 12 "/mnt/disk/jenkins/ci/workspace/chipset_release_960_xloader/opensource/component_code/vendor/huawei/extra/build/build_script/kirin_kernel_release/kernel/arch/arm64/include/asm/compat.h"
	.file 13 "/mnt/disk/jenkins/ci/workspace/chipset_release_960_xloader/opensource/component_code/vendor/huawei/extra/build/build_script/kirin_kernel_release/kernel/include/uapi/asm-generic/poll.h"
	.file 14 "/mnt/disk/jenkins/ci/workspace/chipset_release_960_xloader/opensource/component_code/vendor/huawei/extra/build/build_script/kirin_kernel_release/kernel/arch/arm64/include/asm/thread_info.h"
	.file 15 "/mnt/disk/jenkins/ci/workspace/chipset_release_960_xloader/opensource/component_code/vendor/huawei/extra/build/build_script/kirin_kernel_release/kernel/arch/arm64/include/uapi/asm/ptrace.h"
	.file 16 "/mnt/disk/jenkins/ci/workspace/chipset_release_960_xloader/opensource/component_code/vendor/huawei/extra/build/build_script/kirin_kernel_release/kernel/arch/arm64/include/asm/ptrace.h"
	.file 17 "/mnt/disk/jenkins/ci/workspace/chipset_release_960_xloader/opensource/component_code/vendor/huawei/extra/build/build_script/kirin_kernel_release/kernel/arch/arm64/include/asm/spinlock_types.h"
	.file 18 "/mnt/disk/jenkins/ci/workspace/chipset_release_960_xloader/opensource/component_code/vendor/huawei/extra/build/build_script/kirin_kernel_release/kernel/include/linux/spinlock_types.h"
	.file 19 "/mnt/disk/jenkins/ci/workspace/chipset_release_960_xloader/opensource/component_code/vendor/huawei/extra/build/build_script/kirin_kernel_release/kernel/include/linux/rwlock_types.h"
	.file 20 "/mnt/disk/jenkins/ci/workspace/chipset_release_960_xloader/opensource/component_code/vendor/huawei/extra/build/build_script/kirin_kernel_release/kernel/arch/arm64/include/asm/fpsimd.h"
	.file 21 "/mnt/disk/jenkins/ci/workspace/chipset_release_960_xloader/opensource/component_code/vendor/huawei/extra/build/build_script/kirin_kernel_release/kernel/include/linux/jump_label.h"
	.file 22 "/mnt/disk/jenkins/ci/workspace/chipset_release_960_xloader/opensource/component_code/vendor/huawei/extra/build/build_script/kirin_kernel_release/kernel/include/asm-generic/atomic-long.h"
	.file 23 "/mnt/disk/jenkins/ci/workspace/chipset_release_960_xloader/opensource/component_code/vendor/huawei/extra/build/build_script/kirin_kernel_release/kernel/arch/arm64/include/asm/hw_breakpoint.h"
	.file 24 "/mnt/disk/jenkins/ci/workspace/chipset_release_960_xloader/opensource/component_code/vendor/huawei/extra/build/build_script/kirin_kernel_release/kernel/arch/arm64/include/asm/processor.h"
	.file 25 "/mnt/disk/jenkins/ci/workspace/chipset_release_960_xloader/opensource/component_code/vendor/huawei/extra/build/build_script/kirin_kernel_release/kernel/include/linux/perf_event.h"
	.file 26 "/mnt/disk/jenkins/ci/workspace/chipset_release_960_xloader/opensource/component_code/vendor/huawei/extra/build/build_script/kirin_kernel_release/kernel/include/linux/wait.h"
	.file 27 "/mnt/disk/jenkins/ci/workspace/chipset_release_960_xloader/opensource/component_code/vendor/huawei/extra/build/build_script/kirin_kernel_release/kernel/include/linux/seqlock.h"
	.file 28 "/mnt/disk/jenkins/ci/workspace/chipset_release_960_xloader/opensource/component_code/vendor/huawei/extra/build/build_script/kirin_kernel_release/kernel/include/linux/nodemask.h"
	.file 29 "/mnt/disk/jenkins/ci/workspace/chipset_release_960_xloader/opensource/component_code/vendor/huawei/extra/build/build_script/kirin_kernel_release/kernel/include/linux/cpumask.h"
	.file 30 "/mnt/disk/jenkins/ci/workspace/chipset_release_960_xloader/opensource/component_code/vendor/huawei/extra/build/build_script/kirin_kernel_release/kernel/include/linux/completion.h"
	.file 31 "/mnt/disk/jenkins/ci/workspace/chipset_release_960_xloader/opensource/component_code/vendor/huawei/extra/build/build_script/kirin_kernel_release/kernel/include/linux/time64.h"
	.file 32 "/mnt/disk/jenkins/ci/workspace/chipset_release_960_xloader/opensource/component_code/vendor/huawei/extra/build/build_script/kirin_kernel_release/kernel/include/linux/ktime.h"
	.file 33 "/mnt/disk/jenkins/ci/workspace/chipset_release_960_xloader/opensource/component_code/vendor/huawei/extra/build/build_script/kirin_kernel_release/kernel/include/linux/rbtree.h"
	.file 34 "/mnt/disk/jenkins/ci/workspace/chipset_release_960_xloader/opensource/component_code/vendor/huawei/extra/build/build_script/kirin_kernel_release/kernel/include/linux/osq_lock.h"
	.file 35 "/mnt/disk/jenkins/ci/workspace/chipset_release_960_xloader/opensource/component_code/vendor/huawei/extra/build/build_script/kirin_kernel_release/kernel/include/linux/rwsem.h"
	.file 36 "/mnt/disk/jenkins/ci/workspace/chipset_release_960_xloader/opensource/component_code/vendor/huawei/extra/build/build_script/kirin_kernel_release/kernel/include/linux/sched.h"
	.file 37 "/mnt/disk/jenkins/ci/workspace/chipset_release_960_xloader/opensource/component_code/vendor/huawei/extra/build/build_script/kirin_kernel_release/kernel/include/linux/mm_types.h"
	.file 38 "/mnt/disk/jenkins/ci/workspace/chipset_release_960_xloader/opensource/component_code/vendor/huawei/extra/build/build_script/kirin_kernel_release/kernel/include/linux/lockdep.h"
	.file 39 "/mnt/disk/jenkins/ci/workspace/chipset_release_960_xloader/opensource/component_code/vendor/huawei/extra/build/build_script/kirin_kernel_release/kernel/include/linux/uprobes.h"
	.file 40 "/mnt/disk/jenkins/ci/workspace/chipset_release_960_xloader/opensource/component_code/vendor/huawei/extra/build/build_script/kirin_kernel_release/kernel/include/linux/timer.h"
	.file 41 "/mnt/disk/jenkins/ci/workspace/chipset_release_960_xloader/opensource/component_code/vendor/huawei/extra/build/build_script/kirin_kernel_release/kernel/include/linux/uidgid.h"
	.file 42 "/mnt/disk/jenkins/ci/workspace/chipset_release_960_xloader/opensource/component_code/vendor/huawei/extra/build/build_script/kirin_kernel_release/kernel/include/linux/sysctl.h"
	.file 43 "/mnt/disk/jenkins/ci/workspace/chipset_release_960_xloader/opensource/component_code/vendor/huawei/extra/build/build_script/kirin_kernel_release/kernel/include/linux/workqueue.h"
	.file 44 "/mnt/disk/jenkins/ci/workspace/chipset_release_960_xloader/opensource/component_code/vendor/huawei/extra/build/build_script/kirin_kernel_release/kernel/arch/arm64/include/asm/pgtable-types.h"
	.file 45 "/mnt/disk/jenkins/ci/workspace/chipset_release_960_xloader/opensource/component_code/vendor/huawei/extra/build/build_script/kirin_kernel_release/kernel/arch/arm64/include/asm/page.h"
	.file 46 "/mnt/disk/jenkins/ci/workspace/chipset_release_960_xloader/opensource/component_code/vendor/huawei/extra/build/build_script/kirin_kernel_release/kernel/include/linux/llist.h"
	.file 47 "/mnt/disk/jenkins/ci/workspace/chipset_release_960_xloader/opensource/component_code/vendor/huawei/extra/build/build_script/kirin_kernel_release/kernel/arch/arm64/include/asm/smp.h"
	.file 48 "/mnt/disk/jenkins/ci/workspace/chipset_release_960_xloader/opensource/component_code/vendor/huawei/extra/build/build_script/kirin_kernel_release/kernel/arch/arm64/include/asm/mmu.h"
	.file 49 "/mnt/disk/jenkins/ci/workspace/chipset_release_960_xloader/opensource/component_code/vendor/huawei/extra/build/build_script/kirin_kernel_release/kernel/include/linux/fs.h"
	.file 50 "/mnt/disk/jenkins/ci/workspace/chipset_release_960_xloader/opensource/component_code/vendor/huawei/extra/build/build_script/kirin_kernel_release/kernel/include/linux/mm.h"
	.file 51 "/mnt/disk/jenkins/ci/workspace/chipset_release_960_xloader/opensource/component_code/vendor/huawei/extra/build/build_script/kirin_kernel_release/kernel/include/linux/user_namespace.h"
	.file 52 "/mnt/disk/jenkins/ci/workspace/chipset_release_960_xloader/opensource/component_code/vendor/huawei/extra/build/build_script/kirin_kernel_release/kernel/include/linux/mmzone.h"
	.file 53 "/mnt/disk/jenkins/ci/workspace/chipset_release_960_xloader/opensource/component_code/vendor/huawei/extra/build/build_script/kirin_kernel_release/kernel/include/linux/mutex.h"
	.file 54 "/mnt/disk/jenkins/ci/workspace/chipset_release_960_xloader/opensource/component_code/vendor/huawei/extra/build/build_script/kirin_kernel_release/kernel/include/linux/percpu-refcount.h"
	.file 55 "/mnt/disk/jenkins/ci/workspace/chipset_release_960_xloader/opensource/component_code/vendor/huawei/extra/build/build_script/kirin_kernel_release/kernel/include/linux/shrinker.h"
	.file 56 "/mnt/disk/jenkins/ci/workspace/chipset_release_960_xloader/opensource/component_code/vendor/huawei/extra/build/build_script/kirin_kernel_release/kernel/include/uapi/linux/resource.h"
	.file 57 "/mnt/disk/jenkins/ci/workspace/chipset_release_960_xloader/opensource/component_code/vendor/huawei/extra/build/build_script/kirin_kernel_release/kernel/include/linux/tracepoint-defs.h"
	.file 58 "/mnt/disk/jenkins/ci/workspace/chipset_release_960_xloader/opensource/component_code/vendor/huawei/extra/build/build_script/kirin_kernel_release/kernel/include/linux/vmstat.h"
	.file 59 "/mnt/disk/jenkins/ci/workspace/chipset_release_960_xloader/opensource/component_code/vendor/huawei/extra/build/build_script/kirin_kernel_release/kernel/include/linux/capability.h"
	.file 60 "/mnt/disk/jenkins/ci/workspace/chipset_release_960_xloader/opensource/component_code/vendor/huawei/extra/build/build_script/kirin_kernel_release/kernel/include/linux/plist.h"
	.file 61 "/mnt/disk/jenkins/ci/workspace/chipset_release_960_xloader/opensource/component_code/vendor/huawei/extra/build/build_script/kirin_kernel_release/kernel/include/asm-generic/cputime_jiffies.h"
	.file 62 "/mnt/disk/jenkins/ci/workspace/chipset_release_960_xloader/opensource/component_code/vendor/huawei/extra/build/build_script/kirin_kernel_release/kernel/include/uapi/asm-generic/signal.h"
	.file 63 "/mnt/disk/jenkins/ci/workspace/chipset_release_960_xloader/opensource/component_code/vendor/huawei/extra/build/build_script/kirin_kernel_release/kernel/include/uapi/asm-generic/signal-defs.h"
	.file 64 "/mnt/disk/jenkins/ci/workspace/chipset_release_960_xloader/opensource/component_code/vendor/huawei/extra/build/build_script/kirin_kernel_release/kernel/include/uapi/asm-generic/siginfo.h"
	.file 65 "/mnt/disk/jenkins/ci/workspace/chipset_release_960_xloader/opensource/component_code/vendor/huawei/extra/build/build_script/kirin_kernel_release/kernel/include/linux/signal.h"
	.file 66 "/mnt/disk/jenkins/ci/workspace/chipset_release_960_xloader/opensource/component_code/vendor/huawei/extra/build/build_script/kirin_kernel_release/kernel/include/linux/pid.h"
	.file 67 "/mnt/disk/jenkins/ci/workspace/chipset_release_960_xloader/opensource/component_code/vendor/huawei/extra/build/build_script/kirin_kernel_release/kernel/include/linux/pid_namespace.h"
	.file 68 "/mnt/disk/jenkins/ci/workspace/chipset_release_960_xloader/opensource/component_code/vendor/huawei/extra/build/build_script/kirin_kernel_release/kernel/include/linux/seccomp.h"
	.file 69 "/mnt/disk/jenkins/ci/workspace/chipset_release_960_xloader/opensource/component_code/vendor/huawei/extra/build/build_script/kirin_kernel_release/kernel/include/linux/timerqueue.h"
	.file 70 "/mnt/disk/jenkins/ci/workspace/chipset_release_960_xloader/opensource/component_code/vendor/huawei/extra/build/build_script/kirin_kernel_release/kernel/include/linux/hrtimer.h"
	.file 71 "/mnt/disk/jenkins/ci/workspace/chipset_release_960_xloader/opensource/component_code/vendor/huawei/extra/build/build_script/kirin_kernel_release/kernel/include/linux/task_io_accounting.h"
	.file 72 "/mnt/disk/jenkins/ci/workspace/chipset_release_960_xloader/opensource/component_code/vendor/huawei/extra/build/build_script/kirin_kernel_release/kernel/include/linux/assoc_array.h"
	.file 73 "/mnt/disk/jenkins/ci/workspace/chipset_release_960_xloader/opensource/component_code/vendor/huawei/extra/build/build_script/kirin_kernel_release/kernel/include/linux/key.h"
	.file 74 "/mnt/disk/jenkins/ci/workspace/chipset_release_960_xloader/opensource/component_code/vendor/huawei/extra/build/build_script/kirin_kernel_release/kernel/include/linux/cred.h"
	.file 75 "/mnt/disk/jenkins/ci/workspace/chipset_release_960_xloader/opensource/component_code/vendor/huawei/extra/build/build_script/kirin_kernel_release/kernel/include/linux/idr.h"
	.file 76 "/mnt/disk/jenkins/ci/workspace/chipset_release_960_xloader/opensource/component_code/vendor/huawei/extra/build/build_script/kirin_kernel_release/kernel/include/linux/rcu_sync.h"
	.file 77 "/mnt/disk/jenkins/ci/workspace/chipset_release_960_xloader/opensource/component_code/vendor/huawei/extra/build/build_script/kirin_kernel_release/kernel/include/linux/percpu-rwsem.h"
	.file 78 "/mnt/disk/jenkins/ci/workspace/chipset_release_960_xloader/opensource/component_code/vendor/huawei/extra/build/build_script/kirin_kernel_release/kernel/include/linux/bpf-cgroup.h"
	.file 79 "/mnt/disk/jenkins/ci/workspace/chipset_release_960_xloader/opensource/component_code/vendor/huawei/extra/build/build_script/kirin_kernel_release/kernel/include/linux/cgroup-defs.h"
	.file 80 "/mnt/disk/jenkins/ci/workspace/chipset_release_960_xloader/opensource/component_code/vendor/huawei/extra/build/build_script/kirin_kernel_release/kernel/include/linux/kernfs.h"
	.file 81 "/mnt/disk/jenkins/ci/workspace/chipset_release_960_xloader/opensource/component_code/vendor/huawei/extra/build/build_script/kirin_kernel_release/kernel/include/linux/seq_file.h"
	.file 82 "/mnt/disk/jenkins/ci/workspace/chipset_release_960_xloader/opensource/component_code/vendor/huawei/extra/build/build_script/kirin_kernel_release/kernel/include/uapi/linux/taskstats.h"
	.file 83 "/mnt/disk/jenkins/ci/workspace/chipset_release_960_xloader/opensource/component_code/vendor/huawei/extra/build/build_script/kirin_kernel_release/kernel/include/linux/nsproxy.h"
	.file 84 "/mnt/disk/jenkins/ci/workspace/chipset_release_960_xloader/opensource/component_code/vendor/huawei/extra/build/build_script/kirin_kernel_release/kernel/include/linux/compat.h"
	.file 85 "/mnt/disk/jenkins/ci/workspace/chipset_release_960_xloader/opensource/component_code/vendor/huawei/extra/build/build_script/kirin_kernel_release/kernel/include/linux/stat.h"
	.file 86 "/mnt/disk/jenkins/ci/workspace/chipset_release_960_xloader/opensource/component_code/vendor/huawei/extra/build/build_script/kirin_kernel_release/kernel/include/uapi/linux/elf.h"
	.file 87 "/mnt/disk/jenkins/ci/workspace/chipset_release_960_xloader/opensource/component_code/vendor/huawei/extra/build/build_script/kirin_kernel_release/kernel/include/linux/kobject_ns.h"
	.file 88 "/mnt/disk/jenkins/ci/workspace/chipset_release_960_xloader/opensource/component_code/vendor/huawei/extra/build/build_script/kirin_kernel_release/kernel/include/linux/sysfs.h"
	.file 89 "/mnt/disk/jenkins/ci/workspace/chipset_release_960_xloader/opensource/component_code/vendor/huawei/extra/build/build_script/kirin_kernel_release/kernel/include/linux/kobject.h"
	.file 90 "/mnt/disk/jenkins/ci/workspace/chipset_release_960_xloader/opensource/component_code/vendor/huawei/extra/build/build_script/kirin_kernel_release/kernel/include/linux/kref.h"
	.file 91 "/mnt/disk/jenkins/ci/workspace/chipset_release_960_xloader/opensource/component_code/vendor/huawei/extra/build/build_script/kirin_kernel_release/kernel/include/linux/moduleparam.h"
	.file 92 "/mnt/disk/jenkins/ci/workspace/chipset_release_960_xloader/opensource/component_code/vendor/huawei/extra/build/build_script/kirin_kernel_release/kernel/include/linux/module.h"
	.file 93 "/mnt/disk/jenkins/ci/workspace/chipset_release_960_xloader/opensource/component_code/vendor/huawei/extra/build/build_script/kirin_kernel_release/kernel/include/linux/rbtree_latch.h"
	.file 94 "/mnt/disk/jenkins/ci/workspace/chipset_release_960_xloader/opensource/component_code/vendor/huawei/extra/build/build_script/kirin_kernel_release/kernel/arch/arm64/include/asm/module.h"
	.file 95 "/mnt/disk/jenkins/ci/workspace/chipset_release_960_xloader/opensource/component_code/vendor/huawei/extra/build/build_script/kirin_kernel_release/kernel/arch/arm64/include/asm/uaccess.h"
	.file 96 "/mnt/disk/jenkins/ci/workspace/chipset_release_960_xloader/opensource/component_code/vendor/huawei/extra/build/build_script/kirin_kernel_release/kernel/include/linux/trace_events.h"
	.file 97 "/mnt/disk/jenkins/ci/workspace/chipset_release_960_xloader/opensource/component_code/vendor/huawei/extra/build/build_script/kirin_kernel_release/kernel/include/linux/tracepoint.h"
	.file 98 "/mnt/disk/jenkins/ci/workspace/chipset_release_960_xloader/opensource/component_code/vendor/huawei/extra/build/build_script/kirin_kernel_release/kernel/include/linux/percpu_counter.h"
	.file 99 "/mnt/disk/jenkins/ci/workspace/chipset_release_960_xloader/opensource/component_code/vendor/huawei/extra/build/build_script/kirin_kernel_release/kernel/include/linux/quota.h"
	.file 100 "/mnt/disk/jenkins/ci/workspace/chipset_release_960_xloader/opensource/component_code/vendor/huawei/extra/build/build_script/kirin_kernel_release/kernel/include/linux/projid.h"
	.file 101 "/mnt/disk/jenkins/ci/workspace/chipset_release_960_xloader/opensource/component_code/vendor/huawei/extra/build/build_script/kirin_kernel_release/kernel/include/linux/path.h"
	.file 102 "/mnt/disk/jenkins/ci/workspace/chipset_release_960_xloader/opensource/component_code/vendor/huawei/extra/build/build_script/kirin_kernel_release/kernel/include/linux/list_bl.h"
	.file 103 "/mnt/disk/jenkins/ci/workspace/chipset_release_960_xloader/opensource/component_code/vendor/huawei/extra/build/build_script/kirin_kernel_release/kernel/include/linux/lockref.h"
	.file 104 "/mnt/disk/jenkins/ci/workspace/chipset_release_960_xloader/opensource/component_code/vendor/huawei/extra/build/build_script/kirin_kernel_release/kernel/include/linux/dcache.h"
	.file 105 "/mnt/disk/jenkins/ci/workspace/chipset_release_960_xloader/opensource/component_code/vendor/huawei/extra/build/build_script/kirin_kernel_release/kernel/include/linux/list_lru.h"
	.file 106 "/mnt/disk/jenkins/ci/workspace/chipset_release_960_xloader/opensource/component_code/vendor/huawei/extra/build/build_script/kirin_kernel_release/kernel/include/linux/radix-tree.h"
	.file 107 "/mnt/disk/jenkins/ci/workspace/chipset_release_960_xloader/opensource/component_code/vendor/huawei/extra/build/build_script/kirin_kernel_release/kernel/include/uapi/linux/fiemap.h"
	.file 108 "/mnt/disk/jenkins/ci/workspace/chipset_release_960_xloader/opensource/component_code/vendor/huawei/extra/build/build_script/kirin_kernel_release/kernel/include/linux/migrate_mode.h"
	.file 109 "/mnt/disk/jenkins/ci/workspace/chipset_release_960_xloader/opensource/component_code/vendor/huawei/extra/build/build_script/kirin_kernel_release/kernel/include/linux/bvec.h"
	.file 110 "/mnt/disk/jenkins/ci/workspace/chipset_release_960_xloader/opensource/component_code/vendor/huawei/extra/build/build_script/kirin_kernel_release/kernel/include/linux/delayed_call.h"
	.file 111 "/mnt/disk/jenkins/ci/workspace/chipset_release_960_xloader/opensource/component_code/vendor/huawei/extra/build/build_script/kirin_kernel_release/kernel/include/linux/uio.h"
	.file 112 "/mnt/disk/jenkins/ci/workspace/chipset_release_960_xloader/opensource/component_code/vendor/huawei/extra/build/build_script/kirin_kernel_release/kernel/include/linux/nfs_fs_i.h"
	.file 113 "/mnt/disk/jenkins/ci/workspace/chipset_release_960_xloader/opensource/component_code/vendor/huawei/extra/build/build_script/kirin_kernel_release/kernel/include/linux/poll.h"
	.file 114 "/mnt/disk/jenkins/ci/workspace/chipset_release_960_xloader/opensource/component_code/vendor/huawei/extra/build/build_script/kirin_kernel_release/kernel/include/linux/seq_buf.h"
	.file 115 "/mnt/disk/jenkins/ci/workspace/chipset_release_960_xloader/opensource/component_code/vendor/huawei/extra/build/build_script/kirin_kernel_release/kernel/include/linux/trace_seq.h"
	.file 116 "/mnt/disk/jenkins/ci/workspace/chipset_release_960_xloader/opensource/component_code/vendor/huawei/extra/build/build_script/kirin_kernel_release/kernel/include/uapi/linux/perf_event.h"
	.file 117 "/mnt/disk/jenkins/ci/workspace/chipset_release_960_xloader/opensource/component_code/vendor/huawei/extra/build/build_script/kirin_kernel_release/kernel/include/asm-generic/local.h"
	.file 118 "/mnt/disk/jenkins/ci/workspace/chipset_release_960_xloader/opensource/component_code/vendor/huawei/extra/build/build_script/kirin_kernel_release/kernel/include/asm-generic/local64.h"
	.file 119 "/mnt/disk/jenkins/ci/workspace/chipset_release_960_xloader/opensource/component_code/vendor/huawei/extra/build/build_script/kirin_kernel_release/kernel/include/linux/cgroup.h"
	.file 120 "/mnt/disk/jenkins/ci/workspace/chipset_release_960_xloader/opensource/component_code/vendor/huawei/extra/build/build_script/kirin_kernel_release/kernel/include/linux/ns_common.h"
	.file 121 "/mnt/disk/jenkins/ci/workspace/chipset_release_960_xloader/opensource/component_code/vendor/huawei/extra/build/build_script/kirin_kernel_release/kernel/include/uapi/linux/uio.h"
	.file 122 "/mnt/disk/jenkins/ci/workspace/chipset_release_960_xloader/opensource/component_code/vendor/huawei/extra/build/build_script/kirin_kernel_release/kernel/include/linux/klist.h"
	.file 123 "/mnt/disk/jenkins/ci/workspace/chipset_release_960_xloader/opensource/component_code/vendor/huawei/extra/build/build_script/kirin_kernel_release/kernel/include/linux/pinctrl/devinfo.h"
	.file 124 "/mnt/disk/jenkins/ci/workspace/chipset_release_960_xloader/opensource/component_code/vendor/huawei/extra/build/build_script/kirin_kernel_release/kernel/include/linux/pm.h"
	.file 125 "/mnt/disk/jenkins/ci/workspace/chipset_release_960_xloader/opensource/component_code/vendor/huawei/extra/build/build_script/kirin_kernel_release/kernel/include/linux/device.h"
	.file 126 "/mnt/disk/jenkins/ci/workspace/chipset_release_960_xloader/opensource/component_code/vendor/huawei/extra/build/build_script/kirin_kernel_release/kernel/include/linux/pm_wakeup.h"
	.file 127 "/mnt/disk/jenkins/ci/workspace/chipset_release_960_xloader/opensource/component_code/vendor/huawei/extra/build/build_script/kirin_kernel_release/kernel/arch/arm64/include/asm/device.h"
	.file 128 "/mnt/disk/jenkins/ci/workspace/chipset_release_960_xloader/opensource/component_code/vendor/huawei/extra/build/build_script/kirin_kernel_release/kernel/include/linux/irq_work.h"
	.file 129 "/mnt/disk/jenkins/ci/workspace/chipset_release_960_xloader/opensource/component_code/vendor/huawei/extra/build/build_script/kirin_kernel_release/kernel/include/linux/perf_regs.h"
	.file 130 "/mnt/disk/jenkins/ci/workspace/chipset_release_960_xloader/opensource/component_code/vendor/huawei/extra/build/build_script/kirin_kernel_release/kernel/drivers/vcodec/hi_vcodec/vdec/vfmw/vfmw_v4.0/firmware/common/mem_manage.h"
	.file 131 "/mnt/disk/jenkins/ci/workspace/chipset_release_960_xloader/opensource/component_code/vendor/huawei/extra/build/build_script/kirin_kernel_release/kernel/drivers/vcodec/hi_vcodec/vdec/vfmw/vfmw_v4.0/firmware/driver/HiSCDV200/scd_drv.h"
	.file 132 "/mnt/disk/jenkins/ci/workspace/chipset_release_960_xloader/opensource/component_code/vendor/huawei/extra/build/build_script/kirin_kernel_release/kernel/drivers/vcodec/hi_vcodec/vdec/vfmw/vfmw_v4.0/firmware/common/syn_cmn.h"
	.file 133 "/mnt/disk/jenkins/ci/workspace/chipset_release_960_xloader/opensource/component_code/vendor/huawei/extra/build/build_script/kirin_kernel_release/kernel/drivers/vcodec/hi_vcodec/vdec/vfmw/vfmw_v4.0/firmware/common/decparam.h"
	.file 134 "/mnt/disk/jenkins/ci/workspace/chipset_release_960_xloader/opensource/component_code/vendor/huawei/extra/build/build_script/kirin_kernel_release/kernel/drivers/vcodec/hi_vcodec/vdec/vfmw/vfmw_v4.0/firmware/common/vdm_hal.h"
	.file 135 "/mnt/disk/jenkins/ci/workspace/chipset_release_960_xloader/opensource/component_code/vendor/huawei/extra/build/build_script/kirin_kernel_release/kernel/drivers/vcodec/hi_vcodec/vdec/vfmw/vfmw_v4.0/firmware/common/public.h"
	.file 136 "/mnt/disk/jenkins/ci/workspace/chipset_release_960_xloader/opensource/component_code/vendor/huawei/extra/build/build_script/kirin_kernel_release/kernel/drivers/vcodec/hi_vcodec/vdec/vfmw/vfmw_v4.0/firmware/common/bitstream.h"
	.file 137 "/mnt/disk/jenkins/ci/workspace/chipset_release_960_xloader/opensource/component_code/vendor/huawei/extra/build/build_script/kirin_kernel_release/kernel/drivers/vcodec/hi_vcodec/vdec/vfmw/vfmw_v4.0/firmware/common/syntax/mpeg2.h"
	.file 138 "/mnt/disk/jenkins/ci/workspace/chipset_release_960_xloader/opensource/component_code/vendor/huawei/extra/build/build_script/kirin_kernel_release/kernel/drivers/vcodec/hi_vcodec/vdec/vfmw/vfmw_v4.0/firmware/common/syntax/mpeg4.h"
	.file 139 "/mnt/disk/jenkins/ci/workspace/chipset_release_960_xloader/opensource/component_code/vendor/huawei/extra/build/build_script/kirin_kernel_release/kernel/drivers/vcodec/hi_vcodec/vdec/vfmw/vfmw_v4.0/firmware/common/syntax/h264.h"
	.file 140 "/mnt/disk/jenkins/ci/workspace/chipset_release_960_xloader/opensource/component_code/vendor/huawei/extra/build/build_script/kirin_kernel_release/kernel/drivers/vcodec/hi_vcodec/vdec/vfmw/vfmw_v4.0/firmware/common/syntax/hevc.h"
	.file 141 "/mnt/disk/jenkins/ci/workspace/chipset_release_960_xloader/opensource/component_code/vendor/huawei/extra/build/build_script/kirin_kernel_release/kernel/drivers/vcodec/hi_vcodec/vdec/vfmw/vfmw_v4.0/firmware/common/syntax/vc1.h"
	.file 142 "/mnt/disk/jenkins/ci/workspace/chipset_release_960_xloader/opensource/component_code/vendor/huawei/extra/build/build_script/kirin_kernel_release/kernel/drivers/vcodec/hi_vcodec/vdec/vfmw/vfmw_v4.0/firmware/common/syntax/real8.h"
	.file 143 "/mnt/disk/jenkins/ci/workspace/chipset_release_960_xloader/opensource/component_code/vendor/huawei/extra/build/build_script/kirin_kernel_release/kernel/drivers/vcodec/hi_vcodec/vdec/vfmw/vfmw_v4.0/firmware/common/syntax/real9.h"
	.file 144 "/mnt/disk/jenkins/ci/workspace/chipset_release_960_xloader/opensource/component_code/vendor/huawei/extra/build/build_script/kirin_kernel_release/kernel/drivers/vcodec/hi_vcodec/vdec/vfmw/vfmw_v4.0/firmware/common/syntax/divx3.h"
	.file 145 "/mnt/disk/jenkins/ci/workspace/chipset_release_960_xloader/opensource/component_code/vendor/huawei/extra/build/build_script/kirin_kernel_release/kernel/drivers/vcodec/hi_vcodec/vdec/vfmw/vfmw_v4.0/firmware/common/syntax/vp6.h"
	.file 146 "/mnt/disk/jenkins/ci/workspace/chipset_release_960_xloader/opensource/component_code/vendor/huawei/extra/build/build_script/kirin_kernel_release/kernel/drivers/vcodec/hi_vcodec/vdec/vfmw/vfmw_v4.0/firmware/common/syntax/vp8.h"
	.file 147 "/mnt/disk/jenkins/ci/workspace/chipset_release_960_xloader/opensource/component_code/vendor/huawei/extra/build/build_script/kirin_kernel_release/kernel/drivers/vcodec/hi_vcodec/vdec/vfmw/vfmw_v4.0/firmware/common/syntax/syntax.h"
	.file 148 "/mnt/disk/jenkins/ci/workspace/chipset_release_960_xloader/opensource/component_code/vendor/huawei/extra/build/build_script/kirin_kernel_release/kernel/drivers/vcodec/hi_vcodec/vdec/vfmw/vfmw_v4.0/firmware/common/fsp.h"
	.file 149 "/mnt/disk/jenkins/ci/workspace/chipset_release_960_xloader/opensource/component_code/vendor/huawei/extra/build/build_script/kirin_kernel_release/kernel/drivers/vcodec/hi_vcodec/vdec/vfmw/vfmw_v4.0/firmware/common/vfmw_ctrl.h"
	.file 150 "/mnt/disk/jenkins/ci/workspace/chipset_release_960_xloader/opensource/component_code/vendor/huawei/extra/build/build_script/kirin_kernel_release/kernel/arch/arm64/include/asm/cachetype.h"
	.file 151 "/mnt/disk/jenkins/ci/workspace/chipset_release_960_xloader/opensource/component_code/vendor/huawei/extra/build/build_script/kirin_kernel_release/kernel/include/linux/printk.h"
	.file 152 "/mnt/disk/jenkins/ci/workspace/chipset_release_960_xloader/opensource/component_code/vendor/huawei/extra/build/build_script/kirin_kernel_release/kernel/include/linux/kernel.h"
	.file 153 "/mnt/disk/jenkins/ci/workspace/chipset_release_960_xloader/opensource/component_code/vendor/huawei/extra/build/build_script/kirin_kernel_release/kernel/arch/arm64/include/asm/stack_pointer.h"
	.file 154 "/mnt/disk/jenkins/ci/workspace/chipset_release_960_xloader/opensource/component_code/vendor/huawei/extra/build/build_script/kirin_kernel_release/kernel/arch/arm64/include/asm/hwcap.h"
	.file 155 "/mnt/disk/jenkins/ci/workspace/chipset_release_960_xloader/opensource/component_code/vendor/huawei/extra/build/build_script/kirin_kernel_release/kernel/arch/arm64/include/asm/cpufeature.h"
	.file 156 "/mnt/disk/jenkins/ci/workspace/chipset_release_960_xloader/opensource/component_code/vendor/huawei/extra/build/build_script/kirin_kernel_release/kernel/arch/arm64/include/asm/virt.h"
	.file 157 "/mnt/disk/jenkins/ci/workspace/chipset_release_960_xloader/opensource/component_code/vendor/huawei/extra/build/build_script/kirin_kernel_release/kernel/include/linux/jiffies.h"
	.file 158 "/mnt/disk/jenkins/ci/workspace/chipset_release_960_xloader/opensource/component_code/vendor/huawei/extra/build/build_script/kirin_kernel_release/kernel/include/linux/highuid.h"
	.file 159 "/mnt/disk/jenkins/ci/workspace/chipset_release_960_xloader/opensource/component_code/vendor/huawei/extra/build/build_script/kirin_kernel_release/kernel/arch/arm64/include/asm/memory.h"
	.file 160 "/mnt/disk/jenkins/ci/workspace/chipset_release_960_xloader/opensource/component_code/vendor/huawei/extra/build/build_script/kirin_kernel_release/kernel/include/asm-generic/percpu.h"
	.file 161 "/mnt/disk/jenkins/ci/workspace/chipset_release_960_xloader/opensource/component_code/vendor/huawei/extra/build/build_script/kirin_kernel_release/kernel/include/linux/debug_locks.h"
	.file 162 "/mnt/disk/jenkins/ci/workspace/chipset_release_960_xloader/opensource/component_code/vendor/huawei/extra/build/build_script/kirin_kernel_release/kernel/include/asm-generic/pgtable.h"
	.file 163 "/mnt/disk/jenkins/ci/workspace/chipset_release_960_xloader/opensource/component_code/vendor/huawei/extra/build/build_script/kirin_kernel_release/kernel/arch/arm64/include/asm/irq.h"
	.file 164 "/mnt/disk/jenkins/ci/workspace/chipset_release_960_xloader/opensource/component_code/vendor/huawei/extra/build/build_script/kirin_kernel_release/kernel/arch/arm64/include/asm/hardirq.h"
	.file 165 "/mnt/disk/jenkins/ci/workspace/chipset_release_960_xloader/opensource/component_code/vendor/huawei/extra/build/build_script/kirin_kernel_release/kernel/include/linux/slab.h"
	.file 166 "/mnt/disk/jenkins/ci/workspace/chipset_release_960_xloader/opensource/component_code/vendor/huawei/extra/build/build_script/kirin_kernel_release/kernel/include/linux/interrupt.h"