	.cpu generic+fp+simd
	.file	"vc1.c"
	.text
.Ltext0:
	.cfi_sections	.debug_frame
	.align	2
	.global	emp_print
	.type	emp_print, %function
emp_print:
.LFB2638:
	.file 1 "/mnt/disk/jenkins/ci/workspace/chipset_release_960_xloader/opensource/component_code/vendor/huawei/extra/build/build_script/kirin_kernel_release/kernel/drivers/vcodec/hi_vcodec/vdec/vfmw/vfmw_v4.0/firmware/common/syntax/vc1.c"
	.loc 1 121 0
	.cfi_startproc
.LVL0:
	sub	sp, sp, #48
	.cfi_def_cfa_offset 48
	.loc 1 123 0
	mov	w0, 0
.LVL1:
	.loc 1 121 0
	str	x2, [sp]
	str	x3, [sp,8]
	str	x4, [sp,16]
	str	x5, [sp,24]
	str	x6, [sp,32]
	str	x7, [sp,40]
	.loc 1 123 0
	add	sp, sp, 48
	.cfi_def_cfa_offset 0
	ret
	.cfi_endproc
.LFE2638:
	.size	emp_print, .-emp_print
	.align	2
	.global	AbandonBitsLenthNoUse
	.type	AbandonBitsLenthNoUse, %function
AbandonBitsLenthNoUse:
.LFB2639:
	.loc 1 126 0
	.cfi_startproc
.LVL2:
	.loc 1 133 0
	ldrb	w1, [x0]
.LVL3:
	.loc 1 134 0
	mov	w2, 0
	cbnz	w1, .L18
.L11:
	.loc 1 133 0
	ldrb	w1, [x0,-1]!
	.loc 1 136 0
	add	w2, w2, 8
	.loc 1 134 0
	cbz	w1, .L11
	add	w0, w2, 1
.LVL4:
.L7:
	.loc 1 140 0
	tbnz	x1, 0, .L5
.L12:
	.loc 1 143 0
	lsr	w1, w1, 1
	.loc 1 142 0
	add	w2, w2, 1
	.loc 1 140 0
	tbz	x1, 0, .L12
	add	w0, w2, 1
.L5:
	.loc 1 151 0
	ret
.LVL5:
.L18:
	.loc 1 134 0
	mov	w0, 1
.LVL6:
	b	.L7
	.cfi_endproc
.LFE2639:
	.size	AbandonBitsLenthNoUse, .-AbandonBitsLenthNoUse
	.align	2
	.global	VC1DEC_Init
	.type	VC1DEC_Init, %function
VC1DEC_Init:
.LFB2640:
	.loc 1 155 0
	.cfi_startproc
.LVL7:
	stp	x29, x30, [sp, -48]!
	.cfi_def_cfa_offset 48
	.cfi_offset 29, -48
	.cfi_offset 30, -40
	.loc 1 161 0
	mov	x2, 51968
	.loc 1 155 0
	add	x29, sp, 0
	.cfi_def_cfa_register 29
	stp	x19, x20, [sp,16]
	.cfi_offset 19, -32
	.cfi_offset 20, -24
	.loc 1 160 0
	add	x19, x0, 114688
	.loc 1 161 0
	movk	x2, 0x1, lsl 16
	.loc 1 155 0
	stp	x21, x22, [sp,32]
	.cfi_offset 21, -16
	.cfi_offset 22, -8
	.loc 1 155 0
	mov	x21, x1
	.loc 1 161 0
	mov	w1, 0
.LVL8:
	.loc 1 155 0
	mov	x20, x0
	.loc 1 160 0
	ldr	w22, [x19,2800]
	.loc 1 161 0
	bl	memset
.LVL9:
	.loc 1 162 0
	str	w22, [x19,2800]
	.loc 1 163 0
	add	x0, x19, 2192
	bl	ResetVoQueue
.LVL10:
	.loc 1 167 0
	add	x3, x20, 77824
	.loc 1 164 0
	ldr	w1, [x21,32]
	.loc 1 166 0
	str	x21, [x20]
	.loc 1 167 0
	mov	w4, 1
	.loc 1 164 0
	add	w1, w1, 255
	.loc 1 180 0
	mov	x0, x20
	.loc 1 167 0
	strb	w4, [x3,2497]
	.loc 1 164 0
	and	w1, w1, -256
.LVL11:
	.loc 1 173 0
	add	w5, w1, 8192
	.loc 1 171 0
	add	w2, w1, 4096
	.loc 1 168 0
	ldr	w6, [x21,12]
	str	w6, [x19,2140]
	.loc 1 170 0
	add	w6, w1, 2048
	.loc 1 169 0
	str	w1, [x19,2112]
	.loc 1 175 0
	add	w1, w1, 12288
.LVL12:
	.loc 1 171 0
	str	w2, [x19,2120]
	.loc 1 172 0
	add	w2, w2, 2048
	.loc 1 170 0
	str	w6, [x19,2116]
	.loc 1 174 0
	add	w6, w5, 2048
	.loc 1 172 0
	str	w2, [x19,2124]
	.loc 1 173 0
	str	w5, [x19,2128]
	.loc 1 174 0
	str	w6, [x19,2132]
	.loc 1 175 0
	str	w1, [x19,2136]
	.loc 1 176 0
	strb	w4, [x3,2498]
	.loc 1 177 0
	str	wzr, [x19,2072]
	.loc 1 178 0
	str	wzr, [x19,2076]
	.loc 1 180 0
	bl	VCTRL_GetChanIDByCtx
.LVL13:
	.loc 1 181 0
	cmn	w0, #1
	.loc 1 180 0
	str	w0, [x19,2808]
	.loc 1 187 0
	mov	w0, 1
	.loc 1 181 0
	beq	.L22
.L20:
	.loc 1 188 0
	ldp	x19, x20, [sp,16]
	.cfi_remember_state
	.cfi_restore 20
	.cfi_restore 19
.LVL14:
	ldp	x21, x22, [sp,32]
	.cfi_restore 22
	.cfi_restore 21
.LVL15:
	ldp	x29, x30, [sp], 48
	.cfi_restore 30
	.cfi_restore 29
	.cfi_def_cfa 31, 0
	ret
.LVL16:
.L22:
	.cfi_restore_state
	.loc 1 183 0
	adrp	x1, .LC1
	mov	w0, 0
	add	x1, x1, :lo12:.LC1
	bl	dprint_linux_kernel
.LVL17:
	.loc 1 184 0
	mov	w0, -20
	b	.L20
	.cfi_endproc
.LFE2640:
	.size	VC1DEC_Init, .-VC1DEC_Init
	.align	2
	.global	Vc1SMPSeqHdr
	.type	Vc1SMPSeqHdr, %function
Vc1SMPSeqHdr:
.LFB2641:
	.loc 1 191 0
	.cfi_startproc
.LVL18:
	stp	x29, x30, [sp, -96]!
	.cfi_def_cfa_offset 96
	.cfi_offset 29, -96
	.cfi_offset 30, -88
	.loc 1 197 0
	lsl	w3, w1, 3
	mov	x1, x0
.LVL19:
	.loc 1 191 0
	add	x29, sp, 0
	.cfi_def_cfa_register 29
	str	x21, [sp,32]
	.cfi_offset 21, -64
	adrp	x21, __stack_chk_guard
	stp	x19, x20, [sp,16]
	.cfi_offset 19, -80
	.cfi_offset 20, -72
	.loc 1 191 0
	mov	x19, x2
	.loc 1 197 0
	mov	w2, w3
.LVL20:
	.loc 1 191 0
	ldr	x3, [x21,#:lo12:__stack_chk_guard]
	.loc 1 197 0
	add	x0, x29, 48
.LVL21:
	.loc 1 191 0
	str	x3, [x29,88]
	.loc 1 197 0
	bl	BsInit
.LVL22:
	.loc 1 199 0
	mov	w1, 8
	add	x0, x29, 48
	bl	BsGet
.LVL23:
	mov	w20, w0
	.loc 1 200 0
	mov	w1, 8
	add	x0, x29, 48
	bl	BsGet
.LVL24:
	add	w20, w20, w0, lsl 8
	.loc 1 201 0
	mov	w1, 8
	add	x0, x29, 48
	bl	BsGet
.LVL25:
	add	w20, w20, w0, lsl 16
	.loc 1 202 0
	mov	w1, 8
	add	x0, x29, 48
	bl	BsGet
.LVL26:
	add	w0, w20, w0, lsl 24
	.loc 1 204 0
	mov	w1, 8
	.loc 1 203 0
	str	w0, [x19,8]
	.loc 1 204 0
	add	x0, x29, 48
	bl	BsGet
.LVL27:
	mov	w20, w0
	.loc 1 205 0
	mov	w1, 8
	add	x0, x29, 48
	bl	BsGet
.LVL28:
	add	w20, w20, w0, lsl 8
	.loc 1 206 0
	mov	w1, 8
	add	x0, x29, 48
	bl	BsGet
.LVL29:
	add	w20, w20, w0, lsl 16
	.loc 1 207 0
	mov	w1, 8
	add	x0, x29, 48
	bl	BsGet
.LVL30:
	add	w0, w20, w0, lsl 24
	.loc 1 211 0
	ldr	w1, [x19,8]
	.loc 1 208 0
	str	w0, [x19,12]
	.loc 1 211 0
	cmp	w1, 8192
	bgt	.L38
	.loc 1 212 0
	cmp	w0, 8192
	bgt	.L39
	.loc 1 213 0
	cmp	w1, 31
	ble	.L40
	.loc 1 214 0
	cmp	w0, 31
	ble	.L41
	.loc 1 216 0
	add	x0, x29, 48
	mov	w1, 2
	bl	BsGet
.LVL31:
	uxtb	w0, w0
	.loc 1 217 0
	cmp	w0, 1
	.loc 1 216 0
	strb	w0, [x19,16]
	.loc 1 217 0
	bhi	.L42
	.loc 1 220 0
	add	x0, x29, 48
	mov	w1, 2
	bl	BsGet
.LVL32:
	cbnz	w0, .L43
	.loc 1 222 0
	mov	w1, 3
	add	x0, x29, 48
	bl	BsGet
.LVL33:
	strb	w0, [x19,17]
	.loc 1 223 0
	mov	w1, 5
	add	x0, x29, 48
	bl	BsGet
.LVL34:
	strb	w0, [x19,18]
	.loc 1 224 0
	mov	w1, 1
	add	x0, x29, 48
	bl	BsGet
.LVL35:
	strb	w0, [x19,19]
	.loc 1 227 0
	mov	w1, 1
	add	x0, x29, 48
	bl	BsGet
.LVL36:
	cbnz	w0, .L44
	.loc 1 229 0
	mov	w1, 1
	add	x0, x29, 48
	bl	BsGet
.LVL37:
	strb	w0, [x19,20]
	.loc 1 230 0
	mov	w1, 1
	add	x0, x29, 48
	bl	BsGet
.LVL38:
	strb	w0, [x19,21]
	.loc 1 231 0
	mov	w1, 1
	add	x0, x29, 48
	bl	BsGet
.LVL39:
	strb	w0, [x19,22]
	.loc 1 232 0
	mov	w1, 1
	add	x0, x29, 48
	bl	BsGet
.LVL40:
	strb	w0, [x19,23]
	.loc 1 234 0
	mov	w1, 2
	add	x0, x29, 48
	bl	BsGet
.LVL41:
	strb	w0, [x19,24]
	.loc 1 235 0
	mov	w1, 1
	add	x0, x29, 48
	bl	BsGet
.LVL42:
	strb	w0, [x19,25]
	.loc 1 238 0
	mov	w1, 1
	add	x0, x29, 48
	bl	BsGet
.LVL43:
	mov	w20, w0
	cbnz	w0, .L45
	.loc 1 240 0
	mov	w1, 1
	add	x0, x29, 48
	bl	BsGet
.LVL44:
	strb	w0, [x19,26]
	.loc 1 241 0
	mov	w1, 1
	add	x0, x29, 48
	bl	BsGet
.LVL45:
	strb	w0, [x19,27]
	.loc 1 242 0
	mov	w1, 1
	add	x0, x29, 48
	bl	BsGet
.LVL46:
	strb	w0, [x19,28]
	.loc 1 243 0
	ldrb	w1, [x19,16]
	cbnz	w1, .L33
	.loc 1 245 0
	strb	wzr, [x19,28]
.L33:
	.loc 1 247 0
	mov	w1, 3
	add	x0, x29, 48
	bl	BsGet
.LVL47:
	strb	w0, [x19,29]
	.loc 1 248 0
	mov	w1, 2
	add	x0, x29, 48
	bl	BsGet
.LVL48:
	strb	w0, [x19,30]
	.loc 1 249 0
	mov	w1, 1
	add	x0, x29, 48
	bl	BsGet
.LVL49:
	strb	w0, [x19,31]
	.loc 1 250 0
	mov	w1, 1
	add	x0, x29, 48
	bl	BsGet
.LVL50:
	.loc 1 255 0
	add	x0, x29, 48
	mov	w1, 32
	bl	BsGet
.LVL51:
	.loc 1 256 0
	cbnz	w0, .L46
.L25:
	.loc 1 263 0
	ldr	x2, [x29,88]
	mov	w0, w20
	ldr	x1, [x21,#:lo12:__stack_chk_guard]
	cmp	x2, x1
	bne	.L47
	ldp	x19, x20, [sp,16]
	.cfi_remember_state
	.cfi_restore 20
	.cfi_restore 19
.LVL52:
	ldr	x21, [sp,32]
	.cfi_restore 21
	ldp	x29, x30, [sp], 96
	.cfi_restore 30
	.cfi_restore 29
	.cfi_def_cfa 31, 0
	ret
.LVL53:
.L46:
	.cfi_restore_state
	.loc 1 258 0
	adrp	x1, .LC6
	mov	w0, 0
	add	x1, x1, :lo12:.LC6
	bl	dprint_linux_kernel
.LVL54:
	b	.L25
.L42:
	.loc 1 217 0 discriminator 1
	adrp	x1, .LC2
	adrp	x2, .LANCHOR0
	adrp	x4, .LC5
	add	x1, x1, :lo12:.LC2
	add	x2, x2, :lo12:.LANCHOR0
	mov	w3, 217
	add	x4, x4, :lo12:.LC5
	mov	w0, 0
	mov	w20, -1
	bl	dprint_linux_kernel
.LVL55:
	.loc 1 217 0 is_stmt 0
	b	.L25
.L41:
	.loc 1 214 0 is_stmt 1 discriminator 1
	adrp	x1, .LC2
	adrp	x2, .LANCHOR0
	adrp	x4, .LC4
	add	x1, x1, :lo12:.LC2
	add	x2, x2, :lo12:.LANCHOR0
	mov	w3, 214
	add	x4, x4, :lo12:.LC4
	mov	w0, 0
	mov	w20, -1
	bl	dprint_linux_kernel
.LVL56:
	.loc 1 214 0 is_stmt 0
	b	.L25
.L43:
	.loc 1 220 0 is_stmt 1 discriminator 2
	adrp	x1, .LC2
	adrp	x2, .LANCHOR0
	adrp	x4, .LC5
	add	x1, x1, :lo12:.LC2
	add	x2, x2, :lo12:.LANCHOR0
	mov	w3, 220
	add	x4, x4, :lo12:.LC5
	mov	w0, 0
	.loc 1 220 0 is_stmt 0 discriminator 1
	mov	w20, -1
	.loc 1 220 0 discriminator 2
	bl	dprint_linux_kernel
.LVL57:
	.loc 1 220 0
	b	.L25
.L44:
	.loc 1 227 0 is_stmt 1 discriminator 2
	adrp	x1, .LC2
	adrp	x2, .LANCHOR0
	adrp	x4, .LC5
	add	x1, x1, :lo12:.LC2
	add	x2, x2, :lo12:.LANCHOR0
	mov	w3, 227
	add	x4, x4, :lo12:.LC5
	mov	w0, 0
	.loc 1 227 0 is_stmt 0 discriminator 1
	mov	w20, -1
	.loc 1 227 0 discriminator 2
	bl	dprint_linux_kernel
.LVL58:
	.loc 1 227 0
	b	.L25
.L45:
	.loc 1 238 0 is_stmt 1 discriminator 2
	adrp	x1, .LC2
	adrp	x2, .LANCHOR0
	adrp	x4, .LC5
	add	x1, x1, :lo12:.LC2
	add	x2, x2, :lo12:.LANCHOR0
	mov	w3, 238
	add	x4, x4, :lo12:.LC5
	mov	w0, 0
	.loc 1 238 0 is_stmt 0 discriminator 1
	mov	w20, -1
	.loc 1 238 0 discriminator 2
	bl	dprint_linux_kernel
.LVL59:
	.loc 1 238 0
	b	.L25
.L38:
	.loc 1 211 0 is_stmt 1 discriminator 1
	adrp	x1, .LC2
	adrp	x2, .LANCHOR0
	adrp	x4, .LC3
	add	x1, x1, :lo12:.LC2
	add	x2, x2, :lo12:.LANCHOR0
	mov	w3, 211
	add	x4, x4, :lo12:.LC3
	mov	w0, 0
	mov	w20, -1
	bl	dprint_linux_kernel
.LVL60:
	.loc 1 211 0 is_stmt 0
	b	.L25
.L39:
	.loc 1 212 0 is_stmt 1 discriminator 1
	adrp	x1, .LC2
	adrp	x2, .LANCHOR0
	adrp	x4, .LC4
	add	x1, x1, :lo12:.LC2
	add	x2, x2, :lo12:.LANCHOR0
	mov	w3, 212
	add	x4, x4, :lo12:.LC4
	mov	w0, 0
	mov	w20, -1
	bl	dprint_linux_kernel
.LVL61:
	.loc 1 212 0 is_stmt 0
	b	.L25
.L40:
	.loc 1 213 0 is_stmt 1 discriminator 1
	adrp	x1, .LC2
	adrp	x2, .LANCHOR0
	adrp	x4, .LC3
	add	x1, x1, :lo12:.LC2
	add	x2, x2, :lo12:.LANCHOR0
	mov	w3, 213
	add	x4, x4, :lo12:.LC3
	mov	w0, 0
	mov	w20, -1
	bl	dprint_linux_kernel
.LVL62:
	.loc 1 213 0 is_stmt 0
	b	.L25
.L47:
	.loc 1 263 0 is_stmt 1
	bl	__stack_chk_fail
.LVL63:
	.cfi_endproc
.LFE2641:
	.size	Vc1SMPSeqHdr, .-Vc1SMPSeqHdr
	.align	2
	.global	VC1_SetImgFormat
	.type	VC1_SetImgFormat, %function
VC1_SetImgFormat:
.LFB2642:
	.loc 1 266 0
	.cfi_startproc
.LVL64:
	stp	x29, x30, [sp, -48]!
	.cfi_def_cfa_offset 48
	.cfi_offset 29, -48
	.cfi_offset 30, -40
	add	x29, sp, 0
	.cfi_def_cfa_register 29
	stp	x21, x22, [sp,32]
	.cfi_offset 21, -16
	.cfi_offset 22, -8
	.loc 1 278 0
	add	x21, x0, 77824
	add	x22, x21, 2488
	.loc 1 266 0
	stp	x19, x20, [sp,16]
	.cfi_offset 19, -32
	.cfi_offset 20, -24
	.loc 1 278 0
	add	x1, x22, 20480
	.loc 1 266 0
	mov	x20, x0
	.loc 1 278 0
	add	x0, x0, 114688
.LVL65:
	ldr	w1, [x1,1556]
	ldr	w0, [x0,2808]
	bl	FSP_GetFsImagePtr
.LVL66:
	mov	x19, x0
.LVL67:
	.loc 1 279 0
	cbz	x0, .L48
	.loc 1 284 0
	ldrsb	w0, [x21,2491]
	cmp	w0, 3
	beq	.L57
	.loc 1 298 0
	mov	w0, 7168
	str	w0, [x19,44]
.L52:
	.loc 1 301 0
	add	x20, x21, 2488
.LVL68:
	.loc 1 304 0
	mov	x0, x19
	.loc 1 301 0
	add	x20, x20, 20480
	.loc 1 304 0
	mov	w1, 0
	.loc 1 301 0
	ldr	w2, [x20,1500]
	str	w2, [x19,52]
	.loc 1 302 0
	ldr	w2, [x20,1496]
	str	w2, [x19,48]
	.loc 1 304 0
	bl	SetAspectRatio
.LVL69:
	.loc 1 308 0
	ldr	w0, [x21,2288]
	ldr	w1, [x19,168]
	.loc 1 306 0
	ldr	w2, [x19,76]
	.loc 1 308 0
	add	w0, w1, w0
	.loc 1 309 0
	str	w1, [x19,136]
	.loc 1 308 0
	str	w0, [x19,172]
.LVL70:
	.loc 1 311 0
	add	w3, w1, w2
	.loc 1 310 0
	str	w0, [x19,140]
	.loc 1 312 0
	add	w2, w0, w2
.LVL71:
	.loc 1 311 0
	str	w3, [x19,144]
	.loc 1 312 0
	str	w2, [x19,148]
	.loc 1 313 0
	str	w1, [x19,176]
	.loc 1 314 0
	str	w0, [x19,180]
	.loc 1 316 0
	ldr	w0, [x20,1500]
	str	w0, [x19,60]
	.loc 1 317 0
	ldr	w0, [x20,1496]
	str	w0, [x19,56]
.LVL72:
.L48:
	.loc 1 320 0
	ldp	x19, x20, [sp,16]
	.cfi_remember_state
	.cfi_restore 20
	.cfi_restore 19
.LVL73:
	ldp	x21, x22, [sp,32]
	.cfi_restore 22
	.cfi_restore 21
	ldp	x29, x30, [sp], 48
	.cfi_restore 30
	.cfi_restore 29
	.cfi_def_cfa 31, 0
	ret
.LVL74:
.L57:
	.cfi_restore_state
	.loc 1 286 0
	ldr	w1, [x19,44]
	mov	w2, 4352
	.loc 1 287 0
	ldrb	w0, [x20,24]
	.loc 1 286 0
	ubfx	x1, x1, 10, 2
	.loc 1 287 0
	add	w0, w0, 1
	orr	w0, w0, w1
	cmp	w0, 3
	orr	w0, w2, w0, lsl 10
	csel	w2, w0, w2, ls
	.loc 1 294 0
	str	w2, [x19,44]
	b	.L52
	.cfi_endproc
.LFE2642:
	.size	VC1_SetImgFormat, .-VC1_SetImgFormat
	.align	2
	.global	VC1DEC_Destroy
	.type	VC1DEC_Destroy, %function
VC1DEC_Destroy:
.LFB2643:
	.loc 1 323 0
	.cfi_startproc
.LVL75:
	.loc 1 325 0
	mov	w0, 1
.LVL76:
	ret
	.cfi_endproc
.LFE2643:
	.size	VC1DEC_Destroy, .-VC1DEC_Destroy
	.align	2
	.global	VC1DEC_RecycleImage
	.type	VC1DEC_RecycleImage, %function
VC1DEC_RecycleImage:
.LFB2645:
	.loc 1 406 0
	.cfi_startproc
.LVL77:
	stp	x29, x30, [sp, -32]!
	.cfi_def_cfa_offset 32
	.cfi_offset 29, -32
	.cfi_offset 30, -24
	add	x29, sp, 0
	.cfi_def_cfa_register 29
	stp	x19, x20, [sp,16]
	.cfi_offset 19, -16
	.cfi_offset 20, -8
	.loc 1 410 0
	cbz	x0, .L61
	.loc 1 416 0
	add	x19, x0, 114688
	mov	w2, 0
	mov	w20, w1
	ldr	w0, [x19,2808]
.LVL78:
	bl	FSP_SetDisplay
.LVL79:
	.loc 1 418 0
	ldr	w0, [x19,2808]
	mov	w1, w20
	bl	FSP_GetFsImagePtr
.LVL80:
	mov	x20, x0
.LVL81:
	.loc 1 419 0
	cbz	x0, .L62
	.loc 1 421 0
	ldr	w0, [x19,2808]
	ldr	x1, [x20,248]
	bl	FreeUsdByDec
.LVL82:
	.loc 1 422 0
	str	xzr, [x20,248]
	.loc 1 423 0
	ldr	x1, [x20,256]
	ldr	w0, [x19,2808]
	bl	FreeUsdByDec
.LVL83:
	.loc 1 424 0
	str	xzr, [x20,256]
	.loc 1 426 0
	mov	w0, 1
	.loc 1 427 0
	ldp	x19, x20, [sp,16]
	.cfi_remember_state
	.cfi_restore 20
	.cfi_restore 19
.LVL84:
	ldp	x29, x30, [sp], 32
	.cfi_restore 30
	.cfi_restore 29
	.cfi_def_cfa 31, 0
	ret
.LVL85:
.L61:
	.cfi_restore_state
	.loc 1 412 0
	mov	w0, 0
.LVL86:
	.loc 1 427 0
	ldp	x19, x20, [sp,16]
	.cfi_remember_state
	.cfi_restore 19
	.cfi_restore 20
	ldp	x29, x30, [sp], 32
	.cfi_restore 29
	.cfi_restore 30
	.cfi_def_cfa 31, 0
	ret
.LVL87:
.L62:
	.cfi_restore_state
	.loc 1 426 0
	mov	w0, 1
.LVL88:
	.loc 1 427 0
	ldp	x19, x20, [sp,16]
	.cfi_restore 19
	.cfi_restore 20
.LVL89:
	ldp	x29, x30, [sp], 32
	.cfi_restore 29
	.cfi_restore 30
	.cfi_def_cfa 31, 0
	ret
	.cfi_endproc
.LFE2645:
	.size	VC1DEC_RecycleImage, .-VC1DEC_RecycleImage
	.align	2
	.global	VC1DEC_GetRemainImg
	.type	VC1DEC_GetRemainImg, %function
VC1DEC_GetRemainImg:
.LFB2644:
	.loc 1 328 0
	.cfi_startproc
.LVL90:
	stp	x29, x30, [sp, -64]!
	.cfi_def_cfa_offset 64
	.cfi_offset 29, -64
	.cfi_offset 30, -56
	add	x29, sp, 0
	.cfi_def_cfa_register 29
	stp	x19, x20, [sp,16]
	.cfi_offset 19, -48
	.cfi_offset 20, -40
	.loc 1 335 0
	add	x20, x0, 77824
	.loc 1 328 0
	str	x23, [sp,48]
	.loc 1 335 0
	add	x20, x20, 2488
	.loc 1 328 0
	stp	x21, x22, [sp,32]
	.cfi_offset 23, -16
	.cfi_offset 21, -32
	.cfi_offset 22, -24
	.loc 1 335 0
	ldr	x1, [x20,21936]
	cbz	x1, .L69
	mov	x19, x0
	.loc 1 340 0
	ldr	x0, [x0]
.LVL91:
	add	x21, x19, 114688
	ldr	w0, [x0,16]
	cmp	w0, 1
	beq	.L65
	.loc 1 346 0
	add	x23, x20, 20480
	ldr	w0, [x21,2808]
	ldr	w1, [x23,1552]
	bl	FSP_GetFsImagePtr
.LVL92:
	mov	x22, x0
.LVL93:
	.loc 1 349 0
	cbz	x0, .L65
	.loc 1 351 0
	ldr	w0, [x21,2808]
	ldr	w1, [x23,1552]
	bl	FSP_GetDisplay
.LVL94:
	.loc 1 352 0
	cmp	w0, 2
	beq	.L77
.L65:
	add	x20, x21, 2192
.L68:
	.loc 1 399 0
	mov	x0, x20
	bl	GetVoLastImageID
.LVL95:
.L76:
	.loc 1 403 0
	ldp	x19, x20, [sp,16]
	.cfi_remember_state
	.cfi_restore 20
	.cfi_restore 19
.LVL96:
.LVL97:
	ldp	x21, x22, [sp,32]
	.cfi_restore 22
	.cfi_restore 21
.LVL98:
	ldr	x23, [sp,48]
	.cfi_restore 23
	ldp	x29, x30, [sp], 64
	.cfi_restore 30
	.cfi_restore 29
	.cfi_def_cfa 31, 0
	ret
.LVL99:
.L77:
	.cfi_restore_state
	.loc 1 354 0
	mov	x0, x19
	bl	VC1_SetImgFormat
.LVL100:
	.loc 1 361 0
	str	xzr, [x22,248]
	.loc 1 355 0
	mov	w0, 1
	.loc 1 362 0
	str	xzr, [x22,256]
	.loc 1 355 0
	str	w0, [x22,108]
	.loc 1 364 0
	mov	w2, w0
	ldr	w1, [x22,80]
	ldr	w0, [x21,2808]
	bl	FSP_SetDisplay
.LVL101:
	.loc 1 365 0
	ldr	x0, [x20,21936]
	ldrb	w1, [x0]
	cmp	w1, 1
	beq	.L78
.L66:
	.loc 1 372 0
	add	x20, x21, 2192
	ldr	w0, [x21,2808]
	mov	w1, 1
	mov	x2, x19
	mov	x3, x20
	mov	x4, x22
	bl	InsertImgToVoQueue
.LVL102:
	cmp	w0, 1
	beq	.L67
	.loc 1 374 0
	ldr	w1, [x22,80]
	mov	x0, x19
	bl	VC1DEC_RecycleImage
.LVL103:
	.loc 1 375 0
	ldr	w0, [x21,2808]
	ldr	x1, [x22,248]
	bl	FreeUsdByDec
.LVL104:
	.loc 1 376 0
	str	xzr, [x22,248]
	.loc 1 377 0
	ldr	x1, [x22,256]
	ldr	w0, [x21,2808]
	bl	FreeUsdByDec
.LVL105:
	.loc 1 378 0
	str	xzr, [x22,256]
	b	.L68
.L67:
	.loc 1 381 0
	ldr	w0, [x22,84]
	cmp	w0, 100
	bhi	.L65
	.loc 1 381 0 is_stmt 0 discriminator 1
	ldr	w0, [x22,48]
	cmp	w0, 31
	bls	.L65
	.loc 1 381 0 discriminator 2
	ldr	w0, [x22,52]
	cmp	w0, 31
	bls	.L65
	mov	w0, 0
.LVL106:
	b	.L76
.LVL107:
.L78:
	.loc 1 367 0 is_stmt 1
	strb	w1, [x0,1]
	.loc 1 368 0
	ldr	x0, [x20,21936]
	strb	wzr, [x0]
	.loc 1 369 0
	mov	w0, 3
	strb	w0, [x20,1]
	b	.L66
.LVL108:
.L69:
	.loc 1 337 0
	mov	w0, -1
.LVL109:
	b	.L76
	.cfi_endproc
.LFE2644:
	.size	VC1DEC_GetRemainImg, .-VC1DEC_GetRemainImg
	.align	2
	.global	VC1_ArrangeVahbMem
	.type	VC1_ArrangeVahbMem, %function
VC1_ArrangeVahbMem:
.LFB2647:
	.loc 1 612 0
	.cfi_startproc
.LVL110:
	stp	x29, x30, [sp, -96]!
	.cfi_def_cfa_offset 96
	.cfi_offset 29, -96
	.cfi_offset 30, -88
	.loc 1 618 0
	sub	w3, w1, #32
.LVL111:
	.loc 1 612 0
	mov	w6, w1
	add	x29, sp, 0
	.cfi_def_cfa_register 29
	stp	x19, x20, [sp,16]
	.cfi_offset 19, -80
	.cfi_offset 20, -72
	adrp	x20, __stack_chk_guard
	.loc 1 618 0
	mov	w1, 8160
.LVL112:
	.loc 1 612 0
	mov	x19, x0
	.loc 1 618 0
	cmp	w3, w1
	.loc 1 612 0
	str	x21, [sp,32]
	.cfi_offset 21, -64
	.loc 1 612 0
	mov	w3, w2
	ldr	x0, [x20,#:lo12:__stack_chk_guard]
.LVL113:
	str	x0, [x29,88]
	.loc 1 618 0
	bhi	.L80
	.loc 1 618 0 is_stmt 0 discriminator 1
	sub	w0, w2, #32
	cmp	w0, w1
	bhi	.L80
	.loc 1 626 0 is_stmt 1
	add	x0, x19, 94208
	add	x2, x19, 98304
	mov	w1, 1
	mov	w7, 2
	mov	w5, 3
	str	wzr, [x0,1232]
	.loc 1 627 0
	strb	wzr, [x0,113]
	.loc 1 628 0
	strb	wzr, [x0,112]
	.loc 1 626 0
	str	w1, [x0,2552]
	.loc 1 627 0
	strb	wzr, [x0,1433]
	.loc 1 628 0
	strb	wzr, [x0,1432]
	.loc 1 626 0
	str	w7, [x0,3872]
	.loc 1 627 0
	strb	wzr, [x0,2753]
	.loc 1 628 0
	strb	wzr, [x0,2752]
	.loc 1 626 0
	str	w5, [x0,5192]
	.loc 1 627 0
	strb	wzr, [x0,4073]
	.loc 1 628 0
	strb	wzr, [x0,4072]
	.loc 1 626 0
	mov	w0, 4
	.loc 1 627 0
	strb	wzr, [x2,1297]
	.loc 1 626 0
	str	w0, [x2,2416]
	.loc 1 628 0
	strb	wzr, [x2,1296]
.LBB27:
.LBB28:
	.loc 1 632 0
	ldr	x0, [x19]
	ldr	w21, [x0,772]
	.loc 1 632 0 is_stmt 0 discriminator 1
	ldr	w2, [x0,28]
	cmp	w2, 25
	.loc 1 632 0
	cbnz	w21, .L83
	.loc 1 632 0 discriminator 1
	beq	.L108
.L84:
	.loc 1 692 0 is_stmt 1
	stp	xzr, xzr, [x29,64]
	.loc 1 693 0
	str	w6, [x29,68]
	.loc 1 697 0
	cmp	w2, 24
	.loc 1 694 0
	str	w3, [x29,72]
	.loc 1 697 0
	mov	w0, 5
	.loc 1 695 0
	str	w6, [x29,76]
	.loc 1 696 0
	str	w3, [x29,80]
	.loc 1 697 0
	beq	.L103
	mov	w1, 2
	mov	w2, 3
.LVL114:
.L98:
	.loc 1 702 0
	add	x21, x19, 114688
	strb	w0, [x29,66]
	.loc 1 697 0 discriminator 1
	strb	w2, [x29,65]
	.loc 1 699 0 discriminator 1
	sxtb	w2, w1
.LVL115:
	.loc 1 702 0
	add	x1, x29, 64
	.loc 1 699 0 discriminator 4
	strb	w2, [x29,67]
	.loc 1 702 0
	ldr	w0, [x21,2808]
	bl	FSP_ConfigInstance
.LVL116:
	cbnz	w0, .L96
.L111:
.LBB29:
	.loc 1 705 0
	ldr	x2, [x19]
	add	x3, x29, 60
	ldr	w0, [x21,2808]
	ldr	w1, [x2,20]
	ldr	w2, [x2,24]
	bl	FSP_PartitionFsMemory
.LVL117:
.LBE29:
	.loc 1 719 0
	cmp	w0, wzr
	cset	w21, eq
	b	.L82
.LVL118:
.L80:
.LBE28:
.LBE27:
	.loc 1 620 0
	adrp	x1, .LC7
	mov	w0, 0
	add	x1, x1, :lo12:.LC7
	mov	w2, w6
.LVL119:
	.loc 1 621 0
	mov	w21, 0
	.loc 1 620 0
	bl	dprint_linux_kernel
.LVL120:
.L82:
	.loc 1 720 0
	ldr	x2, [x29,88]
	mov	w0, w21
	ldr	x1, [x20,#:lo12:__stack_chk_guard]
	cmp	x2, x1
	bne	.L109
	ldp	x19, x20, [sp,16]
	.cfi_remember_state
	.cfi_restore 20
	.cfi_restore 19
.LVL121:
	ldr	x21, [sp,32]
	.cfi_restore 21
	ldp	x29, x30, [sp], 96
	.cfi_restore 30
	.cfi_restore 29
	.cfi_def_cfa 31, 0
	ret
.LVL122:
.L83:
	.cfi_restore_state
.LBB31:
.LBB30:
	.loc 1 663 0
	bne	.L84
	.loc 1 671 0
	ldr	w4, [x0,732]
	ldr	w5, [x0,736]
	cmp	w6, w4
	bhi	.L92
	.loc 1 671 0 is_stmt 0 discriminator 1
	cmp	w3, w5
	bhi	.L92
	.loc 1 680 0 is_stmt 1
	ldr	w4, [x0,760]
	.loc 1 679 0
	ldr	w2, [x0,756]
	add	w2, w2, 1
.LVL123:
	.loc 1 680 0
	cbnz	w4, .L110
.L94:
	ldrsb	w0, [x0,780]
.L90:
	.loc 1 692 0
	stp	xzr, xzr, [x29,64]
	.loc 1 693 0
	str	w6, [x29,68]
	.loc 1 694 0
	str	w3, [x29,72]
	.loc 1 695 0
	str	w6, [x29,76]
	.loc 1 696 0
	str	w3, [x29,80]
	b	.L98
.LVL124:
.L103:
	.loc 1 702 0
	add	x21, x19, 114688
	strb	w0, [x29,66]
	.loc 1 699 0 discriminator 2
	mov	w2, 1
	.loc 1 702 0
	add	x1, x29, 64
	.loc 1 699 0 discriminator 4
	strb	w2, [x29,67]
	.loc 1 702 0
	ldr	w0, [x21,2808]
	bl	FSP_ConfigInstance
.LVL125:
	cbz	w0, .L111
.L96:
	.loc 1 715 0
	adrp	x1, .LC9
	mov	w0, 0
	add	x1, x1, :lo12:.LC9
	.loc 1 716 0
	mov	w21, 0
	.loc 1 715 0
	bl	dprint_linux_kernel
.LVL126:
	b	.L82
.LVL127:
.L108:
	.loc 1 634 0
	ldr	w4, [x0,732]
	cmp	w6, w4
	bhi	.L112
	.loc 1 634 0 is_stmt 0 discriminator 1
	ldr	w7, [x0,736]
	cmp	w3, w7
	mov	w5, w7
	bhi	.L86
	.loc 1 646 0 is_stmt 1
	add	x2, x19, 77824
	.loc 1 648 0
	mov	w21, w1
	.loc 1 646 0
	ldrb	w2, [x2,2488]
	tbnz	x2, 3, .L82
	.loc 1 652 0
	ldr	w3, [x0,760]
	.loc 1 651 0
	ldr	w2, [x0,756]
	add	w2, w2, 1
.LVL128:
	.loc 1 652 0
	cbz	w3, .L89
	.loc 1 659 0
	cmp	w2, 17
	mov	w1, 17
	csel	w1, w2, w1, ls
.L89:
	ldrsb	w0, [x0,780]
	.loc 1 661 0
	mov	w3, w7
	mov	w6, w4
	b	.L90
.LVL129:
.L92:
	.loc 1 673 0
	adrp	x1, .LC8
	mov	w2, w6
	add	x1, x1, :lo12:.LC8
	mov	w0, 0
	.loc 1 676 0
	mov	w21, 0
	.loc 1 673 0
	bl	dprint_linux_kernel
.LVL130:
	b	.L82
.LVL131:
.L110:
	.loc 1 687 0
	cmp	w2, 17
	mov	w1, 17
	csel	w1, w2, w1, ls
	b	.L94
.LVL132:
.L112:
	ldr	w5, [x0,736]
.L86:
	.loc 1 636 0
	adrp	x1, .LC8
	mov	w2, w6
	add	x1, x1, :lo12:.LC8
	mov	w0, 0
	bl	dprint_linux_kernel
.LVL133:
	b	.L82
.LVL134:
.L109:
.LBE30:
.LBE31:
	.loc 1 720 0
	bl	__stack_chk_fail
.LVL135:
	.cfi_endproc
.LFE2647:
	.size	VC1_ArrangeVahbMem, .-VC1_ArrangeVahbMem
	.align	2
	.global	VC1_WritePicMsg
	.type	VC1_WritePicMsg, %function
VC1_WritePicMsg:
.LFB2649:
	.loc 1 794 0
	.cfi_startproc
.LVL136:
	stp	x29, x30, [sp, -48]!
	.cfi_def_cfa_offset 48
	.cfi_offset 29, -48
	.cfi_offset 30, -40
	add	x29, sp, 0
	.cfi_def_cfa_register 29
	str	x21, [sp,32]
	.cfi_offset 21, -16
	.loc 1 800 0
	add	x21, x0, 77824
	.loc 1 794 0
	stp	x19, x20, [sp,16]
	.cfi_offset 19, -32
	.cfi_offset 20, -24
	.loc 1 800 0
	add	x20, x21, 2488
	.loc 1 794 0
	mov	x19, x1
	.loc 1 800 0
	add	x0, x0, 114688
.LVL137:
	add	x1, x20, 20480
.LVL138:
	ldr	w0, [x0,2808]
	ldr	w1, [x1,1556]
	bl	FSP_GetLogicFs
.LVL139:
	.loc 1 801 0
	cbz	x0, .L135
	.loc 1 807 0
	ldrsb	w0, [x20,3104]
	cbnz	w0, .L136
	.loc 1 921 0
	add	x0, x20, 8192
	.loc 1 920 0
	strb	wzr, [x19,5]
	.loc 1 924 0
	add	x2, x20, 32768
	.loc 1 922 0 discriminator 1
	mov	w3, 3
	.loc 1 921 0
	ldrb	w1, [x0,2208]
	strb	w1, [x19,4]
	.loc 1 922 0
	ldrb	w1, [x0,2459]
	.loc 1 922 0 is_stmt 0 discriminator 1
	cmp	w1, 4
	csel	w1, w1, w3, ne
	.loc 1 922 0 discriminator 4
	strb	w1, [x19,3]
	.loc 1 924 0 is_stmt 1
	ldr	w1, [x2,3700]
	sub	w1, w1, #1
	strh	w1, [x19,84]
	.loc 1 925 0
	ldr	w1, [x2,3696]
	.loc 1 928 0
	strb	wzr, [x19,8]
	.loc 1 925 0
	sub	w1, w1, #1
	strh	w1, [x19,82]
	.loc 1 929 0
	ldrb	w1, [x0,2211]
	strb	w1, [x19,6]
	.loc 1 930 0
	strb	wzr, [x19,9]
	.loc 1 931 0
	ldrb	w1, [x20,8]
	strb	w1, [x19,7]
	.loc 1 932 0
	strb	wzr, [x19,10]
	.loc 1 933 0
	strb	wzr, [x19,11]
	.loc 1 936 0
	ldrb	w1, [x0,2214]
	strb	w1, [x19,13]
	.loc 1 937 0
	ldrb	w1, [x0,2218]
	strb	w1, [x19,14]
	.loc 1 938 0
	ldrb	w1, [x0,2478]
	strb	w1, [x19,12]
	.loc 1 940 0
	ldrb	w1, [x0,2488]
	strb	w1, [x19,18]
	.loc 1 941 0
	ldrb	w1, [x0,2463]
	strb	w1, [x19,19]
	.loc 1 942 0
	ldrb	w1, [x0,2462]
	strb	w1, [x19,17]
	.loc 1 943 0
	ldr	w1, [x20,10752]
	strb	w1, [x19,16]
	.loc 1 945 0
	ldrb	w1, [x0,2222]
	cbnz	w1, .L126
	.loc 1 947 0
	ldrb	w0, [x0,2462]
	cmp	w0, 8
	cset	w0, ls
	strb	w0, [x19,20]
.L127:
	.loc 1 962 0
	add	x1, x21, 2488
	add	x0, x1, 8192
	ldrb	w2, [x0,2482]
	strb	w2, [x19,24]
	.loc 1 963 0
	ldrb	w2, [x0,2481]
	strb	w2, [x19,23]
	.loc 1 964 0
	ldrb	w2, [x0,2216]
	strb	w2, [x19,22]
	.loc 1 965 0
	ldrb	w2, [x0,2480]
	strb	w2, [x19,25]
	.loc 1 966 0
	ldr	w2, [x21,13172]
	strb	w2, [x19,26]
	.loc 1 967 0
	ldrb	w2, [x0,2483]
	strb	w2, [x19,21]
	.loc 1 969 0
	ldrb	w2, [x0,2467]
	strb	w2, [x19,27]
	.loc 1 970 0
	ldrb	w2, [x0,2468]
	strb	w2, [x19,28]
	.loc 1 972 0
	ldr	x2, [x21,24424]
	ldrb	w2, [x2,1029]
	strb	w2, [x19,30]
	.loc 1 973 0
	ldr	x2, [x21,24416]
	ldrb	w2, [x2,1029]
	strb	w2, [x19,29]
	.loc 1 974 0
	ldrb	w2, [x0,2465]
	strb	w2, [x19,31]
	.loc 1 975 0
	ldrb	w2, [x0,2599]
	strb	w2, [x19,32]
	.loc 1 977 0
	ldrb	w2, [x0,2477]
	strb	w2, [x19,35]
	.loc 1 978 0
	ldrb	w2, [x0,2217]
	strb	w2, [x19,36]
	.loc 1 979 0
	ldrb	w2, [x0,2473]
	strb	w2, [x19,37]
	.loc 1 980 0
	ldrb	w2, [x0,2475]
	strb	w2, [x19,38]
	.loc 1 981 0
	ldrb	w2, [x0,2476]
	strb	w2, [x19,39]
	.loc 1 982 0
	ldrb	w2, [x0,2474]
	strb	w2, [x19,40]
	.loc 1 984 0
	ldr	w2, [x21,13232]
	cmp	w2, wzr
	cset	w2, eq
	strb	w2, [x19,42]
	.loc 1 985 0
	ldr	w2, [x21,13228]
	cmp	w2, wzr
	cset	w2, eq
	strb	w2, [x19,43]
	.loc 1 986 0
	ldr	w2, [x21,13236]
	cmp	w2, wzr
	cset	w2, eq
	strb	w2, [x19,45]
	.loc 1 988 0
	ldrb	w2, [x0,2460]
	strb	w2, [x19,50]
	.loc 1 989 0
	ldrb	w2, [x0,2472]
	strb	w2, [x19,49]
	.loc 1 990 0
	ldrb	w2, [x0,2471]
	strb	w2, [x19,48]
	.loc 1 993 0
	ldr	w2, [x21,13244]
	str	w2, [x19,14424]
	.loc 1 995 0
	ldrb	w2, [x0,2220]
	cmp	w2, 1
	beq	.L137
	mov	w1, 0
	mov	w3, 0
	mov	w0, 0
.L130:
	.loc 1 1019 0
	strb	w0, [x19,59]
	.loc 1 1020 0
	strb	w3, [x19,60]
	.loc 1 1021 0
	strb	w1, [x19,61]
.L124:
	.loc 1 1025 0
	add	x2, x21, 2488
	.loc 1 1052 0
	add	x21, x21, 2501
	.loc 1 1025 0
	add	x1, x2, 20480
	.loc 1 1043 0
	add	x0, x2, 32768
	.loc 1 1025 0
	ldr	w3, [x1,1564]
	strh	w3, [x19,76]
	.loc 1 1034 0
	ldr	w3, [x1,1496]
	strh	w3, [x19,78]
	.loc 1 1035 0
	ldr	w3, [x1,1500]
	strh	w3, [x19,80]
	.loc 1 1039 0
	ldrb	w3, [x2,11]
	strb	w3, [x19,63]
	.loc 1 1040 0
	ldrb	w2, [x2,12]
	strb	w2, [x19,62]
	.loc 1 1042 0
	ldr	w20, [x1,1480]
	add	w1, w20, 254
	adds	w20, w20, 127
	csel	w20, w1, w20, mi
	asr	w20, w20, 7
	lsl	w20, w20, 4
	str	w20, [x19,14456]
	.loc 1 1043 0
	ldr	w1, [x0,3720]
	str	w1, [x19,14460]
	.loc 1 1044 0
	ldr	w1, [x0,3724]
	str	w1, [x19,14464]
	.loc 1 1045 0
	ldr	w1, [x0,3728]
	str	w1, [x19,14468]
	.loc 1 1046 0
	ldr	w1, [x0,3732]
	str	w1, [x19,14472]
	.loc 1 1047 0
	ldr	w1, [x0,3736]
	str	w1, [x19,14476]
	.loc 1 1048 0
	ldr	w1, [x0,3740]
	str	w1, [x19,14480]
	.loc 1 1049 0
	ldr	w0, [x0,3744]
	str	w0, [x19,14484]
	.loc 1 1052 0
	str	x21, [x19,64]
.L113:
	.loc 1 1055 0
	ldp	x19, x20, [sp,16]
	.cfi_remember_state
	.cfi_restore 20
	.cfi_restore 19
.LVL140:
	ldr	x21, [sp,32]
	.cfi_restore 21
	ldp	x29, x30, [sp], 48
	.cfi_restore 30
	.cfi_restore 29
	.cfi_def_cfa 31, 0
	ret
.LVL141:
.L136:
	.cfi_restore_state
	.loc 1 809 0
	ldr	w1, [x20,10804]
	.loc 1 811 0
	add	x0, x20, 8192
	.loc 1 809 0
	strb	w1, [x19,5]
	.loc 1 811 0
	ldrb	w1, [x0,2224]
	strb	w1, [x19,4]
	.loc 1 812 0 discriminator 1
	mov	w1, 3
	.loc 1 812 0 is_stmt 0
	ldrb	w0, [x0,2569]
	.loc 1 812 0 discriminator 1
	cmp	w0, 4
	csel	w0, w0, w1, ne
	.loc 1 812 0 discriminator 4
	strb	w0, [x19,3]
	.loc 1 814 0 is_stmt 1
	ldr	w0, [x20,10804]
	.loc 1 816 0
	add	x20, x20, 32768
	.loc 1 814 0
	cmp	w0, w1
	.loc 1 816 0
	ldr	w0, [x20,3700]
	.loc 1 814 0
	beq	.L138
	.loc 1 820 0
	sub	w0, w0, #1
	uxth	w0, w0
.L119:
	.loc 1 822 0
	add	x1, x21, 2488
	strh	w0, [x19,84]
	add	x2, x1, 32768
	.loc 1 824 0
	add	x0, x1, 8192
	.loc 1 828 0
	add	x4, x1, 20480
	.loc 1 822 0
	ldr	w2, [x2,3696]
	sub	w2, w2, #1
	strh	w2, [x19,82]
	.loc 1 824 0
	ldrb	w2, [x0,2609]
	strb	w2, [x19,8]
	.loc 1 825 0
	ldrb	w2, [x0,2400]
	strb	w2, [x19,6]
	.loc 1 826 0
	ldrb	w2, [x0,2600]
	strb	w2, [x19,9]
	.loc 1 827 0
	ldrb	w2, [x21,2496]
	strb	w2, [x19,7]
	.loc 1 828 0
	ldrsw	x2, [x4,1520]
	lsl	x5, x2, 5
	add	x2, x5, x2, lsl 3
	lsl	x3, x2, 5
	add	x2, x2, x3
	add	x2, x1, x2
	add	x2, x2, 12288
	ldrb	w2, [x2,2747]
	strb	w2, [x19,10]
	.loc 1 829 0
	ldrsw	x2, [x4,1536]
	lsl	x4, x2, 5
	add	x2, x4, x2, lsl 3
	lsl	x3, x2, 5
	add	x2, x2, x3
	add	x2, x1, x2
	add	x2, x2, 12288
	ldrb	w2, [x2,2747]
	strb	w2, [x19,11]
	.loc 1 831 0
	ldrb	w2, [x0,2598]
	strb	w2, [x19,15]
	.loc 1 832 0
	ldrb	w2, [x0,2401]
	strb	w2, [x19,13]
	.loc 1 833 0
	ldrb	w2, [x0,2405]
	strb	w2, [x19,14]
	.loc 1 834 0
	ldrb	w2, [x0,2568]
	strb	w2, [x19,12]
	.loc 1 836 0
	ldrb	w2, [x0,2736]
	strb	w2, [x19,18]
	.loc 1 837 0
	ldrb	w2, [x0,2571]
	strb	w2, [x19,19]
	.loc 1 838 0
	ldrb	w2, [x0,2578]
	strb	w2, [x19,17]
	.loc 1 839 0
	ldr	w1, [x21,13364]
	strb	w1, [x19,16]
	.loc 1 841 0
	ldrb	w1, [x0,2406]
	cbnz	w1, .L120
	.loc 1 843 0
	ldrb	w0, [x0,2578]
	cmp	w0, 8
	cset	w0, ls
	strb	w0, [x19,20]
.L121:
	.loc 1 858 0
	add	x1, x21, 2488
	add	x0, x1, 8192
	.loc 1 904 0
	add	x3, x1, 32768
	.loc 1 858 0
	ldrb	w2, [x0,2730]
	strb	w2, [x19,24]
	.loc 1 859 0
	ldrb	w2, [x0,2729]
	strb	w2, [x19,23]
	.loc 1 860 0
	ldrb	w2, [x0,2403]
	strb	w2, [x19,22]
	.loc 1 861 0
	ldrb	w2, [x0,2728]
	strb	w2, [x19,25]
	.loc 1 862 0
	ldr	w2, [x21,13420]
	strb	w2, [x19,26]
	.loc 1 863 0
	ldrb	w2, [x0,2731]
	strb	w2, [x19,21]
	.loc 1 865 0
	ldrb	w2, [x0,2582]
	strb	w2, [x19,27]
	.loc 1 866 0
	ldrb	w2, [x0,2583]
	strb	w2, [x19,28]
	.loc 1 868 0
	ldrb	w2, [x0,2601]
	strb	w2, [x19,34]
	.loc 1 869 0
	ldrb	w2, [x0,2593]
	strb	w2, [x19,33]
	.loc 1 870 0
	ldr	x4, [x21,24424]
	ldrb	w2, [x0,2609]
	add	x2, x4, x2
	ldrb	w2, [x2,1029]
	strb	w2, [x19,30]
	.loc 1 871 0
	ldrb	w2, [x0,2609]
	ldr	x4, [x21,24416]
	add	x2, x4, x2
	ldrb	w2, [x2,1029]
	strb	w2, [x19,29]
	.loc 1 872 0
	ldrb	w2, [x0,2581]
	strb	w2, [x19,31]
	.loc 1 873 0
	ldrb	w2, [x0,2599]
	strb	w2, [x19,32]
	.loc 1 875 0
	ldrb	w2, [x0,2592]
	strb	w2, [x19,35]
	.loc 1 876 0
	ldrb	w2, [x0,2404]
	strb	w2, [x19,36]
	.loc 1 877 0
	ldrb	w2, [x0,2588]
	strb	w2, [x19,37]
	.loc 1 878 0
	ldrb	w2, [x0,2590]
	strb	w2, [x19,38]
	.loc 1 879 0
	ldrb	w2, [x0,2591]
	strb	w2, [x19,39]
	.loc 1 880 0
	ldrb	w2, [x0,2589]
	strb	w2, [x19,40]
	.loc 1 882 0
	ldrb	w2, [x0,2605]
	cmp	w2, wzr
	cset	w2, eq
	strb	w2, [x19,46]
	.loc 1 883 0
	ldrb	w2, [x0,2603]
	cmp	w2, wzr
	cset	w2, eq
	strb	w2, [x19,42]
	.loc 1 884 0
	ldrb	w2, [x0,2607]
	cmp	w2, wzr
	cset	w2, eq
	strb	w2, [x19,44]
	.loc 1 885 0
	ldrb	w2, [x0,2608]
	cmp	w2, wzr
	cset	w2, eq
	strb	w2, [x19,41]
	.loc 1 886 0
	ldrb	w2, [x0,2602]
	cmp	w2, wzr
	cset	w2, eq
	strb	w2, [x19,43]
	.loc 1 887 0
	ldrb	w2, [x0,2606]
	cmp	w2, wzr
	cset	w2, eq
	strb	w2, [x19,47]
	.loc 1 888 0
	ldrb	w2, [x0,2604]
	cmp	w2, wzr
	cset	w2, eq
	strb	w2, [x19,45]
	.loc 1 890 0
	ldrb	w2, [x0,2570]
	strb	w2, [x19,50]
	.loc 1 891 0
	ldrb	w2, [x0,2587]
	strb	w2, [x19,49]
	.loc 1 892 0
	ldrb	w2, [x0,2586]
	strb	w2, [x19,48]
	.loc 1 894 0
	ldrb	w2, [x0,2597]
	strb	w2, [x19,53]
	.loc 1 895 0
	ldrb	w2, [x0,2594]
	strb	w2, [x19,54]
	.loc 1 896 0
	ldrb	w2, [x0,2595]
	strb	w2, [x19,51]
	.loc 1 897 0
	ldrb	w2, [x0,2596]
	strb	w2, [x19,52]
	.loc 1 901 0
	ldr	w2, [x21,13396]
	str	w2, [x19,14424]
	.loc 1 904 0
	ldr	w2, [x3,3672]
	str	w2, [x19,14428]
	.loc 1 907 0
	ldr	w2, [x3,3676]
	str	w2, [x19,14432]
	.loc 1 909 0
	ldrb	w2, [x0,2409]
	strb	w2, [x19,55]
	.loc 1 910 0
	ldrb	w2, [x0,2410]
	strb	w2, [x19,56]
	.loc 1 911 0
	ldrb	w2, [x0,2411]
	strb	w2, [x19,57]
	.loc 1 912 0
	ldrb	w0, [x0,2412]
	strb	w0, [x19,58]
	.loc 1 915 0
	ldrb	w0, [x21,2499]
	strb	w0, [x19,63]
	b	.L124
.L126:
	.loc 1 949 0
	cmp	w1, 1
	beq	.L139
	.loc 1 953 0
	cmp	w1, 2
	beq	.L140
	.loc 1 959 0
	mov	w0, 1
	strb	w0, [x19,20]
	b	.L127
.L120:
	.loc 1 845 0
	cmp	w1, 1
	beq	.L141
	.loc 1 849 0
	cmp	w1, 2
	beq	.L142
	.loc 1 855 0
	mov	w0, 1
	strb	w0, [x19,20]
	b	.L121
.L141:
	.loc 1 847 0
	ldrb	w0, [x0,2579]
	cmp	w0, wzr
	cset	w0, ne
	strb	w0, [x19,20]
	b	.L121
.L139:
	.loc 1 951 0
	ldrb	w0, [x0,2464]
	cmp	w0, wzr
	cset	w0, ne
	strb	w0, [x19,20]
	b	.L127
.L138:
	.loc 1 816 0
	add	w0, w0, 1
	add	w0, w0, w0, lsr 31
	asr	w0, w0, 1
	sub	w0, w0, #1
	uxth	w0, w0
	b	.L119
.L137:
	.loc 1 997 0
	add	x3, x1, 20480
	.loc 1 1003 0
	ldrb	w2, [x0,2459]
	sub	w2, w2, #2
	.loc 1 998 0
	ldr	w4, [x3,1520]
	.loc 1 1003 0
	and	w2, w2, -3
	.loc 1 1001 0
	ldr	w3, [x3,1536]
	.loc 1 998 0
	lsl	x6, x4, 5
	.loc 1 1003 0
	uxtb	w2, w2
	.loc 1 1001 0
	lsl	x5, x3, 5
	.loc 1 998 0
	add	x6, x6, x4, lsl 3
	.loc 1 1001 0
	add	x5, x5, x3, lsl 3
	.loc 1 998 0
	lsl	x4, x6, 5
	.loc 1 1001 0
	lsl	x3, x5, 5
	.loc 1 998 0
	add	x4, x6, x4
	.loc 1 1001 0
	add	x3, x5, x3
	.loc 1 998 0
	add	x4, x1, x4
	.loc 1 1001 0
	add	x1, x1, x3
	.loc 1 998 0
	add	x4, x4, 12288
	.loc 1 1001 0
	add	x1, x1, 12288
	.loc 1 998 0
	ldrb	w3, [x4,1722]
	.loc 1 1001 0
	ldrb	w1, [x1,1722]
	.loc 1 1003 0
	cbnz	w2, .L131
	mov	w0, w1
	b	.L130
.L131:
	ldrb	w0, [x0,2458]
	b	.L130
.L142:
	.loc 1 851 0
	strb	wzr, [x19,20]
	b	.L121
.L140:
	.loc 1 955 0
	strb	wzr, [x19,20]
	b	.L127
.L135:
	.loc 1 803 0
	adrp	x1, .LC10
	mov	w2, 803
	add	x1, x1, :lo12:.LC10
	mov	w0, 22
	bl	dprint_linux_kernel
.LVL142:
	.loc 1 804 0
	b	.L113
	.cfi_endproc
.LFE2649:
	.size	VC1_WritePicMsg, .-VC1_WritePicMsg
	.align	2
	.global	VC1_WriteSliceMsg
	.type	VC1_WriteSliceMsg, %function
VC1_WriteSliceMsg:
.LFB2650:
	.loc 1 1058 0
	.cfi_startproc
.LVL143:
	.loc 1 1059 0
	add	x2, x0, 20480
	.loc 1 1058 0
	mov	x3, x1
	stp	x29, x30, [sp, -16]!
	.cfi_def_cfa_offset 16
	.cfi_offset 29, -16
	.cfi_offset 30, -8
	.loc 1 1060 0
	add	x0, x1, 88
.LVL144:
	add	x1, x2, 1568
.LVL145:
	.loc 1 1058 0
	add	x29, sp, 0
	.cfi_def_cfa_register 29
	.loc 1 1059 0
	ldr	w4, [x2,1564]
	strb	w4, [x3,74]
	.loc 1 1060 0
	ldrsw	x2, [x2,1564]
	lsl	x3, x2, 6
.LVL146:
	sub	x2, x3, x2, lsl 3
	bl	memcpy
.LVL147:
	.loc 1 1062 0
	ldp	x29, x30, [sp], 16
	.cfi_restore 30
	.cfi_restore 29
	.cfi_def_cfa 31, 0
	ret
	.cfi_endproc
.LFE2650:
	.size	VC1_WriteSliceMsg, .-VC1_WriteSliceMsg
	.align	2
	.global	VC1_CfgVDH
	.type	VC1_CfgVDH, %function
VC1_CfgVDH:
.LFB2652:
	.loc 1 1534 0
	.cfi_startproc
.LVL148:
	.loc 1 1539 0
	ldrsb	w2, [x0,3104]
	cbz	w2, .L145
	.loc 1 1539 0 is_stmt 0 discriminator 1
	ldr	w2, [x0,10804]
	cmp	w2, 3
	beq	.L150
.L145:
	.loc 1 1548 0 is_stmt 1
	add	x2, x0, 32768
	ldr	w2, [x2,3704]
	sub	w2, w2, #1
.L146:
	add	x3, x1, 77824
	.loc 1 1554 0
	add	x4, x0, 20480
	str	w2, [x3,2216]
	.loc 1 1555 0
	ldrsw	x3, [x4,1536]
	.loc 1 1552 0
	ldrsw	x2, [x4,1520]
	.loc 1 1555 0
	lsl	x6, x3, 5
	.loc 1 1557 0
	ldr	x7, [x0,21928]
	.loc 1 1555 0
	add	x6, x6, x3, lsl 3
	.loc 1 1552 0
	lsl	x5, x2, 5
	.loc 1 1555 0
	lsl	x4, x6, 5
	.loc 1 1552 0
	add	x5, x5, x2, lsl 3
	.loc 1 1555 0
	add	x4, x6, x4
	.loc 1 1552 0
	lsl	x2, x5, 5
	.loc 1 1555 0
	add	x4, x0, x4
	.loc 1 1552 0
	add	x2, x5, x2
	add	x2, x0, x2
	.loc 1 1563 0
	ldr	w3, [x7,1072]
	.loc 1 1562 0
	ldr	w0, [x4,15080]
.LVL149:
	.loc 1 1563 0
	and	w3, w3, 3
	.loc 1 1561 0
	ldr	w2, [x2,15080]
	.loc 1 1563 0
	lsl	w3, w3, 4
	.loc 1 1562 0
	and	w0, w0, 3
	.loc 1 1566 0
	strb	wzr, [x1,73]
	.loc 1 1561 0
	and	w2, w2, 3
	orr	w0, w3, w0, lsl 2
	.loc 1 1563 0
	orr	w0, w0, w2
	strb	w0, [x1,72]
	.loc 1 1567 0
	ret
.LVL150:
.L150:
	.loc 1 1541 0
	add	x2, x0, 32768
	ldr	w3, [x2,3700]
	.loc 1 1543 0
	ldr	w2, [x2,3696]
	.loc 1 1541 0
	add	w3, w3, 1
	add	w3, w3, w3, lsr 31
	asr	w3, w3, 1
	.loc 1 1543 0
	mul	w2, w3, w2
.LVL151:
	.loc 1 1544 0
	sub	w2, w2, #1
.LVL152:
	b	.L146
	.cfi_endproc
.LFE2652:
	.size	VC1_CfgVDH, .-VC1_CfgVDH
	.align	2
	.global	VC1_Vfmw_GenerateDecPara
	.type	VC1_Vfmw_GenerateDecPara, %function
VC1_Vfmw_GenerateDecPara:
.LFB2653:
	.loc 1 1570 0
	.cfi_startproc
.LVL153:
	.loc 1 1572 0
	mov	w0, 1
.LVL154:
	ret
	.cfi_endproc
.LFE2653:
	.size	VC1_Vfmw_GenerateDecPara, .-VC1_Vfmw_GenerateDecPara
	.align	2
	.global	VC1DEC_GetImageBuffer
	.type	VC1DEC_GetImageBuffer, %function
VC1DEC_GetImageBuffer:
.LFB2654:
	.loc 1 1574 0
	.cfi_startproc
.LVL155:
	stp	x29, x30, [sp, -32]!
	.cfi_def_cfa_offset 32
	.cfi_offset 29, -32
	.cfi_offset 30, -24
	.loc 1 1580 0
	add	x1, x0, 77824
	.loc 1 1574 0
	add	x29, sp, 0
	.cfi_def_cfa_register 29
	stp	x19, x20, [sp,16]
	.cfi_offset 19, -16
	.cfi_offset 20, -8
	.loc 1 1580 0
	add	x1, x1, 2488
	ldrsb	w2, [x1,3]
	cmp	w2, 3
	beq	.L163
.L153:
	.loc 1 1586 0
	add	x19, x0, 114688
	ldr	w0, [x19,2808]
.LVL156:
	bl	FSP_IsNewFsAvalible
.LVL157:
	cmp	w0, 1
	beq	.L155
	.loc 1 1590 0
	ldr	w0, [x19,2808]
	.loc 1 1595 0
	mov	w20, 0
	.loc 1 1590 0
	bl	FSP_IsNewFsAvalible
.LVL158:
	cmn	w0, #1
	bne	.L154
	.loc 1 1592 0
	ldr	w0, [x19,2808]
	add	x1, x19, 2192
	bl	FSP_ClearNotInVoQueue
.LVL159:
	b	.L154
.LVL160:
.L163:
	.loc 1 1580 0 discriminator 1
	ldrb	w1, [x1,9]
	cmp	w1, 1
	beq	.L153
.L155:
	.loc 1 1582 0
	mov	w20, 1
.L154:
	.loc 1 1596 0
	mov	w0, w20
.LVL161:
	ldp	x19, x20, [sp,16]
	.cfi_restore 20
	.cfi_restore 19
	ldp	x29, x30, [sp], 32
	.cfi_restore 30
	.cfi_restore 29
	.cfi_def_cfa 31, 0
	ret
	.cfi_endproc
.LFE2654:
	.size	VC1DEC_GetImageBuffer, .-VC1DEC_GetImageBuffer
	.align	2
	.global	VC1_Vfmw_GetImageBuffer
	.type	VC1_Vfmw_GetImageBuffer, %function
VC1_Vfmw_GetImageBuffer:
.LFB2655:
	.loc 1 1598 0
	.cfi_startproc
.LVL162:
	stp	x29, x30, [sp, -96]!
	.cfi_def_cfa_offset 96
	.cfi_offset 29, -96
	.cfi_offset 30, -88
	.loc 1 1605 0
	mov	w1, 1
	.loc 1 1598 0
	add	x29, sp, 0
	.cfi_def_cfa_register 29
	stp	x23, x24, [sp,48]
	.cfi_offset 23, -48
	.cfi_offset 24, -40
	.loc 1 1605 0
	add	x23, x0, 114688
	.loc 1 1598 0
	str	x27, [sp,80]
	stp	x19, x20, [sp,16]
	stp	x21, x22, [sp,32]
	stp	x25, x26, [sp,64]
	.cfi_offset 27, -16
	.cfi_offset 19, -80
	.cfi_offset 20, -72
	.cfi_offset 21, -64
	.cfi_offset 22, -56
	.cfi_offset 25, -32
	.cfi_offset 26, -24
	.loc 1 1605 0
	add	x19, x0, 77824
	.loc 1 1598 0
	mov	x22, x0
	.loc 1 1605 0
	add	x20, x19, 2488
	ldr	w0, [x23,2808]
.LVL163:
	add	x21, x20, 20480
	bl	FSP_NewLogicFs
.LVL164:
	mov	w1, w0
	str	w0, [x21,1556]
	.loc 1 1606 0
	tbnz	w1, #31, .L185
	.loc 1 1620 0
	add	x21, x22, 94208
	.loc 1 1617 0
	add	x20, x20, 12288
	add	x20, x20, 1720
.LVL165:
	.loc 1 1620 0
	add	x27, x21, 112
	ldrh	w0, [x21,112]
	cbz	w0, .L168
	ldrh	w0, [x21,1432]
	add	x20, x21, 1432
.LVL166:
	mov	x24, x20
	cbz	w0, .L168
	ldrh	w0, [x21,2752]
	add	x20, x21, 2752
	mov	x25, x20
	cbz	w0, .L168
	ldrh	w0, [x21,4072]
	add	x20, x21, 4072
	mov	x26, x20
	cbz	w0, .L168
	add	x22, x22, 98304
.LVL167:
	add	x20, x22, 1296
	ldrh	w0, [x22,1296]
	cbz	w0, .L168
	.loc 1 1643 0
	ldr	w0, [x23,2808]
	mov	w2, 1
	bl	FSP_ClearLogicFs
.LVL168:
	.loc 1 1644 0
	adrp	x1, .LC13
	mov	w0, 1
	add	x1, x1, :lo12:.LC13
	bl	dprint_linux_kernel
.LVL169:
	.loc 1 1647 0
	strb	wzr, [x27,1]
	.loc 1 1648 0
	strb	wzr, [x21,112]
	.loc 1 1650 0
	mov	w0, 0
	.loc 1 1647 0
	strb	wzr, [x24,1]
	.loc 1 1648 0
	strb	wzr, [x24]
	.loc 1 1647 0
	strb	wzr, [x25,1]
	.loc 1 1648 0
	strb	wzr, [x25]
	.loc 1 1647 0
	strb	wzr, [x26,1]
	.loc 1 1648 0
	strb	wzr, [x26]
	.loc 1 1647 0
	strb	wzr, [x20,1]
	.loc 1 1648 0
	strb	wzr, [x22,1296]
	.loc 1 1652 0
	ldp	x19, x20, [sp,16]
	.cfi_remember_state
	.cfi_restore 20
	.cfi_restore 19
	ldp	x21, x22, [sp,32]
	.cfi_restore 22
	.cfi_restore 21
	ldp	x23, x24, [sp,48]
	.cfi_restore 24
	.cfi_restore 23
	ldp	x25, x26, [sp,64]
	.cfi_restore 26
	.cfi_restore 25
	ldr	x27, [sp,80]
	.cfi_restore 27
	ldp	x29, x30, [sp], 96
	.cfi_restore 30
	.cfi_restore 29
	.cfi_def_cfa 31, 0
	ret
.LVL170:
.L168:
	.cfi_restore_state
	.loc 1 1623 0
	str	x20, [x19,24416]
.LVL171:
	.loc 1 1624 0
	mov	w0, 1
	.loc 1 1626 0
	mov	w1, 0
.LVL172:
	.loc 1 1624 0
	strb	w0, [x20,1]
.L170:
	.loc 1 1628 0
	ldr	x4, [x19,24416]
	sxtw	x0, w1
.LVL173:
	uxtb	w2, w1
	.loc 1 1626 0 discriminator 3
	add	w1, w1, 1
.LVL174:
	.loc 1 1628 0
	add	x4, x4, x0
	.loc 1 1626 0 discriminator 1
	cmp	w1, 256
	.loc 1 1628 0
	strb	w2, [x4,3]
	.loc 1 1629 0
	ldr	x4, [x19,24416]
	add	x4, x4, x0
	strb	w2, [x4,259]
	.loc 1 1630 0
	ldr	x4, [x19,24416]
	add	x4, x4, x0
	strb	w2, [x4,515]
	.loc 1 1631 0
	ldr	x3, [x19,24416]
	add	x0, x3, x0
	strb	w2, [x0,771]
	.loc 1 1626 0 discriminator 1
	bne	.L170
	.loc 1 1639 0
	mov	w0, 1
	.loc 1 1652 0
	ldr	x27, [sp,80]
	.cfi_remember_state
	.cfi_restore 27
	ldp	x19, x20, [sp,16]
	.cfi_restore 19
	.cfi_restore 20
	ldp	x21, x22, [sp,32]
	.cfi_restore 21
	.cfi_restore 22
.LVL175:
	ldp	x23, x24, [sp,48]
	.cfi_restore 23
	.cfi_restore 24
	ldp	x25, x26, [sp,64]
	.cfi_restore 25
	.cfi_restore 26
	ldp	x29, x30, [sp], 96
	.cfi_restore 29
	.cfi_restore 30
	.cfi_def_cfa 31, 0
	ret
.LVL176:
.L185:
	.cfi_restore_state
	.loc 1 1609 0
	adrp	x1, .LC11
	mov	w0, 0
	add	x1, x1, :lo12:.LC11
	bl	dprint_linux_kernel
.LVL177:
.LBB32:
	.loc 1 1610 0
	ldr	w0, [x23,2808]
	ldr	w1, [x21,1552]
	bl	FSP_GetFsImagePtr
.LVL178:
	mov	x20, x0
.LVL179:
	cbz	x0, .L166
	.loc 1 1610 0 is_stmt 0 discriminator 2
	ldr	w0, [x23,2808]
	ldr	x1, [x20,248]
	bl	FreeUsdByDec
.LVL180:
	.loc 1 1610 0 discriminator 3
	ldr	w0, [x23,2808]
	ldr	x1, [x20,256]
	bl	FreeUsdByDec
.LVL181:
	.loc 1 1610 0 discriminator 4
	ldr	w0, [x23,2808]
	ldr	x1, [x20,264]
	bl	FreeUsdByDec
.LVL182:
	.loc 1 1610 0 discriminator 5
	ldr	w0, [x23,2808]
	ldr	x1, [x20,272]
	bl	FreeUsdByDec
.LVL183:
	.loc 1 1610 0 discriminator 1
	str	xzr, [x20,248]
	str	xzr, [x20,256]
	.loc 1 1610 0 discriminator 6
	mov	w2, 1
	.loc 1 1610 0 discriminator 1
	str	xzr, [x20,264]
	str	xzr, [x20,272]
	.loc 1 1610 0 discriminator 6
	ldr	w0, [x23,2808]
	ldr	w1, [x21,1552]
	bl	FSP_ClearLogicFs
.LVL184:
	.loc 1 1610 0 discriminator 7
	ldr	w0, [x23,2808]
	mov	w2, 1
	ldr	w1, [x21,1548]
	bl	FSP_ClearLogicFs
.LVL185:
	.loc 1 1610 0 discriminator 1
	str	wzr, [x21,1548]
	str	wzr, [x21,1552]
	.loc 1 1610 0 discriminator 8
	ldr	w0, [x23,2808]
	bl	FSP_GetNullLogicFs
.LVL186:
	.loc 1 1610 0 discriminator 1
	str	w0, [x21,1552]
	str	w0, [x21,1548]
.L166:
.LBE32:
	.loc 1 1611 0 is_stmt 1
	add	x19, x19, 2488
	.loc 1 1612 0
	add	x1, x23, 2192
	.loc 1 1611 0
	add	x19, x19, 20480
	str	wzr, [x19,1544]
	.loc 1 1612 0
	ldr	w0, [x23,2808]
	bl	FSP_ClearNotInVoQueue
.LVL187:
	.loc 1 1614 0
	adrp	x1, .LC12
	mov	w0, 1
	add	x1, x1, :lo12:.LC12
	bl	dprint_linux_kernel
.LVL188:
	.loc 1 1652 0
	ldr	x27, [sp,80]
	.cfi_restore 27
	.loc 1 1615 0
	mov	w0, 0
	.loc 1 1652 0
	ldp	x19, x20, [sp,16]
	.cfi_restore 19
	.cfi_restore 20
.LVL189:
	ldp	x21, x22, [sp,32]
	.cfi_restore 21
	.cfi_restore 22
.LVL190:
	ldp	x23, x24, [sp,48]
	.cfi_restore 23
	.cfi_restore 24
	ldp	x25, x26, [sp,64]
	.cfi_restore 25
	.cfi_restore 26
	ldp	x29, x30, [sp], 96
	.cfi_restore 29
	.cfi_restore 30
	.cfi_def_cfa 31, 0
	ret
	.cfi_endproc
.LFE2655:
	.size	VC1_Vfmw_GetImageBuffer, .-VC1_Vfmw_GetImageBuffer
	.align	2
	.global	VC1_Vfmw_BuildRefList
	.type	VC1_Vfmw_BuildRefList, %function
VC1_Vfmw_BuildRefList:
.LFB2661:
	.loc 1 2223 0
	.cfi_startproc
.LVL191:
	sub	sp, sp, #528
	.cfi_def_cfa_offset 528
	.loc 1 2229 0
	add	x6, x0, 20480
	add	x5, x6, 1512
	.loc 1 2230 0
	add	x7, x6, 1528
	.loc 1 2223 0
	adrp	x4, __stack_chk_guard
	stp	x29, x30, [sp, -16]!
	.cfi_def_cfa_offset 544
	.cfi_offset 29, -544
	.cfi_offset 30, -536
	add	x29, sp, 0
	.cfi_def_cfa_register 29
	.loc 1 2229 0
	stp	xzr, xzr, [x5]
	.loc 1 2230 0
	stp	xzr, xzr, [x7]
	.loc 1 2223 0
	ldr	x5, [x4,#:lo12:__stack_chk_guard]
	str	x5, [x29,536]
	.loc 1 2232 0
	ldrsb	w5, [x0,4]
	.loc 1 2231 0
	tst	w5, -3
	bne	.L187
	.loc 1 2234 0
	cmp	w1, 1
	beq	.L287
	.loc 1 2289 0
	cmp	w1, 2
	beq	.L288
.L202:
	.loc 1 2363 0
	str	wzr, [x6,1532]
	.loc 1 2564 0
	mov	w1, 1
.LVL192:
	.loc 1 2363 0
	str	wzr, [x6,1516]
.LVL193:
.L201:
	.loc 1 2565 0
	ldr	x2, [x29,536]
.LVL194:
	mov	w0, w1
.LVL195:
	ldr	x1, [x4,#:lo12:__stack_chk_guard]
	cmp	x2, x1
	bne	.L289
	ldp	x29, x30, [sp], 16
	.cfi_remember_state
	.cfi_restore 30
	.cfi_restore 29
	.cfi_def_cfa 31, 528
	add	sp, sp, 528
	.cfi_def_cfa_offset 512
	ret
.LVL196:
.L187:
	.cfi_restore_state
.LBB50:
	.loc 1 2375 0
	add	x10, x0, 8192
	ldrb	w5, [x10,2572]
	cmp	w5, 1
	.loc 1 2377 0
	ldrb	w5, [x10,2609]
	.loc 1 2375 0
	beq	.L290
	.loc 1 2390 0
	cbz	w5, .L291
.L219:
	.loc 1 2397 0
	ldr	x5, [x0,21944]
	ldr	w11, [x5,1120]
	.loc 1 2398 0
	mov	w9, w11
.L218:
	.loc 1 2402 0
	cmp	w1, 1
	beq	.L292
.L220:
	.loc 1 2488 0
	cmp	w1, 2
	bne	.L202
	.loc 1 2491 0
	str	w1, [x6,1532]
	str	w1, [x6,1516]
	.loc 1 2493 0
	mov	w1, 1
.LVL197:
	.loc 1 2492 0
	strb	wzr, [x6,1512]
	.loc 1 2493 0
	strb	w1, [x6,1513]
	.loc 1 2494 0
	cbz	w2, .L247
	.loc 1 2496 0
	cbz	w3, .L248
	.loc 1 2497 0
	ldr	x1, [x0,21944]
	ldr	x5, [x0,21928]
	.loc 1 2496 0 discriminator 1
	ldr	w3, [x1,1120]
.LVL198:
	.loc 1 2496 0 is_stmt 0 discriminator 4
	str	w3, [x6,1520]
	b	.L250
.LVL199:
.L291:
	.loc 1 2392 0 is_stmt 1
	ldr	x7, [x0,21944]
	.loc 1 2402 0
	cmp	w1, 1
	.loc 1 2393 0
	ldr	x5, [x0,21936]
	.loc 1 2392 0
	ldr	w11, [x7,1120]
	.loc 1 2393 0
	ldr	w9, [x5,1120]
	.loc 1 2402 0
	bne	.L220
.L292:
	.loc 1 2404 0
	ldrb	w5, [x10,2600]
	.loc 1 2406 0
	str	wzr, [x6,1532]
	.loc 1 2404 0
	add	w5, w5, 1
.LVL200:
	.loc 1 2407 0
	strb	wzr, [x6,1512]
	.loc 1 2405 0
	str	w5, [x6,1516]
	.loc 1 2408 0
	strb	w1, [x6,1513]
	.loc 1 2409 0
	cbz	w2, .L221
	.loc 1 2411 0
	cbz	w3, .L222
	.loc 1 2411 0 is_stmt 0 discriminator 1
	ldr	x1, [x0,21944]
.LVL201:
	ldr	x2, [x0,21928]
.LVL202:
	ldr	w3, [x1,1120]
.LVL203:
	.loc 1 2411 0 discriminator 4
	str	w3, [x6,1520]
	b	.L224
.LVL204:
.L287:
.LBE50:
	.loc 1 2236 0 is_stmt 1
	str	w1, [x6,1516]
	.loc 1 2237 0
	str	wzr, [x6,1532]
	.loc 1 2238 0
	strb	wzr, [x6,1512]
	.loc 1 2239 0
	ldr	x1, [x0,21944]
.LVL205:
	ldr	w5, [x1,1120]
	str	w5, [x6,1520]
	.loc 1 2242 0
	ldrsb	w1, [x0,3104]
	cbz	w1, .L189
	.loc 1 2247 0
	ldr	w1, [x0,10804]
	.loc 1 2244 0
	add	x6, x0, 8192
	.loc 1 2247 0
	cmp	w1, 2
	.loc 1 2244 0
	ldrb	w10, [x6,2584]
	.loc 1 2245 0
	ldrb	w2, [x6,2585]
.LVL206:
	.loc 1 2246 0
	ldrb	w1, [x6,2582]
	.loc 1 2247 0
	beq	.L293
.L190:
	.loc 1 2260 0
	cmp	w1, 4
	beq	.L191
.L200:
	mov	w3, 1320
.LVL207:
	add	x2, x0, 13
	smull	x5, w5, w3
	add	x5, x5, 12288
	add	x1, x5, 1723
	add	x5, x5, 1979
	add	x1, x0, x1
	add	x0, x0, x5
.LVL208:
.L192:
	.loc 1 2280 0
	ldrb	w3, [x1]
	add	x1, x1, 1
	.loc 1 2279 0
	strb	w3, [x2]
	add	x2, x2, 1
	.loc 1 2277 0 discriminator 1
	cmp	x1, x0
	.loc 1 2282 0
	ldrb	w3, [x1,255]
	.loc 1 2281 0
	strb	w3, [x2,255]
	.loc 1 2284 0
	ldrb	w3, [x1,511]
	.loc 1 2283 0
	strb	w3, [x2,511]
	.loc 1 2286 0
	ldrb	w3, [x1,767]
	.loc 1 2285 0
	strb	w3, [x2,767]
	.loc 1 2277 0 discriminator 1
	bne	.L192
	.loc 1 2564 0
	mov	w1, 1
	b	.L201
.LVL209:
.L290:
.LBB63:
	.loc 1 2377 0
	cbz	w5, .L219
	.loc 1 2384 0
	ldr	x7, [x0,21936]
	.loc 1 2385 0
	ldr	x5, [x0,21944]
	.loc 1 2384 0
	ldr	w11, [x7,1120]
	.loc 1 2385 0
	ldr	w9, [x5,1120]
	b	.L218
.L288:
.LBE63:
	.loc 1 2292 0
	strb	wzr, [x6,1512]
	.loc 1 2291 0
	mov	w1, 1
.LVL210:
	str	w1, [x6,1532]
	str	w1, [x6,1516]
	.loc 1 2293 0
	ldr	x1, [x0,21944]
	ldr	w3, [x1,1120]
.LVL211:
	str	w3, [x6,1520]
	.loc 1 2294 0
	strb	wzr, [x6,1528]
	.loc 1 2295 0
	ldr	x1, [x0,21936]
	ldr	w8, [x1,1120]
	str	w8, [x6,1536]
	.loc 1 2299 0
	ldrsb	w1, [x0,3104]
	cbz	w1, .L203
	.loc 1 2301 0
	add	x1, x0, 8192
	ldrb	w11, [x1,2584]
	.loc 1 2302 0
	ldrb	w2, [x1,2585]
.LVL212:
	.loc 1 2303 0
	ldrb	w6, [x1,2582]
.L204:
	.loc 1 2312 0
	cmp	w6, 4
	beq	.L205
.L214:
	mov	w2, 1320
	mov	x6, 14011
	add	x1, x0, 13
	add	x5, x0, 269
	smaddl	x3, w3, w2, x6
	smaddl	x2, w8, w2, x6
	add	x3, x0, x3
	add	x0, x0, x2
.LVL213:
.L206:
	add	x1, x1, 1
	.loc 1 2343 0
	ldrb	w2, [x3]
	add	x3, x3, 1
	add	x0, x0, 1
	.loc 1 2340 0 discriminator 1
	cmp	x1, x5
	.loc 1 2342 0
	strb	w2, [x1,-1]
	.loc 1 2345 0
	ldrb	w2, [x3,255]
	.loc 1 2344 0
	strb	w2, [x1,255]
	.loc 1 2347 0
	ldrb	w2, [x3,511]
	.loc 1 2346 0
	strb	w2, [x1,511]
	.loc 1 2349 0
	ldrb	w2, [x3,767]
	.loc 1 2348 0
	strb	w2, [x1,767]
	.loc 1 2352 0
	ldrb	w2, [x0,-1]
	.loc 1 2351 0
	strb	w2, [x1,1023]
	.loc 1 2354 0
	ldrb	w2, [x0,255]
	.loc 1 2353 0
	strb	w2, [x1,1279]
	.loc 1 2356 0
	ldrb	w2, [x0,511]
	.loc 1 2355 0
	strb	w2, [x1,1535]
	.loc 1 2358 0
	ldrb	w2, [x0,767]
	.loc 1 2357 0
	strb	w2, [x1,1791]
	.loc 1 2340 0 discriminator 1
	bne	.L206
	.loc 1 2564 0
	mov	w1, 1
	b	.L201
.LVL214:
.L189:
	.loc 1 2255 0
	add	x1, x0, 8192
	ldrb	w10, [x1,2469]
	.loc 1 2256 0
	ldrb	w2, [x1,2470]
.LVL215:
	.loc 1 2257 0
	ldrb	w1, [x1,2467]
	b	.L190
.LVL216:
.L221:
.LBB64:
	.loc 1 2415 0
	ldr	x1, [x0,21944]
.LVL217:
	ldr	w3, [x1,1120]
.LVL218:
	str	w3, [x6,1520]
	ldr	x2, [x0,21928]
.LVL219:
.L224:
	.loc 1 2418 0
	ldr	w1, [x1,1120]
	str	w1, [x6,1524]
	.loc 1 2424 0
	ldr	w12, [x0,10888]
	.loc 1 2422 0
	ldr	w8, [x2,1120]
	.loc 1 2424 0
	cmp	w12, 1
	bls	.L225
.LVL220:
.L237:
	.loc 1 2444 0
	tst	w12, -3
	bne	.L227
	.loc 1 2445 0
	ldrb	w1, [x10,2582]
	cmp	w1, 4
	beq	.L294
.LVL221:
.L227:
	mov	w2, 1320
	mov	x6, 14011
	add	x1, x0, 13
	add	x5, x0, 269
.LVL222:
	smaddl	x3, w3, w2, x6
	smaddl	x2, w8, w2, x6
	add	x3, x0, x3
	add	x0, x0, x2
.LVL223:
.L229:
	add	x1, x1, 1
	.loc 1 2470 0
	ldrb	w2, [x3]
	add	x3, x3, 1
	add	x0, x0, 1
	.loc 1 2467 0 discriminator 1
	cmp	x1, x5
	.loc 1 2469 0
	strb	w2, [x1,-1]
	.loc 1 2472 0
	ldrb	w2, [x3,255]
	.loc 1 2471 0
	strb	w2, [x1,255]
	.loc 1 2474 0
	ldrb	w2, [x3,511]
	.loc 1 2473 0
	strb	w2, [x1,511]
	.loc 1 2476 0
	ldrb	w2, [x3,767]
	.loc 1 2475 0
	strb	w2, [x1,767]
	.loc 1 2479 0
	ldrb	w2, [x0,-1]
	.loc 1 2478 0
	strb	w2, [x1,2047]
	.loc 1 2481 0
	ldrb	w2, [x0,255]
	.loc 1 2480 0
	strb	w2, [x1,2303]
	.loc 1 2483 0
	ldrb	w2, [x0,511]
	.loc 1 2482 0
	strb	w2, [x1,2559]
	.loc 1 2485 0
	ldrb	w2, [x0,767]
	.loc 1 2484 0
	strb	w2, [x1,2815]
	.loc 1 2467 0 discriminator 1
	bne	.L229
.LBE64:
	.loc 1 2564 0
	mov	w1, 1
	b	.L201
.LVL224:
.L203:
	.loc 1 2307 0
	add	x1, x0, 8192
	ldrb	w11, [x1,2469]
	.loc 1 2308 0
	ldrb	w2, [x1,2470]
.LVL225:
	.loc 1 2309 0
	ldrb	w6, [x1,2467]
	b	.L204
.LVL226:
.L247:
.LBB65:
	.loc 1 2501 0
	ldr	x1, [x0,21944]
	ldr	w3, [x1,1120]
.LVL227:
	str	w3, [x6,1520]
	ldr	x5, [x0,21928]
.L250:
	.loc 1 2504 0
	strb	wzr, [x6,1528]
	.loc 1 2505 0
	mov	w1, 1
	strb	w1, [x6,1529]
	.loc 1 2506 0
	ldr	x1, [x0,21936]
	ldr	w2, [x1,1120]
.LVL228:
	str	w2, [x6,1536]
	.loc 1 2507 0
	ldr	w1, [x1,1120]
	str	w1, [x6,1540]
	.loc 1 2513 0
	ldr	w1, [x0,10888]
	.loc 1 2511 0
	ldr	w5, [x5,1120]
	.loc 1 2513 0
	cmp	w1, 1
	bls	.L253
	.loc 1 2520 0
	tst	w1, -3
	beq	.L253
.L254:
	mov	w8, 1320
	mov	x7, 14011
	add	x1, x0, 13
	add	x6, x0, 269
	smaddl	x3, w3, w8, x7
	smaddl	x2, w2, w8, x7
	smaddl	x5, w5, w8, x7
	add	x3, x0, x3
	add	x2, x0, x2
	add	x0, x0, x5
.LVL229:
.L252:
	add	x1, x1, 1
	.loc 1 2531 0
	ldrb	w5, [x3]
	add	x3, x3, 1
	add	x2, x2, 1
	add	x0, x0, 1
	.loc 1 2528 0 discriminator 1
	cmp	x1, x6
	.loc 1 2530 0
	strb	w5, [x1,-1]
	.loc 1 2533 0
	ldrb	w5, [x3,255]
	.loc 1 2532 0
	strb	w5, [x1,255]
	.loc 1 2535 0
	ldrb	w5, [x3,511]
	.loc 1 2534 0
	strb	w5, [x1,511]
	.loc 1 2537 0
	ldrb	w5, [x3,767]
	.loc 1 2536 0
	strb	w5, [x1,767]
	.loc 1 2540 0
	ldrb	w5, [x2,-1]
	.loc 1 2539 0
	strb	w5, [x1,1023]
	.loc 1 2542 0
	ldrb	w5, [x2,255]
	.loc 1 2541 0
	strb	w5, [x1,1279]
	.loc 1 2544 0
	ldrb	w5, [x2,511]
	.loc 1 2543 0
	strb	w5, [x1,1535]
	.loc 1 2546 0
	ldrb	w5, [x2,767]
	.loc 1 2545 0
	strb	w5, [x1,1791]
	.loc 1 2549 0
	ldrb	w5, [x0,-1]
	.loc 1 2548 0
	strb	w5, [x1,2047]
	.loc 1 2551 0
	ldrb	w5, [x0,255]
	.loc 1 2550 0
	strb	w5, [x1,2303]
	.loc 1 2553 0
	ldrb	w5, [x0,511]
	.loc 1 2552 0
	strb	w5, [x1,2559]
	.loc 1 2555 0
	ldrb	w5, [x0,767]
	.loc 1 2554 0
	strb	w5, [x1,2815]
	.loc 1 2528 0 discriminator 1
	bne	.L252
.LBE65:
	.loc 1 2564 0
	mov	w1, 1
	b	.L201
.LVL230:
.L253:
.LBB66:
	.loc 1 2514 0
	ldrb	w6, [x10,2582]
	.loc 1 2517 0
	mov	w1, 0
	.loc 1 2514 0
	cmp	w6, 4
	beq	.L201
	b	.L254
.LVL231:
.L222:
	.loc 1 2411 0 discriminator 2
	ldr	x2, [x0,21928]
.LVL232:
	ldr	x1, [x0,21944]
.LVL233:
	ldr	w3, [x2,1120]
.LVL234:
	.loc 1 2411 0 is_stmt 0 discriminator 4
	str	w3, [x6,1520]
	b	.L224
.LVL235:
.L248:
	.loc 1 2497 0 is_stmt 1
	ldr	x5, [x0,21928]
	.loc 1 2496 0 discriminator 2
	ldr	w3, [x5,1120]
.LVL236:
	.loc 1 2496 0 is_stmt 0 discriminator 4
	str	w3, [x6,1520]
	b	.L250
.LVL237:
.L225:
	.loc 1 2425 0 is_stmt 1
	ldrb	w1, [x10,2582]
	cmp	w1, 4
	bne	.L227
	.loc 1 2431 0
	ldrb	w2, [x10,2585]
.LVL238:
	ldrb	w15, [x10,2584]
.LBB51:
.LBB52:
	.loc 1 2180 0
	sub	w1, w2, #64
	cmp	w2, 32
	csel	w2, w1, w2, ge
	.loc 1 2183 0
	cbnz	w15, .L231
	.loc 1 2186 0
	neg	w2, w2
.LVL239:
	.loc 1 2185 0
	mov	w7, -64
.LVL240:
	.loc 1 2186 0
	lsl	w2, w2, 7
	add	w2, w2, 12288
	add	w2, w2, 4032
.LVL241:
.L232:
	add	x6, x29, 24
	add	w2, w2, 32
.LVL242:
	mov	x5, x6
.LVL243:
	add	x14, x6, 256
	mov	w13, 255
.L233:
	.loc 1 2198 0
	asr	w1, w2, 6
	add	w2, w2, w7
	cmp	w1, wzr
	csel	w1, w1, wzr, ge
	cmp	w1, 255
	csel	w1, w1, w13, le
	.loc 1 2203 0
	strb	w1, [x5],1
	.loc 1 2196 0 discriminator 1
	cmp	x5, x14
	bne	.L233
.LBE52:
.LBE51:
.LBB54:
.LBB55:
	.loc 1 2190 0
	add	w1, w15, 32
	cmp	w15, wzr
	mov	w13, -64
	add	x7, x29, 280
.LVL244:
	csel	w13, w1, w13, ne
.LVL245:
	mov	x5, x7
	neg	w2, w13
	add	x15, x7, 256
	lsl	w2, w2, 7
	mov	w14, 255
	add	w2, w2, 8192
	add	w2, w2, 32
.L235:
	.loc 1 2210 0
	asr	w1, w2, 6
	add	w2, w2, w13
	cmp	w1, wzr
	csel	w1, w1, wzr, ge
	cmp	w1, 255
	csel	w1, w1, w14, le
	.loc 1 2216 0
	strb	w1, [x5],1
	.loc 1 2208 0 discriminator 1
	cmp	x5, x15
	bne	.L235
	mov	w2, 1320
	smull	x2, w11, w2
	add	x2, x2, 12288
	add	x1, x2, 1723
	add	x2, x2, 1979
	add	x1, x0, x1
	add	x2, x0, x2
.L236:
.LBE55:
.LBE54:
	.loc 1 2438 0
	ldrb	w11, [x1]
	add	x1, x1, 1
	.loc 1 2435 0 discriminator 1
	cmp	x1, x2
	.loc 1 2440 0
	ldrb	w5, [x1,255]
	.loc 1 2437 0
	ldrb	w11, [x6,x11]
	strb	w11, [x1,-1]
	.loc 1 2439 0
	ldrb	w5, [x7,x5]
	strb	w5, [x1,255]
	.loc 1 2435 0 discriminator 1
	bne	.L236
	b	.L237
.LVL246:
.L293:
.LBE66:
	.loc 1 2247 0 discriminator 1
	ldr	w3, [x0,10880]
.LVL247:
	cmp	w3, 1
	bne	.L190
.LVL248:
.L191:
.LBB67:
.LBB68:
	.loc 1 2180 0
	sub	w1, w2, #64
	cmp	w2, 32
	csel	w2, w1, w2, ge
.LVL249:
	.loc 1 2183 0
	cbnz	w10, .L194
	.loc 1 2186 0
	neg	w2, w2
.LVL250:
	.loc 1 2185 0
	mov	w7, -64
.LVL251:
	.loc 1 2186 0
	lsl	w2, w2, 7
	add	w2, w2, 12288
	add	w2, w2, 4032
.LVL252:
.L195:
	add	x6, x29, 24
	add	w2, w2, 32
.LVL253:
	mov	x3, x6
.LVL254:
	add	x9, x6, 256
	mov	w8, 255
.L196:
	.loc 1 2198 0
	asr	w1, w2, 6
	add	w2, w2, w7
	cmp	w1, wzr
	csel	w1, w1, wzr, ge
	cmp	w1, 255
	csel	w1, w1, w8, le
	.loc 1 2203 0
	strb	w1, [x3],1
	.loc 1 2196 0 discriminator 1
	cmp	x3, x9
	bne	.L196
.LBE68:
.LBE67:
.LBB70:
.LBB71:
	.loc 1 2190 0
	add	w1, w10, 32
	cmp	w10, wzr
	mov	w8, -64
	add	x7, x29, 280
.LVL255:
	csel	w8, w1, w8, ne
.LVL256:
	mov	x3, x7
	neg	w2, w8
	add	x10, x7, 256
	lsl	w2, w2, 7
	mov	w9, 255
	add	w2, w2, 8192
	add	w2, w2, 32
.L198:
	.loc 1 2210 0
	asr	w1, w2, 6
	add	w2, w2, w8
	cmp	w1, wzr
	csel	w1, w1, wzr, ge
	cmp	w1, 255
	csel	w1, w1, w9, le
	.loc 1 2216 0
	strb	w1, [x3],1
	.loc 1 2208 0 discriminator 1
	cmp	x3, x10
	bne	.L198
	mov	w10, 1320
	smull	x10, w5, w10
	add	x10, x10, 12288
	add	x1, x10, 1723
	add	x10, x10, 1979
	add	x1, x0, x1
	add	x10, x0, x10
.L199:
.LBE71:
.LBE70:
	.loc 1 2267 0
	ldrb	w9, [x1]
	add	x1, x1, 1
	.loc 1 2264 0 discriminator 1
	cmp	x1, x10
	.loc 1 2269 0
	ldrb	w8, [x1,255]
.LVL257:
	.loc 1 2271 0
	ldrb	w3, [x1,511]
	.loc 1 2273 0
	ldrb	w2, [x1,767]
	.loc 1 2266 0
	ldrb	w9, [x6,x9]
	.loc 1 2268 0
	ldrb	w8, [x7,x8]
	.loc 1 2270 0
	ldrb	w3, [x6,x3]
	.loc 1 2272 0
	ldrb	w2, [x7,x2]
	.loc 1 2266 0
	strb	w9, [x1,-1]
	.loc 1 2268 0
	strb	w8, [x1,255]
	.loc 1 2270 0
	strb	w3, [x1,511]
	.loc 1 2272 0
	strb	w2, [x1,767]
	.loc 1 2264 0 discriminator 1
	bne	.L199
	b	.L200
.LVL258:
.L294:
.LBB72:
	.loc 1 2449 0
	cbnz	w12, .L238
	.loc 1 2449 0 is_stmt 0 discriminator 1
	ldr	w1, [x0,10892]
	uxtb	w12, w1
	.loc 1 2451 0 is_stmt 1 discriminator 1
	ldr	w1, [x0,10896]
	uxtb	w2, w1
.L239:
.LBB56:
.LBB57:
	.loc 1 2180 0
	sub	w1, w2, #64
	cmp	w2, 32
	csel	w2, w1, w2, ge
.LVL259:
	.loc 1 2183 0
	cbnz	w12, .L241
	.loc 1 2186 0
	neg	w2, w2
.LVL260:
	.loc 1 2185 0
	mov	w7, -64
.LVL261:
	.loc 1 2186 0
	lsl	w2, w2, 7
	add	w2, w2, 12288
	add	w2, w2, 4032
.LVL262:
.L242:
	add	x6, x29, 24
	add	w2, w2, 32
.LVL263:
	mov	x5, x6
.LVL264:
	add	x11, x6, 256
	mov	w10, 255
.L243:
	.loc 1 2198 0
	asr	w1, w2, 6
	add	w2, w2, w7
	cmp	w1, wzr
	csel	w1, w1, wzr, ge
	cmp	w1, 255
	csel	w1, w1, w10, le
	.loc 1 2203 0
	strb	w1, [x5],1
	.loc 1 2196 0 discriminator 1
	cmp	x5, x11
	bne	.L243
.LBE57:
.LBE56:
.LBB59:
.LBB60:
	.loc 1 2190 0
	add	w1, w12, 32
	cmp	w12, wzr
	mov	w10, -64
	add	x7, x29, 280
.LVL265:
	csel	w10, w1, w10, ne
.LVL266:
	mov	x5, x7
	neg	w2, w10
	add	x12, x7, 256
	lsl	w2, w2, 7
	mov	w11, 255
	add	w2, w2, 8192
	add	w2, w2, 32
.L245:
	.loc 1 2210 0
	asr	w1, w2, 6
	add	w2, w2, w10
	cmp	w1, wzr
	csel	w1, w1, wzr, ge
	cmp	w1, 255
	csel	w1, w1, w11, le
	.loc 1 2216 0
	strb	w1, [x5],1
	.loc 1 2208 0 discriminator 1
	cmp	x5, x12
	bne	.L245
	mov	w2, 1320
	smull	x9, w9, w2
	add	x9, x9, 12288
	add	x1, x9, 2235
	add	x9, x9, 2491
	add	x1, x0, x1
	add	x9, x0, x9
.L246:
.LBE60:
.LBE59:
	.loc 1 2460 0
	ldrb	w5, [x1]
	add	x1, x1, 1
	.loc 1 2457 0 discriminator 1
	cmp	x1, x9
	.loc 1 2462 0
	ldrb	w2, [x1,255]
	.loc 1 2459 0
	ldrb	w5, [x6,x5]
	strb	w5, [x1,-1]
	.loc 1 2461 0
	ldrb	w2, [x7,x2]
	strb	w2, [x1,255]
	.loc 1 2457 0 discriminator 1
	bne	.L246
	b	.L227
.LVL267:
.L205:
.LBE72:
.LBB73:
.LBB74:
	.loc 1 2180 0
	sub	w1, w2, #64
	cmp	w2, 32
	csel	w2, w1, w2, ge
.LVL268:
	.loc 1 2183 0
	cbnz	w11, .L208
	.loc 1 2186 0
	neg	w2, w2
.LVL269:
	.loc 1 2185 0
	mov	w7, -64
.LVL270:
	.loc 1 2186 0
	lsl	w2, w2, 7
	add	w2, w2, 12288
	add	w2, w2, 4032
.LVL271:
.L209:
	add	x6, x29, 24
	add	w2, w2, 32
.LVL272:
	mov	x5, x6
	add	x10, x6, 256
	mov	w9, 255
.L210:
	.loc 1 2198 0
	asr	w1, w2, 6
	add	w2, w2, w7
	cmp	w1, wzr
	csel	w1, w1, wzr, ge
	cmp	w1, 255
	csel	w1, w1, w9, le
	.loc 1 2203 0
	strb	w1, [x5],1
	.loc 1 2196 0 discriminator 1
	cmp	x5, x10
	bne	.L210
.LBE74:
.LBE73:
.LBB76:
.LBB77:
	.loc 1 2190 0
	add	w1, w11, 32
	cmp	w11, wzr
	mov	w9, -64
	add	x7, x29, 280
.LVL273:
	csel	w9, w1, w9, ne
.LVL274:
	mov	x5, x7
	neg	w2, w9
	add	x11, x7, 256
	lsl	w2, w2, 7
	mov	w10, 255
	add	w2, w2, 8192
	add	w2, w2, 32
.L212:
	.loc 1 2210 0
	asr	w1, w2, 6
	add	w2, w2, w9
	cmp	w1, wzr
	csel	w1, w1, wzr, ge
	cmp	w1, 255
	csel	w1, w1, w10, le
	.loc 1 2216 0
	strb	w1, [x5],1
	.loc 1 2208 0 discriminator 1
	cmp	x5, x11
	bne	.L212
	mov	w1, 1320
	mov	x2, 14011
	smull	x12, w3, w1
	smaddl	x2, w8, w1, x2
	add	x12, x12, 12288
	add	x1, x12, 1723
	add	x12, x12, 1979
	add	x1, x0, x1
	add	x2, x0, x2
	add	x12, x0, x12
.L213:
.LBE77:
.LBE76:
	.loc 1 2321 0
	ldrb	w11, [x1]
	add	x1, x1, 1
	add	x2, x2, 1
	.loc 1 2318 0 discriminator 1
	cmp	x1, x12
	.loc 1 2323 0
	ldrb	w10, [x1,255]
	.loc 1 2325 0
	ldrb	w9, [x1,511]
.LVL275:
	.loc 1 2327 0
	ldrb	w5, [x1,767]
	.loc 1 2320 0
	ldrb	w11, [x6,x11]
	.loc 1 2322 0
	ldrb	w10, [x7,x10]
	.loc 1 2324 0
	ldrb	w9, [x6,x9]
	.loc 1 2326 0
	ldrb	w5, [x7,x5]
	.loc 1 2320 0
	strb	w11, [x1,-1]
	.loc 1 2322 0
	strb	w10, [x1,255]
	.loc 1 2324 0
	strb	w9, [x1,511]
	.loc 1 2326 0
	strb	w5, [x1,767]
	.loc 1 2330 0
	ldrb	w11, [x2,-1]
	.loc 1 2332 0
	ldrb	w10, [x2,255]
	.loc 1 2334 0
	ldrb	w9, [x2,511]
	.loc 1 2336 0
	ldrb	w5, [x2,767]
	.loc 1 2329 0
	ldrb	w11, [x6,x11]
	.loc 1 2331 0
	ldrb	w10, [x7,x10]
	.loc 1 2333 0
	ldrb	w9, [x6,x9]
	.loc 1 2335 0
	ldrb	w5, [x7,x5]
	.loc 1 2329 0
	strb	w11, [x2,-1]
	.loc 1 2331 0
	strb	w10, [x2,255]
	.loc 1 2333 0
	strb	w9, [x2,511]
	.loc 1 2335 0
	strb	w5, [x2,767]
	.loc 1 2318 0 discriminator 1
	bne	.L213
	b	.L214
.LVL276:
.L208:
.LBB78:
.LBB75:
	.loc 1 2190 0
	add	w7, w11, 32
.LVL277:
	.loc 1 2191 0
	lsl	w2, w2, 6
.LVL278:
	b	.L209
.LVL279:
.L241:
.LBE75:
.LBE78:
.LBB79:
.LBB61:
.LBB58:
	.loc 1 2190 0
	add	w7, w12, 32
.LVL280:
	.loc 1 2191 0
	lsl	w2, w2, 6
.LVL281:
	b	.L242
.LVL282:
.L238:
.LBE58:
.LBE61:
	.loc 1 2449 0 discriminator 2
	ldrb	w12, [x10,2584]
	.loc 1 2451 0 discriminator 2
	ldrb	w2, [x10,2585]
	b	.L239
.LVL283:
.L194:
.LBE79:
.LBB80:
.LBB69:
	.loc 1 2190 0
	add	w7, w10, 32
.LVL284:
	.loc 1 2191 0
	lsl	w2, w2, 6
.LVL285:
	b	.L195
.LVL286:
.L231:
.LBE69:
.LBE80:
.LBB81:
.LBB62:
.LBB53:
	.loc 1 2190 0
	add	w7, w15, 32
.LVL287:
	.loc 1 2191 0
	lsl	w2, w2, 6
.LVL288:
	b	.L232
.LVL289:
.L289:
.LBE53:
.LBE62:
.LBE81:
	.loc 1 2565 0
	bl	__stack_chk_fail
.LVL290:
	.cfi_endproc
.LFE2661:
	.size	VC1_Vfmw_BuildRefList, .-VC1_Vfmw_BuildRefList
	.align	2
	.global	VC1_Vfmw_GetStreamInfo
	.type	VC1_Vfmw_GetStreamInfo, %function
VC1_Vfmw_GetStreamInfo:
.LFB2656:
	.loc 1 1655 0
	.cfi_startproc
.LVL291:
	stp	x29, x30, [sp, -112]!
	.cfi_def_cfa_offset 112
	.cfi_offset 29, -112
	.cfi_offset 30, -104
	add	x29, sp, 0
	.cfi_def_cfa_register 29
	stp	x21, x22, [sp,32]
	.cfi_offset 21, -80
	.cfi_offset 22, -72
	.loc 1 1669 0
	add	x21, x0, 77824
	.loc 1 1655 0
	mov	x22, x0
	.loc 1 1669 0
	add	x0, x21, 2488
.LVL292:
	.loc 1 1655 0
	str	x27, [sp,80]
	stp	x19, x20, [sp,16]
	stp	x23, x24, [sp,48]
	stp	x25, x26, [sp,64]
	.cfi_offset 27, -32
	.cfi_offset 19, -96
	.cfi_offset 20, -88
	.cfi_offset 23, -64
	.cfi_offset 24, -56
	.cfi_offset 25, -48
	.cfi_offset 26, -40
	.loc 1 1669 0
	add	x1, x0, 20480
	.loc 1 1672 0
	ldrsb	w2, [x0,3104]
	.loc 1 1669 0
	ldr	w19, [x1,1480]
	.loc 1 1672 0
	cbz	w2, .L296
	.loc 1 1671 0
	ldr	w0, [x21,13292]
	.loc 1 1672 0
	ldr	w20, [x1,1484]
	.loc 1 1671 0
	cmp	w0, 3
	beq	.L383
.L378:
	.loc 1 1676 0
	ldrh	w0, [x21,5846]
	.loc 1 1677 0
	ldrh	w1, [x21,5844]
	.loc 1 1676 0
	add	w0, w0, 15
	.loc 1 1677 0
	add	w1, w1, 15
	.loc 1 1676 0
	asr	w0, w0, 4
.LVL293:
	.loc 1 1673 0
	mul	w20, w19, w20
.LVL294:
	.loc 1 1677 0
	asr	w1, w1, 4
.L347:
	.loc 1 1685 0
	lsl	w2, w1, 4
	mov	w4, 8160
	sub	w3, w2, #32
	cmp	w3, w4
	lsl	w3, w0, 4
	bhi	.L299
	.loc 1 1685 0 is_stmt 0 discriminator 2
	sub	w5, w3, #32
	cmp	w5, w4
	bhi	.L299
	.loc 1 1691 0 is_stmt 1
	add	x3, x21, 2488
	add	x2, x3, 20480
	ldr	w4, [x2,1492]
	cmp	w4, w0
	beq	.L384
.L302:
	.loc 1 1694 0
	add	x1, x21, 2488
	.loc 1 1701 0
	lsl	w0, w19, 4
.LVL295:
	.loc 1 1694 0
	add	x2, x1, 20480
	.loc 1 1701 0
	add	w0, w0, 63
	and	w0, w0, -64
	.loc 1 1694 0
	ldr	w3, [x2,1484]
	str	w3, [x2,1492]
	.loc 1 1695 0
	str	w19, [x2,1488]
	.loc 1 1701 0
	str	w0, [x2,1504]
	.loc 1 1703 0
	ldrb	w0, [x21,2496]
	cbz	w0, .L310
	.loc 1 1693 0
	mov	w0, 1
.LVL296:
.L304:
	.loc 1 1703 0 discriminator 1
	add	x1, x21, 2488
	ldrsb	w2, [x1,3]
	cmp	w2, 3
	beq	.L385
.L307:
	.loc 1 1705 0 discriminator 1
	cbnz	w0, .L310
.LVL297:
.L369:
	.loc 1 1705 0 is_stmt 0
	ldrb	w0, [x21,2488]
	.loc 1 1705 0 discriminator 1
	tbz	x0, 3, .L310
.L311:
	.loc 1 1745 0 is_stmt 1
	mov	x0, x22
	bl	VC1_Vfmw_GetImageBuffer
.LVL298:
	mov	w23, w0
	cbz	w0, .L386
	.loc 1 1751 0
	add	x1, x21, 2488
	add	x23, x22, 114688
	add	x1, x1, 20480
	ldr	w0, [x23,2808]
	ldr	w1, [x1,1556]
	bl	FSP_GetFsImagePtr
.LVL299:
	mov	x3, x0
.LVL300:
	.loc 1 1752 0
	cbz	x0, .L314
	.loc 1 1754 0
	ldr	x2, [x22]
	.loc 1 1762 0
	mov	x4, -1
	.loc 1 1763 0
	adrp	x1, .LC15
	mov	w0, 29
	add	x1, x1, :lo12:.LC15
	.loc 1 1754 0
	ldr	x2, [x2,48]
	str	x2, [x3,224]
	.loc 1 1755 0
	ldr	x2, [x22]
	ldr	x2, [x2,64]
	str	x2, [x3,232]
	.loc 1 1756 0
	ldr	x2, [x22]
	ldr	x2, [x2,80]
	str	x2, [x3,240]
	.loc 1 1757 0
	ldr	x2, [x22]
	ldr	w2, [x2,96]
	str	w2, [x3,8]
	.loc 1 1758 0
	ldr	x2, [x22]
	ldr	w2, [x2,100]
	str	w2, [x3,12]
	.loc 1 1759 0
	ldr	x2, [x22]
	ldr	w2, [x2,104]
	str	w2, [x3,16]
	.loc 1 1760 0
	ldr	x2, [x22]
	ldr	w2, [x2,120]
	str	w2, [x3,20]
	.loc 1 1762 0
	ldr	x2, [x22]
	str	x4, [x2,48]
	.loc 1 1763 0
	ldr	x2, [x3,224]
	ldr	x3, [x3,232]
.LVL301:
	bl	dprint_linux_kernel
.LVL302:
.L314:
	.loc 1 1766 0
	add	x0, x21, 2488
.LVL303:
	ldrsb	w1, [x0,3104]
	cbz	w1, .L315
	.loc 1 1766 0 is_stmt 0 discriminator 1
	ldr	w1, [x21,13292]
	cmp	w1, 3
	beq	.L387
.L315:
	.loc 1 1772 0 is_stmt 1
	ldr	x0, [x21,24416]
	str	wzr, [x0,1072]
.L316:
	.loc 1 1774 0
	ldr	x1, [x21,24416]
	add	x0, x21, 2488
	strb	wzr, [x1,2]
	.loc 1 1775 0
	ldrsb	w1, [x0,3104]
	cbnz	w1, .L317
	.loc 1 1777 0
	add	x1, x0, 8192
	ldrb	w2, [x1,2220]
	cmp	w2, 1
	beq	.L388
.L317:
	.loc 1 1783 0
	add	x24, x21, 2488
	ldrb	w0, [x24,2]
	cmp	w0, 5
	beq	.L359
	cmp	w0, 1
	bls	.L359
	.loc 1 1800 0
	add	x1, x24, 20480
	ldr	w0, [x1,1544]
	cmp	w0, 1
	bls	.L389
.L323:
	.loc 1 1817 0
	add	x27, x21, 2488
	ldr	w0, [x23,2808]
	add	x25, x27, 20480
	ldr	w1, [x25,1556]
	bl	FSP_GetLogicFs
.LVL304:
	mov	x24, x0
.LVL305:
	.loc 1 1818 0
	ldr	w1, [x25,1548]
	ldr	w0, [x23,2808]
	bl	FSP_GetLogicFs
.LVL306:
	mov	x26, x0
.LVL307:
	.loc 1 1819 0
	ldr	w1, [x25,1552]
	ldr	w0, [x23,2808]
	bl	FSP_GetLogicFs
.LVL308:
	mov	x5, x0
.LVL309:
	.loc 1 1821 0
	cmp	x26, xzr
	cset	w1, eq
	cmp	x24, xzr
	cset	w0, eq
	.loc 1 1821 0 is_stmt 0 discriminator 1
	orr	w0, w1, w0
	cbnz	w0, .L360
	cbz	x5, .L360
	.loc 1 1835 0 is_stmt 1
	ldrsb	w0, [x27,3104]
	.loc 1 1841 0
	mov	w1, 0
	.loc 1 1835 0
	cbz	w0, .L330
	.loc 1 1835 0 is_stmt 0 discriminator 1
	ldr	w0, [x27,10804]
	cmp	w0, 3
	bne	.L330
	.loc 1 1835 0 discriminator 2
	adrp	x0, USE_FF_APT_EN
	ldr	w0, [x0,#:lo12:USE_FF_APT_EN]
	cmp	w0, 1
	cset	w1, eq
.L330:
	str	w1, [x24,40]
	.loc 1 1844 0 is_stmt 1
	add	x0, x21, 2488
	ldrb	w1, [x21,2490]
	cmp	w1, 5
	beq	.L390
.L331:
	.loc 1 1850 0
	ldr	x0, [x24,296]
	cbz	x0, .L332
	.loc 1 1850 0 is_stmt 0 discriminator 1
	ldr	x1, [x24,312]
	cbz	x1, .L332
	.loc 1 1850 0 discriminator 2
	ldr	x1, [x24,304]
	cbz	x1, .L332
	.loc 1 1866 0 is_stmt 1
	ldr	x1, [x5,296]
	cbz	x1, .L334
	.loc 1 1866 0 is_stmt 0 discriminator 1
	ldr	w0, [x1,12]
.L335:
	.loc 1 1866 0 discriminator 4
	str	w0, [x22,14460]
	.loc 1 1867 0 is_stmt 1
	ldr	x0, [x26,296]
	cbz	x0, .L391
.L380:
	.loc 1 1867 0 is_stmt 0 discriminator 2
	ldr	w0, [x0,12]
	.loc 1 1867 0 discriminator 4
	str	w0, [x22,14456]
	.loc 1 1868 0 is_stmt 1
	ldr	x0, [x24,296]
	ldr	w0, [x0,12]
	str	w0, [x21,2280]
	.loc 1 1869 0
	ldr	w0, [x24,320]
	str	w0, [x22,14464]
	.loc 1 1870 0
	ldr	w0, [x5,320]
	str	w0, [x22,14468]
	.loc 1 1871 0
	ldr	x0, [x24,304]
	ldr	w0, [x0,12]
	str	w0, [x22,14452]
	.loc 1 1872 0
	ldr	x0, [x24,304]
	ldr	w0, [x0,20]
	str	w0, [x21,2244]
.LVL310:
.L309:
	.loc 1 1875 0
	add	x0, x21, 2488
.LVL311:
	.loc 1 1878 0
	ldr	x2, [x0,21928]
	.loc 1 1875 0
	ldrsb	w1, [x0,3104]
	cbnz	w1, .L338
	.loc 1 1878 0
	strb	wzr, [x2,1027]
	.loc 1 1879 0
	add	x1, x0, 8192
	ldr	x2, [x0,21928]
	ldrb	w3, [x1,2459]
	strb	w3, [x2,1028]
	.loc 1 1881 0
	ldrb	w3, [x1,2467]
	.loc 1 1880 0
	ldr	x2, [x0,21928]
	.loc 1 1882 0
	sub	w0, w3, #2
	.loc 1 1885 0
	uxtb	w0, w0
	cmp	w0, 1
	bls	.L354
	.loc 1 1885 0 is_stmt 0 discriminator 2
	cmp	w3, 4
	mov	w0, 0
	beq	.L392
.L339:
	.loc 1 1891 0 is_stmt 1
	add	x24, x21, 2488
.LVL312:
	.loc 1 1880 0
	strb	w0, [x2,1030]
	.loc 1 1891 0
	add	x19, x24, 20480
	.loc 1 1880 0
	strb	w0, [x2,1029]
	.loc 1 1891 0
	mov	w0, 1
	.loc 1 1893 0
	add	x20, x24, 32768
.LVL313:
	.loc 1 1891 0
	str	w0, [x19,1564]
	.loc 1 1892 0
	strb	wzr, [x19,1584]
	.loc 1 1893 0
	ldr	x0, [x21,5624]
	ldr	x23, [x20,3656]
	bl	BsPos
.LVL314:
	cmp	w0, wzr
	add	w1, w0, 7
	csel	w0, w1, w0, lt
	asr	w0, w0, 3
	add	x0, x23, x0, sxtw
	str	x0, [x21,24536]
	.loc 1 1894 0
	ldr	x0, [x21,5624]
	ldr	w23, [x20,3628]
	bl	BsPos
.LVL315:
	add	w1, w0, 7
	cmp	w0, wzr
	csel	w0, w1, w0, lt
	add	w0, w23, w0, asr 3
	str	w0, [x19,1588]
	.loc 1 1895 0
	ldr	x0, [x21,5624]
	bl	BsPos
.LVL316:
	and	w0, w0, 7
	str	w0, [x19,1592]
	.loc 1 1896 0
	ldr	w23, [x20,3636]
	ldr	x0, [x21,5624]
	lsl	w23, w23, 3
	bl	BsPos
.LVL317:
	sub	w0, w23, w0
	str	w0, [x19,1596]
	.loc 1 1897 0
	ldr	w1, [x20,3700]
	ldr	w0, [x20,3696]
	mul	w0, w0, w1
	sub	w0, w0, #1
	str	w0, [x19,1600]
	ldrb	w1, [x21,2490]
.LVL318:
.L340:
	.loc 1 1668 0
	add	x21, x21, 2488
.LVL319:
	.loc 1 1940 0
	mov	w2, 0
	mov	x0, x21
	mov	w3, 1
	bl	VC1_Vfmw_BuildRefList
.LVL320:
	mov	w23, w0
	cbz	w0, .L393
	.loc 1 1948 0
	mov	w23, 1
	b	.L377
.LVL321:
.L299:
	.loc 1 1687 0
	adrp	x1, .LC7
	mov	w0, 0
.LVL322:
	add	x1, x1, :lo12:.LC7
	.loc 1 1688 0
	mov	w23, 0
	.loc 1 1687 0
	bl	dprint_linux_kernel
.LVL323:
.L377:
	.loc 1 1949 0
	mov	w0, w23
	ldr	x27, [sp,80]
	.cfi_remember_state
	.cfi_restore 27
	ldp	x19, x20, [sp,16]
	.cfi_restore 20
	.cfi_restore 19
.LVL324:
	ldp	x21, x22, [sp,32]
	.cfi_restore 22
	.cfi_restore 21
.LVL325:
	ldp	x23, x24, [sp,48]
	.cfi_restore 24
	.cfi_restore 23
.LVL326:
	ldp	x25, x26, [sp,64]
	.cfi_restore 26
	.cfi_restore 25
.LVL327:
	ldp	x29, x30, [sp], 112
	.cfi_restore 30
	.cfi_restore 29
	.cfi_def_cfa 31, 0
	ret
.LVL328:
.L296:
	.cfi_restore_state
	.loc 1 1672 0 discriminator 1
	ldr	w0, [x1,1484]
	.loc 1 1682 0
	mov	w1, w19
.LVL329:
	.loc 1 1673 0
	mul	w20, w19, w0
.LVL330:
	b	.L347
.LVL331:
.L310:
	.loc 1 1711 0
	add	x0, x21, 2488
.LBB82:
	.loc 1 1713 0
	add	x23, x22, 114688
.LBE82:
	.loc 1 1711 0
	add	x24, x0, 20480
	add	x1, x24, 128
	str	x1, [x21,24416]
	.loc 1 1710 0
	str	x1, [x21,24440]
	.loc 1 1709 0
	str	x1, [x21,24432]
	.loc 1 1708 0
	str	x1, [x21,24424]
.LBB83:
	.loc 1 1713 0
	ldr	w0, [x23,2808]
	ldr	w1, [x24,1552]
	bl	FSP_GetFsImagePtr
.LVL332:
	mov	x25, x0
.LVL333:
	cbz	x0, .L306
	.loc 1 1713 0 is_stmt 0 discriminator 2
	ldr	w0, [x23,2808]
	ldr	x1, [x25,248]
	bl	FreeUsdByDec
.LVL334:
	.loc 1 1713 0 discriminator 3
	ldr	w0, [x23,2808]
	ldr	x1, [x25,256]
	bl	FreeUsdByDec
.LVL335:
	.loc 1 1713 0 discriminator 4
	ldr	w0, [x23,2808]
	ldr	x1, [x25,264]
	bl	FreeUsdByDec
.LVL336:
	.loc 1 1713 0 discriminator 5
	ldr	w0, [x23,2808]
	ldr	x1, [x25,272]
	bl	FreeUsdByDec
.LVL337:
	.loc 1 1713 0 discriminator 1
	str	xzr, [x25,248]
	str	xzr, [x25,256]
	.loc 1 1713 0 discriminator 6
	mov	w2, 1
	.loc 1 1713 0 discriminator 1
	str	xzr, [x25,264]
	str	xzr, [x25,272]
	.loc 1 1713 0 discriminator 6
	ldr	w0, [x23,2808]
	ldr	w1, [x24,1552]
	bl	FSP_ClearLogicFs
.LVL338:
	.loc 1 1713 0 discriminator 7
	ldr	w0, [x23,2808]
	mov	w2, 1
	ldr	w1, [x24,1548]
	bl	FSP_ClearLogicFs
.LVL339:
	.loc 1 1713 0 discriminator 1
	str	wzr, [x24,1548]
	str	wzr, [x24,1552]
	.loc 1 1713 0 discriminator 8
	ldr	w0, [x23,2808]
	bl	FSP_GetNullLogicFs
.LVL340:
	.loc 1 1713 0 discriminator 1
	str	w0, [x24,1552]
	str	w0, [x24,1548]
.L306:
.LBE83:
	.loc 1 1714 0 is_stmt 1
	add	x2, x21, 2488
.LBB84:
.LBB85:
	.loc 1 1527 0
	add	x0, x22, 94208
.LBE85:
.LBE84:
	.loc 1 1714 0
	add	x2, x2, 20480
.LBB88:
.LBB86:
	.loc 1 1527 0
	add	x24, x22, 98304
.LBE86:
.LBE88:
	.loc 1 1716 0
	add	x25, x23, 2192
.LVL341:
	mov	x1, x25
	.loc 1 1714 0
	str	wzr, [x2,1544]
.LBB89:
.LBB87:
	.loc 1 1527 0
	strb	wzr, [x0,113]
	.loc 1 1528 0
	strb	wzr, [x0,112]
	.loc 1 1527 0
	strb	wzr, [x0,1433]
	.loc 1 1528 0
	strb	wzr, [x0,1432]
	.loc 1 1527 0
	strb	wzr, [x0,2753]
	.loc 1 1528 0
	strb	wzr, [x0,2752]
	.loc 1 1527 0
	strb	wzr, [x0,4073]
	.loc 1 1528 0
	strb	wzr, [x0,4072]
	.loc 1 1527 0
	strb	wzr, [x24,1297]
	.loc 1 1528 0
	strb	wzr, [x24,1296]
.LBE87:
.LBE89:
	.loc 1 1716 0
	ldr	w0, [x23,2808]
	bl	FSP_ClearNotInVoQueue
.LVL342:
	.loc 1 1724 0
	mov	x0, x25
	bl	ResetVoQueue
.LVL343:
	.loc 1 1727 0
	ldr	w2, [x24,3988]
	.loc 1 1732 0
	mov	x0, x22
	.loc 1 1726 0
	ldr	w1, [x24,3984]
	.loc 1 1730 0
	add	w3, w2, 15
	lsr	w3, w3, 4
	.loc 1 1729 0
	add	w4, w1, 15
	.loc 1 1730 0
	add	w3, w3, 1
	.loc 1 1729 0
	lsr	w4, w4, 4
	.loc 1 1730 0
	and	w3, w3, 536870910
	.loc 1 1729 0
	str	w4, [x21,2316]
	.loc 1 1730 0
	str	w3, [x21,2320]
	.loc 1 1732 0
	mov	w3, 2
	bl	VC1_ArrangeVahbMem
.LVL344:
	cmp	w0, 1
	.loc 1 1734 0
	ldrb	w0, [x21,2488]
	.loc 1 1732 0
	beq	.L394
	.loc 1 1739 0
	and	w0, w0, -9
	.loc 1 1740 0
	mov	w23, 0
	.loc 1 1739 0
	strb	w0, [x21,2488]
	.loc 1 1740 0
	b	.L377
.LVL345:
.L383:
	.loc 1 1672 0
	add	w20, w20, 1
	add	w20, w20, w20, lsr 31
	asr	w20, w20, 1
	b	.L378
.LVL346:
.L384:
	.loc 1 1691 0 discriminator 1
	ldr	w0, [x2,1488]
.LVL347:
	cmp	w0, w1
	bne	.L302
	.loc 1 1701 0
	lsl	w0, w19, 4
	add	w0, w0, 63
	and	w0, w0, -64
	str	w0, [x2,1504]
	.loc 1 1703 0
	ldrb	w0, [x3,8]
	cbz	w0, .L369
	.loc 1 1699 0
	mov	w0, 0
.LVL348:
	b	.L304
.LVL349:
.L386:
	.loc 1 1747 0
	adrp	x1, .LC14
	mov	w0, 1
	add	x1, x1, :lo12:.LC14
	bl	dprint_linux_kernel
.LVL350:
	.loc 1 1748 0
	b	.L377
.LVL351:
.L359:
	.loc 1 1785 0
	add	x24, x21, 2488
	add	x24, x24, 20480
	ldr	w0, [x24,1544]
	.loc 1 1786 0
	ldr	w2, [x24,1548]
	ldr	w3, [x24,1552]
.LVL352:
	.loc 1 1785 0 discriminator 2
	cmp	w0, wzr
	mov	w0, 2
	csinc	w0, w0, wzr, ne
	.loc 1 1786 0
	cmp	w2, w3
	.loc 1 1785 0 discriminator 4
	str	w0, [x24,1544]
	.loc 1 1786 0
	beq	.L321
	.loc 1 1789 0
	adrp	x1, .LC16
	mov	w0, 13
	add	x1, x1, :lo12:.LC16
	bl	dprint_linux_kernel
.LVL353:
	.loc 1 1790 0
	ldr	w0, [x23,2808]
	mov	w2, 0
	ldr	w1, [x24,1548]
	bl	FSP_SetRef
.LVL354:
	ldr	w3, [x24,1552]
.L321:
	.loc 1 1792 0
	add	x24, x21, 2488
	.loc 1 1795 0
	mov	w2, 1
	.loc 1 1792 0
	add	x25, x24, 20480
	.loc 1 1793 0
	ldr	w1, [x25,1556]
	.loc 1 1792 0
	str	w3, [x25,1548]
	.loc 1 1793 0
	str	w1, [x25,1552]
	.loc 1 1795 0
	ldr	w0, [x23,2808]
	bl	FSP_SetRef
.LVL355:
	.loc 1 1796 0
	ldr	w0, [x23,2808]
	ldr	w1, [x25,1548]
	bl	FSP_RemovePmv
.LVL356:
	.loc 1 1810 0
	ldrb	w0, [x21,2490]
	cmp	w0, 5
	beq	.L322
	cmp	w0, 1
	bhi	.L323
.L322:
	.loc 1 1812 0
	ldr	x1, [x21,24432]
	.loc 1 1813 0
	mov	w2, 1
	.loc 1 1812 0
	strb	wzr, [x1]
	.loc 1 1813 0
	ldr	x1, [x21,24416]
	strb	w2, [x1]
	.loc 1 1814 0
	ldr	x2, [x21,24424]
	.loc 1 1815 0
	ldr	x1, [x21,24416]
	.loc 1 1814 0
	str	x2, [x21,24432]
	.loc 1 1815 0
	str	x1, [x21,24424]
	b	.L323
.LVL357:
.L385:
	.loc 1 1703 0 discriminator 2
	ldrb	w1, [x1,9]
	cmp	w1, 1
	bne	.L309
	b	.L307
.LVL358:
.L390:
	.loc 1 1846 0
	ldr	w2, [x26,40]
	.loc 1 1848 0
	add	x1, x0, 32768
	.loc 1 1846 0
	str	w2, [x24,40]
	.loc 1 1847 0
	ldr	x2, [x21,24432]
	ldr	x0, [x21,24416]
	ldr	w2, [x2,1072]
	str	w2, [x0,1072]
	.loc 1 1848 0
	ldr	w0, [x1,3716]
	add	w0, w0, 1
	str	w0, [x1,3716]
	b	.L331
.LVL359:
.L388:
	.loc 1 1779 0
	ldr	x0, [x21,24416]
	ldrb	w1, [x1,2458]
	strb	w1, [x0,2]
	b	.L317
.L387:
	.loc 1 1766 0 discriminator 2
	adrp	x1, USE_FF_APT_EN
	ldr	w1, [x1,#:lo12:USE_FF_APT_EN]
	cmp	w1, 1
	bne	.L315
	.loc 1 1768 0
	ldr	x0, [x21,24416]
	str	w1, [x0,1072]
	b	.L316
.LVL360:
.L332:
	.loc 1 1852 0
	add	x21, x21, 2488
	ldr	w0, [x23,2808]
	add	x19, x21, 20480
	mov	w2, 1
	ldr	w1, [x19,1556]
	bl	FSP_ClearLogicFs
.LVL361:
	.loc 1 1853 0
	ldr	x2, [x21,21928]
	.loc 1 1855 0
	adrp	x1, .LC20
	mov	w0, 0
	add	x1, x1, :lo12:.LC20
	.loc 1 1853 0
	strb	wzr, [x2]
	.loc 1 1854 0
	ldr	x2, [x21,21928]
	strb	wzr, [x2,1]
	.loc 1 1855 0
	ldr	w2, [x19,1548]
	ldr	w3, [x19,1556]
	ldr	w4, [x19,1552]
	ldr	x5, [x24,296]
	ldr	x6, [x24,312]
	ldr	x7, [x24,304]
	bl	dprint_linux_kernel
.LVL362:
	.loc 1 1857 0
	ldrb	w0, [x21,2]
	cmp	w0, 5
	beq	.L382
.L328:
	.loc 1 1831 0
	adrp	x1, .LC19
	mov	w0, 1
	add	x1, x1, :lo12:.LC19
	.loc 1 1832 0
	mov	w23, 0
	.loc 1 1831 0
	bl	dprint_linux_kernel
.LVL363:
	.loc 1 1832 0
	b	.L377
.LVL364:
.L394:
	.loc 1 1734 0
	orr	w0, w0, 8
	strb	w0, [x21,2488]
	b	.L311
.LVL365:
.L360:
	.loc 1 1823 0
	add	x21, x21, 2488
	ldr	w0, [x23,2808]
	add	x1, x21, 20480
	mov	w2, 1
	str	x5, [x29,104]
	ldr	w1, [x1,1556]
	bl	FSP_ClearLogicFs
.LVL366:
	.loc 1 1824 0
	ldr	x3, [x21,21928]
	.loc 1 1826 0
	adrp	x1, .LC18
	ldr	x5, [x29,104]
.LVL367:
	mov	w0, 0
	add	x1, x1, :lo12:.LC18
	mov	w2, 1826
	.loc 1 1824 0
	strb	wzr, [x3]
	.loc 1 1826 0
	mov	x4, x26
	mov	x3, x24
	.loc 1 1825 0
	ldr	x6, [x21,21928]
	strb	wzr, [x6,1]
	.loc 1 1826 0
	bl	dprint_linux_kernel
.LVL368:
	.loc 1 1827 0
	ldrb	w0, [x21,2]
	cmp	w0, 5
	bne	.L328
.L382:
	.loc 1 1827 0 is_stmt 0 discriminator 1
	add	x21, x21, 32768
	ldr	w0, [x21,3716]
	cmp	w0, wzr
	ble	.L328
	.loc 1 1829 0 is_stmt 1
	sub	w0, w0, #1
	str	w0, [x21,3716]
	b	.L328
.LVL369:
.L338:
.LBB90:
	.loc 1 1905 0
	ldr	w3, [x0,10804]
	.loc 1 1906 0
	add	x1, x0, 8192
	.loc 1 1905 0
	strb	w3, [x2,1027]
	.loc 1 1906 0
	ldr	x2, [x0,21928]
	ldrb	w3, [x1,2569]
	strb	w3, [x2,1028]
	.loc 1 1908 0
	ldrb	w3, [x1,2582]
	.loc 1 1907 0
	ldr	x4, [x0,21928]
	.loc 1 1909 0
	sub	w0, w3, #2
	.loc 1 1907 0
	ldrb	w2, [x1,2609]
	.loc 1 1912 0
	uxtb	w0, w0
	cmp	w0, 1
	bls	.L356
	.loc 1 1912 0 is_stmt 0 discriminator 2
	cmp	w3, 4
	mov	w3, 0
	beq	.L395
.L341:
	.loc 1 1915 0 is_stmt 1
	add	x0, x21, 2488
	.loc 1 1907 0
	add	x1, x4, x2, sxtw
	.loc 1 1915 0
	add	x0, x0, 20480
	.loc 1 1907 0
	strb	w3, [x1,1029]
	.loc 1 1915 0
	ldr	w4, [x0,1564]
	cbz	w4, .L342
	.loc 1 1917 0 discriminator 1
	sub	w4, w4, #1
	cmp	w4, wzr
	mov	w3, w4
	uxtb	w0, w4
	ble	.L344
	add	x1, x22, 98304
	mov	w2, 0
.LVL370:
	add	x1, x1, 4072
.L345:
	.loc 1 1922 0
	ldr	w0, [x1,72]
	add	x1, x1, 56
	.loc 1 1920 0
	strb	w2, [x1,-56]
	.loc 1 1917 0 discriminator 3
	add	w2, w2, 1
	.loc 1 1917 0 is_stmt 0 discriminator 1
	cmp	w2, w3
	.loc 1 1922 0 is_stmt 1
	mul	w0, w19, w0
	sub	w0, w0, #1
	str	w0, [x1,-40]
	.loc 1 1917 0 discriminator 1
	bne	.L345
	uxtb	w0, w2
.L344:
	.loc 1 1925 0
	sxtw	x4, w4
	add	x2, x21, 2488
.LVL371:
	lsl	x1, x4, 6
	.loc 1 1927 0
	sub	w20, w20, #1
.LVL372:
	.loc 1 1925 0
	sub	x4, x1, x4, lsl 3
	add	x19, x2, x4
	add	x1, x19, 20480
	strb	w0, [x1,1584]
	.loc 1 1927 0
	str	w20, [x1,1600]
	.loc 1 1929 0
	ldrb	w1, [x21,2490]
	cmp	w1, 2
	bne	.L340
	.loc 1 1932 0
	add	x3, x2, 8192
	ldr	w0, [x21,13396]
	add	x2, x2, 32768
	ldrb	w3, [x3,2599]
	mul	w0, w3, w0
	asr	w0, w0, 8
	str	w0, [x2,3672]
	.loc 1 1933 0
	sub	w0, w3, w0
	subs	w0, w0, #1
	csel	w0, w0, wzr, pl
	str	w0, [x2,3676]
	b	.L340
.LVL373:
.L393:
.LBE90:
	.loc 1 1942 0
	add	x22, x22, 114688
.LVL374:
	add	x1, x21, 20480
	mov	w2, 1
	ldr	w0, [x22,2808]
	ldr	w1, [x1,1556]
	bl	FSP_ClearLogicFs
.LVL375:
	.loc 1 1943 0
	ldr	x2, [x21,21928]
	.loc 1 1945 0
	adrp	x1, .LC21
	add	x1, x1, :lo12:.LC21
	mov	w0, 1
	.loc 1 1943 0
	strb	wzr, [x2]
	.loc 1 1944 0
	ldr	x2, [x21,21928]
	strb	wzr, [x2,1]
	.loc 1 1945 0
	bl	dprint_linux_kernel
.LVL376:
	.loc 1 1946 0
	b	.L377
.LVL377:
.L342:
.LBB91:
	.loc 1 1915 0 discriminator 4
	mov	w1, 1
	.loc 1 1917 0 discriminator 1
	mov	w4, 0
	.loc 1 1915 0 discriminator 4
	str	w1, [x0,1564]
	mov	w0, 0
	b	.L344
.L356:
	mov	w3, 1
	b	.L341
.L354:
.LBE91:
	mov	w0, 1
	b	.L339
.L392:
	.loc 1 1884 0
	ldrb	w0, [x1,2468]
	sub	w0, w0, #2
	uxtb	w0, w0
	cmp	w0, 1
	cset	w0, ls
	b	.L339
.L395:
.LBB92:
	.loc 1 1911 0
	ldrb	w0, [x1,2583]
	sub	w0, w0, #2
	uxtb	w0, w0
	cmp	w0, 1
	cset	w3, ls
	b	.L341
.L391:
.LBE92:
	.loc 1 1867 0 discriminator 2
	ldr	x0, [x24,296]
	b	.L380
.L334:
	.loc 1 1866 0 discriminator 2
	ldr	w0, [x0,12]
	b	.L335
.LVL378:
.L389:
	.loc 1 1802 0
	ldr	w0, [x23,2808]
	mov	w2, 1
	ldr	w1, [x1,1556]
	.loc 1 1806 0
	mov	w23, 0
	.loc 1 1802 0
	bl	FSP_ClearLogicFs
.LVL379:
	.loc 1 1803 0
	ldr	x2, [x24,21928]
	.loc 1 1805 0
	adrp	x1, .LC17
	add	x1, x1, :lo12:.LC17
	mov	w0, 1
	.loc 1 1803 0
	strb	wzr, [x2]
	.loc 1 1804 0
	ldr	x2, [x24,21928]
	strb	wzr, [x2,1]
	.loc 1 1805 0
	bl	dprint_linux_kernel
.LVL380:
	.loc 1 1806 0
	b	.L377
	.cfi_endproc
.LFE2656:
	.size	VC1_Vfmw_GetStreamInfo, .-VC1_Vfmw_GetStreamInfo
	.align	2
	.global	VC1_Vfmw_PrepareDecode
	.type	VC1_Vfmw_PrepareDecode, %function
VC1_Vfmw_PrepareDecode:
.LFB2657:
	.loc 1 1952 0
	.cfi_startproc
.LVL381:
	stp	x29, x30, [sp, -16]!
	.cfi_def_cfa_offset 16
	.cfi_offset 29, -16
	.cfi_offset 30, -8
	add	x29, sp, 0
	.cfi_def_cfa_register 29
	.loc 1 1953 0
	bl	VC1_Vfmw_GetStreamInfo
.LVL382:
	cmp	w0, wzr
	.loc 1 1962 0
	cset	w0, ne
	ldp	x29, x30, [sp], 16
	.cfi_restore 30
	.cfi_restore 29
	.cfi_def_cfa 31, 0
	ret
	.cfi_endproc
.LFE2657:
	.size	VC1_Vfmw_PrepareDecode, .-VC1_Vfmw_PrepareDecode
	.align	2
	.global	VC1_DecMvrange
	.type	VC1_DecMvrange, %function
VC1_DecMvrange:
.LFB2662:
	.loc 1 2568 0
	.cfi_startproc
.LVL383:
	stp	x29, x30, [sp, -128]!
	.cfi_def_cfa_offset 128
	.cfi_offset 29, -128
	.cfi_offset 30, -120
	.loc 1 2569 0
	mov	w3, 3
	mov	w2, 1
	.loc 1 2568 0
	add	x29, sp, 0
	.cfi_def_cfa_register 29
	stp	x19, x20, [sp,16]
	.cfi_offset 19, -112
	.cfi_offset 20, -104
	adrp	x19, __stack_chk_guard
	.loc 1 2569 0
	mov	w4, 2
	.loc 1 2573 0
	mov	w1, w3
	.loc 1 2568 0
	str	x21, [sp,32]
	.cfi_offset 21, -96
	.loc 1 2569 0
	add	x20, x29, 56
	.loc 1 2568 0
	mov	x21, x0
	ldr	x5, [x19,#:lo12:__stack_chk_guard]
	str	x5, [x29,120]
	.loc 1 2569 0
	str	w2, [x29,60]
	str	w2, [x29,68]
	str	w2, [x29,76]
	str	w2, [x29,84]
	str	w2, [x29,88]
	str	w4, [x29,92]
	str	w2, [x29,96]
	str	w4, [x29,100]
	str	w4, [x29,104]
	str	w3, [x29,108]
	str	w3, [x29,112]
	str	w3, [x29,116]
	str	wzr, [x29,56]
	str	wzr, [x29,64]
	str	wzr, [x29,72]
	str	wzr, [x29,80]
	.loc 1 2573 0
	bl	BsShow
.LVL384:
	.loc 1 2576 0
	sbfiz	x1, x0, 3, 32
	.loc 1 2577 0
	mov	x0, x21
	.loc 1 2576 0
	add	x2, x20, x1
	ldr	w20, [x20,x1]
	.loc 1 2577 0
	ldr	w1, [x2,4]
	bl	BsSkip
.LVL385:
	.loc 1 2579 0
	ldr	x2, [x29,120]
.LVL386:
	mov	w0, w20
	ldr	x1, [x19,#:lo12:__stack_chk_guard]
	cmp	x2, x1
	bne	.L399
	ldp	x19, x20, [sp,16]
	.cfi_remember_state
	.cfi_restore 20
	.cfi_restore 19
.LVL387:
	ldr	x21, [sp,32]
	.cfi_restore 21
.LVL388:
	ldp	x29, x30, [sp], 128
	.cfi_restore 30
	.cfi_restore 29
	.cfi_def_cfa 31, 0
	ret
.LVL389:
.L399:
	.cfi_restore_state
	bl	__stack_chk_fail
.LVL390:
	.cfi_endproc
.LFE2662:
	.size	VC1_DecMvrange, .-VC1_DecMvrange
	.align	2
	.global	VC1_DecTransacfrm
	.type	VC1_DecTransacfrm, %function
VC1_DecTransacfrm:
.LFB2663:
	.loc 1 2582 0
	.cfi_startproc
.LVL391:
	stp	x29, x30, [sp, -128]!
	.cfi_def_cfa_offset 128
	.cfi_offset 29, -128
	.cfi_offset 30, -120
	.loc 1 2583 0
	mov	w2, 2
	mov	w3, 1
	.loc 1 2582 0
	add	x29, sp, 0
	.cfi_def_cfa_register 29
	stp	x19, x20, [sp,16]
	.cfi_offset 19, -112
	.cfi_offset 20, -104
	adrp	x20, __stack_chk_guard
	.loc 1 2583 0
	add	x19, x29, 56
	.loc 1 2582 0
	str	x21, [sp,32]
	.cfi_offset 21, -96
	.loc 1 2585 0
	mov	w1, w2
	.loc 1 2582 0
	mov	x21, x0
	ldr	x4, [x20,#:lo12:__stack_chk_guard]
	.loc 1 2583 0
	stp	xzr, xzr, [x19]
	.loc 1 2582 0
	str	x4, [x29,120]
	.loc 1 2583 0
	stp	xzr, xzr, [x19,32]
	stp	xzr, xzr, [x19,48]
	str	w3, [x29,60]
	str	w3, [x29,68]
	str	w3, [x29,72]
	str	w2, [x29,76]
	str	w2, [x29,80]
	str	w2, [x29,84]
	.loc 1 2585 0
	bl	BsShow
.LVL392:
	.loc 1 2588 0
	sbfiz	x1, x0, 3, 32
	.loc 1 2589 0
	mov	x0, x21
	.loc 1 2588 0
	add	x2, x19, x1
	ldr	w19, [x19,x1]
	.loc 1 2589 0
	ldr	w1, [x2,4]
	bl	BsSkip
.LVL393:
	.loc 1 2591 0
	ldr	x2, [x29,120]
.LVL394:
	mov	w0, w19
	ldr	x1, [x20,#:lo12:__stack_chk_guard]
	cmp	x2, x1
	bne	.L402
	ldp	x19, x20, [sp,16]
	.cfi_remember_state
	.cfi_restore 20
	.cfi_restore 19
.LVL395:
	ldr	x21, [sp,32]
	.cfi_restore 21
.LVL396:
	ldp	x29, x30, [sp], 128
	.cfi_restore 30
	.cfi_restore 29
	.cfi_def_cfa 31, 0
	ret
.LVL397:
.L402:
	.cfi_restore_state
	bl	__stack_chk_fail
.LVL398:
	.cfi_endproc
.LFE2663:
	.size	VC1_DecTransacfrm, .-VC1_DecTransacfrm
	.align	2
	.global	VC1_SetCurPicResolutionInfo
	.type	VC1_SetCurPicResolutionInfo, %function
VC1_SetCurPicResolutionInfo:
.LFB2664:
	.loc 1 2594 0
	.cfi_startproc
.LVL399:
	.loc 1 2596 0
	cmp	w1, 1
	beq	.L405
	cmp	w1, 2
	beq	.L406
	cbz	w1, .L411
	.loc 1 2618 0
	add	x1, x0, 20480
.LVL400:
	add	x0, x0, 32768
.LVL401:
	ldr	w2, [x1,1480]
	add	w2, w2, 1
	add	w2, w2, w2, lsr 31
	asr	w2, w2, 1
.L410:
	str	w2, [x0,3696]
	.loc 1 2619 0
	ldr	w1, [x1,1484]
	add	w1, w1, 1
	add	w1, w1, w1, lsr 31
	asr	w1, w1, 1
	str	w1, [x0,3700]
	.loc 1 2625 0
	mul	w3, w2, w1
	str	w3, [x0,3704]
	.loc 1 2623 0
	lsl	w2, w2, 4
	.loc 1 2624 0
	lsl	w1, w1, 4
	.loc 1 2623 0
	str	w2, [x0,3688]
	.loc 1 2624 0
	str	w1, [x0,3692]
	.loc 1 2626 0
	ret
.LVL402:
.L411:
	.loc 1 2600 0
	add	x1, x0, 20480
.LVL403:
	add	x0, x0, 32768
.LVL404:
	ldr	w2, [x1,1480]
	str	w2, [x0,3696]
	.loc 1 2601 0
	ldr	w1, [x1,1484]
	str	w1, [x0,3700]
	.loc 1 2625 0
	mul	w3, w2, w1
	str	w3, [x0,3704]
	.loc 1 2623 0
	lsl	w2, w2, 4
	.loc 1 2624 0
	lsl	w1, w1, 4
	.loc 1 2623 0
	str	w2, [x0,3688]
	.loc 1 2624 0
	str	w1, [x0,3692]
	.loc 1 2626 0
	ret
.LVL405:
.L406:
	.loc 1 2612 0
	add	x1, x0, 20480
.LVL406:
	add	x0, x0, 32768
.LVL407:
	ldr	w2, [x1,1480]
	b	.L410
.LVL408:
.L405:
	.loc 1 2606 0
	add	x1, x0, 20480
.LVL409:
	add	x0, x0, 32768
.LVL410:
	ldr	w2, [x1,1480]
	add	w2, w2, 1
	add	w2, w2, w2, lsr 31
	asr	w2, w2, 1
	str	w2, [x0,3696]
	.loc 1 2607 0
	ldr	w1, [x1,1484]
	str	w1, [x0,3700]
	.loc 1 2625 0
	mul	w3, w2, w1
	str	w3, [x0,3704]
	.loc 1 2623 0
	lsl	w2, w2, 4
	.loc 1 2624 0
	lsl	w1, w1, 4
	.loc 1 2623 0
	str	w2, [x0,3688]
	.loc 1 2624 0
	str	w1, [x0,3692]
	.loc 1 2626 0
	ret
	.cfi_endproc
.LFE2664:
	.size	VC1_SetCurPicResolutionInfo, .-VC1_SetCurPicResolutionInfo
	.align	2
	.global	VC1_DecMvmodeProgrP
	.type	VC1_DecMvmodeProgrP, %function
VC1_DecMvmodeProgrP:
.LFB2665:
	.loc 1 2629 0
	.cfi_startproc
.LVL411:
	stp	x29, x30, [sp, -112]!
	.cfi_def_cfa_offset 112
	.cfi_offset 29, -112
	.cfi_offset 30, -104
	add	x29, sp, 0
	.cfi_def_cfa_register 29
	stp	x19, x20, [sp,16]
	.cfi_offset 19, -96
	.cfi_offset 20, -88
	adrp	x20, __stack_chk_guard
	.loc 1 2632 0
	mov	w19, 3
	.loc 1 2629 0
	stp	x21, x22, [sp,32]
	.cfi_offset 21, -80
	.cfi_offset 22, -72
	.loc 1 2629 0
	uxtb	w21, w1
.LVL412:
	.loc 1 2631 0
	mov	w1, 4
	.loc 1 2629 0
	ldr	x2, [x20,#:lo12:__stack_chk_guard]
	mov	x22, x0
	str	x2, [x29,104]
	.loc 1 2631 0
	bl	BsShow
.LVL413:
	.loc 1 2632 0
	str	w19, [x29,56]
	mov	w3, 1
	mov	w2, 2
	mov	w1, 4
.LVL414:
	.loc 1 2635 0
	cmp	w0, w3
	.loc 1 2632 0
	str	w3, [x29,60]
	str	w2, [x29,64]
	str	wzr, [x29,68]
	str	w1, [x29,72]
	.loc 1 2633 0
	str	w3, [x29,80]
	str	wzr, [x29,84]
	str	w2, [x29,88]
	str	w19, [x29,92]
	str	w1, [x29,96]
	.loc 1 2635 0
	ble	.L421
	.loc 1 2640 0
	cmp	w0, 3
	ble	.L419
	.loc 1 2653 0
	cmp	w0, 8
	csinc	w1, w2, wzr, lt
.LVL415:
	cmp	w0, 8
	cset	w19, lt
.L414:
	.loc 1 2656 0
	mov	x0, x22
.LVL416:
	bl	BsSkip
.LVL417:
	.loc 1 2657 0
	cmp	w21, 12
	bhi	.L422
.L415:
	.loc 1 2663 0
	add	x0, x29, 80
	ldr	w0, [x0,w19,sxtw 2]
.L416:
	.loc 1 2667 0
	ldr	x2, [x29,104]
	ldr	x1, [x20,#:lo12:__stack_chk_guard]
	cmp	x2, x1
	bne	.L423
	ldp	x19, x20, [sp,16]
	.cfi_remember_state
	.cfi_restore 20
	.cfi_restore 19
	ldp	x21, x22, [sp,32]
	.cfi_restore 22
	.cfi_restore 21
.LVL418:
	ldp	x29, x30, [sp], 112
	.cfi_restore 30
	.cfi_restore 29
	.cfi_def_cfa 31, 0
	ret
.LVL419:
.L419:
	.cfi_restore_state
	.loc 1 2643 0
	mov	w1, w19
.LVL420:
	.loc 1 2656 0
	mov	x0, x22
.LVL421:
	.loc 1 2642 0
	mov	w19, w2
	.loc 1 2656 0
	bl	BsSkip
.LVL422:
	.loc 1 2657 0
	cmp	w21, 12
	bls	.L415
.L422:
	.loc 1 2659 0
	add	x0, x29, 56
	ldr	w0, [x0,w19,sxtw 2]
	b	.L416
.LVL423:
.L421:
	.loc 1 2637 0
	cbz	w0, .L414
.LVL424:
	.loc 1 2637 0 is_stmt 0 discriminator 1
	mov	w19, w1
	b	.L414
.LVL425:
.L423:
	.loc 1 2667 0 is_stmt 1
	bl	__stack_chk_fail
.LVL426:
	.cfi_endproc
.LFE2665:
	.size	VC1_DecMvmodeProgrP, .-VC1_DecMvmodeProgrP
	.align	2
	.global	VC1_DecMvmodeProgrB
	.type	VC1_DecMvmodeProgrB, %function
VC1_DecMvmodeProgrB:
.LFB2666:
	.loc 1 2670 0
	.cfi_startproc
.LVL427:
	stp	x29, x30, [sp, -48]!
	.cfi_def_cfa_offset 48
	.cfi_offset 29, -48
	.cfi_offset 30, -40
	.loc 1 2672 0
	mov	w1, 1
.LVL428:
	.loc 1 2670 0
	add	x29, sp, 0
	.cfi_def_cfa_register 29
	str	x19, [sp,16]
	.cfi_offset 19, -32
	.loc 1 2670 0
	adrp	x19, __stack_chk_guard
	ldr	x2, [x19,#:lo12:__stack_chk_guard]
	str	x2, [x29,40]
	.loc 1 2672 0
	bl	BsSkip
.LVL429:
	.loc 1 2676 0
	ldr	x2, [x29,40]
	.loc 1 2673 0
	mov	w3, 3
	.loc 1 2676 0
	ldr	x1, [x19,#:lo12:__stack_chk_guard]
	.loc 1 2673 0
	str	w3, [x29,32]
	.loc 1 2674 0
	add	x3, x29, 48
	.loc 1 2676 0
	cmp	x2, x1
	.loc 1 2674 0
	add	x0, x3, x0, sxtw 2
	.loc 1 2673 0
	mov	w3, 1
	str	w3, [x29,36]
	.loc 1 2676 0
	ldr	w0, [x0,-16]
	bne	.L426
	ldr	x19, [sp,16]
	.cfi_remember_state
	.cfi_restore 19
	ldp	x29, x30, [sp], 48
	.cfi_restore 30
	.cfi_restore 29
	.cfi_def_cfa 31, 0
	ret
.L426:
	.cfi_restore_state
	bl	__stack_chk_fail
.LVL430:
	.cfi_endproc
.LFE2666:
	.size	VC1_DecMvmodeProgrB, .-VC1_DecMvmodeProgrB
	.align	2
	.global	VC1_DecMvmodeInterB
	.type	VC1_DecMvmodeInterB, %function
VC1_DecMvmodeInterB:
.LFB2667:
	.loc 1 2679 0
	.cfi_startproc
.LVL431:
	stp	x29, x30, [sp, -96]!
	.cfi_def_cfa_offset 96
	.cfi_offset 29, -96
	.cfi_offset 30, -88
	add	x29, sp, 0
	.cfi_def_cfa_register 29
	stp	x19, x20, [sp,16]
	.cfi_offset 19, -80
	.cfi_offset 20, -72
	adrp	x20, __stack_chk_guard
	stp	x21, x22, [sp,32]
	.cfi_offset 21, -64
	.cfi_offset 22, -56
	.loc 1 2679 0
	uxtb	w21, w1
.LVL432:
	.loc 1 2681 0
	mov	w1, 3
	.loc 1 2679 0
	ldr	x2, [x20,#:lo12:__stack_chk_guard]
	mov	x22, x0
	str	x2, [x29,88]
	.loc 1 2681 0
	bl	BsShow
.LVL433:
	.loc 1 2682 0
	str	wzr, [x29,60]
	.loc 1 2683 0
	stp	xzr, xzr, [x29,64]
	.loc 1 2682 0
	mov	w3, 1
	mov	w1, 3
	mov	w2, 2
	str	w1, [x29,48]
	str	w3, [x29,52]
.LVL434:
	.loc 1 2685 0
	cmp	w0, w3
	.loc 1 2682 0
	str	w2, [x29,56]
	.loc 1 2683 0
	str	wzr, [x29,80]
	str	w3, [x29,64]
	str	w2, [x29,72]
	str	w1, [x29,76]
	.loc 1 2685 0
	ble	.L436
	.loc 1 2698 0
	cmp	w0, 4
	csinc	w1, w2, wzr, lt
.LVL435:
	cmp	w0, 4
	cset	w19, lt
.L429:
	.loc 1 2701 0
	mov	x0, x22
.LVL436:
	bl	BsSkip
.LVL437:
	.loc 1 2702 0
	cmp	w21, 12
	bhi	.L437
	.loc 1 2708 0
	add	x0, x29, 64
	ldr	w0, [x0,w19,sxtw 2]
.L431:
	.loc 1 2712 0
	ldr	x2, [x29,88]
	ldr	x1, [x20,#:lo12:__stack_chk_guard]
	cmp	x2, x1
	bne	.L438
	ldp	x19, x20, [sp,16]
	.cfi_remember_state
	.cfi_restore 20
	.cfi_restore 19
	ldp	x21, x22, [sp,32]
	.cfi_restore 22
	.cfi_restore 21
.LVL438:
	ldp	x29, x30, [sp], 96
	.cfi_restore 30
	.cfi_restore 29
	.cfi_def_cfa 31, 0
	ret
.LVL439:
.L437:
	.cfi_restore_state
	.loc 1 2704 0
	add	x0, x29, 96
	sbfiz	x19, x19, 2, 32
	add	x19, x0, x19
	ldr	w0, [x19,-48]
	b	.L431
.LVL440:
.L436:
	.loc 1 2687 0 discriminator 2
	mov	w19, w1
	.loc 1 2687 0 is_stmt 0
	cbz	w0, .L429
	.loc 1 2687 0 discriminator 1
	mov	w19, w2
	b	.L429
.LVL441:
.L438:
	.loc 1 2712 0 is_stmt 1
	bl	__stack_chk_fail
.LVL442:
	.cfi_endproc
.LFE2667:
	.size	VC1_DecMvmodeInterB, .-VC1_DecMvmodeInterB
	.align	2
	.global	VC1_DecMvmode2
	.type	VC1_DecMvmode2, %function
VC1_DecMvmode2:
.LFB2668:
	.loc 1 2715 0
	.cfi_startproc
.LVL443:
	stp	x29, x30, [sp, -96]!
	.cfi_def_cfa_offset 96
	.cfi_offset 29, -96
	.cfi_offset 30, -88
	add	x29, sp, 0
	.cfi_def_cfa_register 29
	stp	x19, x20, [sp,16]
	.cfi_offset 19, -80
	.cfi_offset 20, -72
	adrp	x20, __stack_chk_guard
	stp	x21, x22, [sp,32]
	.cfi_offset 21, -64
	.cfi_offset 22, -56
	.loc 1 2715 0
	uxtb	w21, w1
.LVL444:
	.loc 1 2717 0
	mov	w1, 3
	.loc 1 2715 0
	ldr	x2, [x20,#:lo12:__stack_chk_guard]
	mov	x22, x0
	str	x2, [x29,88]
	.loc 1 2717 0
	bl	BsShow
.LVL445:
	.loc 1 2718 0
	str	wzr, [x29,68]
	mov	w3, 1
	mov	w1, 3
	mov	w2, 2
	str	w1, [x29,56]
	str	w3, [x29,60]
.LVL446:
	.loc 1 2721 0
	cmp	w0, w3
	.loc 1 2718 0
	str	w2, [x29,64]
	.loc 1 2719 0
	str	w3, [x29,72]
	str	wzr, [x29,76]
	str	w2, [x29,80]
	str	w1, [x29,84]
	.loc 1 2721 0
	ble	.L448
	.loc 1 2734 0
	cmp	w0, 4
	csinc	w1, w2, wzr, lt
.LVL447:
	cmp	w0, 4
	cset	w19, lt
.L441:
	.loc 1 2737 0
	mov	x0, x22
.LVL448:
	bl	BsSkip
.LVL449:
	.loc 1 2738 0
	cmp	w21, 12
	bhi	.L449
	.loc 1 2744 0
	add	x0, x29, 72
	ldr	w0, [x0,w19,sxtw 2]
.L443:
	.loc 1 2748 0
	ldr	x2, [x29,88]
	ldr	x1, [x20,#:lo12:__stack_chk_guard]
	cmp	x2, x1
	bne	.L450
	ldp	x19, x20, [sp,16]
	.cfi_remember_state
	.cfi_restore 20
	.cfi_restore 19
	ldp	x21, x22, [sp,32]
	.cfi_restore 22
	.cfi_restore 21
.LVL450:
	ldp	x29, x30, [sp], 96
	.cfi_restore 30
	.cfi_restore 29
	.cfi_def_cfa 31, 0
	ret
.LVL451:
.L449:
	.cfi_restore_state
	.loc 1 2740 0
	add	x0, x29, 56
	ldr	w0, [x0,w19,sxtw 2]
	b	.L443
.LVL452:
.L448:
	.loc 1 2723 0 discriminator 2
	mov	w19, w1
	.loc 1 2723 0 is_stmt 0
	cbz	w0, .L441
	.loc 1 2723 0 discriminator 1
	mov	w19, w2
	b	.L441
.LVL453:
.L450:
	.loc 1 2748 0 is_stmt 1
	bl	__stack_chk_fail
.LVL454:
	.cfi_endproc
.LFE2668:
	.size	VC1_DecMvmode2, .-VC1_DecMvmode2
	.align	2
	.global	VC1_DecBfractionSMP
	.type	VC1_DecBfractionSMP, %function
VC1_DecBfractionSMP:
.LFB2669:
	.loc 1 2751 0
	.cfi_startproc
.LVL455:
	stp	x29, x30, [sp, -304]!
	.cfi_def_cfa_offset 304
	.cfi_offset 29, -304
	.cfi_offset 30, -296
	.loc 1 2753 0
	mov	w4, 1
	.loc 1 2754 0
	mov	w3, 5
	.loc 1 2751 0
	add	x29, sp, 0
	.cfi_def_cfa_register 29
	stp	x23, x24, [sp,48]
	.cfi_offset 23, -256
	.cfi_offset 24, -248
	adrp	x23, __stack_chk_guard
	.loc 1 2753 0
	mov	w6, 2
	.loc 1 2751 0
	stp	x19, x20, [sp,16]
	stp	x21, x22, [sp,32]
	ldr	x5, [x23,#:lo12:__stack_chk_guard]
	.loc 1 2755 0
	mov	w7, 6
	.loc 1 2751 0
	stp	x25, x26, [sp,64]
	.cfi_offset 19, -288
	.cfi_offset 20, -280
	.cfi_offset 21, -272
	.cfi_offset 22, -264
	.cfi_offset 25, -240
	.cfi_offset 26, -232
	.loc 1 2751 0
	str	x5, [x29,296]
	mov	x25, x2
	.loc 1 2753 0
	str	w4, [x29,88]
	.loc 1 2757 0
	mov	w2, 256
.LVL456:
	.loc 1 2753 0
	str	w4, [x29,92]
	mov	w20, 3
	str	w6, [x29,96]
	.loc 1 2756 0
	mov	w5, 8
	.loc 1 2753 0
	str	w4, [x29,100]
	.loc 1 2751 0
	mov	x24, x1
	.loc 1 2753 0
	str	w4, [x29,108]
	.loc 1 2760 0
	mov	w1, w20
.LVL457:
	.loc 1 2753 0
	str	w6, [x29,112]
	.loc 1 2755 0
	mov	w19, 7
	.loc 1 2754 0
	str	w6, [x29,120]
	mov	w22, 4
	str	w3, [x29,140]
	.loc 1 2751 0
	mov	x26, x0
	.loc 1 2754 0
	str	w3, [x29,144]
	.loc 1 2755 0
	str	w4, [x29,192]
	str	w3, [x29,196]
	str	w4, [x29,200]
	str	w6, [x29,204]
	str	w3, [x29,216]
	str	w7, [x29,220]
	str	w4, [x29,224]
	str	w3, [x29,232]
	.loc 1 2756 0
	str	w3, [x29,240]
	str	w3, [x29,244]
	str	w7, [x29,248]
	.loc 1 2753 0
	str	w20, [x29,104]
	.loc 1 2757 0
	str	w2, [x29,152]
	mov	w2, 128
	str	w2, [x29,156]
	mov	w2, 85
	str	w2, [x29,160]
	mov	w2, 64
	str	w2, [x29,164]
	mov	w2, 51
	str	w2, [x29,168]
	mov	w2, 43
	str	w2, [x29,172]
	mov	w2, 37
	str	w2, [x29,176]
	mov	w2, 32
	.loc 1 2754 0
	str	w20, [x29,124]
	str	w20, [x29,128]
	str	w22, [x29,132]
	str	w22, [x29,136]
	.loc 1 2755 0
	str	w20, [x29,184]
	str	w22, [x29,188]
	str	w20, [x29,208]
	str	w22, [x29,212]
	str	w20, [x29,228]
	str	w19, [x29,236]
	.loc 1 2756 0
	str	w7, [x29,252]
	str	w19, [x29,256]
	str	w19, [x29,260]
	str	w19, [x29,264]
	str	w19, [x29,268]
	str	w19, [x29,272]
	str	w19, [x29,276]
	str	w5, [x29,280]
	str	w5, [x29,284]
	str	w5, [x29,288]
	str	w5, [x29,292]
	.loc 1 2757 0
	str	w2, [x29,180]
	.loc 1 2760 0
	bl	BsShow
.LVL458:
	mov	w21, w0
.LVL459:
	.loc 1 2763 0
	mov	x0, x26
	.loc 1 2761 0
	cmp	w21, 6
	bgt	.L452
	.loc 1 2763 0
	mov	w1, w20
	bl	BsSkip
.LVL460:
	.loc 1 2765 0
	add	x0, x29, 88
	ldr	w22, [x0,w21,sxtw 2]
	.loc 1 2766 0
	add	x0, x29, 120
	ldr	w1, [x0,w21,sxtw 2]
.L453:
.LVL461:
	.loc 1 2781 0
	sub	w1, w1, #1
.LVL462:
	.loc 1 2782 0
	add	x2, x29, 152
	.loc 1 2785 0
	mov	w0, w21
	.loc 1 2782 0
	ldr	w1, [x2,w1,sxtw 2]
.LVL463:
	mul	w1, w22, w1
.LVL464:
	.loc 1 2783 0
	str	w1, [x24]
.L455:
	.loc 1 2786 0
	ldr	x2, [x29,296]
	ldr	x1, [x23,#:lo12:__stack_chk_guard]
.LVL465:
	cmp	x2, x1
	bne	.L457
	ldp	x19, x20, [sp,16]
	.cfi_remember_state
	.cfi_restore 20
	.cfi_restore 19
	ldp	x21, x22, [sp,32]
	.cfi_restore 22
	.cfi_restore 21
.LVL466:
	ldp	x23, x24, [sp,48]
	.cfi_restore 24
	.cfi_restore 23
.LVL467:
	ldp	x25, x26, [sp,64]
	.cfi_restore 26
	.cfi_restore 25
.LVL468:
	ldp	x29, x30, [sp], 304
	.cfi_restore 30
	.cfi_restore 29
	.cfi_def_cfa 31, 0
	ret
.LVL469:
.L452:
	.cfi_restore_state
	.loc 1 2770 0
	mov	w1, w19
	bl	BsGet
.LVL470:
	.loc 1 2771 0
	and	w21, w0, 15
.LVL471:
	cmp	w21, 15
	beq	.L458
	.loc 1 2777 0
	sub	w0, w0, #112
.LVL472:
	add	x1, x29, 184
	.loc 1 2776 0
	add	w21, w21, 7
.LVL473:
	.loc 1 2777 0
	ldr	w22, [x1,w0,sxtw 2]
	.loc 1 2778 0
	add	x1, x29, 240
	ldr	w1, [x1,w0,sxtw 2]
	b	.L453
.LVL474:
.L458:
	.loc 1 2773 0
	strb	w22, [x25]
	.loc 1 2774 0
	mov	w0, 22
.LVL475:
	b	.L455
.LVL476:
.L457:
	.loc 1 2786 0
	bl	__stack_chk_fail
.LVL477:
	.cfi_endproc
.LFE2669:
	.size	VC1_DecBfractionSMP, .-VC1_DecBfractionSMP
	.align	2
	.global	VC1_DecBfraction
	.type	VC1_DecBfraction, %function
VC1_DecBfraction:
.LFB2670:
	.loc 1 2789 0
	.cfi_startproc
.LVL478:
	stp	x29, x30, [sp, -288]!
	.cfi_def_cfa_offset 288
	.cfi_offset 29, -288
	.cfi_offset 30, -280
	.loc 1 2791 0
	mov	w3, 1
	.loc 1 2792 0
	mov	w2, 5
	.loc 1 2789 0
	add	x29, sp, 0
	.cfi_def_cfa_register 29
	stp	x21, x22, [sp,32]
	.cfi_offset 21, -256
	.cfi_offset 22, -248
	adrp	x22, __stack_chk_guard
	.loc 1 2791 0
	mov	w6, 2
	.loc 1 2792 0
	mov	w5, 4
	.loc 1 2793 0
	mov	w7, 6
	.loc 1 2789 0
	stp	x19, x20, [sp,16]
	ldr	x4, [x22,#:lo12:__stack_chk_guard]
	.cfi_offset 19, -272
	.cfi_offset 20, -264
	.loc 1 2791 0
	mov	w20, 3
	.loc 1 2789 0
	stp	x23, x24, [sp,48]
	.cfi_offset 23, -240
	.cfi_offset 24, -232
	.loc 1 2789 0
	str	x4, [x29,280]
	mov	x23, x1
	.loc 1 2791 0
	str	w3, [x29,72]
	.loc 1 2794 0
	mov	w4, 8
	.loc 1 2791 0
	str	w3, [x29,76]
	.loc 1 2798 0
	mov	w1, w20
.LVL479:
	.loc 1 2791 0
	str	w6, [x29,80]
	.loc 1 2793 0
	mov	w19, 7
	.loc 1 2791 0
	str	w3, [x29,84]
	.loc 1 2789 0
	mov	x24, x0
	.loc 1 2791 0
	str	w3, [x29,92]
	str	w6, [x29,96]
	.loc 1 2792 0
	str	w6, [x29,104]
	str	w5, [x29,116]
	str	w5, [x29,120]
	str	w2, [x29,124]
	str	w2, [x29,128]
	.loc 1 2793 0
	str	w5, [x29,172]
	str	w3, [x29,176]
	str	w2, [x29,180]
	str	w3, [x29,184]
	str	w6, [x29,188]
	str	w5, [x29,196]
	str	w2, [x29,200]
	str	w7, [x29,204]
	str	w3, [x29,208]
	str	w2, [x29,216]
	.loc 1 2794 0
	str	w2, [x29,224]
	str	w2, [x29,228]
	.loc 1 2795 0
	mov	w2, 256
	str	w2, [x29,136]
	mov	w2, 128
	str	w2, [x29,140]
	mov	w2, 85
	str	w2, [x29,144]
	mov	w2, 64
	str	w2, [x29,148]
	mov	w2, 51
	str	w2, [x29,152]
	mov	w2, 43
	str	w2, [x29,156]
	mov	w2, 37
	str	w2, [x29,160]
	mov	w2, 32
	.loc 1 2794 0
	str	w7, [x29,232]
	.loc 1 2791 0
	str	w20, [x29,88]
	.loc 1 2792 0
	str	w20, [x29,108]
	str	w20, [x29,112]
	.loc 1 2793 0
	str	w20, [x29,168]
	str	w20, [x29,192]
	str	w20, [x29,212]
	str	w19, [x29,220]
	.loc 1 2794 0
	str	w7, [x29,236]
	str	w19, [x29,240]
	str	w19, [x29,244]
	str	w19, [x29,248]
	str	w19, [x29,252]
	str	w19, [x29,256]
	str	w19, [x29,260]
	str	w4, [x29,264]
	str	w4, [x29,268]
	str	w4, [x29,272]
	str	w4, [x29,276]
	.loc 1 2795 0
	str	w2, [x29,164]
	.loc 1 2798 0
	bl	BsShow
.LVL480:
	mov	w21, w0
.LVL481:
	.loc 1 2801 0
	mov	x0, x24
	.loc 1 2799 0
	cmp	w21, 6
	ble	.L463
	.loc 1 2808 0
	mov	w1, w19
	bl	BsGet
.LVL482:
	.loc 1 2810 0
	sub	w2, w0, #112
	.loc 1 2809 0
	and	w0, w0, 15
.LVL483:
	add	w21, w0, 7
	.loc 1 2810 0
	add	x0, x29, 168
	ldr	w1, [x0,w2,sxtw 2]
	.loc 1 2811 0
	add	x0, x29, 224
	ldr	w2, [x0,w2,sxtw 2]
.L461:
.LVL484:
	.loc 1 2814 0
	sub	w2, w2, #1
.LVL485:
	.loc 1 2815 0
	add	x4, x29, 136
	.loc 1 2819 0
	ldr	x3, [x29,280]
	mov	w0, w21
	.loc 1 2815 0
	ldr	w2, [x4,w2,sxtw 2]
.LVL486:
	mul	w1, w1, w2
.LVL487:
	.loc 1 2816 0
	str	w1, [x23]
	.loc 1 2819 0
	ldr	x1, [x22,#:lo12:__stack_chk_guard]
.LVL488:
	cmp	x3, x1
	bne	.L464
	ldp	x19, x20, [sp,16]
	.cfi_remember_state
	.cfi_restore 20
	.cfi_restore 19
	ldp	x21, x22, [sp,32]
	.cfi_restore 22
	.cfi_restore 21
.LVL489:
	ldp	x23, x24, [sp,48]
	.cfi_restore 24
	.cfi_restore 23
.LVL490:
	ldp	x29, x30, [sp], 288
	.cfi_restore 30
	.cfi_restore 29
	.cfi_def_cfa 31, 0
	ret
.LVL491:
.L463:
	.cfi_restore_state
	.loc 1 2801 0
	mov	w1, w20
	bl	BsSkip
.LVL492:
	.loc 1 2803 0
	add	x0, x29, 72
	ldr	w1, [x0,w21,sxtw 2]
	.loc 1 2804 0
	add	x0, x29, 104
	ldr	w2, [x0,w21,sxtw 2]
	b	.L461
.L464:
	.loc 1 2819 0
	bl	__stack_chk_fail
.LVL493:
	.cfi_endproc
.LFE2670:
	.size	VC1_DecBfraction, .-VC1_DecBfraction
	.align	2
	.global	VC1_VopDQuant
	.type	VC1_VopDQuant, %function
VC1_VopDQuant:
.LFB2671:
	.loc 1 2823 0
	.cfi_startproc
.LVL494:
	stp	x29, x30, [sp, -48]!
	.cfi_def_cfa_offset 48
	.cfi_offset 29, -48
	.cfi_offset 30, -40
	uxtb	w1, w1
	add	x29, sp, 0
	.cfi_def_cfa_register 29
	stp	x19, x20, [sp,16]
	stp	x21, x22, [sp,32]
	.cfi_offset 19, -32
	.cfi_offset 20, -24
	.cfi_offset 21, -16
	.cfi_offset 22, -8
	.loc 1 2824 0
	cmp	w1, 2
	.loc 1 2823 0
	mov	x22, x0
	uxtb	w20, w2
.LVL495:
	mov	x19, x3
	.loc 1 2824 0
	beq	.L483
	.loc 1 2843 0
	mov	w1, 1
.LVL496:
	bl	BsGet
.LVL497:
	uxtb	w21, w0
	.loc 1 2844 0
	cmp	w21, 1
	.loc 1 2843 0
	strb	w21, [x19]
	.loc 1 2844 0
	beq	.L484
.L469:
	.loc 1 2891 0
	mov	w0, 1
	ldp	x19, x20, [sp,16]
	.cfi_remember_state
	.cfi_restore 20
	.cfi_restore 19
.LVL498:
	ldp	x21, x22, [sp,32]
	.cfi_restore 22
	.cfi_restore 21
.LVL499:
	ldp	x29, x30, [sp], 48
	.cfi_restore 30
	.cfi_restore 29
	.cfi_def_cfa 31, 0
	ret
.LVL500:
.L483:
	.cfi_restore_state
	.loc 1 2826 0
	mov	w2, 1
	.loc 1 2829 0
	mov	w1, 3
.LVL501:
	.loc 1 2826 0
	strb	w2, [x3,3]
	.loc 1 2828 0
	strb	w2, [x3]
	.loc 1 2829 0
	bl	BsGet
.LVL502:
	uxtb	w0, w0
	.loc 1 2830 0
	cmp	w0, 7
	.loc 1 2829 0
	strb	w0, [x19,4]
	.loc 1 2830 0
	beq	.L485
	add	w20, w20, 1
.LVL503:
	.loc 1 2837 0
	add	w0, w0, w20
	strb	w0, [x19,8]
.LVL504:
.L468:
	.loc 1 2839 0
	mov	w0, 1
	str	w0, [x19,12]
	.loc 1 2891 0
	mov	w0, 1
	ldp	x19, x20, [sp,16]
	.cfi_remember_state
	.cfi_restore 19
	.cfi_restore 20
.LVL505:
	ldp	x21, x22, [sp,32]
	.cfi_restore 21
	.cfi_restore 22
.LVL506:
	ldp	x29, x30, [sp], 48
	.cfi_restore 29
	.cfi_restore 30
	.cfi_def_cfa 31, 0
	ret
.LVL507:
.L484:
	.cfi_restore_state
.LBB95:
.LBB96:
	.loc 1 2846 0
	mov	w1, 2
	mov	x0, x22
	bl	BsGet
.LVL508:
	uxtb	w1, w0
	strb	w1, [x19,1]
	.loc 1 2847 0
	cbnz	w1, .L471
	.loc 1 2850 0
	str	w21, [x19,12]
.L472:
	.loc 1 2872 0
	ldr	w0, [x19]
	and	w0, w0, 16776960
	cmp	w0, 768
	beq	.L469
	.loc 1 2875 0
	mov	w1, 1
	.loc 1 2876 0
	mov	x0, x22
	.loc 1 2875 0
	strb	w1, [x19,3]
	.loc 1 2876 0
	mov	w1, 3
	bl	BsGet
.LVL509:
	uxtb	w0, w0
	.loc 1 2877 0
	cmp	w0, 7
	.loc 1 2876 0
	strb	w0, [x19,4]
	.loc 1 2877 0
	beq	.L486
	add	w20, w20, 1
.LVL510:
	.loc 1 2884 0
	add	w0, w0, w20
	strb	w0, [x19,8]
	b	.L469
.LVL511:
.L471:
	.loc 1 2852 0
	cmp	w1, 2
	beq	.L487
	.loc 1 2857 0
	cmp	w1, 1
	beq	.L488
	.loc 1 2862 0
	cmp	w1, 3
	beq	.L489
	.loc 1 2869 0
	str	wzr, [x19,12]
	b	.L472
.L489:
	.loc 1 2864 0
	mov	w1, w21
	mov	x0, x22
	bl	BsGet
.LVL512:
	uxtb	w0, w0
	.loc 1 2865 0 discriminator 2
	cmp	w0, wzr
	.loc 1 2864 0
	strb	w0, [x19,2]
	.loc 1 2865 0 discriminator 2
	mov	w1, 11
	mov	w0, 10
	csel	w0, w0, w1, ne
	.loc 1 2865 0 is_stmt 0 discriminator 4
	str	w0, [x19,12]
	b	.L472
.L485:
.LBE96:
.LBE95:
	.loc 1 2832 0 is_stmt 1
	mov	x0, x22
	mov	w1, 5
	bl	BsGet
.LVL513:
	uxtb	w0, w0
	strb	w0, [x19,5]
	.loc 1 2833 0
	strb	w0, [x19,8]
	b	.L468
.L487:
.LBB98:
.LBB97:
	.loc 1 2854 0
	mov	x0, x22
	bl	BsGet
.LVL514:
	.loc 1 2855 0
	and	w1, w0, 255
	.loc 1 2854 0
	strb	w0, [x19,6]
	.loc 1 2855 0
	add	w0, w1, 6
	str	w0, [x19,12]
	b	.L472
.L488:
	.loc 1 2859 0
	mov	w1, 2
	mov	x0, x22
	bl	BsGet
.LVL515:
	.loc 1 2860 0
	and	w1, w0, 255
	.loc 1 2859 0
	strb	w0, [x19,7]
	.loc 1 2860 0
	add	w0, w1, 2
	str	w0, [x19,12]
	b	.L472
.L486:
	.loc 1 2879 0
	mov	x0, x22
	mov	w1, 5
	bl	BsGet
.LVL516:
	uxtb	w0, w0
	strb	w0, [x19,5]
	.loc 1 2880 0
	strb	w0, [x19,8]
	b	.L469
.LBE97:
.LBE98:
	.cfi_endproc
.LFE2671:
	.size	VC1_VopDQuant, .-VC1_VopDQuant
	.align	2
	.global	VC1_DecNormDiff6Tile
	.type	VC1_DecNormDiff6Tile, %function
VC1_DecNormDiff6Tile:
.LFB2672:
	.loc 1 2937 0
	.cfi_startproc
.LVL517:
	stp	x29, x30, [sp, -64]!
	.cfi_def_cfa_offset 64
	.cfi_offset 29, -64
	.cfi_offset 30, -56
	add	x29, sp, 0
	.cfi_def_cfa_register 29
	stp	x19, x20, [sp,16]
	stp	x21, x22, [sp,32]
	stp	x23, x24, [sp,48]
	.cfi_offset 19, -48
	.cfi_offset 20, -40
	.cfi_offset 21, -32
	.cfi_offset 22, -24
	.cfi_offset 23, -16
	.cfi_offset 24, -8
	.loc 1 2937 0
	mov	x20, x0
	mov	x23, x1
	.loc 1 2938 0
	mov	w22, 0
	.loc 1 2940 0
	ldr	w24, [x1]
	b	.L491
.LVL518:
.L501:
	.loc 1 2972 0
	mov	w22, w19
.L491:
	.loc 1 2946 0
	mov	w1, 1
	mov	x0, x20
	bl	BsGet
.LVL519:
	mov	w21, w0
	.loc 1 2952 0
	mov	w1, 3
	mov	x0, x20
	.loc 1 2946 0
	cbnz	w21, .L500
	.loc 1 2952 0
	bl	BsGet
.LVL520:
	.loc 1 2953 0
	cmp	w0, 1
	.loc 1 2952 0
	mov	w19, w0
	.loc 1 2963 0
	mov	x0, x20
	mov	w1, w19
	.loc 1 2953 0
	bgt	.L510
	.loc 1 2960 0
	bne	.L494
	.loc 1 2963 0
	bl	BsGet
.LVL521:
	cbz	w0, .L495
	.loc 1 2966 0
	cbz	w22, .L501
.L507:
	.loc 1 3002 0
	str	w24, [x23]
	.loc 1 3016 0
	mov	w0, w21
	ldp	x19, x20, [sp,16]
	.cfi_remember_state
	.cfi_restore 20
	.cfi_restore 19
.LVL522:
	ldp	x21, x22, [sp,32]
	.cfi_restore 22
	.cfi_restore 21
	ldp	x23, x24, [sp,48]
	.cfi_restore 24
	.cfi_restore 23
.LVL523:
	ldp	x29, x30, [sp], 64
	.cfi_restore 30
	.cfi_restore 29
	.cfi_def_cfa 31, 0
	ret
.LVL524:
.L500:
	.cfi_restore_state
	.loc 1 2948 0
	mov	w0, 0
.L492:
	.loc 1 3011 0
	eor	w1, w0, 63
	cmp	w22, wzr
	csel	w0, w1, w0, ne
	.loc 1 3015 0
	mov	w21, 1
	.loc 1 3014 0
	str	w0, [x23]
.L512:
	.loc 1 3016 0
	mov	w0, w21
	ldp	x19, x20, [sp,16]
	.cfi_remember_state
	.cfi_restore 19
	.cfi_restore 20
.LVL525:
	ldp	x21, x22, [sp,32]
	.cfi_restore 21
	.cfi_restore 22
	ldp	x23, x24, [sp,48]
	.cfi_restore 23
	.cfi_restore 24
.LVL526:
	ldp	x29, x30, [sp], 64
	.cfi_restore 29
	.cfi_restore 30
	.cfi_def_cfa 31, 0
	ret
.LVL527:
.L510:
	.cfi_restore_state
	.loc 1 2956 0
	sub	w19, w19, #2
	mov	w0, 1
	lsl	w0, w0, w19
	.loc 1 2957 0
	b	.L492
.L494:
	.loc 1 2999 0
	mov	x0, x20
	mov	w1, 4
	bl	BsGet
.LVL528:
	.loc 1 3000 0
	cmp	w0, 255
	beq	.L507
	.loc 1 3006 0
	adrp	x1, .LANCHOR0
	add	x1, x1, :lo12:.LANCHOR0
	add	x1, x1, 144
	ldr	w0, [x1,w0,sxtw 2]
	b	.L492
.L495:
	.loc 1 2978 0
	mov	w1, 5
	mov	x0, x20
	bl	BsGet
.LVL529:
	.loc 1 2979 0
	adrp	x1, .LANCHOR0
	add	x1, x1, :lo12:.LANCHOR0
	add	x1, x1, 16
	ldr	w1, [x1,w0,sxtw 2]
	.loc 1 2980 0
	cmp	w1, 2
	beq	.L511
	.loc 1 2984 0
	cmp	w1, 3
	beq	.L492
	.loc 1 3014 0
	str	w0, [x23]
	b	.L512
.L511:
	.loc 1 2982 0
	orr	w0, w0, 32
	b	.L492
	.cfi_endproc
.LFE2672:
	.size	VC1_DecNormDiff6Tile, .-VC1_DecNormDiff6Tile
	.align	2
	.global	VC1_Vfmw_ParseAdvSeqHdr
	.type	VC1_Vfmw_ParseAdvSeqHdr, %function
VC1_Vfmw_ParseAdvSeqHdr:
.LFB2677:
	.loc 1 3688 0
	.cfi_startproc
.LVL530:
	stp	x29, x30, [sp, -48]!
	.cfi_def_cfa_offset 48
	.cfi_offset 29, -48
	.cfi_offset 30, -40
	add	x29, sp, 0
	.cfi_def_cfa_register 29
	stp	x19, x20, [sp,16]
	.cfi_offset 19, -32
	.cfi_offset 20, -24
	.loc 1 3692 0
	add	x19, x2, 16
	.loc 1 3688 0
	mov	x20, x0
	stp	x21, x22, [sp,32]
	.cfi_offset 21, -16
	.cfi_offset 22, -8
	.loc 1 3692 0
	stp	xzr, xzr, [x2,16]
	stp	xzr, xzr, [x19,16]
	stp	xzr, xzr, [x19,32]
	stp	xzr, xzr, [x19,48]
	stp	xzr, xzr, [x19,64]
	stp	xzr, xzr, [x19,80]
	stp	xzr, xzr, [x19,96]
	stp	xzr, xzr, [x19,112]
	stp	xzr, xzr, [x19,128]
	stp	xzr, xzr, [x19,144]
	str	xzr, [x19,160]
	.loc 1 3688 0
	mov	x21, x2
	.loc 1 3692 0
	str	wzr, [x19,168]
	.loc 1 3694 0
	bl	BsPos
.LVL531:
	str	w0, [x19,168]
	.loc 1 3695 0
	mov	w1, 2
	mov	x0, x20
	bl	BsGet
.LVL532:
	.loc 1 3696 0
	mov	w0, 2
	.loc 1 3697 0
	mov	w1, 3
	.loc 1 3696 0
	strb	w0, [x21,16]
	.loc 1 3697 0
	mov	x0, x20
	bl	BsGet
.LVL533:
	strb	w0, [x19,1]
	.loc 1 3698 0
	mov	w1, 2
	mov	x0, x20
	bl	BsGet
.LVL534:
	strb	w0, [x19,2]
	.loc 1 3699 0
	mov	w1, 3
	mov	x0, x20
	bl	BsGet
.LVL535:
	strb	w0, [x19,3]
	.loc 1 3700 0
	mov	w1, 5
	mov	x0, x20
	bl	BsGet
.LVL536:
	strb	w0, [x19,4]
	.loc 1 3701 0
	mov	w1, 1
	mov	x0, x20
	bl	BsGet
.LVL537:
	strb	w0, [x19,5]
	.loc 1 3702 0
	mov	w1, 12
	mov	x0, x20
	bl	BsGet
.LVL538:
	uxth	w0, w0
	add	w2, w0, 1
	.loc 1 3703 0
	mov	w1, 12
	.loc 1 3702 0
	lsl	w2, w2, 1
	.loc 1 3703 0
	mov	x0, x20
	.loc 1 3702 0
	strh	w2, [x19,156]
	.loc 1 3703 0
	bl	BsGet
.LVL539:
	uxth	w0, w0
	add	w2, w0, 1
	.loc 1 3705 0
	mov	w1, 1
	.loc 1 3703 0
	lsl	w2, w2, 1
	.loc 1 3705 0
	mov	x0, x20
	.loc 1 3703 0
	strh	w2, [x19,158]
	.loc 1 3705 0
	bl	BsGet
.LVL540:
	strb	w0, [x19,6]
	.loc 1 3706 0
	mov	w1, 1
	mov	x0, x20
	bl	BsGet
.LVL541:
	strb	w0, [x19,7]
	.loc 1 3707 0
	mov	w1, 1
	mov	x0, x20
	bl	BsGet
.LVL542:
	strb	w0, [x19,8]
	.loc 1 3708 0
	mov	w1, 1
	mov	x0, x20
	bl	BsGet
.LVL543:
	strb	w0, [x19,9]
	.loc 1 3709 0
	mov	w1, 2
	mov	x0, x20
	bl	BsSkip
.LVL544:
	.loc 1 3710 0
	mov	x0, x20
	mov	w1, 1
	bl	BsGet
.LVL545:
	uxtb	w22, w0
	.loc 1 3713 0
	cmp	w22, 1
	.loc 1 3710 0
	strb	w22, [x19,10]
	.loc 1 3713 0
	beq	.L530
	.loc 1 3757 0
	ldrh	w1, [x19,156]
	.loc 1 3758 0
	ldrh	w0, [x19,158]
	.loc 1 3757 0
	strh	w1, [x19,160]
	.loc 1 3758 0
	strh	w0, [x19,162]
.L520:
	.loc 1 3762 0
	mov	x0, x20
	mov	w1, 1
	bl	BsGet
.LVL546:
	uxtb	w0, w0
	.loc 1 3763 0
	cmp	w0, 1
	.loc 1 3762 0
	strb	w0, [x19,23]
	.loc 1 3763 0
	beq	.L521
.LVL547:
.L523:
	.loc 1 3779 0
	mov	x0, x20
	bl	BsPos
.LVL548:
	ldr	w1, [x19,168]
	.loc 1 3781 0
	mov	w2, 1
	.loc 1 3779 0
	sub	w0, w0, w1
	str	w0, [x19,168]
.L522:
	.loc 1 3782 0
	mov	w0, w2
	ldp	x19, x20, [sp,16]
	.cfi_remember_state
	.cfi_restore 20
	.cfi_restore 19
.LVL549:
	ldp	x21, x22, [sp,32]
	.cfi_restore 22
	.cfi_restore 21
.LVL550:
	ldp	x29, x30, [sp], 48
	.cfi_restore 30
	.cfi_restore 29
	.cfi_def_cfa 31, 0
	ret
.LVL551:
.L521:
	.cfi_restore_state
	.loc 1 3765 0
	mov	x0, x20
	mov	w1, 5
	bl	BsGet
.LVL552:
	uxtb	w0, w0
	.loc 1 3766 0
	cmp	w0, 31
	.loc 1 3765 0
	strb	w0, [x19,24]
	.loc 1 3768 0
	mov	w2, 0
	.loc 1 3766 0
	bhi	.L522
	.loc 1 3770 0
	mov	w1, 4
	mov	x0, x20
	bl	BsGet
.LVL553:
	strb	w0, [x19,25]
	.loc 1 3771 0
	mov	w1, 4
	mov	x0, x20
	bl	BsGet
.LVL554:
	strb	w0, [x19,26]
	.loc 1 3772 0 discriminator 1
	ldrb	w1, [x19,24]
	cbz	w1, .L523
	add	x21, x21, 44
.LVL555:
	mov	w22, 0
.LVL556:
.L524:
	.loc 1 3774 0
	mov	w1, 16
	add	x21, x21, 2
	mov	x0, x20
	.loc 1 3772 0 discriminator 3
	add	w22, w22, 1
	.loc 1 3774 0
	bl	BsGet
.LVL557:
	strh	w0, [x21,-2]
	.loc 1 3775 0
	mov	w1, 16
	mov	x0, x20
	bl	BsGet
.LVL558:
	strh	w0, [x21,62]
	.loc 1 3772 0 discriminator 1
	ldrb	w0, [x19,24]
	cmp	w0, w22
	bgt	.L524
	b	.L523
.LVL559:
.L530:
	.loc 1 3715 0
	mov	w1, 14
	mov	x0, x20
	bl	BsGet
.LVL560:
	add	w0, w0, 1
	.loc 1 3716 0
	mov	w1, 14
	.loc 1 3715 0
	strh	w0, [x19,160]
	.loc 1 3716 0
	mov	x0, x20
	bl	BsGet
.LVL561:
	add	w0, w0, 1
	.loc 1 3717 0
	mov	w1, w22
	.loc 1 3716 0
	strh	w0, [x19,162]
	.loc 1 3717 0
	mov	x0, x20
	bl	BsGet
.LVL562:
	uxtb	w0, w0
	.loc 1 3718 0
	cmp	w0, 1
	.loc 1 3717 0
	strb	w0, [x19,11]
	.loc 1 3718 0
	beq	.L531
.L516:
	.loc 1 3728 0
	mov	w1, 1
	mov	x0, x20
	bl	BsGet
.LVL563:
	uxtb	w1, w0
	.loc 1 3731 0
	cmp	w1, 1
	.loc 1 3728 0
	strb	w1, [x19,15]
	.loc 1 3731 0
	beq	.L532
.L518:
	.loc 1 3745 0
	mov	x0, x20
	mov	w1, 1
	bl	BsGet
.LVL564:
	uxtb	w0, w0
	.loc 1 3748 0
	cmp	w0, 1
	.loc 1 3745 0
	strb	w0, [x19,19]
	.loc 1 3748 0
	bne	.L520
	.loc 1 3750 0
	mov	w1, 8
	mov	x0, x20
	bl	BsGet
.LVL565:
	strb	w0, [x19,20]
	.loc 1 3751 0
	mov	w1, 8
	mov	x0, x20
	bl	BsGet
.LVL566:
	strb	w0, [x19,21]
	.loc 1 3752 0
	mov	w1, 8
	mov	x0, x20
	bl	BsGet
.LVL567:
	strb	w0, [x19,22]
	b	.L520
.L532:
	.loc 1 3733 0
	mov	x0, x20
	bl	BsGet
.LVL568:
	uxtb	w0, w0
	strb	w0, [x19,16]
	.loc 1 3734 0
	cbnz	w0, .L519
	.loc 1 3736 0
	mov	w1, 8
	mov	x0, x20
	bl	BsGet
.LVL569:
	strb	w0, [x19,17]
	.loc 1 3737 0
	mov	w1, 4
	mov	x0, x20
	bl	BsGet
.LVL570:
	strb	w0, [x19,18]
	b	.L518
.L531:
	.loc 1 3720 0
	mov	x0, x20
	mov	w1, 4
	bl	BsGet
.LVL571:
	uxtb	w0, w0
	.loc 1 3721 0
	cmp	w0, 15
	.loc 1 3720 0
	strb	w0, [x19,12]
	.loc 1 3721 0
	bne	.L516
	.loc 1 3723 0
	mov	w1, 8
	mov	x0, x20
	bl	BsGet
.LVL572:
	strb	w0, [x19,13]
	.loc 1 3724 0
	mov	w1, 8
	mov	x0, x20
	bl	BsGet
.LVL573:
	strb	w0, [x19,14]
	b	.L516
.L519:
	.loc 1 3741 0
	mov	x0, x20
	mov	w1, 16
	bl	BsGet
.LVL574:
	strh	w0, [x19,164]
	b	.L518
	.cfi_endproc
.LFE2677:
	.size	VC1_Vfmw_ParseAdvSeqHdr, .-VC1_Vfmw_ParseAdvSeqHdr
	.align	2
	.global	VC1_Vfmw_ParseAdvEntptHdr
	.type	VC1_Vfmw_ParseAdvEntptHdr, %function
VC1_Vfmw_ParseAdvEntptHdr:
.LFB2678:
	.loc 1 3785 0
	.cfi_startproc
.LVL575:
	stp	x29, x30, [sp, -64]!
	.cfi_def_cfa_offset 64
	.cfi_offset 29, -64
	.cfi_offset 30, -56
	add	x29, sp, 0
	.cfi_def_cfa_register 29
	stp	x19, x20, [sp,16]
	.cfi_offset 19, -48
	.cfi_offset 20, -40
	.loc 1 3789 0
	add	x20, x2, 188
	.loc 1 3785 0
	str	x23, [sp,48]
	stp	x21, x22, [sp,32]
	.cfi_offset 23, -16
	.cfi_offset 21, -32
	.cfi_offset 22, -24
	.loc 1 3805 0
	add	x23, x2, 16
	.loc 1 3785 0
	mov	x22, x2
	.loc 1 3789 0
	stp	xzr, xzr, [x20]
	stp	xzr, xzr, [x20,16]
	stp	xzr, xzr, [x20,32]
	str	xzr, [x20,48]
	.loc 1 3785 0
	mov	x21, x0
	.loc 1 3789 0
	str	wzr, [x20,56]
	.loc 1 3791 0
	bl	BsPos
.LVL576:
	str	w0, [x20,56]
	.loc 1 3792 0
	mov	w1, 1
	mov	x0, x21
	bl	BsGet
.LVL577:
	strb	w0, [x22,188]
	.loc 1 3793 0
	mov	w1, 1
	mov	x0, x21
	bl	BsGet
.LVL578:
	strb	w0, [x20,1]
	.loc 1 3794 0
	mov	w1, 1
	mov	x0, x21
	bl	BsGet
.LVL579:
	strb	w0, [x20,2]
	.loc 1 3795 0
	mov	w1, 1
	mov	x0, x21
	bl	BsGet
.LVL580:
	strb	w0, [x20,3]
	.loc 1 3796 0
	mov	w1, 1
	mov	x0, x21
	bl	BsGet
.LVL581:
	strb	w0, [x20,4]
	.loc 1 3797 0
	mov	w1, 1
	mov	x0, x21
	bl	BsGet
.LVL582:
	strb	w0, [x20,5]
	.loc 1 3798 0
	mov	w1, 1
	mov	x0, x21
	bl	BsGet
.LVL583:
	strb	w0, [x20,6]
	.loc 1 3799 0
	mov	w1, 2
	mov	x0, x21
	bl	BsGet
.LVL584:
	strb	w0, [x20,7]
	.loc 1 3800 0
	mov	w1, 1
	mov	x0, x21
	bl	BsGet
.LVL585:
	strb	w0, [x20,8]
	.loc 1 3801 0
	mov	w1, 1
	mov	x0, x21
	bl	BsGet
.LVL586:
	strb	w0, [x20,9]
	.loc 1 3802 0
	mov	w1, 2
	mov	x0, x21
	bl	BsGet
.LVL587:
	strb	w0, [x20,10]
	.loc 1 3805 0
	ldrb	w0, [x23,23]
	cmp	w0, 1
	beq	.L534
.L537:
	.loc 1 3814 0
	mov	x0, x21
	mov	w1, 1
	bl	BsGet
.LVL588:
	uxtb	w0, w0
	.loc 1 3815 0
	cmp	w0, 1
	.loc 1 3814 0
	strb	w0, [x20,11]
	.loc 1 3815 0
	beq	.L561
.LVL589:
.L559:
	ldrh	w0, [x20,52]
.L539:
	.loc 1 3821 0
	ldrh	w2, [x20,50]
	ldrh	w1, [x23,156]
	.loc 1 3821 0 is_stmt 0 discriminator 1
	cmp	w2, w1
	bhi	.L547
	cmp	w2, 15
	bls	.L547
	.loc 1 3825 0 is_stmt 1
	ldrh	w1, [x23,158]
	.loc 1 3825 0 is_stmt 0 discriminator 1
	cmp	w1, w0
	bcc	.L548
.L565:
	cmp	w0, 15
	bls	.L548
	.loc 1 3831 0 is_stmt 1
	ldrb	w1, [x20,6]
	cmp	w1, 1
	beq	.L562
.L544:
	.loc 1 3836 0
	mov	x0, x21
	mov	w1, 1
	bl	BsGet
.LVL590:
	uxtb	w0, w0
	.loc 1 3837 0
	cmp	w0, 1
	.loc 1 3836 0
	strb	w0, [x20,13]
	.loc 1 3837 0
	beq	.L563
.L545:
	.loc 1 3842 0
	mov	x0, x21
	mov	w1, 1
	bl	BsGet
.LVL591:
	uxtb	w0, w0
	.loc 1 3843 0
	cmp	w0, 1
	.loc 1 3842 0
	strb	w0, [x20,15]
	.loc 1 3843 0
	beq	.L564
.L546:
	.loc 1 3848 0
	mov	x0, x21
	bl	BsPos
.LVL592:
	ldr	w1, [x20,56]
	sub	w1, w0, w1
	str	w1, [x20,56]
	.loc 1 3851 0
	mov	w0, 1
	ldp	x19, x20, [sp,16]
	.cfi_remember_state
	.cfi_restore 20
	.cfi_restore 19
.LVL593:
	ldp	x21, x22, [sp,32]
	.cfi_restore 22
	.cfi_restore 21
.LVL594:
	ldr	x23, [sp,48]
	.cfi_restore 23
	ldp	x29, x30, [sp], 64
	.cfi_restore 30
	.cfi_restore 29
	.cfi_def_cfa 31, 0
	ret
.LVL595:
.L547:
	.cfi_restore_state
	.loc 1 3823 0
	strh	w1, [x20,50]
	.loc 1 3825 0
	ldrh	w1, [x23,158]
	.loc 1 3825 0 is_stmt 0 discriminator 1
	cmp	w1, w0
	bcs	.L565
.L548:
	.loc 1 3827 0 is_stmt 1
	strh	w1, [x20,52]
	.loc 1 3831 0
	ldrb	w1, [x20,6]
	cmp	w1, 1
	bne	.L544
.L562:
	.loc 1 3833 0
	mov	x0, x21
	bl	BsGet
.LVL596:
	strb	w0, [x20,12]
	.loc 1 3836 0
	mov	w1, 1
	mov	x0, x21
	bl	BsGet
.LVL597:
	uxtb	w0, w0
	.loc 1 3837 0
	cmp	w0, 1
	.loc 1 3836 0
	strb	w0, [x20,13]
	.loc 1 3837 0
	bne	.L545
.L563:
	.loc 1 3839 0
	mov	w1, 3
	mov	x0, x21
	bl	BsGet
.LVL598:
	strb	w0, [x20,14]
	.loc 1 3842 0
	mov	w1, 1
	mov	x0, x21
	bl	BsGet
.LVL599:
	uxtb	w0, w0
	.loc 1 3843 0
	cmp	w0, 1
	.loc 1 3842 0
	strb	w0, [x20,15]
	.loc 1 3843 0
	bne	.L546
.L564:
	.loc 1 3845 0
	mov	x0, x21
	mov	w1, 3
	bl	BsGet
.LVL600:
	strb	w0, [x20,16]
	b	.L546
.LVL601:
.L534:
.LBB99:
	.loc 1 3808 0 discriminator 1
	ldrb	w0, [x23,24]
	cbz	w0, .L537
	add	x22, x22, 205
.LVL602:
	mov	w19, 0
.LVL603:
.L538:
	.loc 1 3810 0
	mov	x0, x21
	mov	w1, 8
	.loc 1 3808 0 discriminator 3
	add	w19, w19, 1
	.loc 1 3810 0
	bl	BsGet
.LVL604:
	strb	w0, [x22],1
	.loc 1 3808 0 discriminator 1
	ldrb	w0, [x23,24]
	cmp	w0, w19
	bgt	.L538
.LBE99:
	.loc 1 3814 0
	mov	x0, x21
	mov	w1, 1
	bl	BsGet
.LVL605:
	uxtb	w0, w0
	.loc 1 3815 0
	cmp	w0, 1
	.loc 1 3814 0
	strb	w0, [x20,11]
	.loc 1 3815 0
	bne	.L559
.LVL606:
.L561:
	.loc 1 3817 0
	mov	w1, 12
	mov	x0, x21
	bl	BsGet
.LVL607:
	add	w0, w0, 1
	lsl	w1, w0, 1
	.loc 1 3818 0
	mov	x0, x21
	.loc 1 3817 0
	strh	w1, [x20,50]
	.loc 1 3818 0
	mov	w1, 12
	bl	BsGet
.LVL608:
	add	w0, w0, 1
	ubfiz	w0, w0, 1, 15
	strh	w0, [x20,52]
	b	.L539
	.cfi_endproc
.LFE2678:
	.size	VC1_Vfmw_ParseAdvEntptHdr, .-VC1_Vfmw_ParseAdvEntptHdr
	.align	2
	.global	VC1_DecFcm
	.type	VC1_DecFcm, %function
VC1_DecFcm:
.LFB2679:
	.loc 1 3854 0
	.cfi_startproc
.LVL609:
	stp	x29, x30, [sp, -32]!
	.cfi_def_cfa_offset 32
	.cfi_offset 29, -32
	.cfi_offset 30, -24
	.loc 1 3857 0
	mov	w1, 2
	.loc 1 3854 0
	add	x29, sp, 0
	.cfi_def_cfa_register 29
	stp	x19, x20, [sp,16]
	.cfi_offset 19, -16
	.cfi_offset 20, -8
	.loc 1 3854 0
	mov	x20, x0
	.loc 1 3857 0
	bl	BsShow
.LVL610:
	mov	w19, w0
.LVL611:
	.loc 1 3861 0
	mov	x0, x20
	.loc 1 3858 0
	cmp	w19, 1
	ble	.L569
	.loc 1 3865 0
	mov	w1, 2
	bl	BsSkip
.LVL612:
	.loc 1 3869 0
	mov	w0, w19
	ldp	x19, x20, [sp,16]
	.cfi_remember_state
	.cfi_restore 20
	.cfi_restore 19
.LVL613:
	ldp	x29, x30, [sp], 32
	.cfi_restore 30
	.cfi_restore 29
	.cfi_def_cfa 31, 0
	ret
.LVL614:
.L569:
	.cfi_restore_state
	.loc 1 3861 0
	mov	w1, 1
	.loc 1 3860 0
	mov	w19, 0
	.loc 1 3861 0
	bl	BsSkip
.LVL615:
	.loc 1 3869 0
	mov	w0, w19
	ldp	x19, x20, [sp,16]
	.cfi_restore 19
	.cfi_restore 20
.LVL616:
	ldp	x29, x30, [sp], 32
	.cfi_restore 29
	.cfi_restore 30
	.cfi_def_cfa 31, 0
	ret
	.cfi_endproc
.LFE2679:
	.size	VC1_DecFcm, .-VC1_DecFcm
	.align	2
	.global	VC1_DecAdvPtype
	.type	VC1_DecAdvPtype, %function
VC1_DecAdvPtype:
.LFB2680:
	.loc 1 3872 0
	.cfi_startproc
.LVL617:
	stp	x29, x30, [sp, -32]!
	.cfi_def_cfa_offset 32
	.cfi_offset 29, -32
	.cfi_offset 30, -24
	.loc 1 3875 0
	mov	w1, 4
	.loc 1 3872 0
	add	x29, sp, 0
	.cfi_def_cfa_register 29
	stp	x19, x20, [sp,16]
	.cfi_offset 19, -16
	.cfi_offset 20, -8
	.loc 1 3872 0
	mov	x19, x0
	.loc 1 3875 0
	bl	BsShow
.LVL618:
	.loc 1 3876 0
	cmp	w0, 7
	ble	.L572
	.loc 1 3881 0
	cmp	w0, 11
	bgt	.L576
	.loc 1 3884 0
	mov	w1, 2
.LVL619:
	.loc 1 3883 0
	mov	w20, w1
.L571:
	.loc 1 3897 0
	mov	x0, x19
	bl	BsSkip
.LVL620:
	.loc 1 3899 0
	mov	w0, w20
	ldp	x19, x20, [sp,16]
	.cfi_remember_state
	.cfi_restore 20
	.cfi_restore 19
.LVL621:
	ldp	x29, x30, [sp], 32
	.cfi_restore 30
	.cfi_restore 29
	.cfi_def_cfa 31, 0
	ret
.LVL622:
.L576:
	.cfi_restore_state
	.loc 1 3886 0
	cmp	w0, 13
	ble	.L574
	.loc 1 3893 0
	cmp	w0, 14
	.loc 1 3894 0
	mov	w1, 4
.LVL623:
	.loc 1 3893 0
	beq	.L575
	.loc 1 3893 0 is_stmt 0 discriminator 2
	mov	w20, 5
	b	.L571
.LVL624:
.L572:
	.loc 1 3879 0 is_stmt 1
	mov	w1, 1
.LVL625:
	.loc 1 3897 0
	mov	x0, x19
	.loc 1 3878 0
	mov	w20, w1
	.loc 1 3897 0
	bl	BsSkip
.LVL626:
	.loc 1 3899 0
	mov	w0, w20
	ldp	x19, x20, [sp,16]
	.cfi_remember_state
	.cfi_restore 19
	.cfi_restore 20
.LVL627:
	ldp	x29, x30, [sp], 32
	.cfi_restore 29
	.cfi_restore 30
	.cfi_def_cfa 31, 0
	ret
.LVL628:
.L574:
	.cfi_restore_state
	.loc 1 3889 0
	mov	w1, 3
.LVL629:
	.loc 1 3888 0
	mov	w20, 0
	b	.L571
.L575:
	.loc 1 3893 0 discriminator 1
	mov	w20, w1
	b	.L571
	.cfi_endproc
.LFE2680:
	.size	VC1_DecAdvPtype, .-VC1_DecAdvPtype
	.align	2
	.global	VC1_DecRefdist
	.type	VC1_DecRefdist, %function
VC1_DecRefdist:
.LFB2685:
	.loc 1 4399 0
	.cfi_startproc
.LVL630:
	stp	x29, x30, [sp, -48]!
	.cfi_def_cfa_offset 48
	.cfi_offset 29, -48
	.cfi_offset 30, -40
	.loc 1 4402 0
	mov	w1, 5
	.loc 1 4399 0
	add	x29, sp, 0
	.cfi_def_cfa_register 29
	stp	x19, x20, [sp,16]
	str	x21, [sp,32]
	.cfi_offset 19, -32
	.cfi_offset 20, -24
	.cfi_offset 21, -16
	.loc 1 4399 0
	mov	x21, x0
	.loc 1 4402 0
	bl	BsShow
.LVL631:
	.loc 1 4403 0
	cmp	w0, 23
	.loc 1 4402 0
	mov	w20, w0
	.loc 1 4403 0
	ble	.L584
	.loc 1 4408 0
	cmp	w0, 27
	.loc 1 4411 0
	mov	w19, 3
.LVL632:
	.loc 1 4408 0
	bgt	.L585
.L580:
	.loc 1 4423 0
	mov	w1, w19
	mov	x0, x21
	bl	BsSkip
.LVL633:
	.loc 1 4425 0
	ldr	x21, [sp,32]
	.cfi_remember_state
	.cfi_restore 21
.LVL634:
	mov	w0, w19
	ldp	x19, x20, [sp,16]
	.cfi_restore 20
	.cfi_restore 19
.LVL635:
	ldp	x29, x30, [sp], 48
	.cfi_restore 30
	.cfi_restore 29
	.cfi_def_cfa 31, 0
	ret
.LVL636:
.L584:
	.cfi_restore_state
	.loc 1 4423 0
	mov	x0, x21
	mov	w1, 2
	.loc 1 4405 0
	asr	w20, w20, 3
	.loc 1 4423 0
	bl	BsSkip
.LVL637:
	.loc 1 4425 0
	ldr	x21, [sp,32]
	.cfi_remember_state
	.cfi_restore 21
.LVL638:
	.loc 1 4405 0
	mov	w0, w20
	.loc 1 4425 0
	ldp	x19, x20, [sp,16]
	.cfi_restore 19
	.cfi_restore 20
	ldp	x29, x30, [sp], 48
	.cfi_restore 29
	.cfi_restore 30
	.cfi_def_cfa 31, 0
	ret
.LVL639:
.L585:
	.cfi_restore_state
	.loc 1 4416 0
	cmp	w0, 29
	mov	w19, 4
.LVL640:
	mov	w0, 5
	csel	w19, w0, w19, gt
.LVL641:
	b	.L580
	.cfi_endproc
.LFE2685:
	.size	VC1_DecRefdist, .-VC1_DecRefdist
	.align	2
	.global	VC1_DecIntCompField
	.type	VC1_DecIntCompField, %function
VC1_DecIntCompField:
.LFB2686:
	.loc 1 4428 0
	.cfi_startproc
.LVL642:
	stp	x29, x30, [sp, -96]!
	.cfi_def_cfa_offset 96
	.cfi_offset 29, -96
	.cfi_offset 30, -88
	.loc 1 4429 0
	mov	w2, 2
	mov	w3, 1
	.loc 1 4428 0
	add	x29, sp, 0
	.cfi_def_cfa_register 29
	stp	x19, x20, [sp,16]
	.cfi_offset 19, -80
	.cfi_offset 20, -72
	adrp	x19, __stack_chk_guard
	.loc 1 4432 0
	mov	w1, w2
	.loc 1 4428 0
	str	x21, [sp,32]
	.cfi_offset 21, -64
	.loc 1 4429 0
	add	x20, x29, 56
	.loc 1 4428 0
	mov	x21, x0
	.loc 1 4429 0
	str	w3, [x29,56]
	.loc 1 4428 0
	ldr	x4, [x19,#:lo12:__stack_chk_guard]
	str	x4, [x29,88]
	.loc 1 4429 0
	str	w2, [x29,60]
	str	w2, [x29,64]
	str	w2, [x29,68]
	str	w3, [x29,76]
	str	w3, [x29,84]
	str	wzr, [x29,72]
	str	wzr, [x29,80]
	.loc 1 4432 0
	bl	BsShow
.LVL643:
	.loc 1 4433 0
	sbfiz	x1, x0, 3, 32
	.loc 1 4435 0
	mov	x0, x21
	.loc 1 4433 0
	add	x2, x20, x1
	ldr	w20, [x20,x1]
	.loc 1 4435 0
	ldr	w1, [x2,4]
	bl	BsSkip
.LVL644:
	.loc 1 4437 0
	ldr	x2, [x29,88]
.LVL645:
	mov	w0, w20
	ldr	x1, [x19,#:lo12:__stack_chk_guard]
	cmp	x2, x1
	bne	.L588
	ldp	x19, x20, [sp,16]
	.cfi_remember_state
	.cfi_restore 20
	.cfi_restore 19
.LVL646:
	ldr	x21, [sp,32]
	.cfi_restore 21
.LVL647:
	ldp	x29, x30, [sp], 96
	.cfi_restore 30
	.cfi_restore 29
	.cfi_def_cfa 31, 0
	ret
.LVL648:
.L588:
	.cfi_restore_state
	bl	__stack_chk_fail
.LVL649:
	.cfi_endproc
.LFE2686:
	.size	VC1_DecIntCompField, .-VC1_DecIntCompField
	.align	2
	.global	VC1_Vfmw_next_start_code
	.type	VC1_Vfmw_next_start_code, %function
VC1_Vfmw_next_start_code:
.LFB2693:
	.loc 1 4889 0
	.cfi_startproc
.LVL650:
	stp	x29, x30, [sp, -48]!
	.cfi_def_cfa_offset 48
	.cfi_offset 29, -48
	.cfi_offset 30, -40
	add	x29, sp, 0
	.cfi_def_cfa_register 29
	stp	x19, x20, [sp,16]
	str	x21, [sp,32]
	.cfi_offset 19, -32
	.cfi_offset 20, -24
	.cfi_offset 21, -16
	.loc 1 4889 0
	mov	x20, x0
	.loc 1 4892 0
	bl	BsToNextByte
.LVL651:
	.loc 1 4895 0 discriminator 1
	mov	w19, 0
.LVL652:
	.loc 1 4893 0
	mov	x0, x20
	bl	BsResidBits
.LVL653:
	cmp	w0, wzr
	add	w1, w0, 7
	csel	w21, w1, w0, lt
	asr	w21, w21, 3
	sub	w21, w21, #3
.LVL654:
	.loc 1 4895 0 discriminator 1
	cmp	w21, wzr
	bgt	.L596
	b	.L593
.L599:
	.loc 1 4902 0
	bl	BsSkip
.LVL655:
	.loc 1 4895 0 discriminator 1
	cmp	w19, w21
	beq	.L593
.L596:
	.loc 1 4897 0
	mov	w1, 24
	mov	x0, x20
	.loc 1 4895 0 discriminator 2
	add	w19, w19, 1
	.loc 1 4897 0
	bl	BsShow
.LVL656:
	mov	w2, w0
	cmp	w2, 1
	.loc 1 4902 0
	mov	w1, 8
	mov	x0, x20
	.loc 1 4897 0
	bne	.L599
	.loc 1 4906 0
	mov	w0, w2
	ldr	x21, [sp,32]
	.cfi_remember_state
	.cfi_restore 21
.LVL657:
	ldp	x19, x20, [sp,16]
	.cfi_restore 20
	.cfi_restore 19
.LVL658:
	ldp	x29, x30, [sp], 48
	.cfi_restore 30
	.cfi_restore 29
	.cfi_def_cfa 31, 0
	ret
.LVL659:
.L593:
	.cfi_restore_state
	.loc 1 4905 0
	mov	w2, 0
	.loc 1 4906 0
	ldr	x21, [sp,32]
	.cfi_restore 21
.LVL660:
	mov	w0, w2
	ldp	x19, x20, [sp,16]
	.cfi_restore 19
	.cfi_restore 20
.LVL661:
	ldp	x29, x30, [sp], 48
	.cfi_restore 29
	.cfi_restore 30
	.cfi_def_cfa 31, 0
	ret
	.cfi_endproc
.LFE2693:
	.size	VC1_Vfmw_next_start_code, .-VC1_Vfmw_next_start_code
	.align	2
	.global	VC1_Vfmw_UserData
	.type	VC1_Vfmw_UserData, %function
VC1_Vfmw_UserData:
.LFB2694:
	.loc 1 4909 0
	.cfi_startproc
.LVL662:
	.loc 1 4911 0
	mov	w0, 1
.LVL663:
	ret
	.cfi_endproc
.LFE2694:
	.size	VC1_Vfmw_UserData, .-VC1_Vfmw_UserData
	.align	2
	.global	VC1_RecordSlcStream
	.type	VC1_RecordSlcStream, %function
VC1_RecordSlcStream:
.LFB2695:
	.loc 1 4914 0
	.cfi_startproc
.LVL664:
	stp	x29, x30, [sp, -96]!
	.cfi_def_cfa_offset 96
	.cfi_offset 29, -96
	.cfi_offset 30, -88
	add	x29, sp, 0
	.cfi_def_cfa_register 29
	stp	x23, x24, [sp,48]
	.cfi_offset 23, -48
	.cfi_offset 24, -40
	.loc 1 4915 0
	add	x24, x0, 20480
	.loc 1 4914 0
	stp	x19, x20, [sp,16]
	stp	x21, x22, [sp,32]
	stp	x25, x26, [sp,64]
	.cfi_offset 19, -80
	.cfi_offset 20, -72
	.cfi_offset 21, -64
	.cfi_offset 22, -56
	.cfi_offset 25, -32
	.cfi_offset 26, -24
	.loc 1 4914 0
	mov	x20, x0
	str	x1, [x29,88]
	.loc 1 4917 0
	ldr	x4, [x0,3136]
.LVL665:
	.loc 1 4915 0
	ldr	w0, [x24,1564]
.LVL666:
	sxtw	x22, w0
	.loc 1 4923 0
	lsl	x25, x22, 3
	lsl	x19, x22, 6
	sub	x3, x19, x25
	add	x3, x20, x3
	add	x21, x3, 20480
	strb	w0, [x21,1584]
	.loc 1 4924 0
	ldr	w5, [x4,32]
	add	w0, w5, 7
	cmp	w5, wzr
	csel	w0, w0, w5, lt
	asr	w0, w0, 3
	add	x2, x2, x0, sxtw
.LVL667:
	str	x2, [x3,22048]
	.loc 1 4925 0
	ldr	w0, [x4,32]
	and	w0, w0, 7
	str	w0, [x21,1592]
	.loc 1 4926 0
	ldr	w0, [x4,24]
	ldr	w2, [x4,32]
	lsl	w0, w0, 3
	sub	w0, w0, w2
	str	w0, [x21,1596]
	.loc 1 4927 0
	ldr	x0, [x3,22048]
	bl	MEM_Vir2Phy
.LVL668:
	str	w0, [x21,1588]
	.loc 1 4928 0
	add	x2, x20, 32768
	add	x4, x21, 1616
	add	x2, x2, 3624
	.loc 1 4930 0
	ldr	x1, [x29,88]
.LVL669:
	.loc 1 4928 0
	ldr	w0, [x2,20]
	str	w0, [x21,1616]
	.loc 1 4930 0
	ldr	x0, [x2,40]
	cbz	x0, .L602
	.loc 1 4930 0 is_stmt 0 discriminator 1
	ldr	w3, [x2,8]
	cbnz	w3, .L624
.L602:
	.loc 1 4940 0 is_stmt 1
	sub	x0, x19, x25
	add	x0, x20, x0
	add	x0, x0, 20480
	str	xzr, [x0,1576]
	.loc 1 4941 0
	str	wzr, [x0,1608]
	.loc 1 4942 0
	str	wzr, [x0,1612]
	.loc 1 4943 0
	str	wzr, [x0,1604]
	.loc 1 4944 0
	str	wzr, [x0,1620]
.L603:
	.loc 1 4958 0
	ldr	w5, [x24,1484]
	ldr	w4, [x24,1480]
	.loc 1 4959 0
	ldrb	w0, [x20,8]
	.loc 1 4958 0
	mul	w4, w5, w4
	sub	w4, w4, #1
.LVL670:
	.loc 1 4959 0
	cbz	w0, .L604
	.loc 1 4961 0
	lsl	x0, x22, 4
	add	w3, w5, 1
	sub	x22, x0, x22, lsl 2
	sub	x0, x19, x25
	add	x1, x1, x22
.LVL671:
	add	x0, x20, x0
	add	w3, w3, w3, lsr 31
	add	x0, x0, 20480
	add	x1, x1, 528
	ldr	w2, [x1,12]
	sub	w3, w2, w3, asr 1
	str	w3, [x0,1600]
	.loc 1 4965 0
	cmp	w3, wzr
	ble	.L605
	cmp	w4, w3
	bcc	.L625
.LVL672:
.L605:
	.loc 1 4984 0
	sub	x19, x19, x25
	add	x19, x20, x19
	add	x19, x19, 20480
	ldr	w0, [x19,1596]
	cmp	w0, wzr
	ble	.L607
	.loc 1 4984 0 is_stmt 0 discriminator 1
	ldr	x0, [x19,1576]
	cbz	x0, .L608
	.loc 1 4984 0 discriminator 2
	ldr	w0, [x19,1612]
	cmp	w0, wzr
	ble	.L607
.L608:
	.loc 1 4991 0 is_stmt 1
	ldr	w1, [x24,1564]
.LVL673:
	.loc 1 4992 0
	mov	w0, 1
	.loc 1 4991 0
	add	w1, w1, w0
	str	w1, [x24,1564]
.L606:
	.loc 1 4994 0
	ldp	x19, x20, [sp,16]
	.cfi_remember_state
	.cfi_restore 20
	.cfi_restore 19
.LVL674:
	ldp	x21, x22, [sp,32]
	.cfi_restore 22
	.cfi_restore 21
	ldp	x23, x24, [sp,48]
	.cfi_restore 24
	.cfi_restore 23
	ldp	x25, x26, [sp,64]
	.cfi_restore 26
	.cfi_restore 25
	ldp	x29, x30, [sp], 96
	.cfi_restore 30
	.cfi_restore 29
	.cfi_def_cfa 31, 0
	ret
.LVL675:
.L604:
	.cfi_restore_state
	.loc 1 4975 0
	lsl	x2, x22, 4
	sub	x0, x19, x25
	sub	x22, x2, x22, lsl 2
	add	x0, x20, x0
	add	x22, x1, x22
	add	x0, x0, 20480
	add	x22, x22, 528
	ldr	w3, [x22,12]
	str	w3, [x0,1600]
	.loc 1 4976 0
	cmp	w4, w3
	bcs	.L605
	.loc 1 4978 0
	ldr	w2, [x22,12]
	adrp	x1, .LC23
.LVL676:
	add	x1, x1, :lo12:.LC23
	mov	w0, 1
	bl	dprint_linux_kernel
.LVL677:
	.loc 1 4980 0
	mov	w0, 0
	.loc 1 4994 0
	ldp	x19, x20, [sp,16]
	.cfi_remember_state
	.cfi_restore 19
	.cfi_restore 20
.LVL678:
	ldp	x21, x22, [sp,32]
	.cfi_restore 21
	.cfi_restore 22
	ldp	x23, x24, [sp,48]
	.cfi_restore 23
	.cfi_restore 24
	ldp	x25, x26, [sp,64]
	.cfi_restore 25
	.cfi_restore 26
	ldp	x29, x30, [sp], 96
	.cfi_restore 29
	.cfi_restore 30
	.cfi_def_cfa 31, 0
	ret
.LVL679:
.L624:
	.cfi_restore_state
	.loc 1 4932 0
	str	x0, [x21,1576]
	.loc 1 4933 0
	str	wzr, [x21,1608]
	.loc 1 4934 0
	ldr	w0, [x2,16]
	.loc 1 4935 0
	str	w3, [x21,1604]
	.loc 1 4934 0
	lsl	w0, w0, 3
	str	w0, [x21,1612]
	.loc 1 4936 0
	ldr	w0, [x2,24]
	str	w0, [x4,4]
	b	.L603
.LVL680:
.L625:
	.loc 1 4967 0
	ldr	w2, [x1,12]
	adrp	x1, .LC22
	mov	w0, 1
	add	x1, x1, :lo12:.LC22
	mov	w4, w5
.LVL681:
	bl	dprint_linux_kernel
.LVL682:
	.loc 1 4969 0
	mov	w0, 0
	b	.L606
.LVL683:
.L607:
	.loc 1 4986 0
	adrp	x1, .LC24
.LVL684:
	mov	w0, 1
	add	x1, x1, :lo12:.LC24
	bl	dprint_linux_kernel
.LVL685:
	.loc 1 4987 0
	mov	w0, 0
	.loc 1 4994 0
	ldp	x19, x20, [sp,16]
	.cfi_restore 19
	.cfi_restore 20
.LVL686:
	ldp	x21, x22, [sp,32]
	.cfi_restore 21
	.cfi_restore 22
	ldp	x23, x24, [sp,48]
	.cfi_restore 23
	.cfi_restore 24
	ldp	x25, x26, [sp,64]
	.cfi_restore 25
	.cfi_restore 26
	ldp	x29, x30, [sp], 96
	.cfi_restore 29
	.cfi_restore 30
	.cfi_def_cfa 31, 0
	ret
	.cfi_endproc
.LFE2695:
	.size	VC1_RecordSlcStream, .-VC1_RecordSlcStream
	.align	2
	.global	VC1_Vfmw_UpdateAdvSPS
	.type	VC1_Vfmw_UpdateAdvSPS, %function
VC1_Vfmw_UpdateAdvSPS:
.LFB2696:
	.loc 1 4997 0
	.cfi_startproc
.LVL687:
	stp	x29, x30, [sp, -32]!
	.cfi_def_cfa_offset 32
	.cfi_offset 29, -32
	.cfi_offset 30, -24
	add	x29, sp, 0
	.cfi_def_cfa_register 29
	stp	x19, x20, [sp,16]
	.cfi_offset 19, -16
	.cfi_offset 20, -8
	.loc 1 5000 0
	add	x20, x0, 8192
	ldrh	w2, [x1,238]
	ldrh	w3, [x20,2446]
	cmp	w3, w2
	beq	.L627
	.loc 1 5002 0
	add	x0, x0, 20480
.LVL688:
	add	w2, w2, 15
	asr	w2, w2, 4
	str	w2, [x0,1480]
	.loc 1 5003 0
	ldrh	w2, [x1,238]
	str	w2, [x0,1496]
	.loc 1 5007 0
	ldrh	w2, [x1,240]
	ldrh	w3, [x20,2448]
	cmp	w3, w2
	beq	.L628
.L629:
	.loc 1 5009 0
	add	w2, w2, 15
	asr	w2, w2, 4
	str	w2, [x0,1484]
	.loc 1 5010 0
	ldrh	w2, [x1,240]
	str	w2, [x0,1500]
.L628:
	mov	x19, x1
	.loc 1 5016 0
	add	x0, x20, 2224
	add	x1, x1, 16
.LVL689:
	mov	x2, 172
	.loc 1 5017 0
	add	x20, x20, 2396
	.loc 1 5016 0
	bl	memcpy
.LVL690:
	.loc 1 5017 0
	add	x1, x19, 188
	mov	w0, 1
.LVL691:
	ldp	x2, x3, [x1]
	stp	x2, x3, [x20]
	ldp	x2, x3, [x1,16]
	stp	x2, x3, [x20,16]
	ldp	x2, x3, [x1,32]
	stp	x2, x3, [x20,32]
	ldr	x2, [x19,236]
	str	x2, [x20,48]
	ldr	w1, [x19,244]
	str	w1, [x20,56]
.L632:
	.loc 1 5021 0
	ldp	x19, x20, [sp,16]
	.cfi_remember_state
	.cfi_restore 20
	.cfi_restore 19
.LVL692:
.LVL693:
	ldp	x29, x30, [sp], 32
	.cfi_restore 30
	.cfi_restore 29
	.cfi_def_cfa 31, 0
	ret
.LVL694:
.L627:
	.cfi_restore_state
	.loc 1 5007 0
	ldrh	w2, [x1,240]
	add	x0, x0, 20480
.LVL695:
	ldrh	w3, [x20,2448]
	cmp	w3, w2
	bne	.L629
	.loc 1 4998 0
	mov	w0, 0
.LVL696:
	b	.L632
	.cfi_endproc
.LFE2696:
	.size	VC1_Vfmw_UpdateAdvSPS, .-VC1_Vfmw_UpdateAdvSPS
	.align	2
	.global	VC1_Vfmw_UpdataLastPicRNDCTRL
	.type	VC1_Vfmw_UpdataLastPicRNDCTRL, %function
VC1_Vfmw_UpdataLastPicRNDCTRL:
.LFB2699:
	.loc 1 5221 0
	.cfi_startproc
.LVL697:
	.loc 1 5225 0
	ldrsb	w1, [x0,3104]
	cbnz	w1, .L634
.LBB102:
.LBB103:
	.loc 1 5227 0
	add	x1, x0, 8192
	ldrb	w2, [x1,2459]
	and	w3, w2, -5
	cbz	w3, .L637
	.loc 1 5231 0
	cmp	w2, 1
	.loc 1 5234 0
	ldrsb	w2, [x0,10]
	.loc 1 5231 0
	beq	.L638
	uxtb	w3, w2
.L635:
	.loc 1 5242 0
	strb	w2, [x0,10]
	.loc 1 5245 0
	strb	w3, [x1,2478]
.L634:
.LBE103:
.LBE102:
	.loc 1 5250 0
	mov	w0, 1
.LVL698:
	ret
.LVL699:
.L637:
.LBB105:
.LBB104:
	.loc 1 5227 0
	mov	w3, 1
	mov	w2, w3
	b	.L635
.L638:
	.loc 1 5234 0
	cmp	w2, wzr
	cset	w2, eq
	mov	w3, w2
	sxtb	w2, w2
	b	.L635
.LBE104:
.LBE105:
	.cfi_endproc
.LFE2699:
	.size	VC1_Vfmw_UpdataLastPicRNDCTRL, .-VC1_Vfmw_UpdataLastPicRNDCTRL
	.align	2
	.global	VC1_Vfmw_DecPQUANT
	.type	VC1_Vfmw_DecPQUANT, %function
VC1_Vfmw_DecPQUANT:
.LFB2700:
	.loc 1 5252 0
	.cfi_startproc
.LVL700:
	stp	x29, x30, [sp, -192]!
	.cfi_def_cfa_offset 192
	.cfi_offset 29, -192
	.cfi_offset 30, -184
	.loc 1 5253 0
	mov	x2, 128
	.loc 1 5252 0
	add	x29, sp, 0
	.cfi_def_cfa_register 29
	stp	x19, x20, [sp,16]
	.cfi_offset 19, -176
	.cfi_offset 20, -168
	adrp	x20, __stack_chk_guard
	mov	w19, w1
	.loc 1 5253 0
	adrp	x1, .LANCHOR0
.LVL701:
	.loc 1 5252 0
	str	x21, [sp,32]
	.cfi_offset 21, -160
	.loc 1 5253 0
	add	x1, x1, :lo12:.LANCHOR0
	.loc 1 5252 0
	mov	w21, w0
	ldr	x3, [x20,#:lo12:__stack_chk_guard]
	.loc 1 5253 0
	add	x1, x1, 208
	add	x0, x29, 56
.LVL702:
	.loc 1 5252 0
	str	x3, [x29,184]
	.loc 1 5253 0
	bl	memcpy
.LVL703:
	.loc 1 5263 0
	mov	w0, w19
	.loc 1 5257 0
	cbnz	w21, .L640
	.loc 1 5259 0
	add	x1, x29, 56
	ldr	w0, [x1,w19,sxtw 2]
.LVL704:
.L640:
	.loc 1 5265 0
	ldr	x2, [x29,184]
	ldr	x1, [x20,#:lo12:__stack_chk_guard]
	cmp	x2, x1
	bne	.L643
	ldp	x19, x20, [sp,16]
	.cfi_remember_state
	.cfi_restore 20
	.cfi_restore 19
.LVL705:
	ldr	x21, [sp,32]
	.cfi_restore 21
.LVL706:
	ldp	x29, x30, [sp], 192
	.cfi_restore 30
	.cfi_restore 29
	.cfi_def_cfa 31, 0
	ret
.LVL707:
.L643:
	.cfi_restore_state
	bl	__stack_chk_fail
.LVL708:
	.cfi_endproc
.LFE2700:
	.size	VC1_Vfmw_DecPQUANT, .-VC1_Vfmw_DecPQUANT
	.align	2
	.global	VC1_Vfmw_ParseSMPIPicHdr
	.type	VC1_Vfmw_ParseSMPIPicHdr, %function
VC1_Vfmw_ParseSMPIPicHdr:
.LFB2673:
	.loc 1 3310 0
	.cfi_startproc
.LVL709:
	stp	x29, x30, [sp, -160]!
	.cfi_def_cfa_offset 160
	.cfi_offset 29, -160
	.cfi_offset 30, -152
	add	x29, sp, 0
	.cfi_def_cfa_register 29
	stp	x23, x24, [sp,48]
	.cfi_offset 23, -112
	.cfi_offset 24, -104
	adrp	x23, __stack_chk_guard
	mov	x24, x1
	stp	x19, x20, [sp,16]
	stp	x21, x22, [sp,32]
	.cfi_offset 19, -144
	.cfi_offset 20, -136
	.cfi_offset 21, -128
	.cfi_offset 22, -120
	.loc 1 3315 0
	add	x19, x2, 248
	.loc 1 3310 0
	mov	x22, x2
	ldr	x2, [x23,#:lo12:__stack_chk_guard]
.LVL710:
	.loc 1 3315 0
	mov	w1, 7
.LVL711:
	.loc 1 3310 0
	str	x25, [sp,64]
	.cfi_offset 25, -96
	.loc 1 3310 0
	mov	x21, x0
	str	x2, [x29,152]
	.loc 1 3319 0
	mov	w20, 0
	.loc 1 3315 0
	bl	BsGet
.LVL712:
	strb	w0, [x19,5]
	.loc 1 3316 0
	mov	w1, 5
	mov	x0, x21
	bl	BsGet
.LVL713:
	uxtb	w25, w0
	strb	w25, [x19,6]
	.loc 1 3317 0
	cbz	w25, .L645
	.loc 1 3321 0
	ldrb	w20, [x22,14]
	mov	w1, w25
	mov	w0, w20
	bl	VC1_Vfmw_DecPQUANT
.LVL714:
	str	w0, [x19,104]
	.loc 1 3322 0
	cmp	w25, 8
	bls	.L658
	.loc 1 3328 0
	strb	wzr, [x19,7]
.L647:
.LBB110:
.LBB111:
	.loc 1 3331 0
	cmp	w20, 1
	beq	.L659
	.loc 1 3337 0
	strb	wzr, [x19,8]
.L649:
	.loc 1 3340 0
	ldrb	w0, [x22,7]
	cmp	w0, 1
	beq	.L660
	.loc 1 3346 0
	strb	wzr, [x19,9]
.L651:
	.loc 1 3348 0
	ldrb	w0, [x19,3]
	sub	w0, w0, #2
	and	w0, w0, -3
	uxtb	w0, w0
	cbz	w0, .L654
	.loc 1 3350 0
	ldrb	w0, [x22,4]
	cmp	w0, 1
	beq	.L661
.L654:
	ldrb	w1, [x19,10]
.L653:
	.loc 1 3356 0
	mov	x0, x24
.LBB112:
.LBB113:
	.loc 1 2583 0
	add	x22, x29, 88
.LVL715:
	mov	w20, 1
.LBE113:
.LBE112:
	.loc 1 3356 0
	bl	VC1_SetCurPicResolutionInfo
.LVL716:
	.loc 1 3358 0
	mov	x0, x21
	bl	VC1_DecTransacfrm
.LVL717:
	strb	w0, [x19,19]
.LBB115:
.LBB114:
	.loc 1 2583 0
	mov	w2, 2
	.loc 1 2585 0
	mov	x0, x21
	mov	w1, w2
	.loc 1 2583 0
	stp	xzr, xzr, [x22]
	stp	xzr, xzr, [x22,32]
	stp	xzr, xzr, [x22,48]
	str	w2, [x29,108]
	str	w2, [x29,112]
	str	w2, [x29,116]
	str	w20, [x29,92]
	str	w20, [x29,100]
	str	w20, [x29,104]
	.loc 1 2585 0
	bl	BsShow
.LVL718:
	.loc 1 2588 0
	sbfiz	x1, x0, 3, 32
	.loc 1 2589 0
	mov	x0, x21
	.loc 1 2588 0
	add	x2, x22, x1
	ldr	w22, [x22,x1]
	.loc 1 2589 0
	ldr	w1, [x2,4]
	bl	BsSkip
.LVL719:
.LBE114:
.LBE115:
	.loc 1 3359 0
	strb	w22, [x19,20]
	.loc 1 3360 0
	mov	x0, x21
	mov	w1, w20
	bl	BsGet
.LVL720:
	strb	w0, [x19,21]
.LVL721:
.L645:
.LBE111:
.LBE110:
	.loc 1 3363 0
	ldr	x2, [x29,152]
	mov	w0, w20
	ldr	x1, [x23,#:lo12:__stack_chk_guard]
	cmp	x2, x1
	bne	.L662
	ldp	x19, x20, [sp,16]
	.cfi_remember_state
	.cfi_restore 20
	.cfi_restore 19
	ldp	x21, x22, [sp,32]
	.cfi_restore 22
	.cfi_restore 21
.LVL722:
	ldp	x23, x24, [sp,48]
	.cfi_restore 24
	.cfi_restore 23
.LVL723:
	ldr	x25, [sp,64]
	.cfi_restore 25
	ldp	x29, x30, [sp], 160
	.cfi_restore 30
	.cfi_restore 29
	.cfi_def_cfa 31, 0
	ret
.LVL724:
.L658:
	.cfi_restore_state
	.loc 1 3324 0
	mov	x0, x21
	mov	w1, 1
	bl	BsGet
.LVL725:
	strb	w0, [x19,7]
	ldrb	w20, [x22,14]
	b	.L647
.L660:
.LBB117:
.LBB116:
	.loc 1 3342 0
	mov	x0, x21
	bl	VC1_DecMvrange
.LVL726:
	strb	w0, [x19,9]
	b	.L651
.L659:
	.loc 1 3333 0
	mov	x0, x21
	mov	w1, w20
	bl	BsGet
.LVL727:
	strb	w0, [x19,8]
	b	.L649
.L661:
	.loc 1 3352 0
	mov	w1, 2
	mov	x0, x21
	bl	BsGet
.LVL728:
	uxtb	w1, w0
	strb	w1, [x19,10]
	b	.L653
.L662:
.LBE116:
.LBE117:
	.loc 1 3363 0
	bl	__stack_chk_fail
.LVL729:
	.cfi_endproc
.LFE2673:
	.size	VC1_Vfmw_ParseSMPIPicHdr, .-VC1_Vfmw_ParseSMPIPicHdr
	.align	2
	.global	VC1_Vfmw_ParseSMPPPicHdr
	.type	VC1_Vfmw_ParseSMPPPicHdr, %function
VC1_Vfmw_ParseSMPPPicHdr:
.LFB2674:
	.loc 1 3366 0
	.cfi_startproc
.LVL730:
	stp	x29, x30, [sp, -64]!
	.cfi_def_cfa_offset 64
	.cfi_offset 29, -64
	.cfi_offset 30, -56
	add	x29, sp, 0
	.cfi_def_cfa_register 29
	stp	x19, x20, [sp,16]
	.cfi_offset 19, -48
	.cfi_offset 20, -40
	.loc 1 3372 0
	add	x19, x2, 248
	.loc 1 3366 0
	mov	x20, x0
	stp	x23, x24, [sp,48]
	.cfi_offset 23, -16
	.cfi_offset 24, -8
	mov	x23, x1
	.loc 1 3372 0
	mov	w1, 5
.LVL731:
	.loc 1 3366 0
	stp	x21, x22, [sp,32]
	.cfi_offset 21, -32
	.cfi_offset 22, -24
	.loc 1 3366 0
	mov	x21, x2
	.loc 1 3372 0
	bl	BsGet
.LVL732:
	uxtb	w22, w0
	strb	w22, [x19,6]
	.loc 1 3375 0
	mov	w1, 0
	.loc 1 3373 0
	cbz	w22, .L664
	.loc 1 3377 0
	ldrb	w24, [x21,14]
	mov	w1, w22
	mov	w0, w24
	bl	VC1_Vfmw_DecPQUANT
.LVL733:
	str	w0, [x19,104]
	.loc 1 3378 0
	cmp	w22, 8
	bls	.L684
	.loc 1 3384 0
	strb	wzr, [x19,7]
.L666:
.LBB120:
.LBB121:
	.loc 1 3387 0
	cmp	w24, 1
	beq	.L685
	.loc 1 3393 0
	strb	wzr, [x19,8]
.L668:
	.loc 1 3396 0
	ldrb	w0, [x21,7]
	cmp	w0, 1
	beq	.L686
	.loc 1 3402 0
	strb	wzr, [x19,9]
.L670:
	.loc 1 3405 0
	ldrb	w0, [x21,4]
	cmp	w0, 1
	beq	.L671
	ldrb	w1, [x19,10]
.L672:
	.loc 1 3409 0
	mov	x0, x23
	bl	VC1_SetCurPicResolutionInfo
.LVL734:
	.loc 1 3411 0
	mov	x0, x20
	bl	BsPos
.LVL735:
	.loc 1 3411 0 is_stmt 0 discriminator 1
	mov	w2, w0
	adrp	x1, .LC25
	mov	w0, 18
	add	x1, x1, :lo12:.LC25
	bl	dprint_linux_kernel
.LVL736:
	.loc 1 3413 0 is_stmt 1
	ldrb	w1, [x19,104]
	mov	x0, x20
	bl	VC1_DecMvmodeProgrP
.LVL737:
	uxtb	w0, w0
	.loc 1 3414 0
	cmp	w0, 4
	.loc 1 3413 0
	strb	w0, [x19,11]
	.loc 1 3414 0
	beq	.L687
.L673:
	.loc 1 3421 0
	mov	x0, x20
	mov	x1, x23
	mov	x2, x21
	mov	w3, 0
	bl	BPD_Drv
.LVL738:
	cmp	w0, 1
	beq	.L688
	.loc 1 3455 0
	mov	w1, 2
	mov	x0, x20
	bl	BsGet
.LVL739:
	strb	w0, [x19,15]
	.loc 1 3456 0
	mov	w1, 2
	mov	x0, x20
	bl	BsGet
.LVL740:
	strb	w0, [x19,16]
	.loc 1 3459 0
	ldrb	w1, [x21,8]
	cbnz	w1, .L689
.L675:
	.loc 1 3463 0
	mov	x0, x20
	bl	BsPos
.LVL741:
	mov	w2, w0
	.loc 1 3463 0 is_stmt 0 discriminator 1
	adrp	x1, .LC27
	mov	w0, 18
	add	x1, x1, :lo12:.LC27
	bl	dprint_linux_kernel
.LVL742:
	.loc 1 3465 0 is_stmt 1
	ldrb	w1, [x21,9]
	cmp	w1, 1
	beq	.L690
.L677:
	.loc 1 3474 0
	mov	x0, x20
	bl	VC1_DecTransacfrm
.LVL743:
	strb	w0, [x19,19]
	.loc 1 3475 0
	mov	w1, 1
	mov	x0, x20
	bl	BsGet
.LVL744:
	strb	w0, [x19,21]
	.loc 1 3477 0
	mov	w1, 1
.L664:
.LBE121:
.LBE120:
	.loc 1 3478 0
	mov	w0, w1
	ldp	x19, x20, [sp,16]
	.cfi_remember_state
	.cfi_restore 20
	.cfi_restore 19
.LVL745:
	ldp	x21, x22, [sp,32]
	.cfi_restore 22
	.cfi_restore 21
.LVL746:
	ldp	x23, x24, [sp,48]
	.cfi_restore 24
	.cfi_restore 23
.LVL747:
	ldp	x29, x30, [sp], 64
	.cfi_restore 30
	.cfi_restore 29
	.cfi_def_cfa 31, 0
	ret
.LVL748:
.L684:
	.cfi_restore_state
	.loc 1 3380 0
	mov	x0, x20
	mov	w1, 1
	bl	BsGet
.LVL749:
	strb	w0, [x19,7]
	ldrb	w24, [x21,14]
	b	.L666
.L689:
.LBB124:
.LBB122:
	.loc 1 3461 0
	ldrb	w2, [x19,104]
	mov	x0, x20
	add	x3, x21, 272
	bl	VC1_VopDQuant
.LVL750:
	b	.L675
.L688:
	.loc 1 3423 0
	adrp	x2, .LANCHOR0
	adrp	x1, .LC26
	add	x2, x2, :lo12:.LANCHOR0
	add	x1, x1, :lo12:.LC26
	add	x2, x2, 336
	mov	w3, 3423
	mov	w0, 0
	bl	dprint_linux_kernel
.LVL751:
	.loc 1 3424 0
	mov	w1, 0
.LBE122:
.LBE124:
	.loc 1 3478 0
	mov	w0, w1
	ldp	x19, x20, [sp,16]
	.cfi_remember_state
	.cfi_restore 19
	.cfi_restore 20
.LVL752:
	ldp	x21, x22, [sp,32]
	.cfi_restore 21
	.cfi_restore 22
.LVL753:
	ldp	x23, x24, [sp,48]
	.cfi_restore 23
	.cfi_restore 24
.LVL754:
	ldp	x29, x30, [sp], 64
	.cfi_restore 29
	.cfi_restore 30
	.cfi_def_cfa 31, 0
	ret
.LVL755:
.L687:
	.cfi_restore_state
.LBB125:
.LBB123:
	.loc 1 3416 0
	ldrb	w1, [x19,104]
	mov	x0, x20
	bl	VC1_DecMvmode2
.LVL756:
	strb	w0, [x19,12]
	.loc 1 3417 0
	mov	w1, 6
	mov	x0, x20
	bl	BsGet
.LVL757:
	strb	w0, [x19,13]
	.loc 1 3418 0
	mov	w1, 6
	mov	x0, x20
	bl	BsGet
.LVL758:
	strb	w0, [x19,14]
	b	.L673
.L671:
	.loc 1 3407 0
	mov	w1, 2
	mov	x0, x20
	bl	BsGet
.LVL759:
	uxtb	w1, w0
	strb	w1, [x19,10]
	b	.L672
.L686:
	.loc 1 3398 0
	mov	x0, x20
	bl	VC1_DecMvrange
.LVL760:
	strb	w0, [x19,9]
	b	.L670
.L685:
	.loc 1 3389 0
	mov	x0, x20
	mov	w1, w24
	bl	BsGet
.LVL761:
	strb	w0, [x19,8]
	b	.L668
.L690:
	.loc 1 3467 0
	mov	x0, x20
	bl	BsGet
.LVL762:
	uxtb	w0, w0
	.loc 1 3468 0
	cmp	w0, 1
	.loc 1 3467 0
	strb	w0, [x19,17]
	.loc 1 3468 0
	bne	.L677
	.loc 1 3470 0
	mov	x0, x20
	mov	w1, 2
	bl	BsGet
.LVL763:
	strb	w0, [x19,18]
	b	.L677
.LBE123:
.LBE125:
	.cfi_endproc
.LFE2674:
	.size	VC1_Vfmw_ParseSMPPPicHdr, .-VC1_Vfmw_ParseSMPPPicHdr
	.align	2
	.global	VC1_Vfmw_ParseMPBPicHdr
	.type	VC1_Vfmw_ParseMPBPicHdr, %function
VC1_Vfmw_ParseMPBPicHdr:
.LFB2675:
	.loc 1 3481 0
	.cfi_startproc
.LVL764:
	stp	x29, x30, [sp, -64]!
	.cfi_def_cfa_offset 64
	.cfi_offset 29, -64
	.cfi_offset 30, -56
	add	x29, sp, 0
	.cfi_def_cfa_register 29
	stp	x19, x20, [sp,16]
	.cfi_offset 19, -48
	.cfi_offset 20, -40
	.loc 1 3485 0
	add	x19, x2, 248
	.loc 1 3481 0
	mov	x20, x2
	stp	x23, x24, [sp,48]
	.cfi_offset 23, -16
	.cfi_offset 24, -8
	mov	x24, x1
	.loc 1 3485 0
	mov	w1, 5
.LVL765:
	.loc 1 3481 0
	stp	x21, x22, [sp,32]
	.cfi_offset 21, -32
	.cfi_offset 22, -24
	.loc 1 3481 0
	mov	x21, x0
	.loc 1 3485 0
	bl	BsGet
.LVL766:
	uxtb	w22, w0
	strb	w22, [x19,6]
	.loc 1 3488 0
	mov	w1, 0
	.loc 1 3486 0
	cbz	w22, .L692
	.loc 1 3490 0
	ldrb	w23, [x20,14]
	mov	w1, w22
	mov	w0, w23
	bl	VC1_Vfmw_DecPQUANT
.LVL767:
	str	w0, [x19,104]
	.loc 1 3491 0
	cmp	w22, 8
	bls	.L711
	.loc 1 3497 0
	strb	wzr, [x19,7]
.L694:
.LBB128:
.LBB129:
	.loc 1 3500 0
	cmp	w23, 1
	beq	.L712
	.loc 1 3506 0
	strb	wzr, [x19,8]
.L696:
	.loc 1 3509 0
	ldrb	w0, [x20,7]
	cmp	w0, 1
	beq	.L713
	.loc 1 3515 0
	strb	wzr, [x19,9]
.L698:
	.loc 1 3519 0
	mov	w1, 1
	mov	x0, x21
	bl	BsGet
.LVL768:
	.loc 1 3519 0 is_stmt 0 discriminator 2
	cmp	w0, wzr
	mov	w2, 3
	.loc 1 3521 0 is_stmt 1
	mov	x1, x24
	.loc 1 3519 0 discriminator 2
	csinc	w2, w2, wzr, eq
	.loc 1 3521 0
	mov	x0, x21
	.loc 1 3519 0 discriminator 4
	strb	w2, [x19,11]
	.loc 1 3521 0
	mov	w3, 0
	mov	x2, x20
	bl	BPD_Drv
.LVL769:
	cmp	w0, 1
	beq	.L714
	.loc 1 3541 0
	mov	w1, 2
	mov	x0, x21
	bl	BsGet
.LVL770:
	strb	w0, [x19,15]
	.loc 1 3542 0
	mov	w1, 2
	mov	x0, x21
	bl	BsGet
.LVL771:
	strb	w0, [x19,16]
	.loc 1 3545 0
	ldrb	w1, [x20,8]
	cbnz	w1, .L715
.L701:
	.loc 1 3550 0
	ldrb	w1, [x20,9]
	cmp	w1, 1
	beq	.L716
.L703:
	.loc 1 3559 0
	mov	x0, x21
	bl	VC1_DecTransacfrm
.LVL772:
	strb	w0, [x19,19]
	.loc 1 3560 0
	mov	w1, 1
	mov	x0, x21
	bl	BsGet
.LVL773:
	strb	w0, [x19,21]
	.loc 1 3562 0
	mov	w1, 1
.L692:
.LBE129:
.LBE128:
	.loc 1 3563 0
	mov	w0, w1
	ldp	x19, x20, [sp,16]
	.cfi_remember_state
	.cfi_restore 20
	.cfi_restore 19
.LVL774:
	ldp	x21, x22, [sp,32]
	.cfi_restore 22
	.cfi_restore 21
.LVL775:
	ldp	x23, x24, [sp,48]
	.cfi_restore 24
	.cfi_restore 23
.LVL776:
	ldp	x29, x30, [sp], 64
	.cfi_restore 30
	.cfi_restore 29
	.cfi_def_cfa 31, 0
	ret
.LVL777:
.L711:
	.cfi_restore_state
	.loc 1 3493 0
	mov	x0, x21
	mov	w1, 1
	bl	BsGet
.LVL778:
	strb	w0, [x19,7]
	ldrb	w23, [x20,14]
	b	.L694
.L715:
.LBB132:
.LBB130:
	.loc 1 3547 0
	ldrb	w2, [x19,104]
	mov	x0, x21
	add	x3, x20, 272
	bl	VC1_VopDQuant
.LVL779:
	b	.L701
.L714:
	.loc 1 3523 0
	adrp	x2, .LANCHOR0
	adrp	x1, .LC26
	add	x2, x2, :lo12:.LANCHOR0
	add	x1, x1, :lo12:.LC26
	add	x2, x2, 368
	mov	w3, 3523
	mov	w0, 0
	bl	dprint_linux_kernel
.LVL780:
	.loc 1 3524 0
	mov	w1, 0
.LBE130:
.LBE132:
	.loc 1 3563 0
	mov	w0, w1
	ldp	x19, x20, [sp,16]
	.cfi_remember_state
	.cfi_restore 19
	.cfi_restore 20
.LVL781:
	ldp	x21, x22, [sp,32]
	.cfi_restore 21
	.cfi_restore 22
.LVL782:
	ldp	x23, x24, [sp,48]
	.cfi_restore 23
	.cfi_restore 24
.LVL783:
	ldp	x29, x30, [sp], 64
	.cfi_restore 29
	.cfi_restore 30
	.cfi_def_cfa 31, 0
	ret
.LVL784:
.L713:
	.cfi_restore_state
.LBB133:
.LBB131:
	.loc 1 3511 0
	mov	x0, x21
	bl	VC1_DecMvrange
.LVL785:
	strb	w0, [x19,9]
	b	.L698
.L712:
	.loc 1 3502 0
	mov	x0, x21
	mov	w1, w23
	bl	BsGet
.LVL786:
	strb	w0, [x19,8]
	b	.L696
.L716:
	.loc 1 3552 0
	mov	x0, x21
	bl	BsGet
.LVL787:
	uxtb	w0, w0
	.loc 1 3553 0
	cmp	w0, 1
	.loc 1 3552 0
	strb	w0, [x19,17]
	.loc 1 3553 0
	bne	.L703
	.loc 1 3555 0
	mov	x0, x21
	mov	w1, 2
	bl	BsGet
.LVL788:
	strb	w0, [x19,18]
	b	.L703
.LBE131:
.LBE133:
	.cfi_endproc
.LFE2675:
	.size	VC1_Vfmw_ParseMPBPicHdr, .-VC1_Vfmw_ParseMPBPicHdr
	.align	2
	.global	VC1_Vfmw_ParseSMPPicHdr
	.type	VC1_Vfmw_ParseSMPPicHdr, %function
VC1_Vfmw_ParseSMPPicHdr:
.LFB2676:
	.loc 1 3566 0
	.cfi_startproc
.LVL789:
	stp	x29, x30, [sp, -64]!
	.cfi_def_cfa_offset 64
	.cfi_offset 29, -64
	.cfi_offset 30, -56
	add	x29, sp, 0
	.cfi_def_cfa_register 29
	stp	x19, x20, [sp,16]
	.cfi_offset 19, -48
	.cfi_offset 20, -40
	.loc 1 3571 0
	add	x19, x2, 248
	.loc 1 3566 0
	str	x23, [sp,48]
	stp	x21, x22, [sp,32]
	.cfi_offset 23, -16
	.cfi_offset 21, -32
	.cfi_offset 22, -24
	.loc 1 3566 0
	mov	x20, x0
	mov	x21, x1
	.loc 1 3571 0
	ldrb	w23, [x19,10]
.LVL790:
	.loc 1 3572 0
	mov	x0, x1
.LVL791:
	.loc 1 3566 0
	mov	x22, x2
	.loc 1 3572 0
	mov	w1, w23
.LVL792:
	bl	VC1_SetCurPicResolutionInfo
.LVL793:
	.loc 1 3574 0
	ldr	w0, [x20,24]
	cmp	w0, 1
	ble	.L750
	.loc 1 3581 0
	stp	xzr, xzr, [x19]
	.loc 1 3588 0
	add	x0, x21, 20480
	mov	w1, 0
	mov	x2, 14336
	.loc 1 3587 0
	strb	w23, [x19,10]
	.loc 1 3581 0
	stp	xzr, xzr, [x19,16]
	stp	xzr, xzr, [x19,32]
	stp	xzr, xzr, [x19,48]
	stp	xzr, xzr, [x19,64]
	stp	xzr, xzr, [x19,80]
	stp	xzr, xzr, [x19,96]
	.loc 1 3588 0
	add	x0, x0, 1568
	.loc 1 3594 0
	add	x23, x21, 32768
.LVL794:
	.loc 1 3588 0
	bl	memset
.LVL795:
	.loc 1 3594 0
	ldr	w2, [x23,3616]
	adrp	x1, .LC28
	add	x1, x1, :lo12:.LC28
	mov	w0, 18
	bl	dprint_linux_kernel
.LVL796:
	.loc 1 3596 0
	mov	x0, x20
	bl	BsPos
.LVL797:
	str	w0, [x19,88]
	.loc 1 3597 0
	ldrb	w0, [x22,15]
	cbnz	w0, .L720
	ldrb	w2, [x22,248]
.L721:
	.loc 1 3602 0
	adrp	x1, .LC29
	mov	w0, 18
	add	x1, x1, :lo12:.LC29
	bl	dprint_linux_kernel
.LVL798:
	.loc 1 3604 0
	mov	x0, x20
	mov	w1, 2
	bl	BsGet
.LVL799:
	strb	w0, [x19,1]
	.loc 1 3605 0
	ldrb	w0, [x22,12]
	cbnz	w0, .L751
.L722:
	.loc 1 3611 0
	ldrb	w0, [x22,13]
	cbnz	w0, .L723
	.loc 1 3613 0
	mov	x0, x20
	mov	w1, 1
	bl	BsGet
.LVL800:
	cmp	w0, wzr
	cset	w0, ne
	strb	w0, [x19,3]
.L724:
	.loc 1 3642 0
	strb	w0, [x21,2]
	.loc 1 3643 0
	strb	wzr, [x21,4]
	.loc 1 3644 0
	ldrb	w0, [x19,3]
	cmp	w0, 4
	bhi	.L748
	adrp	x1, .L729
	add	x1, x1, :lo12:.L729
	ldrb	w0, [x1,w0,uxtw]
	adr	x1, .Lrtx729
	add	x0, x1, w0, sxtb #2
	br	x0
.Lrtx729:
	.section	.rodata
	.align	0
	.align	2
.L729:
	.byte	(.L747 - .Lrtx729) / 4
	.byte	(.L730 - .Lrtx729) / 4
	.byte	(.L731 - .Lrtx729) / 4
	.byte	(.L748 - .Lrtx729) / 4
	.byte	(.L732 - .Lrtx729) / 4
	.text
.L732:
	.loc 1 3663 0
	ldrb	w0, [x21,3120]
	cmp	w0, 1
	bne	.L748
.L747:
	.loc 1 3665 0
	mov	x1, x21
	mov	x0, x20
	mov	x2, x22
	bl	VC1_Vfmw_ParseSMPIPicHdr
.LVL801:
	mov	w21, w0
.LVL802:
.L733:
	.loc 1 3676 0
	mov	x0, x20
	bl	BsPos
.LVL803:
	ldr	w1, [x19,88]
	sub	w0, w0, w1
	str	w0, [x19,88]
	.loc 1 3677 0
	mov	x0, x20
	ldr	w19, [x23,3636]
	bl	BsPos
.LVL804:
	lsl	w19, w19, 3
	sub	w19, w19, w0
.LVL805:
	.loc 1 3684 0
	mov	w0, w21
	.loc 1 3678 0
	cmp	w19, wzr
	bgt	.L742
	.loc 1 3680 0
	adrp	x1, .LC30
	mov	w0, 1
	add	x1, x1, :lo12:.LC30
	bl	dprint_linux_kernel
.LVL806:
.L748:
	.loc 1 3681 0
	mov	w0, 0
.L742:
	.loc 1 3685 0
	ldp	x19, x20, [sp,16]
	.cfi_remember_state
	.cfi_restore 20
	.cfi_restore 19
.LVL807:
	ldp	x21, x22, [sp,32]
	.cfi_restore 22
	.cfi_restore 21
.LVL808:
	ldr	x23, [sp,48]
	.cfi_restore 23
	ldp	x29, x30, [sp], 64
	.cfi_restore 30
	.cfi_restore 29
	.cfi_def_cfa 31, 0
	ret
.LVL809:
.L750:
	.cfi_restore_state
	.loc 1 3576 0
	mov	w0, 5
	strb	w0, [x19,3]
	.loc 1 3577 0
	strb	w0, [x21,2]
	.loc 1 3578 0
	mov	w0, 1
	.loc 1 3685 0
	ldp	x19, x20, [sp,16]
	.cfi_remember_state
	.cfi_restore 19
	.cfi_restore 20
.LVL810:
	ldp	x21, x22, [sp,32]
	.cfi_restore 21
	.cfi_restore 22
.LVL811:
	ldr	x23, [sp,48]
	.cfi_restore 23
.LVL812:
	ldp	x29, x30, [sp], 64
	.cfi_restore 29
	.cfi_restore 30
	.cfi_def_cfa 31, 0
	ret
.LVL813:
.L723:
	.cfi_restore_state
	.loc 1 3618 0
	mov	x0, x20
	mov	w1, 1
	bl	BsGet
.LVL814:
	cmp	w0, 1
	beq	.L752
	.loc 1 3624 0
	mov	x0, x20
	mov	w1, 1
	bl	BsGet
.LVL815:
	cmp	w0, 1
	beq	.L753
	.loc 1 3624 0 is_stmt 0 discriminator 4
	mov	w1, 2
	.loc 1 3630 0 is_stmt 1
	mov	x0, x20
	.loc 1 3624 0 discriminator 4
	strb	w1, [x19,3]
	.loc 1 3630 0
	add	x2, x22, 251
	add	x1, x22, 356
	bl	VC1_DecBfractionSMP
.LVL816:
	uxtb	w0, w0
	.loc 1 3635 0
	cmp	w0, 21
	.loc 1 3630 0
	strb	w0, [x19,4]
	.loc 1 3635 0
	beq	.L748
	ldrb	w0, [x19,3]
	b	.L724
.L720:
	.loc 1 3599 0
	mov	x0, x20
	mov	w1, 1
	bl	BsGet
.LVL817:
	uxtb	w2, w0
	strb	w2, [x22,248]
	b	.L721
.L752:
	.loc 1 3620 0
	strb	w0, [x19,3]
	b	.L724
.L731:
	.loc 1 3653 0
	ldrb	w0, [x21,3120]
	cmp	w0, 1
	bne	.L748
	.loc 1 3655 0
	mov	x1, x21
	mov	x0, x20
	mov	x2, x22
	bl	VC1_Vfmw_ParseMPBPicHdr
.LVL818:
	mov	w21, w0
.LVL819:
	.loc 1 3656 0
	b	.L733
.LVL820:
.L730:
	.loc 1 3650 0
	mov	x1, x21
	mov	x0, x20
	mov	x2, x22
	bl	VC1_Vfmw_ParseSMPPPicHdr
.LVL821:
	mov	w21, w0
.LVL822:
	.loc 1 3651 0
	b	.L733
.LVL823:
.L751:
	.loc 1 3607 0
	mov	x0, x20
	mov	w1, 1
	bl	BsGet
.LVL824:
	strb	w0, [x19,2]
	b	.L722
.L753:
	.loc 1 3624 0 discriminator 4
	strb	wzr, [x19,3]
	.loc 1 3624 0 is_stmt 0 discriminator 1
	mov	w0, 0
	b	.L724
	.cfi_endproc
.LFE2676:
	.size	VC1_Vfmw_ParseSMPPicHdr, .-VC1_Vfmw_ParseSMPPicHdr
	.align	2
	.global	VC1_Vfmw_ParseAdvIPicHdr
	.type	VC1_Vfmw_ParseAdvIPicHdr, %function
VC1_Vfmw_ParseAdvIPicHdr:
.LFB2681:
	.loc 1 3902 0 is_stmt 1
	.cfi_startproc
.LVL825:
	stp	x29, x30, [sp, -80]!
	.cfi_def_cfa_offset 80
	.cfi_offset 29, -80
	.cfi_offset 30, -72
	add	x29, sp, 0
	.cfi_def_cfa_register 29
	stp	x19, x20, [sp,16]
	.cfi_offset 19, -64
	.cfi_offset 20, -56
	mov	x20, x2
	.loc 1 3908 0
	add	x19, x2, 360
	.loc 1 3902 0
	stp	x25, x26, [sp,64]
	.cfi_offset 25, -16
	.cfi_offset 26, -8
	mov	x25, x1
	.loc 1 3908 0
	mov	w1, 1
.LVL826:
	.loc 1 3902 0
	stp	x23, x24, [sp,48]
	.cfi_offset 23, -32
	.cfi_offset 24, -24
	.loc 1 3909 0
	add	x23, x2, 16
	.loc 1 3902 0
	stp	x21, x22, [sp,32]
	.cfi_offset 21, -48
	.cfi_offset 22, -40
	.loc 1 3902 0
	mov	x21, x0
	.loc 1 3908 0
	bl	BsGet
.LVL827:
	strb	w0, [x20,360]
	.loc 1 3909 0
	ldrb	w1, [x23,7]
	cmp	w1, 1
	beq	.L768
.L755:
	.loc 1 3914 0
	ldr	w0, [x19,44]
	cbnz	w0, .L756
	.loc 1 3916 0
	ldrb	w1, [x23,9]
	cmp	w1, 1
	beq	.L769
.L756:
	.loc 1 3922 0
	mov	x0, x21
	mov	w1, 5
	.loc 1 3925 0
	mov	w24, 0
	.loc 1 3922 0
	bl	BsGet
.LVL828:
	uxtb	w22, w0
	strb	w22, [x19,10]
	.loc 1 3923 0
	cbz	w22, .L757
	.loc 1 3927 0
	add	x26, x20, 188
	ldrb	w24, [x26,10]
	mov	w1, w22
	mov	w0, w24
	bl	VC1_Vfmw_DecPQUANT
.LVL829:
	str	w0, [x19,116]
	.loc 1 3928 0
	cmp	w22, 8
	bls	.L770
	.loc 1 3934 0
	strb	wzr, [x19,3]
.L759:
	.loc 1 3937 0
	cmp	w24, 1
	beq	.L771
	.loc 1 3943 0
	strb	wzr, [x19,11]
.L761:
	.loc 1 3946 0
	ldrb	w0, [x23,5]
	cmp	w0, 1
	beq	.L772
.L762:
	.loc 1 3952 0
	mov	x0, x21
	mov	x1, x25
	mov	x2, x20
	mov	w3, 0
	bl	BPD_Drv
.LVL830:
	cmp	w0, 1
	beq	.L773
	.loc 1 3993 0
	mov	x0, x21
	.loc 1 4004 0
	mov	w24, 1
	.loc 1 3993 0
	bl	VC1_DecTransacfrm
.LVL831:
	strb	w0, [x19,22]
	.loc 1 3994 0
	mov	x0, x21
	bl	VC1_DecTransacfrm
.LVL832:
	strb	w0, [x19,23]
	.loc 1 3996 0
	mov	w1, w24
	mov	x0, x21
	bl	BsGet
.LVL833:
	strb	w0, [x19,24]
	.loc 1 3999 0
	ldrb	w1, [x26,7]
	cbnz	w1, .L774
.L757:
	.loc 1 4005 0
	mov	w0, w24
	ldp	x19, x20, [sp,16]
	.cfi_remember_state
	.cfi_restore 20
	.cfi_restore 19
.LVL834:
	ldp	x21, x22, [sp,32]
	.cfi_restore 22
	.cfi_restore 21
.LVL835:
	ldp	x23, x24, [sp,48]
	.cfi_restore 24
	.cfi_restore 23
	ldp	x25, x26, [sp,64]
	.cfi_restore 26
	.cfi_restore 25
.LVL836:
	ldp	x29, x30, [sp], 80
	.cfi_restore 30
	.cfi_restore 29
	.cfi_def_cfa 31, 0
	ret
.LVL837:
.L774:
	.cfi_restore_state
	.loc 1 4001 0
	ldrb	w2, [x19,116]
	add	x3, x20, 520
	mov	x0, x21
	bl	VC1_VopDQuant
.LVL838:
	.loc 1 4005 0
	mov	w0, w24
	ldp	x19, x20, [sp,16]
	.cfi_remember_state
	.cfi_restore 19
	.cfi_restore 20
.LVL839:
	ldp	x21, x22, [sp,32]
	.cfi_restore 21
	.cfi_restore 22
.LVL840:
	ldp	x23, x24, [sp,48]
	.cfi_restore 23
	.cfi_restore 24
	ldp	x25, x26, [sp,64]
	.cfi_restore 25
	.cfi_restore 26
.LVL841:
	ldp	x29, x30, [sp], 80
	.cfi_restore 29
	.cfi_restore 30
	.cfi_def_cfa 31, 0
	ret
.LVL842:
.L770:
	.cfi_restore_state
	.loc 1 3930 0
	mov	x0, x21
	mov	w1, 1
	bl	BsGet
.LVL843:
	strb	w0, [x19,3]
	ldrb	w24, [x26,10]
	b	.L759
.L769:
	.loc 1 3918 0
	mov	x0, x21
	bl	BsGet
.LVL844:
	strb	w0, [x19,9]
	b	.L756
.L768:
	.loc 1 3911 0
	mov	x0, x21
	bl	BsGet
.LVL845:
	strb	w0, [x19,8]
	b	.L755
.L773:
	.loc 1 3954 0
	adrp	x1, .LC26
	adrp	x2, .LANCHOR1
	add	x1, x1, :lo12:.LC26
	add	x2, x2, :lo12:.LANCHOR1
	mov	w3, 3954
	mov	w0, 0
	.loc 1 3955 0
	mov	w24, 0
	.loc 1 3954 0
	bl	dprint_linux_kernel
.LVL846:
	.loc 1 4005 0
	mov	w0, w24
	ldp	x19, x20, [sp,16]
	.cfi_remember_state
	.cfi_restore 19
	.cfi_restore 20
.LVL847:
	ldp	x21, x22, [sp,32]
	.cfi_restore 21
	.cfi_restore 22
.LVL848:
	ldp	x23, x24, [sp,48]
	.cfi_restore 23
	.cfi_restore 24
	ldp	x25, x26, [sp,64]
	.cfi_restore 25
	.cfi_restore 26
.LVL849:
	ldp	x29, x30, [sp], 80
	.cfi_restore 29
	.cfi_restore 30
	.cfi_def_cfa 31, 0
	ret
.LVL850:
.L771:
	.cfi_restore_state
	.loc 1 3939 0
	mov	x0, x21
	mov	w1, w24
	bl	BsGet
.LVL851:
	strb	w0, [x19,11]
	b	.L761
.L772:
	.loc 1 3948 0
	mov	x0, x21
	mov	w1, 2
	bl	BsGet
.LVL852:
	strb	w0, [x19,12]
	b	.L762
	.cfi_endproc
.LFE2681:
	.size	VC1_Vfmw_ParseAdvIPicHdr, .-VC1_Vfmw_ParseAdvIPicHdr
	.align	2
	.global	VC1_Vfmw_ParseAdvPPicHdr
	.type	VC1_Vfmw_ParseAdvPPicHdr, %function
VC1_Vfmw_ParseAdvPPicHdr:
.LFB2682:
	.loc 1 4008 0
	.cfi_startproc
.LVL853:
	stp	x29, x30, [sp, -80]!
	.cfi_def_cfa_offset 80
	.cfi_offset 29, -80
	.cfi_offset 30, -72
	add	x29, sp, 0
	.cfi_def_cfa_register 29
	stp	x21, x22, [sp,32]
	.cfi_offset 21, -48
	.cfi_offset 22, -40
	mov	x21, x2
	.loc 1 4017 0
	add	x22, x2, 16
	.loc 1 4008 0
	stp	x25, x26, [sp,64]
	.cfi_offset 25, -16
	.cfi_offset 26, -8
	mov	x26, x1
	.loc 1 4016 0
	mov	w1, 1
.LVL854:
	.loc 1 4008 0
	stp	x19, x20, [sp,16]
	stp	x23, x24, [sp,48]
	.cfi_offset 19, -64
	.cfi_offset 20, -56
	.cfi_offset 23, -32
	.cfi_offset 24, -24
	.loc 1 4008 0
	mov	x20, x0
	.loc 1 4016 0
	add	x19, x2, 360
	bl	BsGet
.LVL855:
	strb	w0, [x21,360]
	.loc 1 4017 0
	ldrb	w0, [x22,7]
	cmp	w0, 1
	beq	.L776
	.loc 1 4017 0 is_stmt 0 discriminator 1
	ldr	w0, [x19,44]
	cmp	w0, 2
	beq	.L776
	.loc 1 4022 0 is_stmt 1
	ldrb	w1, [x22,9]
	cmp	w1, 1
	beq	.L810
.L778:
	.loc 1 4027 0
	mov	w1, 5
	mov	x0, x20
	bl	BsGet
.LVL856:
	uxtb	w23, w0
	strb	w23, [x19,10]
	.loc 1 4030 0
	mov	w1, 0
	.loc 1 4028 0
	cbz	w23, .L779
	.loc 1 4032 0
	add	x24, x21, 188
	ldrb	w25, [x24,10]
	mov	w1, w23
	mov	w0, w25
	bl	VC1_Vfmw_DecPQUANT
.LVL857:
	str	w0, [x19,116]
	.loc 1 4033 0
	cmp	w23, 8
	bls	.L811
	.loc 1 4039 0
	strb	wzr, [x19,3]
.L781:
	.loc 1 4042 0
	cmp	w25, 1
	beq	.L812
	.loc 1 4048 0
	strb	wzr, [x19,11]
.L783:
	.loc 1 4051 0
	ldrb	w0, [x22,5]
	cmp	w0, 1
	beq	.L813
.L784:
	.loc 1 4056 0
	ldrb	w0, [x24,6]
	cmp	w0, 1
	beq	.L814
.L785:
	.loc 1 4061 0
	ldr	w0, [x19,44]
	cbz	w0, .L815
	.loc 1 4091 0
	ldrb	w0, [x24,12]
	cmp	w0, 1
	beq	.L816
	.loc 1 4097 0
	strb	wzr, [x19,25]
.L789:
	.loc 1 4100 0
	mov	w1, 1
	mov	x0, x20
	bl	BsGet
.LVL858:
	strb	w0, [x19,26]
	.loc 1 4101 0
	mov	w1, 1
	mov	x0, x20
	bl	BsGet
.LVL859:
	.loc 1 4102 0
	cmp	w0, 1
	.loc 1 4101 0
	str	w0, [x19,120]
	.loc 1 4102 0
	beq	.L817
.L790:
	.loc 1 4107 0
	strb	wzr, [x19,34]
.L787:
	.loc 1 4110 0
	mov	x0, x20
	mov	x1, x26
	mov	x2, x21
	mov	w3, 0
	bl	BPD_Drv
.LVL860:
	cmp	w0, 1
	beq	.L818
	.loc 1 4129 0
	ldr	w1, [x19,44]
	cmp	w1, 2
	beq	.L819
.L792:
	.loc 1 4134 0
	mov	w1, 2
	mov	x0, x20
	bl	BsGet
.LVL861:
	strb	w0, [x19,18]
	.loc 1 4135 0
	ldr	w1, [x19,44]
	.loc 1 4135 0 is_stmt 0 discriminator 2
	mov	x0, x20
	.loc 1 4135 0
	cbnz	w1, .L793
	.loc 1 4135 0 discriminator 2
	mov	w1, 2
	bl	BsGet
.LVL862:
	.loc 1 4135 0 discriminator 1
	uxtb	w0, w0
.L794:
	.loc 1 4136 0 is_stmt 1
	ldr	w22, [x19,44]
	.loc 1 4135 0 discriminator 5
	strb	w0, [x19,19]
	.loc 1 4136 0
	cmp	w22, 2
	beq	.L820
.L795:
	.loc 1 4143 0
	ldrb	w1, [x24,7]
	cbnz	w1, .L821
.L797:
	.loc 1 4148 0
	ldrb	w1, [x24,8]
	cmp	w1, 1
	beq	.L822
.L799:
	.loc 1 4157 0
	mov	x0, x20
	bl	VC1_DecTransacfrm
.LVL863:
	strb	w0, [x19,22]
	.loc 1 4158 0
	mov	w1, 1
	mov	x0, x20
	bl	BsGet
.LVL864:
	strb	w0, [x19,24]
	.loc 1 4160 0
	mov	w1, 1
.L779:
	.loc 1 4161 0
	mov	w0, w1
	ldp	x19, x20, [sp,16]
	.cfi_remember_state
	.cfi_restore 20
	.cfi_restore 19
.LVL865:
	ldp	x21, x22, [sp,32]
	.cfi_restore 22
	.cfi_restore 21
.LVL866:
	ldp	x23, x24, [sp,48]
	.cfi_restore 24
	.cfi_restore 23
	ldp	x25, x26, [sp,64]
	.cfi_restore 26
	.cfi_restore 25
.LVL867:
	ldp	x29, x30, [sp], 80
	.cfi_restore 30
	.cfi_restore 29
	.cfi_def_cfa 31, 0
	ret
.LVL868:
.L776:
	.cfi_restore_state
	.loc 1 4019 0
	mov	w1, 1
	mov	x0, x20
	bl	BsGet
.LVL869:
	strb	w0, [x19,8]
	.loc 1 4022 0
	ldrb	w1, [x22,9]
	cmp	w1, 1
	bne	.L778
.L810:
	.loc 1 4022 0 is_stmt 0 discriminator 1
	ldr	w0, [x19,44]
	cbnz	w0, .L778
	.loc 1 4024 0 is_stmt 1
	mov	x0, x20
	bl	BsGet
.LVL870:
	strb	w0, [x19,9]
	b	.L778
.L793:
	.loc 1 4135 0 discriminator 4
	mov	w1, 3
	bl	BsGet
.LVL871:
	.loc 1 4135 0 is_stmt 0 discriminator 2
	uxtb	w0, w0
	b	.L794
.L811:
	.loc 1 4035 0 is_stmt 1
	mov	x0, x20
	mov	w1, 1
	bl	BsGet
.LVL872:
	strb	w0, [x19,3]
	ldrb	w25, [x24,10]
	b	.L781
.L817:
	.loc 1 4104 0
	mov	w1, 6
	mov	x0, x20
	bl	BsGet
.LVL873:
	strb	w0, [x19,16]
	.loc 1 4105 0
	mov	w1, 6
	mov	x0, x20
	bl	BsGet
.LVL874:
	strb	w0, [x19,17]
	b	.L790
.L815:
	.loc 1 4065 0
	ldrb	w1, [x19,116]
	mov	x0, x20
	bl	VC1_DecMvmodeProgrP
.LVL875:
	uxtb	w0, w0
	.loc 1 4066 0
	cmp	w0, 4
	.loc 1 4065 0
	strb	w0, [x19,14]
	.loc 1 4066 0
	bne	.L787
	.loc 1 4068 0
	ldrb	w1, [x19,116]
	mov	x0, x20
	bl	VC1_DecMvmode2
.LVL876:
	strb	w0, [x19,15]
	.loc 1 4069 0
	mov	w1, 6
	mov	x0, x20
	bl	BsGet
.LVL877:
	strb	w0, [x19,16]
	.loc 1 4070 0
	mov	w1, 6
	mov	x0, x20
	bl	BsGet
.LVL878:
	strb	w0, [x19,17]
	b	.L787
.L821:
	.loc 1 4145 0
	ldrb	w2, [x19,116]
	mov	x0, x20
	add	x3, x21, 520
	bl	VC1_VopDQuant
.LVL879:
	b	.L797
.L814:
	.loc 1 4058 0
	mov	x0, x20
	bl	VC1_DecMvrange
.LVL880:
	strb	w0, [x19,13]
	b	.L785
.L813:
	.loc 1 4053 0
	mov	x0, x20
	mov	w1, 2
	bl	BsGet
.LVL881:
	strb	w0, [x19,12]
	b	.L784
.L812:
	.loc 1 4044 0
	mov	x0, x20
	mov	w1, w25
	bl	BsGet
.LVL882:
	strb	w0, [x19,11]
	b	.L783
.L822:
	.loc 1 4150 0
	mov	x0, x20
	bl	BsGet
.LVL883:
	uxtb	w0, w0
	.loc 1 4151 0
	cmp	w0, 1
	.loc 1 4150 0
	strb	w0, [x19,20]
	.loc 1 4151 0
	bne	.L799
	.loc 1 4153 0
	mov	x0, x20
	mov	w1, 2
	bl	BsGet
.LVL884:
	strb	w0, [x19,21]
	b	.L799
.L820:
	.loc 1 4138 0
	mov	w1, w22
	mov	x0, x20
	bl	BsGet
.LVL885:
	strb	w0, [x19,28]
	.loc 1 4139 0
	ldrb	w1, [x19,26]
	.loc 1 4139 0 is_stmt 0 discriminator 2
	mov	w0, 0
	.loc 1 4139 0
	cmp	w1, 1
	beq	.L823
	.loc 1 4139 0 discriminator 4
	strb	w0, [x19,29]
	b	.L795
.L819:
	.loc 1 4131 0 is_stmt 1
	mov	x0, x20
	bl	BsGet
.LVL886:
	strb	w0, [x19,27]
	b	.L792
.L816:
	.loc 1 4093 0
	mov	x0, x20
	bl	VC1_DecMvrange
.LVL887:
	strb	w0, [x19,25]
	b	.L789
.L818:
	.loc 1 4112 0
	adrp	x2, .LANCHOR1
	adrp	x1, .LC26
	add	x2, x2, :lo12:.LANCHOR1
	add	x1, x1, :lo12:.LC26
	mov	w0, 0
	add	x2, x2, 32
	mov	w3, 4112
	bl	dprint_linux_kernel
.LVL888:
	.loc 1 4113 0
	mov	w1, 0
	b	.L779
.L823:
	.loc 1 4139 0 discriminator 2
	mov	x0, x20
	mov	w1, w22
	bl	BsGet
.LVL889:
	.loc 1 4139 0 is_stmt 0 discriminator 1
	uxtb	w0, w0
	.loc 1 4139 0 discriminator 4
	strb	w0, [x19,29]
	b	.L795
	.cfi_endproc
.LFE2682:
	.size	VC1_Vfmw_ParseAdvPPicHdr, .-VC1_Vfmw_ParseAdvPPicHdr
	.align	2
	.global	VC1_Vfmw_ParseAdvBPicHdr
	.type	VC1_Vfmw_ParseAdvBPicHdr, %function
VC1_Vfmw_ParseAdvBPicHdr:
.LFB2683:
	.loc 1 4164 0 is_stmt 1
	.cfi_startproc
.LVL890:
	stp	x29, x30, [sp, -80]!
	.cfi_def_cfa_offset 80
	.cfi_offset 29, -80
	.cfi_offset 30, -72
	add	x29, sp, 0
	.cfi_def_cfa_register 29
	stp	x21, x22, [sp,32]
	.cfi_offset 21, -48
	.cfi_offset 22, -40
	mov	x21, x2
	.loc 1 4170 0
	add	x22, x2, 16
	.loc 1 4164 0
	stp	x25, x26, [sp,64]
	.cfi_offset 25, -16
	.cfi_offset 26, -8
	mov	x25, x1
	.loc 1 4169 0
	mov	w1, 1
.LVL891:
	.loc 1 4164 0
	stp	x19, x20, [sp,16]
	stp	x23, x24, [sp,48]
	.cfi_offset 19, -64
	.cfi_offset 20, -56
	.cfi_offset 23, -32
	.cfi_offset 24, -24
	.loc 1 4164 0
	mov	x20, x0
	.loc 1 4169 0
	add	x19, x2, 360
	bl	BsGet
.LVL892:
	strb	w0, [x21,360]
	.loc 1 4170 0
	ldrb	w0, [x22,7]
	cmp	w0, 1
	beq	.L825
	.loc 1 4170 0 is_stmt 0 discriminator 1
	ldr	w2, [x19,44]
	cmp	w2, 2
	beq	.L825
.L826:
	.loc 1 4175 0 is_stmt 1
	ldrb	w1, [x22,9]
	cmp	w1, 1
	beq	.L865
.L827:
	.loc 1 4180 0
	cbnz	w2, .L831
	.loc 1 4183 0
	mov	x0, x20
	add	x1, x21, 508
	bl	VC1_DecBfraction
.LVL893:
	uxtb	w0, w0
	.loc 1 4184 0
	cmp	w0, 21
	.loc 1 4183 0
	strb	w0, [x19,2]
	.loc 1 4184 0
	beq	.L864
.L831:
	.loc 1 4190 0
	mov	x0, x20
	mov	w1, 5
	bl	BsGet
.LVL894:
	uxtb	w23, w0
	strb	w23, [x19,10]
	.loc 1 4191 0
	cbz	w23, .L864
	.loc 1 4195 0
	add	x24, x21, 188
	ldrb	w26, [x24,10]
	uxtb	w1, w0
	mov	w0, w26
	bl	VC1_Vfmw_DecPQUANT
.LVL895:
	str	w0, [x19,116]
	.loc 1 4196 0
	cmp	w23, 8
	bls	.L866
	.loc 1 4202 0
	strb	wzr, [x19,3]
.L834:
	.loc 1 4205 0
	cmp	w26, 1
	beq	.L867
	.loc 1 4211 0
	strb	wzr, [x19,11]
.L836:
	.loc 1 4214 0
	ldrb	w0, [x22,5]
	cmp	w0, 1
	beq	.L868
.L837:
	.loc 1 4219 0
	ldr	w0, [x19,44]
	cmp	w0, 2
	beq	.L869
.L838:
	.loc 1 4225 0
	ldrb	w0, [x24,6]
	cmp	w0, 1
	beq	.L870
.L839:
	.loc 1 4230 0
	ldr	w0, [x19,44]
	cbz	w0, .L871
	.loc 1 4239 0
	ldrb	w0, [x24,12]
	cmp	w0, 1
	beq	.L872
.L843:
	.loc 1 4245 0
	mov	x0, x20
	mov	w1, 1
	bl	BsGet
.LVL896:
	str	w0, [x19,120]
.L842:
	.loc 1 4248 0
	mov	x0, x20
	mov	x1, x25
	mov	x2, x21
	mov	w3, 0
	bl	BPD_Drv
.LVL897:
	cmp	w0, 1
	beq	.L873
	.loc 1 4268 0
	ldr	w1, [x19,44]
	cmp	w1, 2
	beq	.L874
.L845:
	.loc 1 4273 0
	mov	w1, 2
	mov	x0, x20
	bl	BsGet
.LVL898:
	strb	w0, [x19,18]
	.loc 1 4274 0
	ldr	w1, [x19,44]
	.loc 1 4274 0 is_stmt 0 discriminator 2
	mov	x0, x20
	.loc 1 4274 0
	cbnz	w1, .L846
	.loc 1 4274 0 discriminator 2
	mov	w1, 2
	bl	BsGet
.LVL899:
	.loc 1 4274 0 discriminator 1
	uxtb	w0, w0
.L847:
	.loc 1 4276 0 is_stmt 1
	ldr	w22, [x19,44]
	.loc 1 4274 0 discriminator 5
	strb	w0, [x19,19]
	.loc 1 4276 0
	cmp	w22, 2
	beq	.L875
.L848:
	.loc 1 4283 0
	ldrb	w1, [x24,7]
	cbnz	w1, .L876
.L849:
	.loc 1 4288 0
	ldrb	w1, [x24,8]
	cmp	w1, 1
	beq	.L877
.L851:
	.loc 1 4297 0
	mov	x0, x20
	bl	VC1_DecTransacfrm
.LVL900:
	strb	w0, [x19,22]
	.loc 1 4298 0
	mov	w1, 1
	mov	x0, x20
	bl	BsGet
.LVL901:
	strb	w0, [x19,24]
	.loc 1 4300 0
	mov	w1, 1
	.loc 1 4301 0
	mov	w0, w1
	ldp	x19, x20, [sp,16]
	.cfi_remember_state
	.cfi_restore 19
	.cfi_restore 20
.LVL902:
	ldp	x21, x22, [sp,32]
	.cfi_restore 21
	.cfi_restore 22
.LVL903:
	ldp	x23, x24, [sp,48]
	.cfi_restore 23
	.cfi_restore 24
	ldp	x25, x26, [sp,64]
	.cfi_restore 25
	.cfi_restore 26
.LVL904:
	ldp	x29, x30, [sp], 80
	.cfi_restore 29
	.cfi_restore 30
	.cfi_def_cfa 31, 0
	ret
.LVL905:
.L873:
	.cfi_restore_state
	.loc 1 4250 0
	adrp	x2, .LANCHOR1
	adrp	x1, .LC26
	add	x2, x2, :lo12:.LANCHOR1
	mov	w0, 0
	add	x1, x1, :lo12:.LC26
	add	x2, x2, 64
	mov	w3, 4250
	bl	dprint_linux_kernel
.LVL906:
.L864:
	.loc 1 4251 0
	mov	w1, 0
	.loc 1 4301 0
	mov	w0, w1
	ldp	x19, x20, [sp,16]
	.cfi_remember_state
	.cfi_restore 20
	.cfi_restore 19
.LVL907:
	ldp	x21, x22, [sp,32]
	.cfi_restore 22
	.cfi_restore 21
.LVL908:
	ldp	x23, x24, [sp,48]
	.cfi_restore 24
	.cfi_restore 23
	ldp	x25, x26, [sp,64]
	.cfi_restore 26
	.cfi_restore 25
.LVL909:
	ldp	x29, x30, [sp], 80
	.cfi_restore 30
	.cfi_restore 29
	.cfi_def_cfa 31, 0
	ret
.LVL910:
.L865:
	.cfi_restore_state
	.loc 1 4175 0 discriminator 1
	cbnz	w2, .L831
	.loc 1 4177 0
	mov	x0, x20
	bl	BsGet
.LVL911:
	strb	w0, [x19,9]
	ldr	w2, [x19,44]
	b	.L827
.L825:
	.loc 1 4172 0
	mov	x0, x20
	mov	w1, 1
	bl	BsGet
.LVL912:
	strb	w0, [x19,8]
	ldr	w2, [x19,44]
	b	.L826
.L846:
	.loc 1 4274 0 discriminator 4
	mov	w1, 3
	bl	BsGet
.LVL913:
	.loc 1 4274 0 is_stmt 0 discriminator 2
	uxtb	w0, w0
	b	.L847
.L866:
	.loc 1 4198 0 is_stmt 1
	mov	x0, x20
	mov	w1, 1
	bl	BsGet
.LVL914:
	strb	w0, [x19,3]
	ldrb	w26, [x24,10]
	b	.L834
.L871:
	.loc 1 4234 0
	mov	x0, x20
	mov	w1, 1
	bl	BsGet
.LVL915:
	.loc 1 4234 0 is_stmt 0 discriminator 2
	cmp	w0, wzr
	mov	w0, 3
	csinc	w0, w0, wzr, eq
	.loc 1 4234 0 discriminator 4
	strb	w0, [x19,14]
	b	.L842
.L876:
	.loc 1 4285 0 is_stmt 1
	ldrb	w2, [x19,116]
	mov	x0, x20
	add	x3, x21, 520
	bl	VC1_VopDQuant
.LVL916:
	b	.L849
.L870:
	.loc 1 4227 0
	mov	x0, x20
	bl	VC1_DecMvrange
.LVL917:
	strb	w0, [x19,13]
	b	.L839
.L869:
	.loc 1 4222 0
	mov	x0, x20
	add	x1, x21, 508
	bl	VC1_DecBfraction
.LVL918:
	strb	w0, [x19,2]
	b	.L838
.L868:
	.loc 1 4216 0
	mov	x0, x20
	mov	w1, 2
	bl	BsGet
.LVL919:
	strb	w0, [x19,12]
	b	.L837
.L867:
	.loc 1 4207 0
	mov	x0, x20
	mov	w1, w26
	bl	BsGet
.LVL920:
	strb	w0, [x19,11]
	b	.L836
.L875:
	.loc 1 4278 0
	mov	w1, w22
	mov	x0, x20
	bl	BsGet
.LVL921:
	strb	w0, [x19,28]
	.loc 1 4279 0
	mov	w1, w22
	mov	x0, x20
	bl	BsGet
.LVL922:
	strb	w0, [x19,29]
	b	.L848
.L877:
	.loc 1 4290 0
	mov	x0, x20
	bl	BsGet
.LVL923:
	uxtb	w0, w0
	.loc 1 4291 0
	cmp	w0, 1
	.loc 1 4290 0
	strb	w0, [x19,20]
	.loc 1 4291 0
	bne	.L851
	.loc 1 4293 0
	mov	x0, x20
	mov	w1, 2
	bl	BsGet
.LVL924:
	strb	w0, [x19,21]
	b	.L851
.L874:
	.loc 1 4270 0
	mov	x0, x20
	bl	BsGet
.LVL925:
	strb	w0, [x19,27]
	b	.L845
.L872:
	.loc 1 4241 0
	mov	x0, x20
	bl	VC1_DecMvrange
.LVL926:
	strb	w0, [x19,25]
	b	.L843
	.cfi_endproc
.LFE2683:
	.size	VC1_Vfmw_ParseAdvBPicHdr, .-VC1_Vfmw_ParseAdvBPicHdr
	.align	2
	.global	VC1_Vfmw_ParseAdvFramePicHdr
	.type	VC1_Vfmw_ParseAdvFramePicHdr, %function
VC1_Vfmw_ParseAdvFramePicHdr:
.LFB2684:
	.loc 1 4304 0
	.cfi_startproc
.LVL927:
	stp	x29, x30, [sp, -64]!
	.cfi_def_cfa_offset 64
	.cfi_offset 29, -64
	.cfi_offset 30, -56
	add	x29, sp, 0
	.cfi_def_cfa_register 29
	stp	x23, x24, [sp,48]
	.cfi_offset 23, -16
	.cfi_offset 24, -8
	mov	x23, x1
.LBB134:
.LBB135:
	.loc 1 3875 0
	mov	w1, 4
.LVL928:
.LBE135:
.LBE134:
	.loc 1 4304 0
	stp	x21, x22, [sp,32]
	stp	x19, x20, [sp,16]
	.cfi_offset 21, -32
	.cfi_offset 22, -24
	.cfi_offset 19, -48
	.cfi_offset 20, -40
	.loc 1 4304 0
	mov	x22, x0
	mov	x21, x2
.LBB142:
.LBB136:
	.loc 1 3875 0
	bl	BsShow
.LVL929:
	.loc 1 3876 0
	cmp	w0, 7
	ble	.L898
	.loc 1 3881 0
	cmp	w0, 11
	bgt	.L910
	mov	w24, 2
	.loc 1 3884 0
	mov	w1, w24
.LVL930:
	b	.L879
.LVL931:
.L898:
	.loc 1 3876 0
	mov	w24, 1
	.loc 1 3879 0
	mov	w1, w24
.LVL932:
.L879:
.LBE136:
.LBE142:
	.loc 1 4310 0
	add	x19, x21, 360
.LBB143:
.LBB137:
	.loc 1 3897 0
	mov	x0, x22
.LVL933:
.LBE137:
.LBE143:
	.loc 1 4313 0
	add	x20, x21, 16
.LBB144:
.LBB138:
	.loc 1 3897 0
	bl	BsSkip
.LVL934:
.LBE138:
.LBE144:
	.loc 1 4310 0
	strb	w24, [x19,1]
	.loc 1 4311 0
	ldrb	w0, [x23,3545]
	strb	w0, [x23,2]
	.loc 1 4313 0
	ldrb	w0, [x20,8]
	cbnz	w0, .L911
.L880:
	.loc 1 4318 0
	ldrb	w0, [x20,6]
	cbz	w0, .L881
	.loc 1 4320 0
	ldrb	w0, [x20,7]
	cbz	w0, .L912
	.loc 1 4326 0
	mov	w1, 1
	mov	x0, x22
	bl	BsGet
.LVL935:
	strb	w0, [x19,4]
	.loc 1 4327 0
	mov	w1, 1
	mov	x0, x22
	bl	BsGet
.LVL936:
	strb	w0, [x19,5]
	.loc 1 4336 0
	ldrb	w0, [x20,7]
	ldrb	w1, [x20,6]
	cmp	w0, 1
	beq	.L913
.L886:
	.loc 1 4349 0
	cmp	w1, 1
	bne	.L885
	.loc 1 4351 0
	ldrb	w0, [x19,6]
	add	w0, w0, 1
	str	w0, [x19,144]
	.loc 1 4359 0
	ldrb	w1, [x21,190]
	cmp	w1, 1
	bne	.L896
.L888:
	.loc 1 4361 0
	mov	x0, x22
	bl	BsGet
.LVL937:
	uxtb	w0, w0
	.loc 1 4362 0
	cmp	w0, 1
	.loc 1 4361 0
	strb	w0, [x19,7]
	.loc 1 4362 0
	bne	.L896
	.loc 1 4364 0 discriminator 1
	ldr	w0, [x19,144]
	cmp	w0, wzr
	ble	.L896
	add	x20, x21, 412
	mov	w24, 0
.LVL938:
.L897:
	add	x20, x20, 4
	.loc 1 4366 0
	mov	w1, 18
	mov	x0, x22
	.loc 1 4364 0 discriminator 3
	add	w24, w24, 1
	.loc 1 4366 0
	bl	BsGet
.LVL939:
	str	w0, [x20,-4]
	.loc 1 4367 0
	mov	w1, 18
	mov	x0, x22
	bl	BsGet
.LVL940:
	str	w0, [x20,12]
	.loc 1 4368 0
	mov	w1, 14
	mov	x0, x22
	bl	BsGet
.LVL941:
	str	w0, [x20,28]
	.loc 1 4369 0
	mov	w1, 14
	mov	x0, x22
	bl	BsGet
.LVL942:
	str	w0, [x20,44]
	.loc 1 4364 0 discriminator 1
	ldr	w0, [x19,144]
	cmp	w0, w24
	bgt	.L897
	b	.L896
.LVL943:
.L881:
	.loc 1 4332 0
	mov	w0, 1
	strb	w0, [x19,4]
	.loc 1 4336 0
	ldrb	w0, [x20,7]
	cmp	w0, 1
	beq	.L884
.L885:
	.loc 1 4355 0
	mov	w0, 1
	str	w0, [x19,144]
.L887:
	.loc 1 4359 0
	ldrb	w1, [x21,190]
	cmp	w1, 1
	beq	.L888
.LVL944:
.L896:
	.loc 1 4374 0
	ldrb	w0, [x19,1]
	cmp	w0, 5
	bls	.L914
.L889:
	.loc 1 4392 0
	mov	w0, 0
.LVL945:
.LVL946:
	.loc 1 4396 0
	ldp	x19, x20, [sp,16]
	.cfi_remember_state
	.cfi_restore 19
	.cfi_restore 20
	ldp	x21, x22, [sp,32]
	.cfi_restore 21
	.cfi_restore 22
.LVL947:
	ldp	x23, x24, [sp,48]
	.cfi_restore 23
	.cfi_restore 24
.LVL948:
	ldp	x29, x30, [sp], 64
	.cfi_restore 29
	.cfi_restore 30
	.cfi_def_cfa 31, 0
	ret
.LVL949:
.L914:
	.cfi_restore_state
	.loc 1 4374 0
	adrp	x1, .L891
	add	x1, x1, :lo12:.L891
	ldrb	w0, [x1,w0,uxtw]
	adr	x1, .Lrtx891
	add	x0, x1, w0, sxtb #2
	br	x0
.Lrtx891:
	.section	.rodata
	.align	0
	.align	2
.L891:
	.byte	(.L894 - .Lrtx891) / 4
	.byte	(.L892 - .Lrtx891) / 4
	.byte	(.L893 - .Lrtx891) / 4
	.byte	(.L889 - .Lrtx891) / 4
	.byte	(.L894 - .Lrtx891) / 4
	.byte	(.L902 - .Lrtx891) / 4
	.text
.LVL950:
.L912:
	.loc 1 4322 0
	mov	w1, 2
	mov	x0, x22
	bl	BsGet
.LVL951:
	strb	w0, [x19,6]
	.loc 1 4336 0
	ldrb	w0, [x20,7]
	ldrb	w1, [x20,6]
	cmp	w0, 1
	bne	.L886
.L913:
	.loc 1 4338 0
	cmp	w1, 1
	beq	.L915
.L884:
	.loc 1 4344 0
	mov	w0, 2
	str	w0, [x19,144]
	b	.L887
.LVL952:
.L910:
.LBB145:
.LBB139:
	.loc 1 3886 0
	cmp	w0, 13
	ble	.L900
	.loc 1 3893 0
	cmp	w0, 14
	beq	.L901
	mov	w24, 5
	.loc 1 3894 0
	mov	w1, 4
.LVL953:
	b	.L879
.LVL954:
.L894:
.LBE139:
.LBE145:
	.loc 1 4386 0
	mov	x1, x23
	mov	x2, x21
	mov	x0, x22
	bl	VC1_Vfmw_ParseAdvIPicHdr
.LVL955:
	.loc 1 4396 0
	ldp	x19, x20, [sp,16]
	.cfi_remember_state
	.cfi_restore 20
	.cfi_restore 19
	ldp	x21, x22, [sp,32]
	.cfi_restore 22
	.cfi_restore 21
.LVL956:
	ldp	x23, x24, [sp,48]
	.cfi_restore 24
	.cfi_restore 23
.LVL957:
	ldp	x29, x30, [sp], 64
	.cfi_restore 30
	.cfi_restore 29
	.cfi_def_cfa 31, 0
	ret
.LVL958:
.L911:
	.cfi_restore_state
	.loc 1 4315 0
	mov	x0, x22
	mov	w1, 8
	bl	BsGet
.LVL959:
	str	w0, [x19,48]
	b	.L880
.LVL960:
.L900:
.LBB146:
.LBB140:
	.loc 1 3886 0
	mov	w24, 0
	.loc 1 3889 0
	mov	w1, 3
.LVL961:
	b	.L879
.LVL962:
.L902:
.LBE140:
.LBE146:
	.loc 1 4389 0
	mov	w0, 1
.LVL963:
.LVL964:
	.loc 1 4396 0
	ldp	x19, x20, [sp,16]
	.cfi_remember_state
	.cfi_restore 19
	.cfi_restore 20
	ldp	x21, x22, [sp,32]
	.cfi_restore 21
	.cfi_restore 22
.LVL965:
	ldp	x23, x24, [sp,48]
	.cfi_restore 23
	.cfi_restore 24
.LVL966:
	ldp	x29, x30, [sp], 64
	.cfi_restore 29
	.cfi_restore 30
	.cfi_def_cfa 31, 0
	ret
.LVL967:
.L893:
	.cfi_restore_state
	.loc 1 4383 0
	mov	x1, x23
	mov	x2, x21
	mov	x0, x22
	bl	VC1_Vfmw_ParseAdvBPicHdr
.LVL968:
	.loc 1 4396 0
	ldp	x19, x20, [sp,16]
	.cfi_remember_state
	.cfi_restore 19
	.cfi_restore 20
	ldp	x21, x22, [sp,32]
	.cfi_restore 21
	.cfi_restore 22
.LVL969:
	ldp	x23, x24, [sp,48]
	.cfi_restore 23
	.cfi_restore 24
.LVL970:
	ldp	x29, x30, [sp], 64
	.cfi_restore 29
	.cfi_restore 30
	.cfi_def_cfa 31, 0
	ret
.LVL971:
.L892:
	.cfi_restore_state
	.loc 1 4380 0
	mov	x1, x23
	mov	x2, x21
	mov	x0, x22
	bl	VC1_Vfmw_ParseAdvPPicHdr
.LVL972:
	.loc 1 4396 0
	ldp	x19, x20, [sp,16]
	.cfi_remember_state
	.cfi_restore 19
	.cfi_restore 20
	ldp	x21, x22, [sp,32]
	.cfi_restore 21
	.cfi_restore 22
.LVL973:
	ldp	x23, x24, [sp,48]
	.cfi_restore 23
	.cfi_restore 24
.LVL974:
	ldp	x29, x30, [sp], 64
	.cfi_restore 29
	.cfi_restore 30
	.cfi_def_cfa 31, 0
	ret
.LVL975:
.L915:
	.cfi_restore_state
	.loc 1 4340 0
	ldrb	w0, [x19,5]
	add	w0, w0, 2
	str	w0, [x19,144]
	b	.L887
.LVL976:
.L901:
.LBB147:
.LBB141:
	.loc 1 3893 0
	mov	w24, 4
	.loc 1 3894 0
	mov	w1, w24
.LVL977:
	b	.L879
.LBE141:
.LBE147:
	.cfi_endproc
.LFE2684:
	.size	VC1_Vfmw_ParseAdvFramePicHdr, .-VC1_Vfmw_ParseAdvFramePicHdr
	.align	2
	.global	VC1_Vfmw_ParseAdvIFieldHdr
	.type	VC1_Vfmw_ParseAdvIFieldHdr, %function
VC1_Vfmw_ParseAdvIFieldHdr:
.LFB2687:
	.loc 1 4440 0
	.cfi_startproc
.LVL978:
	stp	x29, x30, [sp, -176]!
	.cfi_def_cfa_offset 176
	.cfi_offset 29, -176
	.cfi_offset 30, -168
	add	x29, sp, 0
	.cfi_def_cfa_register 29
	stp	x23, x24, [sp,48]
	.cfi_offset 23, -128
	.cfi_offset 24, -120
	adrp	x23, __stack_chk_guard
	str	x27, [sp,80]
	stp	x19, x20, [sp,16]
	stp	x21, x22, [sp,32]
	.cfi_offset 27, -96
	.cfi_offset 19, -160
	.cfi_offset 20, -152
	.cfi_offset 21, -144
	.cfi_offset 22, -136
	.loc 1 4446 0
	add	x19, x2, 360
	.loc 1 4440 0
	mov	x21, x2
	ldr	x2, [x23,#:lo12:__stack_chk_guard]
.LVL979:
	mov	x27, x1
	.loc 1 4446 0
	mov	w1, 5
.LVL980:
	.loc 1 4440 0
	mov	x20, x0
	stp	x25, x26, [sp,64]
	.cfi_offset 25, -112
	.cfi_offset 26, -104
	.loc 1 4440 0
	str	x2, [x29,168]
	.loc 1 4446 0
	bl	BsGet
.LVL981:
	uxtb	w22, w0
	strb	w22, [x19,10]
	.loc 1 4449 0
	mov	w25, 0
	.loc 1 4447 0
	cbz	w22, .L917
	.loc 1 4451 0
	add	x26, x21, 188
	ldrb	w24, [x26,10]
	mov	w1, w22
	mov	w0, w24
	bl	VC1_Vfmw_DecPQUANT
.LVL982:
	str	w0, [x19,116]
	.loc 1 4452 0
	cmp	w22, 8
	bls	.L929
	.loc 1 4458 0
	strb	wzr, [x19,3]
.L919:
.LBB152:
.LBB153:
	.loc 1 4461 0
	cmp	w24, 1
	beq	.L930
	.loc 1 4467 0
	strb	wzr, [x19,11]
.L921:
	.loc 1 4470 0
	ldrb	w0, [x21,21]
	cmp	w0, 1
	beq	.L931
.L922:
	.loc 1 4475 0
	mov	x0, x20
	mov	x1, x27
	mov	x2, x21
	mov	w3, 0
	bl	BPD_Drv
.LVL983:
	cmp	w0, 1
	beq	.L932
.LBB154:
.LBB155:
	.loc 1 2583 0
	add	x24, x29, 104
	mov	w2, 2
	.loc 1 2585 0
	mov	w1, w2
	mov	x0, x20
	.loc 1 2583 0
	mov	w22, 1
	stp	xzr, xzr, [x24]
	stp	xzr, xzr, [x24,32]
	stp	xzr, xzr, [x24,48]
	str	w2, [x29,124]
.LBE155:
.LBE154:
	.loc 1 4516 0
	mov	w25, w22
.LBB157:
.LBB156:
	.loc 1 2583 0
	str	w2, [x29,128]
	str	w2, [x29,132]
	str	w22, [x29,108]
	str	w22, [x29,116]
	str	w22, [x29,120]
	.loc 1 2585 0
	bl	BsShow
.LVL984:
	.loc 1 2588 0
	sbfiz	x1, x0, 3, 32
	.loc 1 2589 0
	mov	x0, x20
	.loc 1 2588 0
	add	x2, x24, x1
	ldr	w24, [x24,x1]
	.loc 1 2589 0
	ldr	w1, [x2,4]
	bl	BsSkip
.LVL985:
.LBE156:
.LBE157:
	.loc 1 4506 0
	strb	w24, [x19,22]
	.loc 1 4507 0
	mov	x0, x20
	bl	VC1_DecTransacfrm
.LVL986:
	strb	w0, [x19,23]
	.loc 1 4508 0
	mov	w1, w22
	mov	x0, x20
	bl	BsGet
.LVL987:
	strb	w0, [x19,24]
	.loc 1 4511 0
	ldrb	w1, [x26,7]
	cbnz	w1, .L933
.L917:
.LBE153:
.LBE152:
	.loc 1 4517 0
	ldr	x2, [x29,168]
	mov	w0, w25
	ldr	x1, [x23,#:lo12:__stack_chk_guard]
	cmp	x2, x1
	bne	.L934
	ldp	x19, x20, [sp,16]
	.cfi_remember_state
	.cfi_restore 20
	.cfi_restore 19
.LVL988:
	ldp	x21, x22, [sp,32]
	.cfi_restore 22
	.cfi_restore 21
.LVL989:
	ldp	x23, x24, [sp,48]
	.cfi_restore 24
	.cfi_restore 23
	ldp	x25, x26, [sp,64]
	.cfi_restore 26
	.cfi_restore 25
	ldr	x27, [sp,80]
	.cfi_restore 27
.LVL990:
	ldp	x29, x30, [sp], 176
	.cfi_restore 30
	.cfi_restore 29
	.cfi_def_cfa 31, 0
	ret
.LVL991:
.L933:
	.cfi_restore_state
.LBB160:
.LBB158:
	.loc 1 4513 0
	ldrb	w2, [x19,116]
	mov	x0, x20
	add	x3, x21, 520
	bl	VC1_VopDQuant
.LVL992:
	b	.L917
.L929:
.LBE158:
.LBE160:
	.loc 1 4454 0
	mov	x0, x20
	mov	w1, 1
	bl	BsGet
.LVL993:
	strb	w0, [x19,3]
	ldrb	w24, [x26,10]
	b	.L919
.L932:
.LBB161:
.LBB159:
	.loc 1 4477 0
	adrp	x2, .LANCHOR1
	adrp	x1, .LC26
	add	x2, x2, :lo12:.LANCHOR1
	add	x1, x1, :lo12:.LC26
	add	x2, x2, 96
	mov	w3, 4477
	mov	w0, 0
	.loc 1 4478 0
	mov	w25, 0
	.loc 1 4477 0
	bl	dprint_linux_kernel
.LVL994:
	b	.L917
.L931:
	.loc 1 4472 0
	mov	x0, x20
	mov	w1, 2
	bl	BsGet
.LVL995:
	strb	w0, [x19,12]
	b	.L922
.L930:
	.loc 1 4463 0
	mov	x0, x20
	mov	w1, w24
	bl	BsGet
.LVL996:
	strb	w0, [x19,11]
	b	.L921
.L934:
.LBE159:
.LBE161:
	.loc 1 4517 0
	bl	__stack_chk_fail
.LVL997:
	.cfi_endproc
.LFE2687:
	.size	VC1_Vfmw_ParseAdvIFieldHdr, .-VC1_Vfmw_ParseAdvIFieldHdr
	.align	2
	.global	VC1_Vfmw_ParseAdvPFieldHdr
	.type	VC1_Vfmw_ParseAdvPFieldHdr, %function
VC1_Vfmw_ParseAdvPFieldHdr:
.LFB2688:
	.loc 1 4520 0
	.cfi_startproc
.LVL998:
	stp	x29, x30, [sp, -64]!
	.cfi_def_cfa_offset 64
	.cfi_offset 29, -64
	.cfi_offset 30, -56
	.loc 1 4525 0
	mov	w1, 5
.LVL999:
	.loc 1 4520 0
	add	x29, sp, 0
	.cfi_def_cfa_register 29
	stp	x19, x20, [sp,16]
	.cfi_offset 19, -48
	.cfi_offset 20, -40
	.loc 1 4525 0
	add	x19, x2, 360
	.loc 1 4520 0
	mov	x20, x0
	stp	x21, x22, [sp,32]
	stp	x23, x24, [sp,48]
	.cfi_offset 21, -32
	.cfi_offset 22, -24
	.cfi_offset 23, -16
	.cfi_offset 24, -8
	.loc 1 4520 0
	mov	x23, x2
	.loc 1 4525 0
	bl	BsGet
.LVL1000:
	uxtb	w22, w0
	strb	w22, [x19,10]
	.loc 1 4528 0
	mov	w2, 0
	.loc 1 4526 0
	cbz	w22, .L936
	.loc 1 4530 0
	add	x21, x23, 188
	ldrb	w24, [x21,10]
	mov	w1, w22
	mov	w0, w24
	bl	VC1_Vfmw_DecPQUANT
.LVL1001:
	str	w0, [x19,116]
	.loc 1 4531 0
	cmp	w22, 8
	bls	.L964
	.loc 1 4537 0
	strb	wzr, [x19,3]
.L938:
.LBB164:
.LBB165:
	.loc 1 4540 0
	cmp	w24, 1
	beq	.L965
	.loc 1 4546 0
	strb	wzr, [x19,11]
.L940:
	.loc 1 4549 0
	ldrb	w0, [x23,21]
	cmp	w0, 1
	beq	.L966
.L941:
	.loc 1 4554 0
	mov	x0, x20
	mov	w1, 1
	bl	BsGet
.LVL1002:
	uxtb	w0, w0
	strb	w0, [x19,32]
	.loc 1 4555 0
	cbz	w0, .L967
.L942:
	.loc 1 4560 0
	ldrb	w0, [x21,6]
	cmp	w0, 1
	beq	.L968
.L943:
	.loc 1 4564 0
	ldrb	w0, [x21,12]
	cmp	w0, 1
	beq	.L969
.L944:
	.loc 1 4570 0
	ldrb	w1, [x19,116]
	mov	x0, x20
	bl	VC1_DecMvmodeProgrP
.LVL1003:
	uxtb	w0, w0
	.loc 1 4571 0
	cmp	w0, 4
	.loc 1 4570 0
	strb	w0, [x19,14]
	.loc 1 4571 0
	beq	.L970
.L946:
	.loc 1 4585 0
	mov	w1, 3
	mov	x0, x20
	bl	BsGet
.LVL1004:
	strb	w0, [x19,27]
	.loc 1 4587 0
	ldrb	w1, [x19,32]
	.loc 1 4587 0 is_stmt 0 discriminator 2
	mov	x0, x20
	.loc 1 4587 0
	cbnz	w1, .L948
	.loc 1 4587 0 discriminator 2
	mov	w1, 2
	bl	BsGet
.LVL1005:
	.loc 1 4587 0 discriminator 1
	uxtb	w0, w0
	.loc 1 4588 0 is_stmt 1
	mov	w1, 3
	.loc 1 4587 0 discriminator 5
	strb	w0, [x19,18]
	.loc 1 4588 0
	mov	x0, x20
	bl	BsGet
.LVL1006:
	strb	w0, [x19,19]
	.loc 1 4590 0
	ldrb	w1, [x19,14]
	cbz	w1, .L950
.L973:
	.loc 1 4591 0
	ldrh	w0, [x19,14]
	cmp	w0, 4
	beq	.L950
	.loc 1 4596 0
	ldrb	w1, [x21,7]
	cbnz	w1, .L971
.L952:
	.loc 1 4602 0
	ldrb	w1, [x21,8]
	cmp	w1, 1
	beq	.L972
.L954:
	.loc 1 4611 0
	mov	x0, x20
	bl	VC1_DecTransacfrm
.LVL1007:
	strb	w0, [x19,22]
	.loc 1 4612 0
	mov	w1, 1
	mov	x0, x20
	bl	BsGet
.LVL1008:
	strb	w0, [x19,24]
	mov	w2, 1
.L936:
.LBE165:
.LBE164:
	.loc 1 4615 0
	mov	w0, w2
	ldp	x19, x20, [sp,16]
	.cfi_remember_state
	.cfi_restore 20
	.cfi_restore 19
.LVL1009:
	ldp	x21, x22, [sp,32]
	.cfi_restore 22
	.cfi_restore 21
	ldp	x23, x24, [sp,48]
	.cfi_restore 24
	.cfi_restore 23
.LVL1010:
	ldp	x29, x30, [sp], 64
	.cfi_restore 30
	.cfi_restore 29
	.cfi_def_cfa 31, 0
	ret
.LVL1011:
.L948:
	.cfi_restore_state
.LBB168:
.LBB166:
	.loc 1 4587 0 discriminator 4
	mov	w1, 3
	bl	BsGet
.LVL1012:
	.loc 1 4587 0 is_stmt 0 discriminator 2
	uxtb	w0, w0
	.loc 1 4588 0 is_stmt 1
	mov	w1, 3
	.loc 1 4587 0 discriminator 5
	strb	w0, [x19,18]
	.loc 1 4588 0
	mov	x0, x20
	bl	BsGet
.LVL1013:
	strb	w0, [x19,19]
	.loc 1 4590 0
	ldrb	w1, [x19,14]
	cbnz	w1, .L973
.L950:
	.loc 1 4593 0
	mov	w1, 2
	mov	x0, x20
	bl	BsGet
.LVL1014:
	strb	w0, [x19,29]
	.loc 1 4596 0
	ldrb	w1, [x21,7]
	cbz	w1, .L952
.L971:
	.loc 1 4598 0
	ldrb	w2, [x19,116]
	mov	x0, x20
	add	x3, x23, 520
	bl	VC1_VopDQuant
.LVL1015:
	b	.L952
.L964:
.LBE166:
.LBE168:
	.loc 1 4533 0
	mov	x0, x20
	mov	w1, 1
	bl	BsGet
.LVL1016:
	strb	w0, [x19,3]
	ldrb	w24, [x21,10]
	b	.L938
.L967:
.LBB169:
.LBB167:
	.loc 1 4557 0
	mov	x0, x20
	mov	w1, 1
	bl	BsGet
.LVL1017:
	cmp	w0, wzr
	cset	w0, eq
	strb	w0, [x19,33]
	b	.L942
.L970:
	.loc 1 4573 0
	ldrb	w1, [x19,116]
	mov	x0, x20
	bl	VC1_DecMvmode2
.LVL1018:
	strb	w0, [x19,15]
	.loc 1 4574 0
	mov	x0, x20
	bl	VC1_DecIntCompField
.LVL1019:
	str	w0, [x19,128]
	.loc 1 4575 0
	mov	w1, 6
	mov	x0, x20
	bl	BsGet
.LVL1020:
	strb	w0, [x19,16]
	.loc 1 4576 0
	mov	w1, 6
	mov	x0, x20
	bl	BsGet
.LVL1021:
	strb	w0, [x19,17]
	.loc 1 4577 0
	ldr	w1, [x19,128]
	cbnz	w1, .L946
	.loc 1 4579 0
	mov	w1, 6
	mov	x0, x20
	bl	BsGet
.LVL1022:
	str	w0, [x19,132]
	.loc 1 4580 0
	mov	w1, 6
	mov	x0, x20
	bl	BsGet
.LVL1023:
	str	w0, [x19,136]
	b	.L946
.L969:
	.loc 1 4566 0
	mov	x0, x20
	bl	VC1_DecMvrange
.LVL1024:
	strb	w0, [x19,25]
	b	.L944
.L972:
	.loc 1 4604 0
	mov	x0, x20
	bl	BsGet
.LVL1025:
	uxtb	w0, w0
	.loc 1 4605 0
	cmp	w0, 1
	.loc 1 4604 0
	strb	w0, [x19,20]
	.loc 1 4605 0
	bne	.L954
	.loc 1 4607 0
	mov	x0, x20
	mov	w1, 2
	bl	BsGet
.LVL1026:
	strb	w0, [x19,21]
	b	.L954
.L968:
	.loc 1 4562 0
	mov	x0, x20
	bl	VC1_DecMvrange
.LVL1027:
	strb	w0, [x19,13]
	b	.L943
.L966:
	.loc 1 4551 0
	mov	x0, x20
	mov	w1, 2
	bl	BsGet
.LVL1028:
	strb	w0, [x19,12]
	b	.L941
.L965:
	.loc 1 4542 0
	mov	x0, x20
	mov	w1, w24
	bl	BsGet
.LVL1029:
	strb	w0, [x19,11]
	b	.L940
.LBE167:
.LBE169:
	.cfi_endproc
.LFE2688:
	.size	VC1_Vfmw_ParseAdvPFieldHdr, .-VC1_Vfmw_ParseAdvPFieldHdr
	.align	2
	.global	VC1_Vfmw_ParseAdvBFieldHdr
	.type	VC1_Vfmw_ParseAdvBFieldHdr, %function
VC1_Vfmw_ParseAdvBFieldHdr:
.LFB2689:
	.loc 1 4618 0
	.cfi_startproc
.LVL1030:
	stp	x29, x30, [sp, -80]!
	.cfi_def_cfa_offset 80
	.cfi_offset 29, -80
	.cfi_offset 30, -72
	add	x29, sp, 0
	.cfi_def_cfa_register 29
	stp	x19, x20, [sp,16]
	.cfi_offset 19, -64
	.cfi_offset 20, -56
	.loc 1 4624 0
	add	x19, x2, 360
	.loc 1 4618 0
	str	x25, [sp,64]
	stp	x21, x22, [sp,32]
	stp	x23, x24, [sp,48]
	.cfi_offset 25, -16
	.cfi_offset 21, -48
	.cfi_offset 22, -40
	.cfi_offset 23, -32
	.cfi_offset 24, -24
	.loc 1 4618 0
	mov	x21, x2
	mov	x25, x1
	.loc 1 4624 0
	mov	w2, 1
.LVL1031:
	.loc 1 4625 0
	mov	w1, 5
.LVL1032:
	.loc 1 4624 0
	strb	w2, [x19,32]
	.loc 1 4618 0
	mov	x20, x0
	.loc 1 4625 0
	bl	BsGet
.LVL1033:
	uxtb	w22, w0
	strb	w22, [x19,10]
	.loc 1 4628 0
	mov	w1, 0
	.loc 1 4626 0
	cbz	w22, .L975
	.loc 1 4630 0
	add	x23, x21, 188
	ldrb	w24, [x23,10]
	mov	w1, w22
	mov	w0, w24
	bl	VC1_Vfmw_DecPQUANT
.LVL1034:
	str	w0, [x19,116]
	.loc 1 4631 0
	cmp	w22, 8
	bls	.L994
	.loc 1 4637 0
	strb	wzr, [x19,3]
.L977:
.LBB172:
.LBB173:
	.loc 1 4640 0
	cmp	w24, 1
	beq	.L995
	.loc 1 4646 0
	strb	wzr, [x19,11]
.L979:
	.loc 1 4649 0
	ldrb	w0, [x21,21]
	cmp	w0, 1
	beq	.L996
.L980:
	.loc 1 4654 0
	ldrb	w0, [x23,6]
	cmp	w0, 1
	beq	.L997
.L981:
	.loc 1 4659 0
	ldrb	w0, [x23,12]
	cmp	w0, 1
	beq	.L998
.L982:
	.loc 1 4664 0
	ldrb	w1, [x19,116]
	mov	x0, x20
	bl	VC1_DecMvmodeInterB
.LVL1035:
	strb	w0, [x19,14]
	.loc 1 4666 0
	mov	x1, x25
	mov	x0, x20
	mov	x2, x21
	mov	w3, 0
	bl	BPD_Drv
.LVL1036:
	cmp	w0, 1
	beq	.L999
	.loc 1 4685 0
	mov	w1, 3
	mov	x0, x20
	bl	BsGet
.LVL1037:
	strb	w0, [x19,27]
	.loc 1 4687 0
	mov	w1, 3
	mov	x0, x20
	bl	BsGet
.LVL1038:
	strb	w0, [x19,18]
	.loc 1 4688 0
	mov	w1, 3
	mov	x0, x20
	bl	BsGet
.LVL1039:
	strb	w0, [x19,19]
	.loc 1 4690 0
	ldrb	w1, [x19,14]
	cbz	w1, .L1000
.L984:
	.loc 1 4695 0
	ldrb	w1, [x23,7]
	cbnz	w1, .L1001
.L985:
	.loc 1 4700 0
	ldrb	w1, [x23,8]
	cmp	w1, 1
	beq	.L1002
.L987:
	.loc 1 4709 0
	mov	x0, x20
	bl	VC1_DecTransacfrm
.LVL1040:
	strb	w0, [x19,22]
	.loc 1 4710 0
	mov	w1, 1
	mov	x0, x20
	bl	BsGet
.LVL1041:
	strb	w0, [x19,24]
	.loc 1 4712 0
	mov	w1, 1
.L975:
.LBE173:
.LBE172:
	.loc 1 4713 0
	mov	w0, w1
	ldr	x25, [sp,64]
	.cfi_remember_state
	.cfi_restore 25
.LVL1042:
	ldp	x19, x20, [sp,16]
	.cfi_restore 20
	.cfi_restore 19
.LVL1043:
	ldp	x21, x22, [sp,32]
	.cfi_restore 22
	.cfi_restore 21
.LVL1044:
	ldp	x23, x24, [sp,48]
	.cfi_restore 24
	.cfi_restore 23
	ldp	x29, x30, [sp], 80
	.cfi_restore 30
	.cfi_restore 29
	.cfi_def_cfa 31, 0
	ret
.LVL1045:
.L994:
	.cfi_restore_state
	.loc 1 4633 0
	mov	x0, x20
	mov	w1, 1
	bl	BsGet
.LVL1046:
	strb	w0, [x19,3]
	ldrb	w24, [x23,10]
	b	.L977
.L1001:
.LBB177:
.LBB174:
	.loc 1 4697 0
	ldrb	w2, [x19,116]
	mov	x0, x20
	add	x3, x21, 520
	bl	VC1_VopDQuant
.LVL1047:
	b	.L985
.L1000:
	.loc 1 4692 0
	mov	x0, x20
	mov	w1, 2
	bl	BsGet
.LVL1048:
	strb	w0, [x19,29]
	b	.L984
.L999:
	.loc 1 4668 0
	adrp	x2, .LANCHOR1
	adrp	x1, .LC26
	add	x2, x2, :lo12:.LANCHOR1
	add	x1, x1, :lo12:.LC26
	add	x2, x2, 128
	mov	w3, 4668
	mov	w0, 0
	bl	dprint_linux_kernel
.LVL1049:
.LBE174:
.LBE177:
	.loc 1 4713 0
	ldr	x25, [sp,64]
	.cfi_remember_state
	.cfi_restore 25
.LVL1050:
.LBB178:
.LBB175:
	.loc 1 4669 0
	mov	w1, 0
.LBE175:
.LBE178:
	.loc 1 4713 0
	mov	w0, w1
	ldp	x19, x20, [sp,16]
	.cfi_restore 19
	.cfi_restore 20
.LVL1051:
	ldp	x21, x22, [sp,32]
	.cfi_restore 21
	.cfi_restore 22
.LVL1052:
	ldp	x23, x24, [sp,48]
	.cfi_restore 23
	.cfi_restore 24
	ldp	x29, x30, [sp], 80
	.cfi_restore 29
	.cfi_restore 30
	.cfi_def_cfa 31, 0
	ret
.LVL1053:
.L998:
	.cfi_restore_state
.LBB179:
.LBB176:
	.loc 1 4661 0
	mov	x0, x20
	bl	VC1_DecMvrange
.LVL1054:
	strb	w0, [x19,25]
	b	.L982
.L997:
	.loc 1 4656 0
	mov	x0, x20
	bl	VC1_DecMvrange
.LVL1055:
	strb	w0, [x19,13]
	b	.L981
.L996:
	.loc 1 4651 0
	mov	x0, x20
	mov	w1, 2
	bl	BsGet
.LVL1056:
	strb	w0, [x19,12]
	b	.L980
.L995:
	.loc 1 4642 0
	mov	x0, x20
	mov	w1, w24
	bl	BsGet
.LVL1057:
	strb	w0, [x19,11]
	b	.L979
.L1002:
	.loc 1 4702 0
	mov	x0, x20
	bl	BsGet
.LVL1058:
	uxtb	w0, w0
	.loc 1 4703 0
	cmp	w0, 1
	.loc 1 4702 0
	strb	w0, [x19,20]
	.loc 1 4703 0
	bne	.L987
	.loc 1 4705 0
	mov	x0, x20
	mov	w1, 2
	bl	BsGet
.LVL1059:
	strb	w0, [x19,21]
	b	.L987
.LBE176:
.LBE179:
	.cfi_endproc
.LFE2689:
	.size	VC1_Vfmw_ParseAdvBFieldHdr, .-VC1_Vfmw_ParseAdvBFieldHdr
	.align	2
	.global	VC1_Vfmw_ParseAdvFieldPicHdr
	.type	VC1_Vfmw_ParseAdvFieldPicHdr, %function
VC1_Vfmw_ParseAdvFieldPicHdr:
.LFB2690:
	.loc 1 4716 0
	.cfi_startproc
.LVL1060:
	stp	x29, x30, [sp, -80]!
	.cfi_def_cfa_offset 80
	.cfi_offset 29, -80
	.cfi_offset 30, -72
	add	x29, sp, 0
	.cfi_def_cfa_register 29
	stp	x21, x22, [sp,32]
	stp	x19, x20, [sp,16]
	stp	x23, x24, [sp,48]
	str	x25, [sp,64]
	.cfi_offset 21, -48
	.cfi_offset 22, -40
	.cfi_offset 19, -64
	.cfi_offset 20, -56
	.cfi_offset 23, -32
	.cfi_offset 24, -24
	.cfi_offset 25, -16
	.loc 1 4716 0
	mov	x21, x0
	mov	x20, x1
	mov	x22, x2
	.loc 1 4722 0
	ldrb	w0, [x1,8]
.LVL1061:
	cbz	w0, .L1004
	.loc 1 4722 0 is_stmt 0 discriminator 1
	add	x0, x1, 20480
	ldr	w0, [x0,1564]
	cmp	w0, wzr
	ble	.L1005
.L1004:
	.loc 1 4724 0 is_stmt 1
	add	x19, x22, 360
	mov	w1, 3
	mov	x0, x21
	.loc 1 4730 0
	add	x23, x22, 16
	.loc 1 4724 0
	bl	BsGet
.LVL1062:
	str	w0, [x19,124]
	.loc 1 4725 0
	sbfiz	x1, x0, 3, 32
	adrp	x0, .LANCHOR1
	add	x0, x0, :lo12:.LANCHOR1
	add	x0, x0, 160
	add	x2, x0, x1
	ldr	w1, [x0,x1]
	.loc 1 4726 0
	ldr	w0, [x2,4]
	.loc 1 4725 0
	str	w1, [x19,152]
	.loc 1 4726 0
	str	w0, [x19,156]
	.loc 1 4727 0 discriminator 1
	uxtb	w1, w1
	uxtb	w0, w0
	.loc 1 4727 0 is_stmt 0
	ldrb	w2, [x20,8]
	.loc 1 4727 0 discriminator 1
	cmp	w2, wzr
	csel	w0, w0, w1, ne
	.loc 1 4727 0 discriminator 4
	strb	w0, [x19,1]
	.loc 1 4728 0 is_stmt 1
	ldrb	w0, [x20,3545]
	strb	w0, [x20,2]
	.loc 1 4730 0
	ldrb	w0, [x23,8]
	cbnz	w0, .L1043
.L1008:
	.loc 1 4735 0
	ldrb	w0, [x23,6]
	cbnz	w0, .L1044
	.loc 1 4749 0
	mov	w0, 1
	strb	w0, [x19,4]
	.loc 1 4753 0
	ldrb	w0, [x23,7]
	cmp	w0, 1
	beq	.L1012
.L1013:
	.loc 1 4772 0
	mov	w0, 1
	str	w0, [x19,144]
.L1015:
	.loc 1 4776 0
	add	x23, x22, 188
	ldrb	w1, [x23,2]
	cmp	w1, 1
	beq	.L1016
.LVL1063:
.L1019:
	.loc 1 4791 0
	mov	w1, 1
	mov	x0, x21
	bl	BsGet
.LVL1064:
	strb	w0, [x22,360]
	.loc 1 4792 0
	mov	w1, 1
	mov	x0, x21
	bl	BsGet
.LVL1065:
	strb	w0, [x19,8]
	.loc 1 4793 0
	ldrb	w0, [x23,3]
	cmp	w0, 1
	beq	.L1045
.L1018:
	.loc 1 4798 0
	ldr	w0, [x19,124]
	cmp	w0, 3
	bgt	.L1023
.LVL1066:
.L1022:
	.loc 1 4814 0
	ldrb	w0, [x19,1]
	cmp	w0, 4
	bls	.L1046
.L1031:
	.loc 1 4830 0
	ldrb	w1, [x19,4]
	.loc 1 4827 0
	mov	w0, 0
.LVL1067:
	.loc 1 4830 0
	cbz	w1, .L1029
.L1048:
	.loc 1 4832 0
	ldrb	w1, [x20,8]
.LVL1068:
	cmp	w1, wzr
	cset	w1, ne
	strb	w1, [x19,41]
	.loc 1 4839 0
	ldp	x19, x20, [sp,16]
	.cfi_remember_state
	.cfi_restore 19
	.cfi_restore 20
.LVL1069:
	ldp	x21, x22, [sp,32]
	.cfi_restore 21
	.cfi_restore 22
.LVL1070:
	ldp	x23, x24, [sp,48]
	.cfi_restore 23
	.cfi_restore 24
	ldr	x25, [sp,64]
	.cfi_restore 25
.LVL1071:
	ldp	x29, x30, [sp], 80
	.cfi_restore 29
	.cfi_restore 30
	.cfi_def_cfa 31, 0
	ret
.LVL1072:
.L1046:
	.cfi_restore_state
	.loc 1 4814 0
	adrp	x1, .L1026
	add	x1, x1, :lo12:.L1026
	ldrb	w0, [x1,w0,uxtw]
	adr	x1, .Lrtx1026
	add	x0, x1, w0, sxtb #2
	br	x0
.Lrtx1026:
	.section	.rodata
	.align	0
	.align	2
.L1026:
	.byte	(.L1025 - .Lrtx1026) / 4
	.byte	(.L1027 - .Lrtx1026) / 4
	.byte	(.L1028 - .Lrtx1026) / 4
	.byte	(.L1031 - .Lrtx1026) / 4
	.byte	(.L1025 - .Lrtx1026) / 4
	.text
.LVL1073:
.L1044:
	.loc 1 4737 0
	ldrb	w0, [x23,7]
	cbnz	w0, .L1010
	.loc 1 4739 0
	mov	w1, 2
	mov	x0, x21
	bl	BsGet
.LVL1074:
	strb	w0, [x19,6]
	ldrb	w1, [x23,6]
.L1011:
	.loc 1 4753 0
	ldrb	w0, [x23,7]
	cmp	w0, 1
	beq	.L1047
	.loc 1 4766 0
	cmp	w1, 1
	bne	.L1013
	.loc 1 4768 0
	ldrb	w0, [x19,6]
	.loc 1 4776 0
	add	x23, x22, 188
	.loc 1 4768 0
	add	w0, w0, 1
	str	w0, [x19,144]
	.loc 1 4776 0
	ldrb	w1, [x23,2]
	cmp	w1, 1
	bne	.L1019
.L1016:
	.loc 1 4778 0
	mov	x0, x21
	bl	BsGet
.LVL1075:
	uxtb	w0, w0
	.loc 1 4779 0
	cmp	w0, 1
	.loc 1 4778 0
	strb	w0, [x19,7]
	.loc 1 4779 0
	bne	.L1019
	.loc 1 4781 0 discriminator 1
	ldr	w0, [x19,144]
	cmp	w0, wzr
	ble	.L1019
	add	x24, x22, 412
	mov	w25, 0
.LVL1076:
.L1020:
	add	x24, x24, 4
	.loc 1 4783 0
	mov	w1, 18
	mov	x0, x21
	.loc 1 4781 0 discriminator 3
	add	w25, w25, 1
	.loc 1 4783 0
	bl	BsGet
.LVL1077:
	str	w0, [x24,-4]
	.loc 1 4784 0
	mov	w1, 18
	mov	x0, x21
	bl	BsGet
.LVL1078:
	str	w0, [x24,12]
	.loc 1 4785 0
	mov	w1, 14
	mov	x0, x21
	bl	BsGet
.LVL1079:
	str	w0, [x24,28]
	.loc 1 4786 0
	mov	w1, 14
	mov	x0, x21
	bl	BsGet
.LVL1080:
	str	w0, [x24,44]
	.loc 1 4781 0 discriminator 1
	ldr	w0, [x19,144]
	cmp	w0, w25
	bgt	.L1020
	b	.L1019
.L1028:
	.loc 1 4824 0
	mov	x0, x21
	mov	x1, x20
	mov	x2, x22
	bl	VC1_Vfmw_ParseAdvBFieldHdr
.LVL1081:
.L1024:
	.loc 1 4830 0
	ldrb	w1, [x19,4]
	cbnz	w1, .L1048
.LVL1082:
.L1029:
	.loc 1 4836 0
	ldrb	w1, [x20,8]
.LVL1083:
	cmp	w1, 1
	cset	w1, ne
	strb	w1, [x19,41]
	.loc 1 4839 0
	ldp	x19, x20, [sp,16]
	.cfi_remember_state
	.cfi_restore 20
	.cfi_restore 19
.LVL1084:
	ldp	x21, x22, [sp,32]
	.cfi_restore 22
	.cfi_restore 21
.LVL1085:
	ldp	x23, x24, [sp,48]
	.cfi_restore 24
	.cfi_restore 23
	ldr	x25, [sp,64]
	.cfi_restore 25
.LVL1086:
	ldp	x29, x30, [sp], 80
	.cfi_restore 30
	.cfi_restore 29
	.cfi_def_cfa 31, 0
	ret
.LVL1087:
.L1027:
	.cfi_restore_state
	.loc 1 4821 0
	mov	x0, x21
	mov	x1, x20
	mov	x2, x22
	bl	VC1_Vfmw_ParseAdvPFieldHdr
.LVL1088:
	.loc 1 4822 0
	b	.L1024
.L1025:
	.loc 1 4818 0
	mov	x0, x21
	mov	x1, x20
	mov	x2, x22
	bl	VC1_Vfmw_ParseAdvIFieldHdr
.LVL1089:
	.loc 1 4819 0
	b	.L1024
.LVL1090:
.L1043:
	.loc 1 4732 0
	mov	x0, x21
	mov	w1, 8
	bl	BsGet
.LVL1091:
	str	w0, [x19,48]
	b	.L1008
.LVL1092:
.L1045:
	.loc 1 4793 0 discriminator 1
	ldr	w0, [x19,124]
	cmp	w0, 3
	ble	.L1021
.L1023:
	.loc 1 4800 0
	mov	x0, x21
	add	x1, x22, 508
	bl	VC1_DecBfraction
.LVL1093:
	strb	w0, [x19,2]
	b	.L1022
.LVL1094:
.L1047:
	.loc 1 4755 0
	cmp	w1, 1
	beq	.L1049
.L1012:
	.loc 1 4761 0
	mov	w0, 2
	str	w0, [x19,144]
	b	.L1015
.L1010:
	.loc 1 4743 0
	mov	w1, 1
	mov	x0, x21
	bl	BsGet
.LVL1095:
	strb	w0, [x19,4]
	.loc 1 4744 0
	mov	w1, 1
	mov	x0, x21
	bl	BsGet
.LVL1096:
	strb	w0, [x19,5]
	ldrb	w1, [x23,6]
	b	.L1011
.LVL1097:
.L1021:
	.loc 1 4795 0
	mov	x0, x21
	bl	VC1_DecRefdist
.LVL1098:
	strb	w0, [x19,31]
	b	.L1018
.LVL1099:
.L1049:
	.loc 1 4757 0
	ldrb	w0, [x19,5]
	add	w0, w0, 2
	str	w0, [x19,144]
	b	.L1015
.LVL1100:
.L1005:
	.loc 1 4806 0
	add	x19, x2, 360
	ldr	w0, [x19,156]
	strb	w0, [x19,1]
	.loc 1 4807 0
	ldrb	w0, [x1,3545]
	strb	w0, [x1,2]
	b	.L1022
	.cfi_endproc
.LFE2690:
	.size	VC1_Vfmw_ParseAdvFieldPicHdr, .-VC1_Vfmw_ParseAdvFieldPicHdr
	.align	2
	.global	VC1_Vfmw_ParseAdvPicHdr
	.type	VC1_Vfmw_ParseAdvPicHdr, %function
VC1_Vfmw_ParseAdvPicHdr:
.LFB2691:
	.loc 1 4842 0
	.cfi_startproc
.LVL1101:
	stp	x29, x30, [sp, -64]!
	.cfi_def_cfa_offset 64
	.cfi_offset 29, -64
	.cfi_offset 30, -56
.LBB184:
.LBB185:
	.loc 1 2600 0
	add	x4, x1, 20480
.LBE185:
.LBE184:
	.loc 1 4842 0
	add	x29, sp, 0
	.cfi_def_cfa_register 29
	stp	x19, x20, [sp,16]
	stp	x21, x22, [sp,32]
	.cfi_offset 19, -48
	.cfi_offset 20, -40
	.cfi_offset 21, -32
	.cfi_offset 22, -24
	.loc 1 4842 0
	mov	x20, x0
.LBB188:
.LBB186:
	.loc 1 2600 0
	add	x0, x1, 32768
.LVL1102:
.LBE186:
.LBE188:
	.loc 1 4842 0
	mov	x19, x1
.LBB189:
.LBB187:
	.loc 1 2600 0
	ldr	w1, [x4,1480]
.LVL1103:
	str	w1, [x0,3696]
	.loc 1 2623 0
	lsl	w5, w1, 4
	.loc 1 2601 0
	ldr	w3, [x4,1484]
	str	w3, [x0,3700]
	.loc 1 2623 0
	str	w5, [x0,3688]
	.loc 1 2624 0
	lsl	w5, w3, 4
	.loc 1 2625 0
	mul	w1, w1, w3
	.loc 1 2624 0
	str	w5, [x0,3692]
	.loc 1 2625 0
	str	w1, [x0,3704]
.LBE187:
.LBE189:
	.loc 1 4848 0
	ldrb	w0, [x19,8]
	cbz	w0, .L1051
	.loc 1 4848 0 is_stmt 0 discriminator 1
	ldr	w0, [x4,1564]
	cmp	w0, wzr
	ble	.L1061
.L1051:
	.loc 1 4850 0 is_stmt 1
	ldrb	w22, [x2,23]
	cmp	w22, 1
	beq	.L1062
	.loc 1 4850 0 is_stmt 0 discriminator 2
	mov	w1, 0
	mov	w0, 0
	.loc 1 4850 0 discriminator 4
	str	w1, [x2,404]
.LVL1104:
.L1052:
	.loc 1 4854 0 is_stmt 1
	cbz	w0, .L1063
	.loc 1 4860 0
	mov	x1, x19
	mov	x0, x20
	bl	VC1_Vfmw_ParseAdvFieldPicHdr
.LVL1105:
	.loc 1 4864 0
	ldp	x19, x20, [sp,16]
	.cfi_remember_state
	.cfi_restore 20
	.cfi_restore 19
.LVL1106:
	ldp	x21, x22, [sp,32]
	.cfi_restore 22
	.cfi_restore 21
.LVL1107:
	ldp	x29, x30, [sp], 64
	.cfi_restore 30
	.cfi_restore 29
	.cfi_def_cfa 31, 0
	ret
.LVL1108:
.L1063:
	.cfi_restore_state
	.loc 1 4856 0
	mov	x1, x19
	mov	x0, x20
	bl	VC1_Vfmw_ParseAdvFramePicHdr
.LVL1109:
	.loc 1 4864 0
	ldp	x19, x20, [sp,16]
	.cfi_remember_state
	.cfi_restore 19
	.cfi_restore 20
.LVL1110:
	ldp	x21, x22, [sp,32]
	.cfi_restore 21
	.cfi_restore 22
.LVL1111:
	ldp	x29, x30, [sp], 64
	.cfi_restore 29
	.cfi_restore 30
	.cfi_def_cfa 31, 0
	ret
.LVL1112:
.L1061:
	.cfi_restore_state
	ldr	w0, [x2,404]
	and	w0, w0, -3
	b	.L1052
.L1062:
.LBB190:
.LBB191:
	.loc 1 3857 0
	mov	x0, x20
	mov	w1, 2
	str	x2, [x29,56]
	bl	BsShow
.LVL1113:
	.loc 1 3858 0
	cmp	w0, 1
	.loc 1 3857 0
	mov	w21, w0
.LVL1114:
	.loc 1 3858 0
	ldr	x2, [x29,56]
.LVL1115:
	ble	.L1064
	.loc 1 3865 0
	mov	w1, 2
	mov	x0, x20
	str	x2, [x29,56]
	bl	BsSkip
.LVL1116:
	ldr	x2, [x29,56]
.LVL1117:
	mov	w1, w21
	and	w0, w21, -3
.LBE191:
.LBE190:
	.loc 1 4850 0 discriminator 4
	str	w1, [x2,404]
	b	.L1052
.L1064:
.LBB193:
.LBB192:
	.loc 1 3861 0
	mov	w1, w22
	mov	x0, x20
	bl	BsSkip
.LVL1118:
	ldr	x2, [x29,56]
.LVL1119:
	.loc 1 3860 0
	mov	w1, 0
	.loc 1 3861 0
	mov	w0, 0
.LBE192:
.LBE193:
	.loc 1 4850 0 discriminator 4
	str	w1, [x2,404]
	b	.L1052
	.cfi_endproc
.LFE2691:
	.size	VC1_Vfmw_ParseAdvPicHdr, .-VC1_Vfmw_ParseAdvPicHdr
	.align	2
	.global	VC1_Vfmw_ParseAdvSlcHdr
	.type	VC1_Vfmw_ParseAdvSlcHdr, %function
VC1_Vfmw_ParseAdvSlcHdr:
.LFB2692:
	.loc 1 4867 0
	.cfi_startproc
.LVL1120:
	stp	x29, x30, [sp, -64]!
	.cfi_def_cfa_offset 64
	.cfi_offset 29, -64
	.cfi_offset 30, -56
	add	x29, sp, 0
	.cfi_def_cfa_register 29
	stp	x21, x22, [sp,32]
	.cfi_offset 21, -32
	.cfi_offset 22, -24
	mov	x21, x1
	str	x23, [sp,48]
	.loc 1 4869 0
	add	x3, x21, 20480
	.loc 1 4871 0
	mov	w1, 9
.LVL1121:
	.loc 1 4867 0
	stp	x19, x20, [sp,16]
	.cfi_offset 23, -16
	.cfi_offset 19, -48
	.cfi_offset 20, -40
	.loc 1 4867 0
	mov	x22, x0
	mov	x20, x2
	.loc 1 4869 0
	ldr	w19, [x3,1564]
	.loc 1 4871 0
	bl	BsGet
.LVL1122:
	.loc 1 4872 0
	mov	w1, 1
	.loc 1 4871 0
	sxtw	x2, w19
	lsl	x19, x2, 4
	sub	x19, x19, x2, lsl 2
	add	x19, x20, x19
	str	w0, [x19,540]
	.loc 1 4872 0
	mov	x0, x22
	bl	BsGet
.LVL1123:
	sxtb	w0, w0
	.loc 1 4873 0
	cmp	w0, 1
	.loc 1 4872 0
	strb	w0, [x19,536]
	.loc 1 4868 0
	mov	w0, 1
.LVL1124:
	.loc 1 4873 0
	beq	.L1068
	.loc 1 4886 0
	ldp	x19, x20, [sp,16]
	.cfi_remember_state
	.cfi_restore 20
	.cfi_restore 19
.LVL1125:
.LVL1126:
	ldp	x21, x22, [sp,32]
	.cfi_restore 22
	.cfi_restore 21
.LVL1127:
	ldr	x23, [sp,48]
	.cfi_restore 23
	ldp	x29, x30, [sp], 64
	.cfi_restore 30
	.cfi_restore 29
	.cfi_def_cfa 31, 0
	ret
.LVL1128:
.L1068:
	.cfi_restore_state
	.loc 1 4878 0
	add	x19, x21, 4096
	add	x4, x20, 188
	add	x3, x19, 2884
	.loc 1 4879 0
	mov	x2, 172
	.loc 1 4878 0
	add	x23, x19, 2696
	ldp	x0, x1, [x4]
.LVL1129:
	stp	x0, x1, [x3]
	.loc 1 4879 0
	add	x1, x20, 16
	add	x0, x19, 2712
	.loc 1 4878 0
	ldp	x6, x7, [x4,16]
	stp	x6, x7, [x3,16]
	ldp	x6, x7, [x4,32]
	stp	x6, x7, [x3,32]
	ldr	x5, [x20,236]
	str	x5, [x3,48]
	ldr	w4, [x20,244]
	str	w4, [x21,7036]
	.loc 1 4879 0
	bl	memcpy
.LVL1130:
	.loc 1 4880 0
	add	x1, x20, 360
	add	x0, x19, 3056
	mov	x2, 176
	bl	memcpy
.LVL1131:
	.loc 1 4882 0
	mov	x1, x21
	mov	x2, x23
	mov	x0, x22
	bl	VC1_Vfmw_ParseAdvPicHdr
.LVL1132:
	.loc 1 4886 0
	ldr	x23, [sp,48]
	.cfi_restore 23
	ldp	x19, x20, [sp,16]
	.cfi_restore 19
	.cfi_restore 20
.LVL1133:
	ldp	x21, x22, [sp,32]
	.cfi_restore 21
	.cfi_restore 22
.LVL1134:
	ldp	x29, x30, [sp], 64
	.cfi_restore 29
	.cfi_restore 30
	.cfi_def_cfa 31, 0
	ret
	.cfi_endproc
.LFE2692:
	.size	VC1_Vfmw_ParseAdvSlcHdr, .-VC1_Vfmw_ParseAdvSlcHdr
	.align	2
	.global	VC1_ClearCurPacket
	.type	VC1_ClearCurPacket, %function
VC1_ClearCurPacket:
.LFB2702:
	.loc 1 5314 0
	.cfi_startproc
.LVL1135:
	stp	x29, x30, [sp, -32]!
	.cfi_def_cfa_offset 32
	.cfi_offset 29, -32
	.cfi_offset 30, -24
	add	x29, sp, 0
	.cfi_def_cfa_register 29
	stp	x19, x20, [sp,16]
	.cfi_offset 19, -16
	.cfi_offset 20, -8
	.loc 1 5314 0
	mov	x19, x1
	mov	w20, w0
	.loc 1 5315 0
	ldr	w1, [x1,20]
.LVL1136:
	bl	SM_ReleaseStreamSeg
.LVL1137:
	.loc 1 5316 0
	ldrsb	w0, [x19]
	cmp	w0, 1
	beq	.L1070
	.loc 1 5318 0
	ldr	w1, [x19,24]
	mov	w0, w20
	bl	SM_ReleaseStreamSeg
.LVL1138:
.L1070:
	.loc 1 5321 0
	stp	xzr, xzr, [x19]
	stp	xzr, xzr, [x19,16]
	stp	xzr, xzr, [x19,32]
	.loc 1 5322 0
	ldp	x19, x20, [sp,16]
	.cfi_restore 20
	.cfi_restore 19
.LVL1139:
	ldp	x29, x30, [sp], 32
	.cfi_restore 30
	.cfi_restore 29
	.cfi_def_cfa 31, 0
	ret
	.cfi_endproc
.LFE2702:
	.size	VC1_ClearCurPacket, .-VC1_ClearCurPacket
	.align	2
	.global	VC1_ReceivePacket
	.type	VC1_ReceivePacket, %function
VC1_ReceivePacket:
.LFB2701:
	.loc 1 5268 0
	.cfi_startproc
.LVL1140:
	stp	x29, x30, [sp, -32]!
	.cfi_def_cfa_offset 32
	.cfi_offset 29, -32
	.cfi_offset 30, -24
	add	x29, sp, 0
	.cfi_def_cfa_register 29
	stp	x19, x20, [sp,16]
	.cfi_offset 19, -16
	.cfi_offset 20, -8
	.loc 1 5268 0
	mov	x19, x1
	.loc 1 5271 0
	cbz	x1, .L1085
	.loc 1 5278 0
	add	x4, x0, 114688
	ldr	w1, [x1,4]
	add	x3, x4, 2016
	str	w1, [x3,4]
	.loc 1 5279 0
	ldr	x1, [x19,64]
	str	x1, [x3,32]
	.loc 1 5280 0
	ldr	w2, [x19,8]
	str	w2, [x3,12]
	.loc 1 5281 0
	ldrb	w5, [x19,1]
	strb	w5, [x4,2016]
	.loc 1 5282 0
	ldr	w5, [x19,12]
	str	w5, [x3,20]
	.loc 1 5284 0
	ldrb	w5, [x19,1]
	cmp	w5, 1
	beq	.L1077
	.loc 1 5286 0
	ldr	w5, [x19,84]
	str	w5, [x3,8]
	.loc 1 5287 0
	ldr	x5, [x19,144]
	str	x5, [x3,40]
	.loc 1 5288 0
	ldr	w5, [x19,88]
	str	w5, [x3,16]
	.loc 1 5289 0
	ldrb	w5, [x19,81]
	strb	w5, [x3,1]
	.loc 1 5290 0
	ldr	w5, [x19,92]
	str	w5, [x3,24]
	.loc 1 5292 0
	ldrb	w5, [x19,81]
	cmp	w5, 1
	bne	.L1086
.LBB198:
.LBB199:
	.loc 1 5351 0
	add	x20, x0, 77824
	.loc 1 5360 0
	mov	w4, 0
	.loc 1 5351 0
	add	x3, x20, 2488
	add	x0, x3, 3144
.LVL1141:
	str	x0, [x20,5624]
	.loc 1 5353 0
	ldrb	w3, [x3,3106]
	cmp	w3, 8
	beq	.L1087
.L1079:
	add	x19, x20, 2488
.LVL1142:
	strb	w3, [x20,2499]
	strb	w4, [x20,2500]
	.loc 1 5364 0
	ldrsb	w3, [x19,3104]
	cbz	w3, .L1088
.L1080:
	.loc 1 5375 0
	bl	BsInit
.LVL1143:
.LBE199:
.LBE198:
	.loc 1 5310 0
	mov	w0, 1
.LVL1144:
.L1076:
	.loc 1 5311 0
	ldp	x19, x20, [sp,16]
	.cfi_remember_state
	.cfi_restore 20
	.cfi_restore 19
.LVL1145:
	ldp	x29, x30, [sp], 32
	.cfi_restore 30
	.cfi_restore 29
	.cfi_def_cfa 31, 0
	ret
.LVL1146:
.L1086:
	.cfi_restore_state
	.loc 1 5294 0
	ldr	w0, [x4,2808]
.LVL1147:
	mov	x1, x3
	bl	VC1_ClearCurPacket
.LVL1148:
	.loc 1 5295 0
	ldrb	w3, [x19,81]
	adrp	x1, .LC32
	add	x1, x1, :lo12:.LC32
	mov	w2, 5295
	mov	w0, 1
	bl	dprint_linux_kernel
.LVL1149:
	.loc 1 5296 0
	mov	w0, 0
	.loc 1 5311 0
	ldp	x19, x20, [sp,16]
	.cfi_remember_state
	.cfi_restore 19
	.cfi_restore 20
.LVL1150:
	ldp	x29, x30, [sp], 32
	.cfi_restore 29
	.cfi_restore 30
	.cfi_def_cfa 31, 0
	ret
.L1088:
	.cfi_restore_state
.LBB209:
.LBB204:
.LBB200:
.LBB201:
	.loc 1 5366 0
	bl	BsInit
.LVL1151:
	.loc 1 5367 0
	ldr	w4, [x20,5600]
	add	x3, x19, 20480
	.loc 1 5371 0
	add	x5, x19, 3120
	add	x19, x19, 3184
	.loc 1 5367 0
	adds	w1, w4, 15
	add	w0, w4, 30
	csel	w0, w0, w1, mi
	asr	w0, w0, 4
	str	w0, [x3,1480]
.LBE201:
.LBE200:
.LBE204:
.LBE209:
	.loc 1 5310 0
	mov	w0, 1
.LBB210:
.LBB205:
.LBB203:
.LBB202:
	.loc 1 5368 0
	ldr	w1, [x20,5604]
	.loc 1 5370 0
	str	w1, [x3,1500]
	.loc 1 5368 0
	add	w2, w1, 30
	adds	w1, w1, 15
	csel	w1, w2, w1, mi
	.loc 1 5369 0
	str	w4, [x3,1496]
	.loc 1 5368 0
	asr	w1, w1, 4
	str	w1, [x3,1484]
	.loc 1 5371 0
	ldp	x2, x3, [x5]
	stp	x2, x3, [x19]
.LBE202:
.LBE203:
.LBE205:
.LBE210:
	.loc 1 5311 0
	ldp	x19, x20, [sp,16]
	.cfi_remember_state
	.cfi_restore 19
	.cfi_restore 20
	ldp	x29, x30, [sp], 32
	.cfi_restore 29
	.cfi_restore 30
	.cfi_def_cfa 31, 0
	ret
.LVL1152:
.L1077:
	.cfi_restore_state
.LBB211:
.LBB206:
	.loc 1 5351 0
	add	x20, x0, 77824
.LBE206:
.LBE211:
	.loc 1 5301 0
	str	wzr, [x3,8]
	.loc 1 5302 0
	str	xzr, [x3,40]
.LBB212:
.LBB207:
	.loc 1 5360 0
	mov	w4, 0
.LBE207:
.LBE212:
	.loc 1 5303 0
	str	wzr, [x3,16]
	.loc 1 5304 0
	strb	wzr, [x3,1]
	.loc 1 5305 0
	str	wzr, [x3,24]
.LBB213:
.LBB208:
	.loc 1 5351 0
	add	x3, x20, 2488
	add	x0, x3, 3144
.LVL1153:
	str	x0, [x20,5624]
	.loc 1 5353 0
	ldrb	w3, [x3,3106]
	cmp	w3, 8
	bne	.L1079
.L1087:
	add	x19, x20, 2488
.LVL1154:
	.loc 1 5356 0
	mov	w3, 6
	.loc 1 5355 0
	mov	w4, 1
	strb	w3, [x20,2499]
	strb	w4, [x20,2500]
	.loc 1 5364 0
	ldrsb	w3, [x19,3104]
	cbnz	w3, .L1080
	b	.L1088
.LVL1155:
.L1085:
.LBE208:
.LBE213:
	.loc 1 5274 0
	adrp	x1, .LC31
.LVL1156:
	mov	w0, 0
.LVL1157:
	add	x1, x1, :lo12:.LC31
	bl	dprint_linux_kernel
.LVL1158:
	.loc 1 5275 0
	mov	w0, 0
	b	.L1076
	.cfi_endproc
.LFE2701:
	.size	VC1_ReceivePacket, .-VC1_ReceivePacket
	.align	2
	.global	VC1_ClearCurPic
	.type	VC1_ClearCurPic, %function
VC1_ClearCurPic:
.LFB2703:
	.loc 1 5325 0
	.cfi_startproc
.LVL1159:
	stp	x29, x30, [sp, -48]!
	.cfi_def_cfa_offset 48
	.cfi_offset 29, -48
	.cfi_offset 30, -40
	add	x29, sp, 0
	.cfi_def_cfa_register 29
	stp	x21, x22, [sp,32]
	stp	x19, x20, [sp,16]
	.cfi_offset 21, -16
	.cfi_offset 22, -8
	.cfi_offset 19, -32
	.cfi_offset 20, -24
	.loc 1 5325 0
	mov	w21, w1
	.loc 1 5329 0
	ldrsb	w1, [x0,3104]
.LVL1160:
	cbz	w1, .L1090
.LBB216:
.LBB217:
	.loc 1 5335 0 discriminator 1
	add	x0, x0, 20480
.LVL1161:
	mov	w20, 0
.LVL1162:
	add	x19, x0, 1576
	add	x22, x0, 1564
	ldr	w0, [x0,1564]
	cmp	w0, wzr
	bgt	.L1100
	b	.L1089
.L1093:
	ldr	w0, [x22]
	add	x19, x19, 56
	cmp	w20, w0
	bge	.L1089
.L1100:
	.loc 1 5338 0
	ldr	w1, [x19,40]
	mov	w0, w21
	.loc 1 5335 0 discriminator 2
	add	w20, w20, 1
	.loc 1 5338 0
	bl	SM_ReleaseStreamSeg
.LVL1163:
	.loc 1 5339 0
	ldr	x0, [x19]
	cbz	x0, .L1093
	.loc 1 5339 0 is_stmt 0 discriminator 1
	ldr	w0, [x19,28]
	cbz	w0, .L1093
	.loc 1 5341 0 is_stmt 1
	ldr	w1, [x19,44]
	mov	w0, w21
	add	x19, x19, 56
	bl	SM_ReleaseStreamSeg
.LVL1164:
	.loc 1 5335 0 discriminator 1
	ldr	w0, [x22]
	cmp	w20, w0
	blt	.L1100
.L1089:
.LBE217:
.LBE216:
	.loc 1 5345 0
	ldp	x19, x20, [sp,16]
	.cfi_remember_state
	.cfi_restore 20
	.cfi_restore 19
.LVL1165:
	ldp	x21, x22, [sp,32]
	.cfi_restore 22
	.cfi_restore 21
.LVL1166:
	ldp	x29, x30, [sp], 48
	.cfi_restore 30
	.cfi_restore 29
	.cfi_def_cfa 31, 0
	ret
.LVL1167:
.L1090:
	.cfi_restore_state
	.loc 1 5331 0
	add	x1, x0, 32768
	mov	w0, w21
.LVL1168:
	add	x1, x1, 3624
	bl	VC1_ClearCurPacket
.LVL1169:
	.loc 1 5345 0
	ldp	x19, x20, [sp,16]
	.cfi_restore 19
	.cfi_restore 20
	ldp	x21, x22, [sp,32]
	.cfi_restore 21
	.cfi_restore 22
.LVL1170:
	ldp	x29, x30, [sp], 48
	.cfi_restore 29
	.cfi_restore 30
	.cfi_def_cfa 31, 0
	ret
	.cfi_endproc
.LFE2703:
	.size	VC1_ClearCurPic, .-VC1_ClearCurPic
	.align	2
	.global	VC1DEC_VDMPostProc
	.type	VC1DEC_VDMPostProc, %function
VC1DEC_VDMPostProc:
.LFB2646:
	.loc 1 431 0
	.cfi_startproc
.LVL1171:
	stp	x29, x30, [sp, -96]!
	.cfi_def_cfa_offset 96
	.cfi_offset 29, -96
	.cfi_offset 30, -88
	add	x29, sp, 0
	.cfi_def_cfa_register 29
	stp	x19, x20, [sp,16]
	.cfi_offset 19, -80
	.cfi_offset 20, -72
	.loc 1 441 0
	add	x19, x0, 114688
	.loc 1 431 0
	str	x25, [sp,64]
	stp	x21, x22, [sp,32]
	stp	x23, x24, [sp,48]
	.cfi_offset 25, -32
	.cfi_offset 21, -64
	.cfi_offset 22, -56
	.cfi_offset 23, -48
	.cfi_offset 24, -40
	.loc 1 436 0
	add	x20, x0, 77824
	.loc 1 431 0
	mov	x21, x0
	mov	w22, w1
	.loc 1 436 0
	add	x0, x20, 2488
.LVL1172:
	.loc 1 441 0
	ldr	w1, [x19,2808]
.LVL1173:
	.loc 1 443 0
	add	x25, x0, 20480
	.loc 1 441 0
	bl	VC1_ClearCurPic
.LVL1174:
	.loc 1 443 0
	ldr	w1, [x25,1556]
	ldr	w0, [x19,2808]
	bl	FSP_GetFsImagePtr
.LVL1175:
	mov	x23, x0
.LVL1176:
	.loc 1 444 0
	ldr	w1, [x25,1552]
	ldr	w0, [x19,2808]
	bl	FSP_GetFsImagePtr
.LVL1177:
	mov	x24, x0
.LVL1178:
	.loc 1 445 0
	ldr	w1, [x25,1548]
	ldr	w0, [x19,2808]
	bl	FSP_GetFsImagePtr
.LVL1179:
	mov	x4, x0
.LVL1180:
	.loc 1 447 0
	cbz	x23, .L1138
	.loc 1 454 0
	tbnz	w22, #31, .L1124
	.loc 1 454 0 is_stmt 0 discriminator 1
	cmp	w22, 100
	mov	w0, 100
	csel	w22, w22, w0, le
.LVL1181:
.L1107:
	.loc 1 454 0 discriminator 4
	str	w22, [x23,84]
	.loc 1 455 0 is_stmt 1
	mov	x0, x21
	bl	VC1_SetImgFormat
.LVL1182:
	.loc 1 456 0
	ldrsb	w1, [x20,2491]
	cmp	w1, 3
	beq	.L1139
	.loc 1 462 0
	str	xzr, [x23,248]
	.loc 1 463 0
	str	xzr, [x23,256]
	.loc 1 465 0
	ldr	x0, [x21]
	ldr	w0, [x0,16]
	cmp	w0, 1
	beq	.L1109
.L1144:
	.loc 1 468 0
	add	x1, x20, 2488
	ldrb	w0, [x1,2]
	sub	w0, w0, #2
	and	w0, w0, -3
	uxtb	w0, w0
	cbz	w0, .L1110
	.loc 1 470 0
	add	x0, x1, 20480
	ldr	w2, [x0,1544]
	cmp	w2, 1
	bls	.L1111
	.loc 1 470 0 is_stmt 0 discriminator 1
	ldr	w1, [x0,1548]
	.loc 1 473 0 is_stmt 1
	mov	w22, 1
.LVL1183:
	.loc 1 470 0 discriminator 4
	str	w1, [x0,1560]
.L1112:
	.loc 1 500 0
	add	x24, x20, 2488
.LVL1184:
	.loc 1 502 0
	cmn	w1, #1
	.loc 1 500 0
	add	x0, x24, 32768
	ldr	w23, [x0,3616]
.LVL1185:
	add	w23, w23, 1
	str	w23, [x0,3616]
	.loc 1 502 0
	beq	.L1113
.L1143:
	.loc 1 504 0
	ldr	w0, [x19,2808]
	bl	FSP_GetFsImagePtr
.LVL1186:
	mov	x23, x0
.LVL1187:
	.loc 1 505 0
	cbz	x0, .L1140
	.loc 1 511 0
	ldr	w2, [x0,84]
	cbz	w2, .L1115
	.loc 1 511 0 is_stmt 0 discriminator 1
	ldr	x0, [x21]
	ldr	w3, [x0,8]
	cmp	w2, w3
	bhi	.L1116
.L1115:
	.loc 1 513 0 is_stmt 1
	add	x24, x20, 2488
	ldr	w0, [x19,2808]
	add	x25, x24, 20480
	ldr	w2, [x25,1560]
	str	x2, [x29,88]
	mov	w1, w2
	bl	FSP_GetRef
.LVL1188:
	mov	w3, w0
	.loc 1 513 0 is_stmt 0 discriminator 1
	ldr	x2, [x29,88]
	adrp	x1, .LC35
	add	x1, x1, :lo12:.LC35
	mov	w0, 12
	bl	dprint_linux_kernel
.LVL1189:
	.loc 1 515 0 is_stmt 1
	ldr	w0, [x19,2808]
	mov	w2, 1
	ldr	w1, [x25,1560]
	bl	FSP_SetDisplay
.LVL1190:
	.loc 1 516 0
	cbnz	w22, .L1141
	.loc 1 523 0
	ldr	x0, [x24,21928]
	mov	w1, 1
	strb	w1, [x0,1]
	.loc 1 524 0
	mov	w0, 2
	strb	w0, [x24,1]
.L1118:
	.loc 1 526 0
	ldr	w0, [x19,2808]
	mov	w1, 1
	mov	x2, x21
	add	x3, x19, 2192
	mov	x4, x23
	bl	InsertImgToVoQueue
.LVL1191:
	cmp	w0, 1
	beq	.L1119
	.loc 1 528 0
	ldr	w0, [x19,2808]
	.loc 1 532 0
	add	x20, x20, 2488
	.loc 1 528 0
	ldr	x1, [x23,248]
	bl	FreeUsdByDec
.LVL1192:
	.loc 1 529 0
	str	xzr, [x23,248]
	.loc 1 530 0
	ldr	x1, [x23,256]
	ldr	w0, [x19,2808]
	bl	FreeUsdByDec
.LVL1193:
	.loc 1 531 0
	str	xzr, [x23,256]
	.loc 1 532 0
	add	x1, x20, 20480
	mov	w2, 0
	ldr	w0, [x19,2808]
	ldr	w1, [x1,1560]
	bl	FSP_SetDisplay
.LVL1194:
	.loc 1 533 0
	cbnz	w22, .L1142
	.loc 1 539 0
	ldr	x1, [x20,21928]
	.loc 1 541 0
	mov	w0, 0
	.loc 1 539 0
	strb	wzr, [x1,1]
	.loc 1 584 0
	ldp	x19, x20, [sp,16]
	.cfi_remember_state
	.cfi_restore 19
	.cfi_restore 20
	ldp	x21, x22, [sp,32]
	.cfi_restore 21
	.cfi_restore 22
.LVL1195:
	ldp	x23, x24, [sp,48]
	.cfi_restore 23
	.cfi_restore 24
.LVL1196:
	ldr	x25, [sp,64]
	.cfi_restore 25
	ldp	x29, x30, [sp], 96
	.cfi_restore 29
	.cfi_restore 30
	.cfi_def_cfa 31, 0
	ret
.LVL1197:
.L1110:
	.cfi_restore_state
	.loc 1 478 0
	add	x2, x1, 20480
	ldr	w1, [x2,1556]
	str	w1, [x2,1560]
	.loc 1 482 0
	cbz	x24, .L1125
	.loc 1 484 0
	ldr	x3, [x24,224]
	.loc 1 434 0
	mov	w22, 0
.LVL1198:
	.loc 1 484 0
	ldr	x0, [x23,224]
	cmp	x3, x0
	bge	.L1112
.LBB218:
	.loc 1 488 0
	str	x3, [x23,224]
	.loc 1 489 0
	str	x0, [x24,224]
.LBE218:
	.loc 1 500 0
	add	x24, x20, 2488
.LVL1199:
	add	x0, x24, 32768
	ldr	w1, [x2,1560]
	ldr	w23, [x0,3616]
.LVL1200:
	.loc 1 502 0
	cmn	w1, #1
	.loc 1 500 0
	add	w23, w23, 1
	str	w23, [x0,3616]
	.loc 1 502 0
	bne	.L1143
.LVL1201:
.L1113:
	.loc 1 583 0
	mov	w0, 1
.LVL1202:
.L1136:
	.loc 1 584 0
	ldp	x19, x20, [sp,16]
	.cfi_remember_state
	.cfi_restore 20
	.cfi_restore 19
	ldp	x21, x22, [sp,32]
	.cfi_restore 22
	.cfi_restore 21
.LVL1203:
	ldp	x23, x24, [sp,48]
	.cfi_restore 24
	.cfi_restore 23
.LVL1204:
	ldr	x25, [sp,64]
	.cfi_restore 25
	ldp	x29, x30, [sp], 96
	.cfi_restore 30
	.cfi_restore 29
	.cfi_def_cfa 31, 0
	ret
.LVL1205:
.L1139:
	.cfi_restore_state
	.loc 1 456 0 discriminator 1
	ldrb	w0, [x20,2497]
	cmp	w0, 1
	bne	.L1113
	.loc 1 462 0
	str	xzr, [x23,248]
	.loc 1 463 0
	str	xzr, [x23,256]
	.loc 1 465 0
	ldr	x0, [x21]
	ldr	w0, [x0,16]
	cmp	w0, 1
	bne	.L1144
.L1109:
	.loc 1 497 0
	add	x0, x20, 2488
	.loc 1 434 0
	mov	w22, 0
.LVL1206:
	.loc 1 497 0
	add	x0, x0, 20480
	ldr	w1, [x0,1556]
	str	w1, [x0,1560]
	b	.L1112
.LVL1207:
.L1124:
	.loc 1 454 0 discriminator 2
	mov	w22, 0
.LVL1208:
	b	.L1107
.LVL1209:
.L1119:
	.loc 1 546 0
	add	x20, x20, 2488
	ldrsb	w1, [x20,1]
	cmp	w1, 3
	beq	.L1145
	.loc 1 551 0
	cmp	w1, 1
	beq	.L1146
	.loc 1 556 0
	cmp	w1, 2
	bne	.L1113
	.loc 1 558 0
	ldr	x1, [x20,21928]
	strb	wzr, [x1,1]
	.loc 1 559 0
	strb	wzr, [x20,1]
	b	.L1136
.L1141:
	.loc 1 518 0
	ldr	x0, [x24,21944]
	strb	w22, [x0,1]
	.loc 1 519 0
	strb	w22, [x24,1]
	b	.L1118
.L1116:
	.loc 1 565 0
	adrp	x1, .LC36
	mov	w0, 1
	add	x1, x1, :lo12:.LC36
	bl	dprint_linux_kernel
.LVL1210:
	.loc 1 566 0
	ldr	w0, [x19,2808]
	ldr	x1, [x23,248]
	bl	FreeUsdByDec
.LVL1211:
	.loc 1 567 0
	str	xzr, [x23,248]
	.loc 1 568 0
	ldr	x1, [x23,256]
	ldr	w0, [x19,2808]
	bl	FreeUsdByDec
.LVL1212:
	.loc 1 569 0
	str	xzr, [x23,256]
	.loc 1 570 0
	add	x1, x24, 20480
	mov	w2, 0
	ldr	w0, [x19,2808]
	ldr	w1, [x1,1560]
	bl	FSP_SetDisplay
.LVL1213:
	.loc 1 571 0
	cbnz	w22, .L1147
	.loc 1 577 0
	ldr	x1, [x24,21928]
	.loc 1 583 0
	mov	w0, 1
	.loc 1 577 0
	strb	wzr, [x1,1]
	b	.L1136
.LVL1214:
.L1111:
	.loc 1 500 0
	add	x1, x1, 32768
	.loc 1 470 0 discriminator 4
	mov	w2, -1
	str	w2, [x0,1560]
	.loc 1 500 0
	ldr	w0, [x1,3616]
	add	w0, w0, 1
	str	w0, [x1,3616]
	b	.L1113
.LVL1215:
.L1142:
	.loc 1 535 0
	ldr	x1, [x20,21944]
	.loc 1 541 0
	mov	w0, 0
	.loc 1 535 0
	strb	wzr, [x1,1]
	b	.L1136
.L1146:
	.loc 1 553 0
	ldr	x2, [x20,21944]
	.loc 1 583 0
	mov	w0, w1
	.loc 1 553 0
	strb	wzr, [x2,1]
	.loc 1 554 0
	strb	wzr, [x20,1]
	b	.L1136
.L1145:
	.loc 1 548 0
	ldr	x0, [x20,21936]
	strb	wzr, [x0,1]
	.loc 1 549 0
	strb	wzr, [x20,1]
	b	.L1113
.LVL1216:
.L1138:
	.loc 1 449 0
	adrp	x1, .LC33
	mov	w0, 0
	add	x1, x1, :lo12:.LC33
	mov	x2, 0
	mov	x3, x24
	bl	dprint_linux_kernel
.LVL1217:
	.loc 1 450 0
	mov	w0, 0
	b	.L1136
.LVL1218:
.L1125:
	.loc 1 434 0
	mov	w22, 0
.LVL1219:
	b	.L1112
.LVL1220:
.L1140:
	.loc 1 507 0
	adrp	x1, .LC34
	mov	w0, 22
.LVL1221:
	add	x1, x1, :lo12:.LC34
	mov	w2, 507
	bl	dprint_linux_kernel
.LVL1222:
	.loc 1 508 0
	mov	w0, 0
	b	.L1136
.L1147:
	.loc 1 573 0
	ldr	x1, [x24,21944]
	.loc 1 583 0
	mov	w0, w22
	.loc 1 573 0
	strb	wzr, [x1,1]
	b	.L1136
	.cfi_endproc
.LFE2646:
	.size	VC1DEC_VDMPostProc, .-VC1DEC_VDMPostProc
	.align	2
	.global	VC1_Vfmw_DecodeArbiter
	.type	VC1_Vfmw_DecodeArbiter, %function
VC1_Vfmw_DecodeArbiter:
.LFB2658:
	.loc 1 1965 0
	.cfi_startproc
.LVL1223:
	stp	x29, x30, [sp, -64]!
	.cfi_def_cfa_offset 64
	.cfi_offset 29, -64
	.cfi_offset 30, -56
	add	x29, sp, 0
	.cfi_def_cfa_register 29
	stp	x19, x20, [sp,16]
	.cfi_offset 19, -48
	.cfi_offset 20, -40
	.loc 1 1973 0
	add	x19, x0, 77824
	.loc 1 1965 0
	str	x23, [sp,48]
	stp	x21, x22, [sp,32]
	.cfi_offset 23, -16
	.cfi_offset 21, -32
	.cfi_offset 22, -24
	.loc 1 1973 0
	add	x3, x19, 2488
	ldrb	w2, [x19,2488]
	tbz	x2, 4, .L1204
	mov	x20, x0
	.loc 1 1978 0
	mov	w1, -21
	.loc 1 1981 0
	add	x0, x3, 32768
.LVL1224:
	.loc 1 1978 0
	and	w2, w2, w1
	strb	w2, [x19,2488]
	.loc 1 1981 0
	ldr	w0, [x0,3748]
	sub	w0, w0, #2
	cmp	w0, 1
	.loc 1 1982 0
	ldr	x0, [x20]
	.loc 1 1981 0
	bls	.L1151
	add	x3, x3, 20480
	ldr	w2, [x0,12]
	ldr	w0, [x3,1544]
.LVL1225:
.L1152:
	.loc 1 1998 0
	add	x3, x19, 2488
	.loc 1 1999 0
	sub	w1, w2, #1
	.loc 1 1998 0
	add	x3, x3, 32768
	.loc 1 1999 0
	cmp	w1, 3
	.loc 1 1998 0
	str	w2, [x3,3748]
	.loc 1 1999 0
	bls	.L1208
.L1165:
	.loc 1 1968 0
	mov	w2, 1
.LVL1226:
.L1162:
	.loc 1 2036 0
	cbnz	w0, .L1168
.L1169:
	.loc 1 2037 0
	ldrb	w0, [x19,2490]
	.loc 1 2038 0
	sub	w1, w0, #4
	uxtb	w1, w1
	.loc 1 2039 0
	cmp	w1, 1
	bls	.L1177
	.loc 1 2037 0
	sub	w1, w0, #1
	uxtb	w1, w1
	.loc 1 2039 0
	cmp	w1, 1
	bls	.L1177
.L1170:
	.loc 1 2046 0 discriminator 1
	sub	w0, w0, #2
	and	w0, w0, -3
	uxtb	w0, w0
	cbz	w0, .L1209
.L1173:
	.loc 1 2052 0
	cbz	w2, .L1172
	.loc 1 2061 0
	add	x19, x19, 2488
	.loc 1 2064 0
	add	x20, x20, 81920
.LVL1227:
	.loc 1 2061 0
	ldrsb	w0, [x19,3104]
	cbnz	w0, .L1176
	.loc 1 2064 0
	add	x3, x19, 8192
	add	x0, x20, 1576
	add	x1, x3, 2208
	.loc 1 2065 0
	mov	x2, 112
.LVL1228:
	.loc 1 2064 0
	ldp	x4, x5, [x0]
	stp	x4, x5, [x1]
	.loc 1 2065 0
	add	x0, x3, 2456
	add	x1, x20, 1824
	bl	memcpy
.LVL1229:
	.loc 1 2083 0
	ldr	x23, [sp,48]
	.cfi_remember_state
	.cfi_restore 23
	.loc 1 2082 0
	mov	w0, 1
	.loc 1 2083 0
	ldp	x19, x20, [sp,16]
	.cfi_restore 19
	.cfi_restore 20
	ldp	x21, x22, [sp,32]
	.cfi_restore 21
	.cfi_restore 22
.LVL1230:
	ldp	x29, x30, [sp], 64
	.cfi_restore 29
	.cfi_restore 30
	.cfi_def_cfa 31, 0
	ret
.LVL1231:
.L1177:
	.cfi_restore_state
	.loc 1 2043 0
	adrp	x1, .LC38
	mov	w0, 1
	add	x1, x1, :lo12:.LC38
	bl	dprint_linux_kernel
.LVL1232:
.L1172:
	.loc 1 2055 0
	add	x20, x20, 114688
.LVL1233:
	add	x0, x19, 2488
	ldr	w1, [x20,2808]
	bl	VC1_ClearCurPic
.LVL1234:
	.loc 1 2056 0
	adrp	x0, g_event_report
	ldr	x4, [x0,#:lo12:g_event_report]
	cbz	x4, .L1204
	.loc 1 2056 0 is_stmt 0 discriminator 1
	ldr	w0, [x20,2808]
	mov	w1, 113
	mov	x2, 0
	mov	w3, 0
	blr	x4
.LVL1235:
.L1204:
	mov	w0, 0
.LVL1236:
	.loc 1 2083 0 is_stmt 1
	ldr	x23, [sp,48]
	.cfi_remember_state
	.cfi_restore 23
	ldp	x19, x20, [sp,16]
	.cfi_restore 20
	.cfi_restore 19
	ldp	x21, x22, [sp,32]
	.cfi_restore 22
	.cfi_restore 21
.LVL1237:
	ldp	x29, x30, [sp], 64
	.cfi_restore 30
	.cfi_restore 29
	.cfi_def_cfa 31, 0
	ret
.LVL1238:
.L1208:
	.cfi_restore_state
	.loc 1 1999 0
	adrp	x2, .L1160
	add	x2, x2, :lo12:.L1160
	ldrb	w1, [x2,w1,uxtw]
	adr	x2, .Lrtx1160
	add	x1, x2, w1, sxtb #2
	br	x1
.Lrtx1160:
	.section	.rodata
	.align	0
	.align	2
.L1160:
	.byte	(.L1159 - .Lrtx1160) / 4
	.byte	(.L1161 - .Lrtx1160) / 4
	.byte	(.L1181 - .Lrtx1160) / 4
	.byte	(.L1163 - .Lrtx1160) / 4
	.text
.LVL1239:
.L1168:
	.loc 1 2046 0
	cmp	w0, 1
	bhi	.L1173
	ldrb	w0, [x19,2490]
	b	.L1170
.LVL1240:
.L1151:
	.loc 1 1982 0
	ldr	w2, [x0,12]
	.loc 1 1981 0 discriminator 1
	cmp	w2, 1
	bls	.L1153
	cmp	w2, 4
	beq	.L1153
	add	x3, x3, 20480
	ldr	w0, [x3,1544]
	b	.L1152
.LVL1241:
.L1181:
	.loc 1 2002 0
	mov	w2, 0
.LVL1242:
	b	.L1162
.LVL1243:
.L1185:
	.loc 1 1999 0
	mov	w0, 0
.L1161:
	.loc 1 2012 0
	ldrb	w1, [x19,2490]
	cmp	w1, wzr
	cset	w2, eq
.LVL1244:
	b	.L1162
.LVL1245:
.L1184:
	.loc 1 1999 0
	mov	w0, 0
.L1159:
	.loc 1 2005 0
	ldrb	w1, [x19,2490]
	sub	w1, w1, #2
	and	w1, w1, -3
	uxtb	w1, w1
	cmp	w1, wzr
	cset	w2, ne
.LVL1246:
	b	.L1162
.LVL1247:
.L1187:
	.loc 1 1999 0
	mov	w0, 0
.L1163:
	.loc 1 2019 0
	add	x1, x19, 2488
	ldrb	w3, [x1,2]
	cbnz	w3, .L1164
	.loc 1 2021 0
	add	x1, x1, 32768
	.loc 1 1968 0
	mov	w2, 1
.LVL1248:
	.loc 1 2021 0
	str	wzr, [x1,3680]
	b	.L1162
.LVL1249:
.L1176:
	.loc 1 2071 0
	add	x21, x19, 8192
	add	x1, x20, 1592
	mov	x2, 172
.LVL1250:
	add	x0, x21, 2224
	bl	memcpy
.LVL1251:
	.loc 1 2072 0
	add	x4, x20, 1764
	add	x3, x21, 2396
	.loc 1 2073 0
	mov	x2, 176
	.loc 1 2072 0
	ldp	x0, x1, [x4]
	stp	x0, x1, [x3]
	.loc 1 2073 0
	add	x1, x20, 1936
	add	x0, x21, 2568
	.loc 1 2072 0
	ldp	x6, x7, [x4,16]
	stp	x6, x7, [x3,16]
	ldp	x6, x7, [x4,32]
	stp	x6, x7, [x3,32]
	ldr	x5, [x4,48]
	str	x5, [x3,48]
	ldr	w4, [x20,1820]
	str	w4, [x19,10644]
	.loc 1 2073 0
	bl	memcpy
.LVL1252:
	.loc 1 2074 0
	ldr	w0, [x20,1980]
	.loc 1 2079 0
	add	x2, x19, 20480
	.loc 1 2074 0
	strb	w0, [x19,4]
	.loc 1 2079 0
	add	x1, x20, 2112
	add	x0, x21, 2744
	ldrsw	x2, [x2,1564]
	lsl	x3, x2, 4
	sub	x2, x3, x2, lsl 2
	bl	memcpy
.LVL1253:
	.loc 1 2083 0
	ldr	x23, [sp,48]
	.cfi_remember_state
	.cfi_restore 23
	.loc 1 2082 0
	mov	w0, 1
	.loc 1 2083 0
	ldp	x19, x20, [sp,16]
	.cfi_restore 19
	.cfi_restore 20
	ldp	x21, x22, [sp,32]
	.cfi_restore 21
	.cfi_restore 22
.LVL1254:
	ldp	x29, x30, [sp], 64
	.cfi_restore 29
	.cfi_restore 30
	.cfi_def_cfa 31, 0
	ret
.LVL1255:
.L1164:
	.cfi_restore_state
	.loc 1 2024 0
	cmp	w3, 2
	bne	.L1166
	.loc 1 2024 0 is_stmt 0 discriminator 1
	add	x1, x1, 32768
	ldr	w1, [x1,3680]
	cbnz	w1, .L1165
	.loc 1 2036 0 is_stmt 1
	cbz	w0, .L1177
	.loc 1 2046 0
	cmp	w0, 1
	bhi	.L1172
	.loc 1 2026 0
	mov	w2, 0
.LVL1256:
	ldrb	w0, [x19,2490]
	b	.L1170
.L1209:
	.loc 1 2048 0
	adrp	x1, .LC39
	mov	w0, 1
	add	x1, x1, :lo12:.LC39
	bl	dprint_linux_kernel
.LVL1257:
	b	.L1172
.L1166:
	.loc 1 2028 0
	and	w3, w3, -5
	.loc 1 1968 0
	mov	w2, 1
.LVL1258:
	.loc 1 2028 0
	cmp	w3, w2
.LVL1259:
	bne	.L1162
	.loc 1 2030 0
	add	x1, x1, 32768
.LVL1260:
	str	w2, [x1,3680]
	b	.L1162
.LVL1261:
.L1153:
	.loc 1 1986 0
	adrp	x1, .LC37
.LBB219:
	.loc 1 1987 0
	add	x21, x19, 2488
.LBE219:
	.loc 1 1986 0
	add	x1, x1, :lo12:.LC37
	mov	w0, 2
.LBB220:
	.loc 1 1987 0
	add	x23, x20, 114688
	add	x21, x21, 20480
.LBE220:
	.loc 1 1986 0
	bl	dprint_linux_kernel
.LVL1262:
.LBB221:
	.loc 1 1987 0
	ldr	w0, [x23,2808]
	ldr	w1, [x21,1552]
	bl	FSP_GetFsImagePtr
.LVL1263:
	mov	x22, x0
.LVL1264:
	cbz	x0, .L1154
	.loc 1 1987 0 is_stmt 0 discriminator 2
	ldr	w0, [x23,2808]
	ldr	x1, [x22,248]
	bl	FreeUsdByDec
.LVL1265:
	.loc 1 1987 0 discriminator 3
	ldr	w0, [x23,2808]
	ldr	x1, [x22,256]
	bl	FreeUsdByDec
.LVL1266:
	.loc 1 1987 0 discriminator 4
	ldr	w0, [x23,2808]
	ldr	x1, [x22,264]
	bl	FreeUsdByDec
.LVL1267:
	.loc 1 1987 0 discriminator 5
	ldr	w0, [x23,2808]
	ldr	x1, [x22,272]
	bl	FreeUsdByDec
.LVL1268:
	.loc 1 1987 0 discriminator 1
	str	xzr, [x22,248]
	str	xzr, [x22,256]
	.loc 1 1987 0 discriminator 6
	mov	w2, 1
	.loc 1 1987 0 discriminator 1
	str	xzr, [x22,264]
	str	xzr, [x22,272]
	.loc 1 1987 0 discriminator 6
	ldr	w0, [x23,2808]
	ldr	w1, [x21,1552]
	bl	FSP_ClearLogicFs
.LVL1269:
	.loc 1 1987 0 discriminator 7
	ldr	w0, [x23,2808]
	mov	w2, 1
	ldr	w1, [x21,1548]
	bl	FSP_ClearLogicFs
.LVL1270:
	.loc 1 1987 0 discriminator 1
	str	wzr, [x21,1548]
	str	wzr, [x21,1552]
	.loc 1 1987 0 discriminator 8
	ldr	w0, [x23,2808]
	bl	FSP_GetNullLogicFs
.LVL1271:
	.loc 1 1987 0 discriminator 1
	str	w0, [x21,1552]
	str	w0, [x21,1548]
.L1154:
.LBE221:
	.loc 1 1988 0 is_stmt 1
	add	x0, x19, 2488
	add	x1, x0, 20480
	str	wzr, [x1,1544]
	.loc 1 1990 0
	ldr	x2, [x0,21936]
	cbz	x2, .L1203
	.loc 1 1990 0 is_stmt 0 discriminator 1
	ldr	x3, [x0,21944]
	cbz	x3, .L1203
	.loc 1 1992 0 is_stmt 1
	strb	wzr, [x2,1]
	.loc 1 1993 0
	ldr	x2, [x0,21944]
	strb	wzr, [x2,1]
	.loc 1 1994 0
	ldr	x2, [x0,21936]
	strb	wzr, [x2]
	.loc 1 1995 0
	ldr	x0, [x0,21944]
	strb	wzr, [x0]
	ldr	x2, [x20]
	ldr	w0, [x1,1544]
	ldr	w2, [x2,12]
	b	.L1152
.L1203:
	ldr	x0, [x20]
	ldr	w1, [x0,12]
	.loc 1 1998 0
	add	x0, x19, 2488
	add	x0, x0, 32768
	.loc 1 1999 0
	sub	w2, w1, #1
	cmp	w2, 3
	.loc 1 1998 0
	str	w1, [x0,3748]
	.loc 1 1999 0
	bls	.L1210
	mov	w0, 0
	.loc 1 1968 0
	mov	w2, 1
.LVL1272:
	b	.L1162
.LVL1273:
.L1210:
	.loc 1 1999 0
	adrp	x0, .L1179
	add	x0, x0, :lo12:.L1179
	ldrh	w0, [x0,w2,uxtw #1]
	adr	x1, .Lrtx1179
	add	x0, x1, w0, sxth #2
	br	x0
.Lrtx1179:
	.section	.rodata
	.align	0
	.align	2
.L1179:
	.2byte	(.L1184 - .Lrtx1179) / 4
	.2byte	(.L1185 - .Lrtx1179) / 4
	.2byte	(.L1186 - .Lrtx1179) / 4
	.2byte	(.L1187 - .Lrtx1179) / 4
	.text
.L1186:
	.loc 1 2002 0
	mov	w2, 0
.LVL1274:
	b	.L1169
	.cfi_endproc
.LFE2658:
	.size	VC1_Vfmw_DecodeArbiter, .-VC1_Vfmw_DecodeArbiter
	.align	2
	.global	VC1_Vfmw_StartDecode
	.type	VC1_Vfmw_StartDecode, %function
VC1_Vfmw_StartDecode:
.LFB2659:
	.loc 1 2086 0
	.cfi_startproc
.LVL1275:
	stp	x29, x30, [sp, -64]!
	.cfi_def_cfa_offset 64
	.cfi_offset 29, -64
	.cfi_offset 30, -56
	add	x29, sp, 0
	.cfi_def_cfa_register 29
	stp	x19, x20, [sp,16]
	.cfi_offset 19, -48
	.cfi_offset 20, -40
	mov	x20, x0
	.loc 1 2090 0
	add	x19, x0, 16
	.loc 1 2086 0
	stp	x21, x22, [sp,32]
	stp	x23, x24, [sp,48]
	.cfi_offset 21, -32
	.cfi_offset 22, -24
	.cfi_offset 23, -16
	.cfi_offset 24, -8
	.loc 1 2089 0
	add	x21, x0, 77824
	.loc 1 2091 0
	add	x0, x19, 77824
.LVL1276:
	ldr	x1, [x20]
	.loc 1 2089 0
	add	x22, x21, 2488
.LVL1277:
	.loc 1 2091 0
	ldr	w1, [x1,676]
	str	w1, [x0,2296]
.LBB230:
.LBB231:
	.loc 1 5225 0
	ldrsb	w0, [x22,3104]
	cbz	w0, .L1241
.L1212:
.LBE231:
.LBE230:
	.loc 1 2098 0
	mov	x0, x20
	mov	x1, x19
.LBB238:
.LBB239:
	.loc 1 1059 0
	add	x23, x21, 2488
.LBE239:
.LBE238:
	.loc 1 2098 0
	bl	VC1_WritePicMsg
.LVL1278:
.LBB241:
.LBB240:
	.loc 1 1059 0
	add	x2, x23, 20480
	.loc 1 1060 0
	add	x0, x20, 104
	add	x1, x2, 1568
	.loc 1 1059 0
	ldr	w2, [x2,1564]
	strb	w2, [x19,74]
	.loc 1 1060 0
	sxtw	x2, w2
	lsl	x3, x2, 6
	sub	x2, x3, x2, lsl 3
	bl	memcpy
.LVL1279:
.LBE240:
.LBE241:
.LBB242:
.LBB243:
	.loc 1 1539 0
	ldrsb	w0, [x23,3104]
	cbz	w0, .L1215
	.loc 1 1539 0 is_stmt 0 discriminator 1
	ldr	w0, [x21,13292]
	cmp	w0, 3
	beq	.L1242
.L1215:
	.loc 1 1548 0 is_stmt 1
	add	x0, x21, 2488
	add	x0, x0, 32768
	ldr	w1, [x0,3704]
	sub	w1, w1, #1
.L1216:
	add	x6, x19, 77824
	.loc 1 1555 0
	add	x0, x21, 2488
	.loc 1 1554 0
	add	x2, x0, 20480
	str	w1, [x6,2216]
	.loc 1 1555 0
	ldrsw	x1, [x2,1536]
	.loc 1 1552 0
	ldrsw	x2, [x2,1520]
	.loc 1 1555 0
	lsl	x5, x1, 5
	.loc 1 1557 0
	ldr	x3, [x0,21928]
	.loc 1 1555 0
	add	x5, x5, x1, lsl 3
	.loc 1 1552 0
	lsl	x4, x2, 5
	.loc 1 1555 0
	lsl	x1, x5, 5
	.loc 1 1552 0
	add	x4, x4, x2, lsl 3
	.loc 1 1555 0
	add	x1, x5, x1
	.loc 1 1552 0
	lsl	x2, x4, 5
	.loc 1 1555 0
	add	x1, x0, x1
	.loc 1 1552 0
	add	x2, x4, x2
	add	x2, x0, x2
	.loc 1 1563 0
	ldr	w3, [x3,1072]
	.loc 1 1562 0
	ldr	w1, [x1,15080]
	.loc 1 1563 0
	and	w3, w3, 3
	.loc 1 1561 0
	ldr	w2, [x2,15080]
	.loc 1 1563 0
	lsl	w3, w3, 4
	.loc 1 1562 0
	and	w1, w1, 3
	.loc 1 1566 0
	strb	wzr, [x19,73]
	.loc 1 1561 0
	and	w2, w2, 3
	orr	w1, w3, w1, lsl 2
	.loc 1 1563 0
	orr	w1, w1, w2
	strb	w1, [x19,72]
.LBE243:
.LBE242:
	.loc 1 2104 0
	ldrb	w1, [x0,2]
	cmp	w1, 1
	bls	.L1243
	.loc 1 2109 0
	cmp	w1, 5
	beq	.L1244
	ldrsb	w1, [x0,4]
.L1218:
	.loc 1 2122 0
	add	x23, x21, 2488
	ldrb	w0, [x21,2496]
	.loc 1 2118 0
	mov	w2, 0
	strb	w2, [x19,1]
	.loc 1 2120 0
	strb	w1, [x20,16]
	.loc 1 2122 0
	strb	w1, [x23,3]
	.loc 1 2123 0
	strb	w0, [x23,9]
	.loc 1 2125 0
	ldrb	w1, [x19,3]
	cmp	w1, 2
	beq	.L1245
.L1221:
	.loc 1 2134 0
	and	w0, w1, -5
	uxtb	w0, w0
	cmp	w0, 1
	bne	.L1222
	.loc 1 2136 0
	add	x23, x23, 32768
	str	w0, [x23,3680]
.L1222:
	.loc 1 2141 0
	ldr	x2, [x20]
	.loc 1 2139 0
	str	x19, [x20,8]
	.loc 1 2141 0
	ldr	w0, [x2,880]
	cmp	w0, 1
	beq	.L1246
	.loc 1 2154 0
	cmp	w0, 2
	beq	.L1247
.L1227:
	.loc 1 2169 0
	mov	w0, 1
.L1223:
	.loc 1 2170 0
	ldp	x19, x20, [sp,16]
	.cfi_remember_state
	.cfi_restore 20
	.cfi_restore 19
.LVL1280:
	ldp	x21, x22, [sp,32]
	.cfi_restore 22
	.cfi_restore 21
.LVL1281:
	ldp	x23, x24, [sp,48]
	.cfi_restore 24
	.cfi_restore 23
	ldp	x29, x30, [sp], 64
	.cfi_restore 30
	.cfi_restore 29
	.cfi_def_cfa 31, 0
	ret
.LVL1282:
.L1244:
	.cfi_restore_state
	.loc 1 2112 0
	ldrsb	w1, [x0,5]
	.loc 1 2114 0
	add	x3, x0, 32768
	.loc 1 2112 0
	strb	w1, [x0,4]
	.loc 1 2113 0
	mov	w2, 1
	strb	w2, [x0,8]
	.loc 1 2122 0
	add	x23, x21, 2488
	mov	w0, 1
	.loc 1 2114 0
	ldr	w3, [x3,3704]
	.loc 1 2111 0
	mov	w2, w0
	.loc 1 2114 0
	sub	w3, w3, #1
	str	w3, [x6,2216]
	strb	w2, [x19,1]
	.loc 1 2120 0
	strb	w1, [x20,16]
	.loc 1 2122 0
	strb	w1, [x23,3]
	.loc 1 2123 0
	strb	w0, [x23,9]
	.loc 1 2125 0
	ldrb	w1, [x19,3]
	cmp	w1, 2
	bne	.L1221
.L1245:
	.loc 1 2125 0 is_stmt 0 discriminator 1
	add	x24, x23, 32768
	ldr	w0, [x24,3680]
	cbnz	w0, .L1222
	.loc 1 2128 0 is_stmt 1
	add	x1, x20, 114688
	mov	x0, x22
	ldr	w1, [x1,2808]
	bl	VC1_ClearCurPic
.LVL1283:
	.loc 1 2129 0
	ldr	x1, [x23,21928]
	.loc 1 2132 0
	mov	w0, 0
	.loc 1 2129 0
	strb	wzr, [x1]
	.loc 1 2130 0
	ldr	w1, [x24,3684]
	add	w1, w1, 1
	str	w1, [x24,3684]
	.loc 1 2131 0
	str	xzr, [x20,8]
	.loc 1 2132 0
	b	.L1223
.L1247:
	.loc 1 2156 0
	ldr	w0, [x2,884]
	.loc 1 2156 0 is_stmt 0 discriminator 1
	cmp	w0, wzr
	ble	.L1227
	cbz	x19, .L1227
	.loc 1 2157 0 is_stmt 1
	sub	w1, w1, #2
	.loc 1 2169 0
	mov	w0, 1
	.loc 1 2157 0
	and	w1, w1, -3
	uxtb	w1, w1
	cbnz	w1, .L1223
	.loc 1 2160 0
	ldr	x1, [x21,24416]
	.loc 1 2163 0
	add	x3, x20, 114688
	mov	x0, x22
	.loc 1 2160 0
	strb	wzr, [x1,1]
	.loc 1 2162 0
	ldr	x2, [x20]
	ldr	w1, [x2,884]
	sub	w1, w1, #1
	str	w1, [x2,884]
	.loc 1 2163 0
	ldr	w1, [x3,2808]
	bl	VC1_ClearCurPic
.LVL1284:
	.loc 1 2164 0
	str	xzr, [x20,8]
	.loc 1 2165 0
	mov	w0, 0
	b	.L1223
.L1243:
	.loc 1 2106 0
	ldrsb	w1, [x0,4]
	strb	w1, [x0,5]
	b	.L1218
.L1246:
	.loc 1 2143 0
	cbz	x19, .L1223
	.loc 1 2144 0
	sub	w1, w1, #2
	and	w1, w1, -3
	.loc 1 2143 0 discriminator 1
	uxtb	w1, w1
	cbnz	w1, .L1223
	.loc 1 2147 0
	ldr	x2, [x21,24416]
	.loc 1 2149 0
	add	x1, x20, 114688
	mov	x0, x22
	.loc 1 2147 0
	strb	wzr, [x2,1]
	.loc 1 2149 0
	ldr	w1, [x1,2808]
	bl	VC1_ClearCurPic
.LVL1285:
	.loc 1 2150 0
	str	xzr, [x20,8]
	.loc 1 2151 0
	mov	w0, 0
	b	.L1223
.L1241:
.LBB245:
.LBB236:
.LBB232:
.LBB233:
	.loc 1 5227 0
	add	x0, x22, 8192
	ldrb	w0, [x0,2459]
	and	w1, w0, -5
	cbz	w1, .L1225
	.loc 1 5231 0
	cmp	w0, 1
	beq	.L1248
	.loc 1 5239 0
	ldrsb	w1, [x22,10]
	uxtb	w2, w1
.L1213:
	.loc 1 5242 0
	add	x0, x21, 2488
	strb	w1, [x21,2498]
	.loc 1 5245 0
	add	x0, x0, 8192
	strb	w2, [x0,2478]
	b	.L1212
.L1225:
	.loc 1 5227 0
	mov	w2, 1
	mov	w1, w2
	b	.L1213
.L1242:
.LBE233:
.LBE232:
.LBE236:
.LBE245:
.LBB246:
.LBB244:
	.loc 1 1541 0
	add	x23, x23, 32768
	ldr	w2, [x23,3700]
	.loc 1 1543 0
	ldr	w3, [x23,3696]
	.loc 1 1541 0
	add	w0, w2, 1
	add	w0, w0, w0, lsr 31
	asr	w1, w0, 1
	.loc 1 1543 0
	mul	w1, w1, w3
.LVL1286:
	.loc 1 1544 0
	sub	w1, w1, #1
.LVL1287:
	b	.L1216
.L1248:
.LBE244:
.LBE246:
.LBB247:
.LBB237:
.LBB235:
.LBB234:
	.loc 1 5234 0
	ldrsb	w0, [x22,10]
	cmp	w0, wzr
	cset	w1, eq
	mov	w2, w1
	sxtb	w1, w1
	b	.L1213
.LBE234:
.LBE235:
.LBE237:
.LBE247:
	.cfi_endproc
.LFE2659:
	.size	VC1_Vfmw_StartDecode, .-VC1_Vfmw_StartDecode
	.align	2
	.global	VC1_Vfmw_ParseAdvHdr
	.type	VC1_Vfmw_ParseAdvHdr, %function
VC1_Vfmw_ParseAdvHdr:
.LFB2697:
	.loc 1 5024 0
	.cfi_startproc
.LVL1288:
	stp	x29, x30, [sp, -112]!
	.cfi_def_cfa_offset 112
	.cfi_offset 29, -112
	.cfi_offset 30, -104
	add	x29, sp, 0
	.cfi_def_cfa_register 29
	stp	x25, x26, [sp,64]
	stp	x21, x22, [sp,32]
	stp	x23, x24, [sp,48]
	stp	x19, x20, [sp,16]
	stp	x27, x28, [sp,80]
	.cfi_offset 25, -48
	.cfi_offset 26, -40
	.cfi_offset 21, -80
	.cfi_offset 22, -72
	.cfi_offset 23, -64
	.cfi_offset 24, -56
	.cfi_offset 19, -96
	.cfi_offset 20, -88
	.cfi_offset 27, -32
	.cfi_offset 28, -24
	.loc 1 5030 0
	add	x22, x0, 32768
	.loc 1 5032 0
	strb	wzr, [x0,6]
	.loc 1 5028 0
	ldr	x20, [x0,3136]
.LVL1289:
	.loc 1 5024 0
	mov	x19, x0
	mov	x24, x1
	.loc 1 5034 0
	mov	w1, 32
.LVL1290:
	mov	x0, x20
.LVL1291:
	.loc 1 5024 0
	mov	w23, w2
	.loc 1 5030 0
	add	x25, x22, 3624
.LVL1292:
	.loc 1 5034 0
	bl	BsGet
.LVL1293:
	uxtb	w26, w0
.LVL1294:
	.loc 1 5035 0
	ldr	w2, [x20,32]
	ldr	w1, [x25,12]
	cmp	w2, wzr
	add	w0, w2, 7
	csel	w2, w0, w2, lt
	.loc 1 5036 0
	ldr	x21, [x25,32]
	.loc 1 5035 0
	asr	w2, w2, 3
	.loc 1 5037 0
	mov	x0, x20
	.loc 1 5036 0
	add	x21, x21, x2, sxtw
.LVL1295:
	.loc 1 5037 0
	sub	w2, w1, w2
	mov	x1, x21
	bl	BsInit
.LVL1296:
	.loc 1 5039 0
	sub	w0, w26, #10
	cmp	w0, 5
	bhi	.L1250
	.loc 1 5041 0
	cmp	w26, 11
	beq	.L1331
	.loc 1 5075 0
	ldrb	w2, [x19]
	and	w1, w2, 7
	cmp	w1, 7
	beq	.L1332
	.loc 1 5087 0
	add	x27, x19, 20480
	.loc 1 5084 0
	strb	wzr, [x19,8]
	.loc 1 5088 0
	adrp	x1, .L1266
	add	x1, x1, :lo12:.L1266
	.loc 1 5087 0
	str	wzr, [x27,1564]
	.loc 1 5088 0
	ldrh	w0, [x1,w0,uxtw #1]
	adr	x1, .Lrtx1266
	add	x0, x1, w0, sxth #2
	br	x0
.Lrtx1266:
	.section	.rodata
	.align	0
	.align	2
.L1266:
	.2byte	(.L1265 - .Lrtx1266) / 4
	.2byte	(.L1282 - .Lrtx1266) / 4
	.2byte	(.L1267 - .Lrtx1266) / 4
	.2byte	(.L1268 - .Lrtx1266) / 4
	.2byte	(.L1269 - .Lrtx1266) / 4
	.2byte	(.L1270 - .Lrtx1266) / 4
	.text
.L1250:
	.loc 1 5165 0
	sub	w0, w26, #27
	cmp	w0, 4
	bls	.L1283
	.loc 1 5173 0
	cmp	w26, 254
	beq	.L1333
.L1282:
	.loc 1 5189 0
	mov	w0, w23
	mov	x1, x25
	bl	VC1_ClearCurPacket
.LVL1297:
	.loc 1 5190 0
	mov	w0, 0
.LVL1298:
.L1255:
	.loc 1 5194 0
	ldp	x19, x20, [sp,16]
	.cfi_remember_state
	.cfi_restore 20
	.cfi_restore 19
.LVL1299:
	ldp	x21, x22, [sp,32]
	.cfi_restore 22
	.cfi_restore 21
.LVL1300:
	ldp	x23, x24, [sp,48]
	.cfi_restore 24
	.cfi_restore 23
.LVL1301:
	ldp	x25, x26, [sp,64]
	.cfi_restore 26
	.cfi_restore 25
.LVL1302:
	ldp	x27, x28, [sp,80]
	.cfi_restore 28
	.cfi_restore 27
	ldp	x29, x30, [sp], 112
	.cfi_restore 30
	.cfi_restore 29
	.cfi_def_cfa 31, 0
	ret
.LVL1303:
.L1333:
	.cfi_restore_state
	.loc 1 5175 0
	mov	w1, 32
	mov	x0, x20
	bl	BsGet
.LVL1304:
	mov	w21, w0
.LVL1305:
	.loc 1 5176 0
	mov	w1, 32
	mov	x0, x20
	bl	BsGet
.LVL1306:
	.loc 1 5177 0
	mov	w1, 20036
	movk	w1, 0x4345, lsl 16
	cmp	w0, w1
	bne	.L1282
	mov	w0, 20553
	movk	w0, 0x4853, lsl 16
	cmp	w21, w0
	bne	.L1282
	.loc 1 5180 0
	ldrb	w0, [x19]
	.loc 1 5179 0
	mov	w1, 1
	strb	w1, [x19,7]
	.loc 1 5180 0
	and	w1, w0, 7
	cmp	w1, 7
	bne	.L1283
	.loc 1 5182 0
	orr	w0, w0, 16
	strb	w0, [x19]
.LVL1307:
.L1283:
	.loc 1 5184 0
	mov	w0, w23
	mov	x1, x25
	bl	VC1_ClearCurPacket
.LVL1308:
	.loc 1 5185 0
	mov	w0, 1
	.loc 1 5194 0
	ldp	x19, x20, [sp,16]
	.cfi_remember_state
	.cfi_restore 19
	.cfi_restore 20
.LVL1309:
	ldp	x21, x22, [sp,32]
	.cfi_restore 21
	.cfi_restore 22
.LVL1310:
	ldp	x23, x24, [sp,48]
	.cfi_restore 23
	.cfi_restore 24
.LVL1311:
	ldp	x25, x26, [sp,64]
	.cfi_restore 25
	.cfi_restore 26
.LVL1312:
	ldp	x27, x28, [sp,80]
	.cfi_restore 27
	.cfi_restore 28
	ldp	x29, x30, [sp], 112
	.cfi_restore 29
	.cfi_restore 30
	.cfi_def_cfa 31, 0
	ret
.LVL1313:
.L1331:
	.cfi_restore_state
	.loc 1 5043 0
	ldrb	w0, [x19]
	and	w0, w0, 7
	cmp	w0, 7
	bne	.L1282
	.loc 1 5045 0
	mov	x0, x20
	mov	x1, x19
	mov	x2, x24
	bl	VC1_Vfmw_ParseAdvSlcHdr
.LVL1314:
	.loc 1 5046 0
	cmp	w0, 1
	.loc 1 5045 0
	mov	w26, w0
.LVL1315:
	.loc 1 5046 0
	bne	.L1253
	.loc 1 5049 0
	add	x27, x19, 20480
	ldr	w0, [x27,1564]
	cmp	w0, 255
	bgt	.L1334
.LBB248:
.LBB249:
	.loc 1 4915 0
	sxtw	x26, w0
	.loc 1 4917 0
	ldr	x2, [x19,3136]
.LVL1316:
	.loc 1 4923 0
	lsl	x28, x26, 3
	lsl	x20, x26, 6
.LVL1317:
	sub	x1, x20, x28
	add	x1, x19, x1
	add	x22, x1, 20480
	.loc 1 4924 0
	add	x3, x22, 1568
	str	x3, [x29,104]
	.loc 1 4923 0
	strb	w0, [x22,1584]
	.loc 1 4924 0
	ldr	w4, [x2,32]
	add	w0, w4, 7
	cmp	w4, wzr
	csel	w0, w0, w4, lt
	asr	w0, w0, 3
	add	x21, x21, x0, sxtw
.LVL1318:
	str	x21, [x1,22048]
	.loc 1 4925 0
	ldr	w0, [x2,32]
	and	w0, w0, 7
	str	w0, [x22,1592]
	.loc 1 4926 0
	ldr	w0, [x2,24]
	ldr	w2, [x2,32]
.LVL1319:
	lsl	w0, w0, 3
	sub	w0, w0, w2
	str	w0, [x22,1596]
	.loc 1 4927 0
	ldr	x0, [x1,22048]
	bl	MEM_Vir2Phy
.LVL1320:
	str	w0, [x22,1588]
	.loc 1 4928 0
	add	x2, x22, 1616
	ldr	w0, [x25,20]
	str	w0, [x22,1616]
	.loc 1 4930 0
	ldr	x0, [x25,40]
	cbz	x0, .L1274
	.loc 1 4930 0 is_stmt 0 discriminator 1
	ldr	w1, [x25,8]
	cbz	w1, .L1274
	.loc 1 4932 0 is_stmt 1
	ldr	x3, [x29,104]
	str	x0, [x3,8]
	.loc 1 4933 0
	str	wzr, [x22,1608]
	.loc 1 4934 0
	ldr	w0, [x25,16]
	.loc 1 4935 0
	str	w1, [x22,1604]
	.loc 1 4934 0
	lsl	w0, w0, 3
	str	w0, [x22,1612]
	.loc 1 4936 0
	ldr	w0, [x25,24]
	str	w0, [x2,4]
.LVL1321:
.L1275:
.LBE249:
.LBE248:
.LBB252:
.LBB253:
	.loc 1 4958 0
	ldr	w5, [x27,1484]
	ldr	w0, [x27,1480]
	.loc 1 4959 0
	ldrb	w1, [x19,8]
	.loc 1 4958 0
	mul	w0, w5, w0
	sub	w4, w0, #1
.LVL1322:
	.loc 1 4959 0
	cbz	w1, .L1276
	.loc 1 4961 0
	lsl	x0, x26, 4
	add	w3, w5, 1
	sub	x26, x0, x26, lsl 2
	sub	x0, x20, x28
	add	x24, x24, x26
.LVL1323:
	add	x0, x19, x0
	add	w3, w3, w3, lsr 31
	add	x0, x0, 20480
	add	x24, x24, 528
	ldr	w1, [x24,12]
	sub	w3, w1, w3, asr 1
	str	w3, [x0,1600]
	.loc 1 4965 0
	cmp	w3, wzr
	ble	.L1259
	cmp	w4, w3
	bcc	.L1335
.L1259:
.LBE253:
.LBE252:
.LBB259:
.LBB250:
	.loc 1 4984 0
	sub	x20, x20, x28
	add	x19, x19, x20
.LVL1324:
	add	x19, x19, 20480
	ldr	w0, [x19,1596]
	cmp	w0, wzr
	ble	.L1262
.LBE250:
.LBE259:
.LBB260:
.LBB254:
	.loc 1 4984 0 is_stmt 0 discriminator 1
	ldr	x0, [x19,1576]
	cbz	x0, .L1278
	.loc 1 4984 0 discriminator 2
	ldr	w0, [x19,1612]
	cmp	w0, wzr
	ble	.L1262
.L1278:
	.loc 1 4991 0 is_stmt 1
	ldr	w1, [x27,1564]
	.loc 1 4992 0
	mov	w0, 1
	.loc 1 4991 0
	add	w1, w1, w0
	str	w1, [x27,1564]
	b	.L1255
.LVL1325:
.L1332:
.LBE254:
.LBE260:
	.loc 1 5077 0
	orr	w2, w2, 16
	.loc 1 5079 0
	mov	w1, 1
	.loc 1 5077 0
	strb	w2, [x19]
	.loc 1 5080 0
	mov	w0, 1
	.loc 1 5079 0
	strb	w1, [x19,6]
	.loc 1 5080 0
	b	.L1255
.L1267:
	.loc 1 5096 0
	add	x0, x24, 520
	.loc 1 5095 0
	mov	w1, 1
	strb	w1, [x19,8]
	.loc 1 5096 0
	stp	xzr, xzr, [x0]
	.loc 1 5098 0
	ldrb	w0, [x19,8]
	cbz	w0, .L1268
.L1271:
	.loc 1 5113 0
	mov	w1, 0
	mov	x2, 14336
	add	x0, x27, 1568
	bl	memset
.LVL1326:
	.loc 1 5114 0
	mov	x0, x20
	bl	BsPos
.LVL1327:
	str	w0, [x24,500]
	.loc 1 5117 0
	mov	x1, x19
	mov	x0, x20
	mov	x2, x24
	bl	VC1_Vfmw_ParseAdvPicHdr
.LVL1328:
	.loc 1 5118 0
	cmp	w0, 1
	.loc 1 5117 0
	mov	w26, w0
.LVL1329:
	.loc 1 5118 0
	beq	.L1336
	.loc 1 5137 0
	mov	w0, w23
	mov	x1, x25
	bl	VC1_ClearCurPacket
.LVL1330:
	.loc 1 5138 0
	adrp	x1, .LC42
	mov	w0, 1
	add	x1, x1, :lo12:.LC42
	mov	w2, 5138
	bl	dprint_linux_kernel
.LVL1331:
	mov	w0, w26
	b	.L1255
.LVL1332:
.L1269:
	.loc 1 5143 0
	mov	x0, x20
	mov	x1, x19
	mov	x2, x24
	bl	VC1_Vfmw_ParseAdvEntptHdr
.LVL1333:
	.loc 1 5144 0
	cmp	w0, 1
	.loc 1 5143 0
	mov	w26, w0
.LVL1334:
	.loc 1 5144 0
	beq	.L1337
.L1280:
	.loc 1 5157 0
	mov	w0, w23
	mov	x1, x25
	bl	VC1_ClearCurPacket
.LVL1335:
	.loc 1 5152 0
	mov	w0, w26
	.loc 1 5158 0
	b	.L1255
.LVL1336:
.L1270:
	.loc 1 5152 0
	mov	x0, x20
	mov	x1, x19
	mov	x2, x24
	bl	VC1_Vfmw_ParseAdvSeqHdr
.LVL1337:
	.loc 1 5153 0
	cmp	w0, 1
	.loc 1 5152 0
	mov	w26, w0
.LVL1338:
	.loc 1 5153 0
	bne	.L1280
	.loc 1 5155 0
	ldrb	w0, [x19]
	orr	w0, w0, 1
	strb	w0, [x19]
	b	.L1280
.LVL1339:
.L1265:
	.loc 1 5091 0
	orr	w2, w2, 32
	.loc 1 5092 0
	mov	w0, w23
	.loc 1 5091 0
	strb	w2, [x19]
	.loc 1 5092 0
	mov	x1, x25
	bl	VC1_ClearCurPacket
.LVL1340:
	.loc 1 5026 0
	mov	w0, 1
	.loc 1 5093 0
	b	.L1255
.L1268:
.LBB261:
	.loc 1 5101 0
	add	x0, x24, 360
	.loc 1 5100 0
	ldrb	w1, [x24,391]
	.loc 1 5101 0
	stp	xzr, xzr, [x0]
	stp	xzr, xzr, [x0,16]
	stp	xzr, xzr, [x0,32]
	stp	xzr, xzr, [x0,48]
	stp	xzr, xzr, [x0,64]
	stp	xzr, xzr, [x0,80]
	stp	xzr, xzr, [x0,96]
	stp	xzr, xzr, [x0,112]
	stp	xzr, xzr, [x0,128]
	stp	xzr, xzr, [x0,144]
	stp	xzr, xzr, [x0,160]
	.loc 1 5111 0
	strb	w1, [x24,391]
	b	.L1271
.LVL1341:
.L1336:
.LBE261:
	.loc 1 5121 0
	mov	x0, x20
	.loc 1 5124 0
	add	x22, x22, 3624
	.loc 1 5121 0
	bl	BsPos
.LVL1342:
	ldr	w1, [x24,500]
	sub	w0, w0, w1
	str	w0, [x24,500]
	.loc 1 5124 0
	mov	x0, x20
	.loc 1 5122 0
	ldrb	w1, [x19]
	orr	w1, w1, 4
	strb	w1, [x19]
	.loc 1 5124 0
	bl	BsPos
.LVL1343:
	add	w0, w0, 32
	ldr	w1, [x22,12]
	cmp	w0, w1, lsl 3
	bge	.L1273
.LBB262:
.LBB255:
	.loc 1 4915 0
	ldr	w0, [x27,1564]
	.loc 1 4917 0
	ldr	x3, [x19,3136]
.LVL1344:
	.loc 1 4915 0
	sxtw	x26, w0
	.loc 1 4923 0
	lsl	x28, x26, 3
	lsl	x20, x26, 6
.LVL1345:
	sub	x1, x20, x28
	add	x1, x19, x1
	add	x25, x1, 20480
.LVL1346:
	.loc 1 4924 0
	add	x2, x25, 1568
	str	x2, [x29,104]
	.loc 1 4923 0
	strb	w0, [x25,1584]
	.loc 1 4924 0
	ldr	w2, [x3,32]
	add	w0, w2, 7
	cmp	w2, wzr
	csel	w2, w0, w2, lt
	asr	w2, w2, 3
	add	x2, x21, x2, sxtw
	str	x2, [x1,22048]
	.loc 1 4925 0
	ldr	w0, [x3,32]
	and	w0, w0, 7
	str	w0, [x25,1592]
	.loc 1 4926 0
	ldr	w0, [x3,24]
	ldr	w2, [x3,32]
	lsl	w0, w0, 3
	sub	w0, w0, w2
	str	w0, [x25,1596]
	.loc 1 4927 0
	ldr	x0, [x1,22048]
	bl	MEM_Vir2Phy
.LVL1347:
	str	w0, [x25,1588]
	.loc 1 4928 0
	add	x2, x25, 1616
	ldr	w0, [x22,20]
	str	w0, [x25,1616]
	.loc 1 4930 0
	ldr	x0, [x22,40]
	cbz	x0, .L1274
	.loc 1 4930 0 is_stmt 0 discriminator 1
	ldr	w1, [x22,8]
	cbz	w1, .L1274
	.loc 1 4932 0 is_stmt 1
	ldr	x3, [x29,104]
	str	x0, [x3,8]
	.loc 1 4933 0
	str	wzr, [x25,1608]
	.loc 1 4934 0
	ldr	w0, [x22,16]
	.loc 1 4935 0
	str	w1, [x25,1604]
	.loc 1 4934 0
	lsl	w0, w0, 3
	str	w0, [x25,1612]
	.loc 1 4936 0
	ldr	w0, [x22,24]
	str	w0, [x2,4]
	b	.L1275
.LVL1348:
.L1253:
.LBE255:
.LBE262:
	.loc 1 5060 0
	mov	w0, w23
	mov	x1, x25
	bl	VC1_ClearCurPacket
.LVL1349:
	.loc 1 5061 0
	adrp	x1, .LC41
	mov	w0, 1
	add	x1, x1, :lo12:.LC41
	mov	w2, 5061
	bl	dprint_linux_kernel
.LVL1350:
	mov	w0, w26
	b	.L1255
.LVL1351:
.L1274:
.LBB263:
.LBB256:
	.loc 1 4940 0
	sub	x0, x20, x28
	add	x0, x19, x0
	add	x0, x0, 20480
	str	xzr, [x0,1576]
	.loc 1 4941 0
	str	wzr, [x0,1608]
	.loc 1 4942 0
	str	wzr, [x0,1612]
	.loc 1 4943 0
	str	wzr, [x0,1604]
	.loc 1 4944 0
	str	wzr, [x0,1620]
	b	.L1275
.LVL1352:
.L1273:
.LBE256:
.LBE263:
	.loc 1 5131 0
	mov	w0, w23
	mov	x1, x25
	bl	VC1_ClearCurPacket
.LVL1353:
	.loc 1 5132 0
	adrp	x1, .LC42
	mov	w0, w26
	add	x1, x1, :lo12:.LC42
	mov	w2, 5132
	bl	dprint_linux_kernel
.LVL1354:
	mov	w0, w26
	b	.L1255
.LVL1355:
.L1276:
.LBB264:
.LBB257:
	.loc 1 4975 0
	lsl	x1, x26, 4
	sub	x0, x20, x28
	sub	x26, x1, x26, lsl 2
	add	x0, x19, x0
	add	x24, x24, x26
.LVL1356:
	add	x0, x0, 20480
	add	x24, x24, 528
	ldr	w3, [x24,12]
	str	w3, [x0,1600]
	.loc 1 4976 0
	cmp	w4, w3
	bcs	.L1259
	.loc 1 4978 0
	ldr	w2, [x24,12]
	adrp	x1, .LC23
	mov	w0, 1
	add	x1, x1, :lo12:.LC23
	bl	dprint_linux_kernel
.LVL1357:
	.loc 1 4980 0
	mov	w0, 0
	b	.L1255
.LVL1358:
.L1334:
.LBE257:
.LBE264:
	.loc 1 5052 0
	mov	x0, x19
	mov	w1, w23
	bl	VC1_ClearCurPic
.LVL1359:
	.loc 1 5053 0
	ldr	w2, [x27,1564]
	adrp	x1, .LC40
	mov	w0, w26
	add	x1, x1, :lo12:.LC40
	bl	dprint_linux_kernel
.LVL1360:
	.loc 1 5054 0
	mov	w0, 0
	b	.L1255
.L1337:
	.loc 1 5146 0
	mov	x0, x19
	mov	x1, x24
	bl	VC1_Vfmw_UpdateAdvSPS
.LVL1361:
	.loc 1 5147 0
	ldrb	w0, [x19]
	orr	w0, w0, 2
	strb	w0, [x19]
	b	.L1280
.LVL1362:
.L1262:
.LBB265:
.LBB251:
	.loc 1 4986 0
	adrp	x1, .LC24
	mov	w0, 1
	add	x1, x1, :lo12:.LC24
	bl	dprint_linux_kernel
.LVL1363:
	.loc 1 4987 0
	mov	w0, 0
	b	.L1255
.LVL1364:
.L1335:
.LBE251:
.LBE265:
.LBB266:
.LBB258:
	.loc 1 4967 0
	ldr	w2, [x24,12]
	adrp	x1, .LC22
	mov	w0, 1
	add	x1, x1, :lo12:.LC22
	mov	w4, w5
.LVL1365:
	bl	dprint_linux_kernel
.LVL1366:
	.loc 1 4969 0
	mov	w0, 0
	b	.L1255
.LBE258:
.LBE266:
	.cfi_endproc
.LFE2697:
	.size	VC1_Vfmw_ParseAdvHdr, .-VC1_Vfmw_ParseAdvHdr
	.align	2
	.global	VC1_Vfmw_ParseHeader
	.type	VC1_Vfmw_ParseHeader, %function
VC1_Vfmw_ParseHeader:
.LFB2698:
	.loc 1 5197 0
	.cfi_startproc
.LVL1367:
	stp	x29, x30, [sp, -32]!
	.cfi_def_cfa_offset 32
	.cfi_offset 29, -32
	.cfi_offset 30, -24
	mov	x4, x1
	add	x29, sp, 0
	.cfi_def_cfa_register 29
	str	x19, [sp,16]
	.cfi_offset 19, -16
	.loc 1 5197 0
	mov	x19, x0
	.loc 1 5200 0
	ldrsb	w3, [x0,3104]
	cbnz	w3, .L1339
.LBB269:
.LBB270:
	.loc 1 5202 0
	ldrb	w3, [x0]
	.loc 1 5205 0
	mov	x1, x0
	ldr	x0, [x0,3136]
	mov	x2, x4
.LVL1368:
	.loc 1 5202 0
	orr	w3, w3, 3
	strb	w3, [x19]
	.loc 1 5205 0
	bl	VC1_Vfmw_ParseSMPPicHdr
.LVL1369:
	.loc 1 5206 0
	cmp	w0, 1
	beq	.L1341
.LBE270:
.LBE269:
	.loc 1 5217 0
	ldr	x19, [sp,16]
	.cfi_remember_state
	.cfi_restore 19
.LVL1370:
.LVL1371:
	ldp	x29, x30, [sp], 32
	.cfi_restore 30
	.cfi_restore 29
	.cfi_def_cfa 31, 0
	ret
.LVL1372:
.L1339:
	.cfi_restore_state
	.loc 1 5213 0
	bl	VC1_Vfmw_ParseAdvHdr
.LVL1373:
	.loc 1 5217 0
	ldr	x19, [sp,16]
	.cfi_remember_state
	.cfi_restore 19
.LVL1374:
	ldp	x29, x30, [sp], 32
	.cfi_restore 29
	.cfi_restore 30
	.cfi_def_cfa 31, 0
	ret
.LVL1375:
.L1341:
	.cfi_restore_state
.LBB272:
.LBB271:
	.loc 1 5208 0
	ldrb	w2, [x19]
	mov	w1, 20
.LVL1376:
	orr	w1, w2, w1
	strb	w1, [x19]
.LBE271:
.LBE272:
	.loc 1 5217 0
	ldr	x19, [sp,16]
	.cfi_restore 19
.LVL1377:
	ldp	x29, x30, [sp], 32
	.cfi_restore 29
	.cfi_restore 30
	.cfi_def_cfa 31, 0
	ret
	.cfi_endproc
.LFE2698:
	.size	VC1_Vfmw_ParseHeader, .-VC1_Vfmw_ParseHeader
	.align	2
	.global	VC1DEC_Decode
	.type	VC1DEC_Decode, %function
VC1DEC_Decode:
.LFB2648:
	.loc 1 724 0
	.cfi_startproc
.LVL1378:
	stp	x29, x30, [sp, -64]!
	.cfi_def_cfa_offset 64
	.cfi_offset 29, -64
	.cfi_offset 30, -56
	mov	x4, x1
	add	x29, sp, 0
	.cfi_def_cfa_register 29
	stp	x19, x20, [sp,16]
	stp	x21, x22, [sp,32]
	stp	x23, x24, [sp,48]
	.cfi_offset 19, -48
	.cfi_offset 20, -40
	.cfi_offset 21, -32
	.cfi_offset 22, -24
	.cfi_offset 23, -16
	.cfi_offset 24, -8
	.loc 1 724 0
	mov	x19, x0
	.loc 1 727 0
	cbz	x0, .L1360
	cbz	x1, .L1360
	.loc 1 733 0
	add	x21, x0, 77824
	mov	x2, 160
	add	x3, x21, 2328
	mov	x0, x3
	bl	memcpy
.LVL1379:
	mov	x3, x0
	.loc 1 734 0
	mov	x1, x3
	mov	x0, x19
	bl	VC1_ReceivePacket
.LVL1380:
	mov	w20, w0
	cbz	w0, .L1378
	.loc 1 740 0
	ldr	x0, [x19]
	.loc 1 743 0
	add	x22, x19, 114688
	.loc 1 740 0
	ldr	w1, [x0,792]
	cmp	w1, 1
	beq	.L1379
.L1347:
	.loc 1 748 0
	ldrb	w0, [x21,2488]
	strb	w0, [x22,2144]
.L1348:
	.loc 1 753 0
	add	x23, x21, 2488
	add	x2, x19, 81920
	add	x2, x2, 1576
	ldr	w3, [x22,2808]
.LBB279:
.LBB280:
	.loc 1 5200 0
	ldrsb	w0, [x23,3104]
	cbnz	w0, .L1349
.LBB281:
.LBB282:
	.loc 1 5202 0
	ldrb	w3, [x21,2488]
	.loc 1 5205 0
	mov	x1, x23
	ldr	x0, [x21,5624]
	.loc 1 5202 0
	orr	w3, w3, 3
	strb	w3, [x21,2488]
	.loc 1 5205 0
	bl	VC1_Vfmw_ParseSMPPicHdr
.LVL1381:
	.loc 1 5206 0
	cmp	w0, 1
	.loc 1 5205 0
	mov	w24, w0
.LVL1382:
	.loc 1 5206 0
	beq	.L1380
.L1350:
.LBE282:
.LBE281:
.LBE280:
.LBE279:
	.loc 1 754 0
	cbnz	w24, .L1351
	.loc 1 756 0
	ldr	w0, [x22,2808]
	add	x1, x22, 2016
	bl	VC1_ClearCurPacket
.LVL1383:
	.loc 1 758 0
	adrp	x0, g_event_report
	ldr	x4, [x0,#:lo12:g_event_report]
	cbz	x4, .L1353
	.loc 1 758 0 is_stmt 0 discriminator 1
	ldr	w0, [x22,2808]
	mov	w1, 113
	mov	x2, 0
	mov	w3, 0
	mov	w20, 0
	blr	x4
.LVL1384:
	.loc 1 791 0 is_stmt 1
	mov	w0, w20
	ldp	x19, x20, [sp,16]
	.cfi_remember_state
	.cfi_restore 19
	.cfi_restore 20
.LVL1385:
	ldp	x21, x22, [sp,32]
	.cfi_restore 21
	.cfi_restore 22
	ldp	x23, x24, [sp,48]
	.cfi_restore 23
	.cfi_restore 24
.LVL1386:
	ldp	x29, x30, [sp], 64
	.cfi_restore 29
	.cfi_restore 30
	.cfi_def_cfa 31, 0
	ret
.LVL1387:
.L1380:
	.cfi_restore_state
.LBB287:
.LBB285:
.LBB284:
.LBB283:
	.loc 1 5208 0
	ldrb	w1, [x21,2488]
	mov	w0, 20
	orr	w0, w1, w0
	strb	w0, [x21,2488]
.L1351:
.LBE283:
.LBE284:
.LBE285:
.LBE287:
	.loc 1 761 0
	mov	x0, x19
	bl	VC1_Vfmw_DecodeArbiter
.LVL1388:
	cbnz	w0, .L1381
.L1353:
	mov	w20, 0
.L1370:
	.loc 1 791 0
	mov	w0, w20
	ldp	x19, x20, [sp,16]
	.cfi_remember_state
	.cfi_restore 20
	.cfi_restore 19
.LVL1389:
	ldp	x21, x22, [sp,32]
	.cfi_restore 22
	.cfi_restore 21
	ldp	x23, x24, [sp,48]
	.cfi_restore 24
	.cfi_restore 23
.LVL1390:
	ldp	x29, x30, [sp], 64
	.cfi_restore 30
	.cfi_restore 29
	.cfi_def_cfa 31, 0
	ret
.LVL1391:
.L1360:
	.cfi_restore_state
	.loc 1 729 0
	adrp	x2, .LANCHOR1
	adrp	x1, .LC43
.LVL1392:
	add	x2, x2, :lo12:.LANCHOR1
	mov	x3, x19
	add	x1, x1, :lo12:.LC43
	add	x2, x2, 224
	mov	w0, 0
.LVL1393:
	.loc 1 730 0
	mov	w20, 0
	.loc 1 729 0
	bl	dprint_linux_kernel
.LVL1394:
	.loc 1 791 0
	mov	w0, w20
	ldp	x19, x20, [sp,16]
	.cfi_remember_state
	.cfi_restore 19
	.cfi_restore 20
.LVL1395:
	ldp	x21, x22, [sp,32]
	.cfi_restore 21
	.cfi_restore 22
	ldp	x23, x24, [sp,48]
	.cfi_restore 23
	.cfi_restore 24
	ldp	x29, x30, [sp], 64
	.cfi_restore 29
	.cfi_restore 30
	.cfi_def_cfa 31, 0
	ret
.LVL1396:
.L1349:
	.cfi_restore_state
.LBB288:
.LBB286:
	.loc 1 5213 0
	mov	x1, x2
	mov	x0, x23
	mov	w2, w3
	bl	VC1_Vfmw_ParseAdvHdr
.LVL1397:
	mov	w24, w0
.LVL1398:
	b	.L1350
.LVL1399:
.L1378:
.LBE286:
.LBE288:
	.loc 1 736 0
	add	x19, x19, 114688
.LVL1400:
	adrp	x1, .LC44
	add	x1, x1, :lo12:.LC44
	ldr	w2, [x19,2008]
	bl	dprint_linux_kernel
.LVL1401:
	.loc 1 791 0
	mov	w0, w20
	ldp	x19, x20, [sp,16]
	.cfi_remember_state
	.cfi_restore 19
	.cfi_restore 20
	ldp	x21, x22, [sp,32]
	.cfi_restore 21
	.cfi_restore 22
	ldp	x23, x24, [sp,48]
	.cfi_restore 23
	.cfi_restore 24
	ldp	x29, x30, [sp], 64
	.cfi_restore 29
	.cfi_restore 30
	.cfi_def_cfa 31, 0
	ret
.LVL1402:
.L1381:
	.cfi_restore_state
.LBB289:
.LBB290:
	.loc 1 1953 0
	mov	x0, x19
	bl	VC1_Vfmw_GetStreamInfo
.LVL1403:
	mov	w20, w0
	cbnz	w0, .L1382
.LBE290:
.LBE289:
	.loc 1 768 0
	ldr	x0, [x19]
	ldr	w1, [x0,792]
	cmp	w1, 1
	bne	.L1358
	.loc 1 768 0 is_stmt 0 discriminator 1
	ldr	w0, [x0,888]
	cbnz	w0, .L1375
.L1358:
	.loc 1 772 0 is_stmt 1
	ldr	w1, [x22,2808]
	mov	x0, x23
	bl	VC1_ClearCurPic
.LVL1404:
.L1375:
	.loc 1 784 0
	adrp	x0, g_event_report
	ldr	x4, [x0,#:lo12:g_event_report]
	cbz	x4, .L1353
	.loc 1 784 0 is_stmt 0 discriminator 1
	ldr	w0, [x22,2808]
	mov	w1, 113
	mov	x2, 0
	mov	w3, 0
	blr	x4
.LVL1405:
	b	.L1370
.LVL1406:
.L1379:
	.loc 1 740 0 is_stmt 1 discriminator 1
	ldr	w0, [x0,888]
	cmp	w0, 1
	bne	.L1347
	.loc 1 744 0
	ldrb	w0, [x22,2144]
	and	w0, w0, -9
	strb	w0, [x21,2488]
	b	.L1348
.LVL1407:
.L1382:
	.loc 1 778 0
	mov	x0, x19
	bl	VC1_Vfmw_StartDecode
.LVL1408:
	mov	w20, w0
	cbz	w0, .L1357
	mov	w20, w24
	b	.L1370
.L1357:
	.loc 1 780 0
	add	x19, x19, 98304
.LVL1409:
	ldr	w0, [x22,2808]
	mov	w2, 1
	ldr	w1, [x19,4044]
	bl	FSP_ClearLogicFs
.LVL1410:
	.loc 1 781 0
	ldr	x0, [x19,3936]
	strb	wzr, [x0]
	.loc 1 782 0
	ldr	x0, [x19,3936]
	strb	wzr, [x0,1]
	b	.L1375
	.cfi_endproc
.LFE2648:
	.size	VC1DEC_Decode, .-VC1DEC_Decode
	.align	2
	.global	VC1_SetCodeInfo
	.type	VC1_SetCodeInfo, %function
VC1_SetCodeInfo:
.LFB2704:
	.loc 1 5348 0
	.cfi_startproc
.LVL1411:
	stp	x29, x30, [sp, -32]!
	.cfi_def_cfa_offset 32
	.cfi_offset 29, -32
	.cfi_offset 30, -24
	mov	x2, x1
	.loc 1 5360 0
	mov	w3, 0
	.loc 1 5348 0
	add	x29, sp, 0
	.cfi_def_cfa_register 29
	stp	x19, x20, [sp,16]
	.cfi_offset 19, -16
	.cfi_offset 20, -8
	.loc 1 5351 0
	add	x20, x0, 77824
	add	x1, x20, 2488
.LVL1412:
	add	x0, x1, 3144
.LVL1413:
	str	x0, [x20,5624]
	.loc 1 5353 0
	ldrb	w1, [x1,3106]
	cmp	w1, 8
	beq	.L1388
.L1384:
	add	x19, x20, 2488
	strb	w1, [x20,2499]
	strb	w3, [x20,2500]
	.loc 1 5364 0
	ldrsb	w1, [x19,3104]
	cbz	w1, .L1389
	.loc 1 5375 0
	ldr	x1, [x2,32]
	ldr	w2, [x2,12]
.LVL1414:
	bl	BsInit
.LVL1415:
	.loc 1 5378 0
	ldp	x19, x20, [sp,16]
	.cfi_remember_state
	.cfi_restore 20
	.cfi_restore 19
	ldp	x29, x30, [sp], 32
	.cfi_restore 30
	.cfi_restore 29
	.cfi_def_cfa 31, 0
	ret
.LVL1416:
.L1389:
	.cfi_restore_state
.LBB293:
.LBB294:
	.loc 1 5366 0
	ldr	x1, [x2,32]
	ldr	w2, [x2,12]
.LVL1417:
	bl	BsInit
.LVL1418:
	.loc 1 5367 0
	ldr	w3, [x20,5600]
	add	x2, x19, 20480
	.loc 1 5371 0
	add	x4, x19, 3120
	add	x19, x19, 3184
	.loc 1 5367 0
	adds	w1, w3, 15
	add	w0, w3, 30
	csel	w0, w0, w1, mi
	asr	w0, w0, 4
	str	w0, [x2,1480]
	.loc 1 5368 0
	ldr	w0, [x20,5604]
	.loc 1 5370 0
	str	w0, [x2,1500]
	.loc 1 5368 0
	add	w1, w0, 30
	adds	w0, w0, 15
	csel	w0, w1, w0, mi
	.loc 1 5369 0
	str	w3, [x2,1496]
	.loc 1 5368 0
	asr	w0, w0, 4
	str	w0, [x2,1484]
	.loc 1 5371 0
	ldp	x0, x1, [x4]
	stp	x0, x1, [x19]
.LBE294:
.LBE293:
	.loc 1 5378 0
	ldp	x19, x20, [sp,16]
	.cfi_remember_state
	.cfi_restore 19
	.cfi_restore 20
	ldp	x29, x30, [sp], 32
	.cfi_restore 29
	.cfi_restore 30
	.cfi_def_cfa 31, 0
	ret
.LVL1419:
.L1388:
	.cfi_restore_state
	.loc 1 5356 0
	mov	w1, 6
	.loc 1 5355 0
	mov	w3, 1
	b	.L1384
	.cfi_endproc
.LFE2704:
	.size	VC1_SetCodeInfo, .-VC1_SetCodeInfo
	.align	2
	.global	VC1_GetPacketState
	.type	VC1_GetPacketState, %function
VC1_GetPacketState:
.LFB2705:
	.loc 1 5381 0
	.cfi_startproc
.LVL1420:
	.loc 1 5383 0
	add	x0, x0, 77824
.LVL1421:
	ldrsb	w0, [x0,2494]
	.loc 1 5385 0
	cmp	w0, 1
	.loc 1 5389 0
	mov	w0, 2
	csel	w0, w0, wzr, eq
	ret
	.cfi_endproc
.LFE2705:
	.size	VC1_GetPacketState, .-VC1_GetPacketState
	.align	2
	.global	VC1DEC_GetImageWidth
	.type	VC1DEC_GetImageWidth, %function
VC1DEC_GetImageWidth:
.LFB2706:
	.loc 1 5392 0
	.cfi_startproc
.LVL1422:
	.loc 1 5395 0
	add	x0, x0, 98304
.LVL1423:
	.loc 1 5398 0
	ldr	w0, [x0,3984]
	ret
	.cfi_endproc
.LFE2706:
	.size	VC1DEC_GetImageWidth, .-VC1DEC_GetImageWidth
	.align	2
	.global	VC1DEC_GetImageHeight
	.type	VC1DEC_GetImageHeight, %function
VC1DEC_GetImageHeight:
.LFB2707:
	.loc 1 5401 0
	.cfi_startproc
.LVL1424:
	.loc 1 5404 0
	add	x0, x0, 98304
.LVL1425:
	.loc 1 5407 0
	ldr	w0, [x0,3988]
	ret
	.cfi_endproc
.LFE2707:
	.size	VC1DEC_GetImageHeight, .-VC1DEC_GetImageHeight
	.section	.rodata
	.align	3
.LANCHOR0 = . + 0
	.type	__func__.42333, %object
	.size	__func__.42333, 13
__func__.42333:
	.string	"Vc1SMPSeqHdr"
	.zero	3
	.type	aCount, %object
	.size	aCount, 128
aCount:
	.word	0
	.word	1
	.word	1
	.word	2
	.word	1
	.word	2
	.word	2
	.word	3
	.word	1
	.word	2
	.word	2
	.word	3
	.word	2
	.word	3
	.word	3
	.word	4
	.word	1
	.word	2
	.word	2
	.word	3
	.word	2
	.word	3
	.word	3
	.word	4
	.word	2
	.word	3
	.word	3
	.word	4
	.word	3
	.word	4
	.word	4
	.word	5
	.type	a2On4Off, %object
	.size	a2On4Off, 60
a2On4Off:
	.word	3
	.word	5
	.word	6
	.word	9
	.word	10
	.word	12
	.word	17
	.word	18
	.word	20
	.word	24
	.word	33
	.word	34
	.word	36
	.word	40
	.word	48
	.zero	4
.LC0:
	.word	0
	.word	1
	.word	2
	.word	3
	.word	4
	.word	5
	.word	6
	.word	7
	.word	8
	.word	6
	.word	7
	.word	8
	.word	9
	.word	10
	.word	11
	.word	12
	.word	13
	.word	14
	.word	15
	.word	16
	.word	17
	.word	18
	.word	19
	.word	20
	.word	21
	.word	22
	.word	23
	.word	24
	.word	25
	.word	27
	.word	29
	.word	31
	.type	__func__.42669, %object
	.size	__func__.42669, 25
__func__.42669:
	.string	"VC1_Vfmw_ParseSMPPPicHdr"
	.zero	7
	.type	__func__.42677, %object
	.size	__func__.42677, 24
__func__.42677:
	.string	"VC1_Vfmw_ParseMPBPicHdr"
	.align	3
.LANCHOR1 = . + 0
	.type	__func__.42732, %object
	.size	__func__.42732, 25
__func__.42732:
	.string	"VC1_Vfmw_ParseAdvIPicHdr"
	.zero	7
	.type	__func__.42741, %object
	.size	__func__.42741, 25
__func__.42741:
	.string	"VC1_Vfmw_ParseAdvPPicHdr"
	.zero	7
	.type	__func__.42750, %object
	.size	__func__.42750, 25
__func__.42750:
	.string	"VC1_Vfmw_ParseAdvBPicHdr"
	.zero	7
	.type	__func__.42791, %object
	.size	__func__.42791, 27
__func__.42791:
	.string	"VC1_Vfmw_ParseAdvIFieldHdr"
	.zero	5
	.type	__func__.42808, %object
	.size	__func__.42808, 27
__func__.42808:
	.string	"VC1_Vfmw_ParseAdvBFieldHdr"
	.zero	5
	.type	FldPTypeTab, %object
	.size	FldPTypeTab, 64
FldPTypeTab:
	.word	0
	.word	0
	.word	0
	.word	1
	.word	1
	.word	0
	.word	1
	.word	1
	.word	2
	.word	2
	.word	2
	.word	4
	.word	4
	.word	2
	.word	4
	.word	4
	.type	__func__.42391, %object
	.size	__func__.42391, 14
__func__.42391:
	.string	"VC1DEC_Decode"
	.section	.rodata.str1.8,"aMS",%progbits,1
	.align	3
.LC1:
	.string	"-1 == VCTRL_GetChanIDByCtx() Err! \n"
	.zero	4
.LC2:
	.string	"%s %d: %s\n"
	.zero	5
.LC3:
	.string	"picture width out of range"
	.zero	5
.LC4:
	.string	"picture height out of range"
	.zero	4
.LC5:
	.string	"Vc1SMPSeqHdr Err, BS is wrong"
	.zero	2
.LC6:
	.string	"Vc1SMPSeqHdr Err, BS is wrong\n"
	.zero	1
.LC7:
	.string	"image size abnormal(%dx%d)\n"
	.zero	4
.LC8:
	.string	"vc1 actual frame size(%dx%d) exeed max config(%dx%d)\n"
	.zero	2
.LC9:
	.string	"ERROR: FSP_ConfigInstance fail!\n"
	.zero	7
.LC10:
	.string	"line: %d, pImage is NULL!\n"
	.zero	5
.LC11:
	.string	"get frame store fail!\n"
	.zero	1
.LC12:
	.string	"VC1_Vfmw_GetImageBuffer get imgbuf err, clear all ref!\n"
.LC13:
	.string	"VC1_Vfmw_GetImageBuffer get_flag!=1, FSP_ClearLogicFs.\n"
.LC14:
	.string	"VC1_Vfmw_GetStreamInfo VC1_Vfmw_GetImageBuffer err!\n"
	.zero	3
.LC15:
	.string	"dec_pts: %lld Usertag = %lld\n"
	.zero	2
.LC16:
	.string	"---------- unref %d\n"
	.zero	3
.LC17:
	.string	"VC1_Vfmw_GetStreamInfo B pic pCodecInf->RefNum < 2 err!\n"
	.zero	7
.LC18:
	.string	"line: %d (pCur,pFwd,pBwd)(%pK,%pK,%pK)\n"
.LC19:
	.string	"VC1_Vfmw_GetStreamInfo imgbuf = NULL err!\n"
	.zero	5
.LC20:
	.string	"CurFsID(fwd%d,%d,bwd%d) abnormal!(%pK,%pK,%pK)\n"
.LC21:
	.string	"VC1_Vfmw_GetStreamInfo VC1_Vfmw_BuildRefList err!\n"
	.zero	5
.LC22:
	.string	"SLICE_ADDR = %d,SlcEndMbn = %d, MbHeight = %d\n"
	.zero	1
.LC23:
	.string	"SLICE_ADDR = %d,SlcEndMbn = %d, totalMbMin1 = %d\n"
	.zero	6
.LC24:
	.string	"VC1_RecordSlcStream stream len <= 0\n"
	.zero	3
.LC25:
	.string	"Check Pos 2: %d\n"
	.zero	7
.LC26:
	.string	"%s %d BPD_Drv return err\n"
	.zero	6
.LC27:
	.string	"Check Pos 3: %d\n"
	.zero	7
.LC28:
	.string	"\n======PicNum  :%6d=========\n"
	.zero	2
.LC29:
	.string	"INTERPFRM  :%#x\n"
	.zero	7
.LC30:
	.string	"After VC1_Vfmw_ParseSMPPicHdr BS Len <= 0 err!\n"
.LC31:
	.string	"bitsream para error -----\n"
	.zero	5
.LC32:
	.string	"line %d, pPacket->StreamPack[1].IsLastSeg = %d\n"
.LC33:
	.string	"pImg is null, pCurImg %pK pBwdImg %pK pFwdImg %pK\n"
	.zero	5
.LC34:
	.string	"line: %d, pToQueImg is Null!\n"
	.zero	2
.LC35:
	.string	"insert buf %d ref %d\n"
	.zero	2
.LC36:
	.string	"err(%d) > out_thr(%d)\n"
	.zero	1
.LC37:
	.string	"----------------- VC1 Imode -> %d ------------------\n"
	.zero	2
.LC38:
	.string	"NOTE: Drop non-I\n"
	.zero	6
.LC39:
	.string	"NOTE: Drop B\n"
	.zero	2
.LC40:
	.string	" pCodecInf->SlcNum = %d >= 256 \n"
	.zero	7
.LC41:
	.string	"line %d, Code = VC1_SCSLC failed!\n"
	.zero	5
.LC42:
	.string	"line %d, Code = VC1_SCFRM failed!\n"
	.zero	5
.LC43:
