	.cpu generic+fp+simd
	.file	"bitplane.c"
	.text
.Ltext0:
	.cfi_sections	.debug_frame
	.align	2
	.global	BPD_ClkControl_Off
	.type	BPD_ClkControl_Off, %function
BPD_ClkControl_Off:
.LFB2638:
	.file 1 "/mnt/disk/jenkins/ci/workspace/chipset_release_960_xloader/opensource/component_code/vendor/huawei/extra/build/build_script/kirin_kernel_release/kernel/drivers/vcodec/hi_vcodec/vdec/vfmw/vfmw_v4.0/firmware/driver/HiVDHV400R004/bitplane.c"
	.loc 1 13 0
	.cfi_startproc
	.loc 1 16 0 discriminator 1
	adrp	x0, g_HwMem
	ldr	x0, [x0,#:lo12:g_HwMem]
	add	x0, x0, 61440
	ldr	w1, [x0,2052]
	.loc 1 18 0
	cmp	w1, 2795
	beq	.L1
	.loc 1 20 0 discriminator 1
	mov	w1, 2795
	str	w1, [x0,2052]
.L1:
	.loc 1 22 0
	ret
	.cfi_endproc
.LFE2638:
	.size	BPD_ClkControl_Off, .-BPD_ClkControl_Off
	.align	2
	.global	BPD_CfgReg
	.type	BPD_CfgReg, %function
BPD_CfgReg:
.LFB2639:
	.loc 1 25 0
	.cfi_startproc
.LVL0:
	stp	x29, x30, [sp, -80]!
	.cfi_def_cfa_offset 80
	.cfi_offset 29, -80
	.cfi_offset 30, -72
	add	x29, sp, 0
	.cfi_def_cfa_register 29
	stp	x19, x20, [sp,16]
	.cfi_offset 19, -64
	.cfi_offset 20, -56
	.loc 1 25 0
	adrp	x19, __stack_chk_guard
	mov	x20, x0
	.loc 1 30 0
	ldr	x0, [x3,16]
.LVL1:
	.loc 1 27 0
	str	wzr, [x29,68]
.LVL2:
	.loc 1 25 0
	ldr	x4, [x19,#:lo12:__stack_chk_guard]
	str	x4, [x29,72]
	.loc 1 30 0
	cbz	x0, .L37
.LVL3:
.L8:
	.loc 1 44 0
	adrp	x5, g_HwMem
	add	x0, x5, :lo12:g_HwMem
.LVL4:
	ldr	x7, [x0,16]
	mov	w0, -1
	str	w0, [x7,68]
	.loc 1 46 0
	ldr	w4, [x1,32]
	ldr	w0, [x1,28]
	adds	w8, w4, 31
	add	w3, w4, 62
.LVL5:
	csel	w3, w3, w8, mi
	add	w6, w4, 7
	and	w3, w3, -32
	.loc 1 50 0
	ldrsb	w8, [x20,3104]
	.loc 1 46 0
	add	w3, w3, w0
	ldr	x0, [x1]
	sub	w3, w3, w4
	asr	w1, w3, 31
.LVL6:
	lsr	w1, w1, 27
	add	w3, w3, w1
	and	w3, w3, 31
	sub	w1, w3, w1
	cmp	w1, wzr
	add	w3, w1, 7
	csel	w1, w3, w1, lt
	cmp	w4, wzr
	csel	w6, w6, w4, lt
	asr	w3, w1, 3
	asr	w6, w6, 3
	sxtw	x1, w6
	add	x1, x1, x3, sxtw
	add	x0, x0, x1
.LVL7:
	.loc 1 50 0
	cbz	w8, .L11
	.loc 1 52 0
	ldrb	w1, [x2,374]
	cbz	w1, .L12
	.loc 1 53 0
	ldrh	w1, [x2,374]
	cmp	w1, 4
	beq	.L12
	.loc 1 58 0
	ldrb	w1, [x2,197]
	cmp	w1, 1
	beq	.L38
.L14:
	.loc 1 63 0
	ldrb	w1, [x2,361]
	.loc 1 63 0 is_stmt 0 discriminator 2
	mov	w10, 3
	.loc 1 64 0 is_stmt 1
	ldr	w6, [x2,404]
	ldrb	w3, [x29,70]
	.loc 1 63 0 discriminator 2
	cmp	w1, 4
	.loc 1 63 0 is_stmt 0 discriminator 4
	ldrb	w8, [x29,69]
	.loc 1 63 0 discriminator 2
	and	w1, w1, 3
	.loc 1 65 0 is_stmt 1
	ldrb	w9, [x2,16]
	.loc 1 63 0 discriminator 2
	csel	w1, w1, w10, ne
	.loc 1 64 0
	bfi	w3, w6, 0, 2
	.loc 1 63 0 discriminator 4
	bfi	w8, w1, 6, 2
	.loc 1 65 0
	bfi	w3, w9, 2, 2
	.loc 1 63 0 discriminator 4
	strb	w8, [x29,69]
	.loc 1 80 0 discriminator 1
	cmp	w6, w10
	.loc 1 65 0
	strb	w3, [x29,70]
	.loc 1 80 0 discriminator 1
	beq	.L39
.L17:
	.loc 1 86 0
	add	x9, x20, 20480
	mov	w1, 21846
	movk	w1, 0x5555, lsl 16
	ldr	w6, [x9,1484]
	smull	x3, w6, w1
	lsr	x3, x3, 32
	sub	w3, w3, w6, asr 31
	add	w3, w3, w3, lsl 1
	sub	w6, w6, w3
	and	w6, w6, 3
.L21:
	.loc 1 89 0
	ldr	w11, [x9,1480]
	mov	w1, 21846
	.loc 1 90 0
	add	x8, x20, 32768
	.loc 1 89 0
	movk	w1, 0x5555, lsl 16
	ldrb	w10, [x29,69]
	.loc 1 90 0
	and	w4, w4, 7
	.loc 1 89 0
	smull	x3, w11, w1
	.loc 1 90 0
	ldr	x1, [x8,3656]
	bfi	w10, w6, 2, 2
	.loc 1 89 0
	lsr	x3, x3, 32
	.loc 1 90 0
	ldr	w6, [x8,3628]
	.loc 1 89 0
	sub	w3, w3, w11, asr 31
	.loc 1 90 0
	sub	x1, x0, x1
	add	x1, x1, x6
	.loc 1 94 0
	ldrb	w6, [x29,70]
	.loc 1 89 0
	add	w3, w3, w3, lsl 1
	.loc 1 90 0
	and	w1, w1, 15
	.loc 1 89 0
	sub	w11, w11, w3
	.loc 1 94 0
	and	w6, w6, -17
	.loc 1 90 0
	add	w3, w4, w1, lsl 3
	.loc 1 89 0
	bfi	w10, w11, 0, 2
	.loc 1 90 0
	strb	w3, [x29,68]
	.loc 1 101 0
	add	x1, x5, :lo12:g_HwMem
	.loc 1 89 0
	strb	w10, [x29,69]
	.loc 1 94 0
	strb	w6, [x29,70]
	.loc 1 96 0
	ldr	w3, [x29,68]
	str	w3, [x7,4]
	.loc 1 100 0
	ldr	x4, [x8,3656]
	ldr	w3, [x8,3628]
	.loc 1 101 0
	ldr	x1, [x1,16]
	.loc 1 100 0
	sub	x0, x0, x4
.LVL8:
	add	w0, w3, w0
	and	w0, w0, -16
	.loc 1 101 0
	str	w0, [x1,8]
	.loc 1 105 0
	ldrsb	w0, [x20,3104]
	cbz	w0, .L22
	.loc 1 105 0 is_stmt 0 discriminator 1
	ldr	w0, [x2,404]
	cmp	w0, 3
	beq	.L40
.L22:
	.loc 1 111 0 is_stmt 1
	ldr	w0, [x9,1484]
	sub	w0, w0, #1
	uxth	w0, w0
.L23:
	.loc 1 113 0
	ldr	w1, [x9,1480]
	.loc 1 114 0
	add	x2, x5, :lo12:g_HwMem
.LVL9:
	strh	w0, [x29,70]
	.loc 1 159 0
	mov	w5, 0
	.loc 1 113 0
	sub	w1, w1, #1
	strh	w1, [x29,68]
	.loc 1 114 0
	ldr	x1, [x2,16]
	.loc 1 159 0
	mov	w0, 3
	.loc 1 114 0
	ldr	w3, [x29,68]
	.loc 1 161 0
	mov	w4, w0
	.loc 1 117 0
	str	wzr, [x29,68]
	.loc 1 159 0
	bfi	w5, w0, 4, 4
	.loc 1 114 0
	str	w3, [x1,12]
	.loc 1 161 0
	mov	w0, 2
	bfi	w4, w0, 4, 3
	.loc 1 165 0
	mov	w0, 0
	.loc 1 118 0
	ldr	w1, [x9,1480]
	.loc 1 119 0
	ldr	x6, [x2,16]
	.loc 1 118 0
	add	w3, w1, 254
	adds	w1, w1, 127
	csel	w1, w3, w1, mi
	ubfx	x1, x1, 7, 12
	ubfiz	w1, w1, 4, 8
	strh	w1, [x29,68]
	.loc 1 119 0
	ldr	w1, [x29,68]
	str	w1, [x6,16]
	.loc 1 157 0
	str	wzr, [x29,68]
	.loc 1 124 0
	ldr	x1, [x2,16]
	ldr	w3, [x8,3720]
	.loc 1 159 0
	strb	w5, [x29,68]
	.loc 1 124 0
	str	w3, [x1,20]
	.loc 1 161 0
	strb	w4, [x29,69]
	.loc 1 129 0
	ldr	x1, [x2,16]
	ldr	w2, [x8,3724]
	str	w2, [x1,24]
	ldr	w2, [x8,3728]
	.loc 1 134 0
	str	w2, [x1,28]
	ldr	w2, [x8,3732]
	.loc 1 139 0
	str	w2, [x1,32]
	ldr	w2, [x8,3736]
	.loc 1 144 0
	str	w2, [x1,36]
	ldr	w2, [x8,3740]
	.loc 1 149 0
	str	w2, [x1,40]
	ldr	w2, [x8,3744]
	.loc 1 154 0
	str	w2, [x1,44]
	.loc 1 162 0
	ldr	w2, [x29,68]
	str	w2, [x1,48]
.L10:
	.loc 1 166 0
	ldr	x2, [x29,72]
	ldr	x1, [x19,#:lo12:__stack_chk_guard]
	cmp	x2, x1
	bne	.L41
	ldp	x19, x20, [sp,16]
	.cfi_remember_state
	.cfi_restore 20
	.cfi_restore 19
.LVL10:
	ldp	x29, x30, [sp], 80
	.cfi_restore 30
	.cfi_restore 29
	.cfi_def_cfa 31, 0
	ret
.LVL11:
.L11:
	.cfi_restore_state
	.loc 1 69 0
	ldrb	w1, [x2,259]
	cbz	w1, .L18
	.loc 1 70 0
	ldr	x1, [x2,256]
	mov	x3, 67108864
	and	x1, x1, 1099494850560
	cmp	x1, x3
	beq	.L18
.L19:
	.loc 1 75 0
	ldrb	w8, [x2,251]
	.loc 1 75 0 is_stmt 0 discriminator 2
	mov	w9, 3
	.loc 1 76 0 is_stmt 1
	ldrb	w1, [x29,70]
	.loc 1 75 0 discriminator 4
	ldrb	w6, [x29,69]
	.loc 1 75 0 is_stmt 0 discriminator 2
	and	w3, w8, 3
	cmp	w8, 4
	.loc 1 77 0 is_stmt 1
	ldrb	w8, [x2]
	.loc 1 75 0 discriminator 2
	csel	w3, w3, w9, ne
	.loc 1 77 0
	and	w1, w1, 252
	.loc 1 75 0 discriminator 4
	bfi	w6, w3, 6, 2
	.loc 1 77 0
	bfi	w1, w8, 2, 2
	.loc 1 75 0 discriminator 4
	strb	w6, [x29,69]
	.loc 1 77 0
	strb	w1, [x29,70]
	b	.L17
.L18:
	.loc 1 72 0
	ldrb	w1, [x29,69]
	orr	w1, w1, 16
	strb	w1, [x29,69]
	b	.L19
.L12:
	.loc 1 55 0
	ldrb	w1, [x29,69]
	orr	w1, w1, 16
	strb	w1, [x29,69]
	.loc 1 58 0
	ldrb	w1, [x2,197]
	cmp	w1, 1
	bne	.L14
.L38:
	.loc 1 58 0 is_stmt 0 discriminator 1
	ldr	w1, [x2,476]
	cmp	w1, 8
	bgt	.L14
	.loc 1 60 0 is_stmt 1
	ldrb	w1, [x29,69]
	orr	w1, w1, 32
	strb	w1, [x29,69]
	b	.L14
.LVL12:
.L40:
	.loc 1 107 0
	ldr	w0, [x9,1484]
	add	w0, w0, 1
	add	w0, w0, w0, lsr 31
	asr	w0, w0, 1
	sub	w0, w0, #1
	uxth	w0, w0
	b	.L23
.LVL13:
.L39:
	.loc 1 82 0
	add	x9, x20, 20480
	mov	w6, 21846
	movk	w6, 0x5555, lsl 16
	ldr	w3, [x9,1484]
	add	w3, w3, 1
	add	w3, w3, w3, lsr 31
	asr	w1, w3, 1
	smull	x6, w1, w6
	lsr	x6, x6, 32
	sub	w6, w6, w3, asr 31
	add	w6, w6, w6, lsl 1
	sub	w6, w1, w6
	and	w6, w6, 3
	b	.L21
.LVL14:
.L37:
	.loc 1 32 0
	adrp	x0, gBpdRegBaseAddr
	str	x3, [x29,40]
	str	x2, [x29,48]
	str	x1, [x29,56]
	ldr	w0, [x0,#:lo12:gBpdRegBaseAddr]
	bl	MEM_Phy2Vir
.LVL15:
	cbz	x0, .L9
	.loc 1 34 0
	ldr	x3, [x29,40]
.LVL16:
	ldr	x1, [x29,56]
.LVL17:
	ldr	x2, [x29,48]
.LVL18:
	str	x0, [x3,16]
	b	.L8
.LVL19:
.L41:
	.loc 1 166 0
	bl	__stack_chk_fail
.LVL20:
.L9:
	.loc 1 38 0
	adrp	x1, .LC0
	mov	w0, 0
.LVL21:
	add	x1, x1, :lo12:.LC0
	bl	dprint_linux_kernel
.LVL22:
	.loc 1 39 0
	mov	w0, -1
	b	.L10
	.cfi_endproc
.LFE2639:
	.size	BPD_CfgReg, .-BPD_CfgReg
	.align	2
	.global	BPD_Reset
	.type	BPD_Reset, %function
BPD_Reset:
.LFB2640:
	.loc 1 169 0
	.cfi_startproc
	.loc 1 178 0
	adrp	x0, gSOFTRST_REQ_Addr
	.loc 1 169 0
	stp	x29, x30, [sp, -80]!
	.cfi_def_cfa_offset 80
	.cfi_offset 29, -80
	.cfi_offset 30, -72
	add	x29, sp, 0
	.cfi_def_cfa_register 29
	.loc 1 178 0
	ldr	w0, [x0,#:lo12:gSOFTRST_REQ_Addr]
	.loc 1 169 0
	stp	x19, x20, [sp,16]
	stp	x21, x22, [sp,32]
	stp	x23, x24, [sp,48]
	stp	x25, x26, [sp,64]
	.cfi_offset 19, -64
	.cfi_offset 20, -56
	.cfi_offset 21, -48
	.cfi_offset 22, -40
	.cfi_offset 23, -32
	.cfi_offset 24, -24
	.cfi_offset 25, -16
	.cfi_offset 26, -8
	.loc 1 178 0
	bl	MEM_Phy2Vir
.LVL23:
	mov	x22, x0
.LVL24:
	.loc 1 179 0
	adrp	x0, gSOFTRST_OK_ADDR
	ldr	w0, [x0,#:lo12:gSOFTRST_OK_ADDR]
	bl	MEM_Phy2Vir
.LVL25:
	mov	x20, x0
.LVL26:
	.loc 1 181 0
	cbz	x0, .L49
	cbz	x22, .L49
	.loc 1 188 0
	adrp	x24, g_HwMem
	.loc 1 190 0
	mov	w0, 1
	.loc 1 188 0
	add	x1, x24, :lo12:g_HwMem
	.loc 1 194 0
	mov	w19, 100
	.loc 1 204 0
	adrp	x21, g_vfmw_osal_fun_ptr
	.loc 1 188 0
	ldr	x1, [x1,16]
	ldr	w25, [x1,52]
	.loc 1 190 0
	bl	VDMHAL_EXT_ReduceFrequency
.LVL27:
	.loc 1 193 0
	ldr	w23, [x22]
	.loc 1 190 0
	mov	w26, w0
.LVL28:
	.loc 1 194 0
	orr	w0, w23, 8
	str	w0, [x22]
	b	.L47
.L54:
	.loc 1 204 0
	add	x1, x21, :lo12:g_vfmw_osal_fun_ptr
	ldr	x1, [x1,80]
	blr	x1
.LVL29:
	.loc 1 197 0 discriminator 1
	subs	w19, w19, #1
	beq	.L53
.L47:
	.loc 1 199 0
	ldr	w1, [x20]
	.loc 1 204 0
	mov	x0, 10
.LVL30:
	.loc 1 200 0
	tbz	x1, 3, .L54
.LVL31:
.L46:
	.loc 1 219 0
	mov	w1, w26
	.loc 1 217 0
	and	w23, w23, -9
.LVL32:
	.loc 1 219 0
	mov	w0, 1
	.loc 1 217 0
	str	w23, [x22]
	.loc 1 221 0
	add	x24, x24, :lo12:g_HwMem
	.loc 1 219 0
	bl	VDMHAL_EXT_RestoreFrequency
.LVL33:
	.loc 1 221 0
	ldr	x0, [x24,16]
	str	w25, [x0,52]
	.loc 1 224 0
	ldp	x19, x20, [sp,16]
	.cfi_remember_state
	.cfi_restore 20
	.cfi_restore 19
.LVL34:
	ldp	x21, x22, [sp,32]
	.cfi_restore 22
	.cfi_restore 21
.LVL35:
	ldp	x23, x24, [sp,48]
	.cfi_restore 24
	.cfi_restore 23
	ldp	x25, x26, [sp,64]
	.cfi_restore 26
	.cfi_restore 25
.LVL36:
	ldp	x29, x30, [sp], 80
	.cfi_restore 30
	.cfi_restore 29
	.cfi_def_cfa 31, 0
	ret
.LVL37:
.L49:
	.cfi_restore_state
	.loc 1 183 0
	adrp	x1, .LC1
	mov	x2, x22
	mov	x3, x20
	add	x1, x1, :lo12:.LC1
	mov	w0, 0
.LVL38:
	bl	dprint_linux_kernel
.LVL39:
	.loc 1 224 0
	ldp	x19, x20, [sp,16]
	.cfi_remember_state
	.cfi_restore 19
	.cfi_restore 20
.LVL40:
	ldp	x21, x22, [sp,32]
	.cfi_restore 21
	.cfi_restore 22
.LVL41:
	ldp	x23, x24, [sp,48]
	.cfi_restore 23
	.cfi_restore 24
	ldp	x25, x26, [sp,64]
	.cfi_restore 25
	.cfi_restore 26
	ldp	x29, x30, [sp], 80
	.cfi_restore 29
	.cfi_restore 30
	.cfi_def_cfa 31, 0
	ret
.LVL42:
.L53:
	.cfi_restore_state
	.loc 1 209 0
	adrp	x1, .LC2
	adrp	x2, .LANCHOR0
	add	x1, x1, :lo12:.LC2
	add	x2, x2, :lo12:.LANCHOR0
	mov	w0, 0
	bl	dprint_linux_kernel
.LVL43:
	b	.L46
	.cfi_endproc
.LFE2640:
	.size	BPD_Reset, .-BPD_Reset
	.align	2
	.global	BPD_Start
	.type	BPD_Start, %function
BPD_Start:
.LFB2641:
	.loc 1 227 0
	.cfi_startproc
	stp	x29, x30, [sp, -16]!
	.cfi_def_cfa_offset 16
	.cfi_offset 29, -16
	.cfi_offset 30, -8
	.loc 1 232 0
	mov	w0, 1
	mov	w1, 0
	.loc 1 227 0
	add	x29, sp, 0
	.cfi_def_cfa_register 29
	.loc 1 232 0
	mov	w2, w0
	.loc 1 227 0
	.loc 1 232 0
	bl	SMMU_SetMasterReg
.LVL44:
	.loc 1 237 0
	adrp	x0, g_HwMem
	.loc 1 238 0
	mov	w2, 1
	.loc 1 237 0
	add	x0, x0, :lo12:g_HwMem
	ldr	x1, [x0,16]
	str	wzr, [x1]
	.loc 1 238 0
	ldr	x1, [x0,16]
	str	w2, [x1]
	.loc 1 239 0
	ldr	x0, [x0,16]
	str	wzr, [x0]
	.loc 1 242 0
	ldp	x29, x30, [sp], 16
	.cfi_restore 30
	.cfi_restore 29
	.cfi_def_cfa 31, 0
	ret
	.cfi_endproc
.LFE2641:
	.size	BPD_Start, .-BPD_Start
	.align	2
	.global	IsBpd_Ready
	.type	IsBpd_Ready, %function
IsBpd_Ready:
.LFB2642:
	.loc 1 245 0
	.cfi_startproc
	.loc 1 248 0
	adrp	x0, g_HwMem+16
	.loc 1 245 0
	stp	x29, x30, [sp, -16]!
	.cfi_def_cfa_offset 16
	.cfi_offset 29, -16
	.cfi_offset 30, -8
	add	x29, sp, 0
	.cfi_def_cfa_register 29
	.loc 1 248 0
	ldr	x0, [x0,#:lo12:g_HwMem+16]
	cbz	x0, .L59
	.loc 1 250 0
	ldr	w0, [x0,64]
	.loc 1 252 0
	and	w0, w0, 1
.L58:
	.loc 1 256 0
	ldp	x29, x30, [sp], 16
	.cfi_remember_state
	.cfi_restore 30
	.cfi_restore 29
	.cfi_def_cfa 31, 0
	ret
.L59:
	.cfi_restore_state
.LBB10:
.LBB11:
	.loc 1 248 0 discriminator 1
	adrp	x2, .LANCHOR0
	adrp	x1, .LC3
	add	x2, x2, :lo12:.LANCHOR0
	adrp	x4, .LC4
	add	x1, x1, :lo12:.LC3
	add	x2, x2, 16
	mov	w3, 248
	add	x4, x4, :lo12:.LC4
	bl	dprint_linux_kernel
.LVL45:
	mov	w0, -1
	b	.L58
.LBE11:
.LBE10:
	.cfi_endproc
.LFE2642:
	.size	IsBpd_Ready, .-IsBpd_Ready
	.align	2
	.global	BPDDRV_WaitBpdReadyIfNoIsr
	.type	BPDDRV_WaitBpdReadyIfNoIsr, %function
BPDDRV_WaitBpdReadyIfNoIsr:
.LFB2643:
	.loc 1 259 0
	.cfi_startproc
	stp	x29, x30, [sp, -48]!
	.cfi_def_cfa_offset 48
	.cfi_offset 29, -48
	.cfi_offset 30, -40
	add	x29, sp, 0
	.cfi_def_cfa_register 29
	stp	x19, x20, [sp,16]
	.cfi_offset 19, -32
	.cfi_offset 20, -24
	.loc 1 264 0
	adrp	x20, g_vfmw_osal_fun_ptr
	.loc 1 259 0
	str	x21, [sp,32]
	.cfi_offset 21, -16
	adrp	x21, g_HwMem
	.loc 1 264 0
	ldr	x0, [x20,#:lo12:g_vfmw_osal_fun_ptr]
	blr	x0
.LVL46:
	mov	w19, w0
.LVL47:
	b	.L64
.L61:
.LBB20:
.LBB21:
	.loc 1 250 0
	ldr	w0, [x0,64]
.LBE21:
.LBE20:
	.loc 1 268 0
	tbnz	x0, 0, .L66
	.loc 1 274 0
	ldr	x0, [x20,#:lo12:g_vfmw_osal_fun_ptr]
	blr	x0
.LVL48:
	.loc 1 278 0
	cmp	w19, w0
	csel	w19, w19, wzr, ls
	.loc 1 281 0
	sub	w0, w0, w19
.LVL49:
	.loc 1 266 0 discriminator 1
	cmp	w0, 3999
	bhi	.L72
.L64:
.LBB25:
.LBB24:
	.loc 1 248 0
	add	x0, x21, :lo12:g_HwMem
.LVL50:
	ldr	x0, [x0,16]
	cbnz	x0, .L61
.LBB22:
.LBB23:
	.loc 1 248 0 is_stmt 0 discriminator 1
	adrp	x2, .LANCHOR0
	adrp	x1, .LC3
	add	x2, x2, :lo12:.LANCHOR0
	adrp	x4, .LC4
	add	x1, x1, :lo12:.LC3
	add	x2, x2, 16
	mov	w3, 248
	add	x4, x4, :lo12:.LC4
	bl	dprint_linux_kernel
.LVL51:
.LBE23:
.LBE22:
.LBE24:
.LBE25:
	.loc 1 287 0 is_stmt 1
	mov	w0, 0
.L69:
	.loc 1 295 0
	ldp	x19, x20, [sp,16]
	.cfi_remember_state
	.cfi_restore 20
	.cfi_restore 19
.LVL52:
	ldr	x21, [sp,32]
	.cfi_restore 21
	ldp	x29, x30, [sp], 48
	.cfi_restore 30
	.cfi_restore 29
	.cfi_def_cfa 31, 0
	ret
.LVL53:
.L72:
	.cfi_restore_state
.LBB26:
.LBB27:
	.loc 1 291 0
	adrp	x1, .LC5
	mov	w0, 0
.LVL54:
	add	x1, x1, :lo12:.LC5
	bl	dprint_linux_kernel
.LVL55:
	.loc 1 292 0
	bl	BPD_Reset
.LVL56:
.LBE27:
.LBE26:
	.loc 1 295 0
	ldr	x21, [sp,32]
	.cfi_remember_state
	.cfi_restore 21
.LBB29:
.LBB28:
	.loc 1 292 0
	mov	w0, 1
.LBE28:
.LBE29:
	.loc 1 295 0
	ldp	x19, x20, [sp,16]
	.cfi_restore 19
	.cfi_restore 20
.LVL57:
	ldp	x29, x30, [sp], 48
	.cfi_restore 29
	.cfi_restore 30
	.cfi_def_cfa 31, 0
	ret
.LVL58:
.L66:
	.cfi_restore_state
	.loc 1 287 0
	mov	w0, 0
	b	.L69
	.cfi_endproc
.LFE2643:
	.size	BPDDRV_WaitBpdReadyIfNoIsr, .-BPDDRV_WaitBpdReadyIfNoIsr
	.align	2
	.global	BPD_GetParam
	.type	BPD_GetParam, %function
BPD_GetParam:
.LFB2644:
	.loc 1 298 0
	.cfi_startproc
.LVL59:
	.loc 1 304 0
	adrp	x3, g_HwMem+16
	.loc 1 298 0
	stp	x29, x30, [sp, -16]!
	.cfi_def_cfa_offset 16
	.cfi_offset 29, -16
	.cfi_offset 30, -8
	add	x29, sp, 0
	.cfi_def_cfa_register 29
	.loc 1 304 0
	ldr	x4, [x3,#:lo12:g_HwMem+16]
	.loc 1 309 0
	ldr	w7, [x2,24]
	ldr	w3, [x2,32]
	.loc 1 304 0
	ldr	w6, [x4,80]
	.loc 1 309 0
	lsl	w5, w7, 3
	sub	w5, w5, w3
	.loc 1 306 0
	ldr	w4, [x4,84]
	.loc 1 309 0
	cmp	w6, w5
	bcs	.L78
	.loc 1 315 0
	ldrsb	w0, [x0,3104]
.LVL60:
	cbnz	w0, .L79
	.loc 1 328 0
	and	w3, w4, 15
	.loc 1 329 0
	ubfx	x0, x4, 8, 4
	.loc 1 328 0
	str	w3, [x1,340]
	.loc 1 330 0
	ubfx	x4, x4, 4, 4
	.loc 1 329 0
	str	w0, [x1,344]
	.loc 1 330 0
	str	w4, [x1,348]
.L77:
	.loc 1 333 0
	mov	x0, x2
	mov	w1, w6
.LVL61:
	bl	BsLongSkip
.LVL62:
	.loc 1 335 0
	mov	w0, 0
	.loc 1 336 0
	ldp	x29, x30, [sp], 16
	.cfi_remember_state
	.cfi_restore 30
	.cfi_restore 29
	.cfi_def_cfa 31, 0
	ret
.LVL63:
.L79:
	.cfi_restore_state
	.loc 1 317 0
	ubfx	x10, x4, 0, 4
	.loc 1 318 0
	ubfx	x9, x4, 12, 4
	.loc 1 319 0
	ubfx	x8, x4, 16, 4
	.loc 1 320 0
	ubfx	x7, x4, 20, 4
	.loc 1 321 0
	ubfx	x5, x4, 8, 4
	.loc 1 322 0
	ubfx	x3, x4, 24, 4
	.loc 1 323 0
	ubfx	x0, x4, 4, 4
	.loc 1 317 0
	strb	w10, [x1,394]
	.loc 1 324 0
	ubfx	x4, x4, 28, 2
	.loc 1 318 0
	strb	w9, [x1,397]
	.loc 1 319 0
	strb	w8, [x1,398]
	.loc 1 320 0
	strb	w7, [x1,399]
	.loc 1 321 0
	strb	w5, [x1,395]
	.loc 1 322 0
	strb	w3, [x1,400]
	.loc 1 323 0
	strb	w0, [x1,396]
	.loc 1 324 0
	strb	w4, [x1,390]
	b	.L77
.LVL64:
.L78:
	.loc 1 311 0
	adrp	x1, .LC6
.LVL65:
	mov	w2, w6
.LVL66:
	add	x1, x1, :lo12:.LC6
	sub	w3, w7, w3
	mov	w0, 0
.LVL67:
	bl	dprint_linux_kernel
.LVL68:
	.loc 1 312 0
	mov	w0, 1
	.loc 1 336 0
	ldp	x29, x30, [sp], 16
	.cfi_restore 29
	.cfi_restore 30
	.cfi_def_cfa 31, 0
	ret
	.cfi_endproc
.LFE2644:
	.size	BPD_GetParam, .-BPD_GetParam
	.align	2
	.global	BPD_Drv
	.type	BPD_Drv, %function
BPD_Drv:
.LFB2645:
	.loc 1 339 0
	.cfi_startproc
.LVL69:
	stp	x29, x30, [sp, -48]!
	.cfi_def_cfa_offset 48
	.cfi_offset 29, -48
	.cfi_offset 30, -40
	add	x29, sp, 0
	.cfi_def_cfa_register 29
	stp	x19, x20, [sp,16]
	.cfi_offset 19, -32
	.cfi_offset 20, -24
	mov	x20, x0
	.loc 1 343 0
	add	x0, x1, 20480
.LVL70:
	.loc 1 339 0
	str	x21, [sp,32]
	.cfi_offset 21, -16
	.loc 1 339 0
	mov	x19, x1
	mov	x21, x2
	.loc 1 343 0
	ldr	w3, [x0,1484]
.LVL71:
	ldr	w2, [x0,1480]
.LVL72:
	cmp	w3, 2
	ble	.L82
	.loc 1 343 0 is_stmt 0 discriminator 2
	sub	w0, w2, #3
	.loc 1 343 0 discriminator 3
	cmp	w0, 125
	bhi	.L82
	cmp	w3, 128
	bgt	.L82
.LBB30:
.LBB31:
	.loc 1 16 0 is_stmt 1 discriminator 1
	adrp	x3, g_HwMem
	ldr	x0, [x3,#:lo12:g_HwMem]
	add	x0, x0, 61440
	ldr	w1, [x0,2052]
	.loc 1 18 0
	cmp	w1, 2795
	beq	.L86
	.loc 1 20 0 discriminator 1
	mov	w1, 2795
	str	w1, [x0,2052]
.L86:
.LBE31:
.LBE30:
	.loc 1 351 0
	mov	x0, x19
	mov	x1, x20
	mov	x2, x21
	add	x3, x3, :lo12:g_HwMem
	bl	BPD_CfgReg
.LVL73:
	.loc 1 352 0
	cbnz	w0, .L87
	.loc 1 354 0
	bl	BPD_Start
.LVL74:
	.loc 1 356 0
	bl	BPDDRV_WaitBpdReadyIfNoIsr
.LVL75:
	.loc 1 341 0
	mov	w1, 1
	.loc 1 357 0
	cbnz	w0, .L85
	.loc 1 359 0
	mov	x1, x21
	mov	x0, x19
	mov	x2, x20
	bl	BPD_GetParam
.LVL76:
	.loc 1 360 0
	cmp	w0, wzr
	cset	w1, ne
	b	.L85
.LVL77:
.L82:
	.loc 1 345 0
	adrp	x1, .LC7
	mov	w0, 0
	add	x1, x1, :lo12:.LC7
	lsl	w2, w2, 4
	lsl	w3, w3, 4
	bl	dprint_linux_kernel
.LVL78:
	.loc 1 346 0
	mov	w1, 1
.L85:
	.loc 1 372 0
	mov	w0, w1
	ldr	x21, [sp,32]
	.cfi_remember_state
	.cfi_restore 21
.LVL79:
	ldp	x19, x20, [sp,16]
	.cfi_restore 20
	.cfi_restore 19
.LVL80:
	ldp	x29, x30, [sp], 48
	.cfi_restore 30
	.cfi_restore 29
	.cfi_def_cfa 31, 0
	ret
.LVL81:
.L87:
	.cfi_restore_state
	.loc 1 368 0
	adrp	x1, .LC8
	mov	w0, 0
	add	x1, x1, :lo12:.LC8
	bl	dprint_linux_kernel
.LVL82:
	.loc 1 341 0
	mov	w1, 1
	b	.L85
	.cfi_endproc
.LFE2645:
	.size	BPD_Drv, .-BPD_Drv
	.section	.rodata
	.align	3
.LANCHOR0 = . + 0
	.type	__func__.42594, %object
	.size	__func__.42594, 10
__func__.42594:
	.string	"BPD_Reset"
	.zero	6
	.type	__func__.42602, %object
	.size	__func__.42602, 12
__func__.42602:
	.string	"IsBpd_Ready"
	.section	.rodata.str1.8,"aMS",%progbits,1
	.align	3
.LC0:
	.string	"BPD register virtual address not mapped, reset failed!\n"
.LC1:
	.string	"BPD_Reset: map register fail, vir(pBpdResetReg) = (%pK), vir(pBpdResetOkReg) = (%pK)\n"
	.zero	2
.LC2:
	.string	"%s reset failed!\n"
	.zero	6
.LC3:
	.string	"%s %d: %s\n"
	.zero	5
.LC4:
	.string	"BPD register not mapped yet!"
	.zero	3
.LC5:
	.string	"BPD TimeOut!\n"
	.zero	2
.LC6:
	.string	" BPD ERROR: EAT TOO MUCH BS %#x, but available bs num %#x!!!\n"
	.zero	2
.LC7:
	.string	"NOT SUPPORT SIZE %d*%d\n"
.LC8:
	.string	"BPD error: no map reg!\n"
	.text
.Letext0:
	.file 2 "/mnt/disk/jenkins/ci/workspace/chipset_release_960_xloader/opensource/component_code/vendor/huawei/extra/build/build_script/kirin_kernel_release/kernel/drivers/vcodec/hi_vcodec/vdec/include/hi_type.h"
	.file 3 "/mnt/disk/jenkins/ci/workspace/chipset_release_960_xloader/opensource/component_code/vendor/huawei/extra/build/build_script/kirin_kernel_release/kernel/drivers/vcodec/hi_vcodec/vdec/vfmw/vfmw_v4.0/vfmw.h"
	.file 4 "/mnt/disk/jenkins/ci/workspace/chipset_release_960_xloader/opensource/component_code/vendor/huawei/extra/build/build_script/kirin_kernel_release/kernel/drivers/vcodec/hi_vcodec/vdec/vfmw/vfmw_v4.0/firmware/product/HiVCodecV100/sysconfig.h"
	.file 5 "/mnt/disk/jenkins/ci/workspace/chipset_release_960_xloader/opensource/component_code/vendor/huawei/extra/build/build_script/kirin_kernel_release/kernel/include/uapi/asm-generic/int-ll64.h"
	.file 6 "/mnt/disk/jenkins/ci/workspace/chipset_release_960_xloader/opensource/component_code/vendor/huawei/extra/build/build_script/kirin_kernel_release/kernel/include/asm-generic/int-ll64.h"
	.file 7 "/mnt/disk/jenkins/ci/workspace/chipset_release_960_xloader/opensource/component_code/vendor/huawei/extra/build/build_script/kirin_kernel_release/kernel/include/uapi/asm-generic/posix_types.h"
	.file 8 "/mnt/disk/jenkins/ci/workspace/chipset_release_960_xloader/opensource/component_code/vendor/huawei/extra/build/build_script/kirin_kernel_release/kernel/include/linux/export.h"
	.file 9 "/mnt/disk/jenkins/ci/workspace/chipset_release_960_xloader/opensource/component_code/vendor/huawei/extra/build/build_script/kirin_kernel_release/kernel/include/linux/types.h"
	.file 10 "/mnt/disk/jenkins/ci/workspace/chipset_release_960_xloader/opensource/component_code/vendor/huawei/extra/build/build_script/kirin_kernel_release/kernel/include/asm-generic/bug.h"
	.file 11 "/mnt/disk/jenkins/ci/workspace/chipset_release_960_xloader/opensource/component_code/vendor/huawei/extra/build/build_script/kirin_kernel_release/kernel/include/linux/restart_block.h"
	.file 12 "/mnt/disk/jenkins/ci/workspace/chipset_release_960_xloader/opensource/component_code/vendor/huawei/extra/build/build_script/kirin_kernel_release/kernel/include/uapi/linux/time.h"
	.file 13 "/mnt/disk/jenkins/ci/workspace/chipset_release_960_xloader/opensource/component_code/vendor/huawei/extra/build/build_script/kirin_kernel_release/kernel/arch/arm64/include/asm/compat.h"
	.file 14 "/mnt/disk/jenkins/ci/workspace/chipset_release_960_xloader/opensource/component_code/vendor/huawei/extra/build/build_script/kirin_kernel_release/kernel/include/uapi/asm-generic/poll.h"
	.file 15 "/mnt/disk/jenkins/ci/workspace/chipset_release_960_xloader/opensource/component_code/vendor/huawei/extra/build/build_script/kirin_kernel_release/kernel/arch/arm64/include/asm/thread_info.h"
	.file 16 "/mnt/disk/jenkins/ci/workspace/chipset_release_960_xloader/opensource/component_code/vendor/huawei/extra/build/build_script/kirin_kernel_release/kernel/arch/arm64/include/uapi/asm/ptrace.h"
	.file 17 "/mnt/disk/jenkins/ci/workspace/chipset_release_960_xloader/opensource/component_code/vendor/huawei/extra/build/build_script/kirin_kernel_release/kernel/arch/arm64/include/asm/ptrace.h"
	.file 18 "/mnt/disk/jenkins/ci/workspace/chipset_release_960_xloader/opensource/component_code/vendor/huawei/extra/build/build_script/kirin_kernel_release/kernel/arch/arm64/include/asm/spinlock_types.h"
	.file 19 "/mnt/disk/jenkins/ci/workspace/chipset_release_960_xloader/opensource/component_code/vendor/huawei/extra/build/build_script/kirin_kernel_release/kernel/include/linux/spinlock_types.h"
	.file 20 "/mnt/disk/jenkins/ci/workspace/chipset_release_960_xloader/opensource/component_code/vendor/huawei/extra/build/build_script/kirin_kernel_release/kernel/include/linux/rwlock_types.h"
	.file 21 "/mnt/disk/jenkins/ci/workspace/chipset_release_960_xloader/opensource/component_code/vendor/huawei/extra/build/build_script/kirin_kernel_release/kernel/arch/arm64/include/asm/fpsimd.h"
	.file 22 "/mnt/disk/jenkins/ci/workspace/chipset_release_960_xloader/opensource/component_code/vendor/huawei/extra/build/build_script/kirin_kernel_release/kernel/include/linux/jump_label.h"
	.file 23 "/mnt/disk/jenkins/ci/workspace/chipset_release_960_xloader/opensource/component_code/vendor/huawei/extra/build/build_script/kirin_kernel_release/kernel/include/asm-generic/atomic-long.h"
	.file 24 "/mnt/disk/jenkins/ci/workspace/chipset_release_960_xloader/opensource/component_code/vendor/huawei/extra/build/build_script/kirin_kernel_release/kernel/arch/arm64/include/asm/hw_breakpoint.h"
	.file 25 "/mnt/disk/jenkins/ci/workspace/chipset_release_960_xloader/opensource/component_code/vendor/huawei/extra/build/build_script/kirin_kernel_release/kernel/arch/arm64/include/asm/processor.h"
	.file 26 "/mnt/disk/jenkins/ci/workspace/chipset_release_960_xloader/opensource/component_code/vendor/huawei/extra/build/build_script/kirin_kernel_release/kernel/include/linux/perf_event.h"
	.file 27 "/mnt/disk/jenkins/ci/workspace/chipset_release_960_xloader/opensource/component_code/vendor/huawei/extra/build/build_script/kirin_kernel_release/kernel/include/linux/wait.h"
	.file 28 "/mnt/disk/jenkins/ci/workspace/chipset_release_960_xloader/opensource/component_code/vendor/huawei/extra/build/build_script/kirin_kernel_release/kernel/include/linux/seqlock.h"
	.file 29 "/mnt/disk/jenkins/ci/workspace/chipset_release_960_xloader/opensource/component_code/vendor/huawei/extra/build/build_script/kirin_kernel_release/kernel/include/linux/nodemask.h"
	.file 30 "/mnt/disk/jenkins/ci/workspace/chipset_release_960_xloader/opensource/component_code/vendor/huawei/extra/build/build_script/kirin_kernel_release/kernel/include/linux/cpumask.h"
	.file 31 "/mnt/disk/jenkins/ci/workspace/chipset_release_960_xloader/opensource/component_code/vendor/huawei/extra/build/build_script/kirin_kernel_release/kernel/include/linux/completion.h"
	.file 32 "/mnt/disk/jenkins/ci/workspace/chipset_release_960_xloader/opensource/component_code/vendor/huawei/extra/build/build_script/kirin_kernel_release/kernel/include/linux/time64.h"
	.file 33 "/mnt/disk/jenkins/ci/workspace/chipset_release_960_xloader/opensource/component_code/vendor/huawei/extra/build/build_script/kirin_kernel_release/kernel/include/linux/ktime.h"
	.file 34 "/mnt/disk/jenkins/ci/workspace/chipset_release_960_xloader/opensource/component_code/vendor/huawei/extra/build/build_script/kirin_kernel_release/kernel/include/linux/rbtree.h"
	.file 35 "/mnt/disk/jenkins/ci/workspace/chipset_release_960_xloader/opensource/component_code/vendor/huawei/extra/build/build_script/kirin_kernel_release/kernel/include/linux/osq_lock.h"
	.file 36 "/mnt/disk/jenkins/ci/workspace/chipset_release_960_xloader/opensource/component_code/vendor/huawei/extra/build/build_script/kirin_kernel_release/kernel/include/linux/rwsem.h"
	.file 37 "/mnt/disk/jenkins/ci/workspace/chipset_release_960_xloader/opensource/component_code/vendor/huawei/extra/build/build_script/kirin_kernel_release/kernel/include/linux/sched.h"
	.file 38 "/mnt/disk/jenkins/ci/workspace/chipset_release_960_xloader/opensource/component_code/vendor/huawei/extra/build/build_script/kirin_kernel_release/kernel/include/linux/mm_types.h"
	.file 39 "/mnt/disk/jenkins/ci/workspace/chipset_release_960_xloader/opensource/component_code/vendor/huawei/extra/build/build_script/kirin_kernel_release/kernel/include/linux/lockdep.h"
	.file 40 "/mnt/disk/jenkins/ci/workspace/chipset_release_960_xloader/opensource/component_code/vendor/huawei/extra/build/build_script/kirin_kernel_release/kernel/include/linux/uprobes.h"
	.file 41 "/mnt/disk/jenkins/ci/workspace/chipset_release_960_xloader/opensource/component_code/vendor/huawei/extra/build/build_script/kirin_kernel_release/kernel/include/linux/timer.h"
	.file 42 "/mnt/disk/jenkins/ci/workspace/chipset_release_960_xloader/opensource/component_code/vendor/huawei/extra/build/build_script/kirin_kernel_release/kernel/include/linux/uidgid.h"
	.file 43 "/mnt/disk/jenkins/ci/workspace/chipset_release_960_xloader/opensource/component_code/vendor/huawei/extra/build/build_script/kirin_kernel_release/kernel/include/linux/sysctl.h"
	.file 44 "/mnt/disk/jenkins/ci/workspace/chipset_release_960_xloader/opensource/component_code/vendor/huawei/extra/build/build_script/kirin_kernel_release/kernel/include/linux/workqueue.h"
	.file 45 "/mnt/disk/jenkins/ci/workspace/chipset_release_960_xloader/opensource/component_code/vendor/huawei/extra/build/build_script/kirin_kernel_release/kernel/arch/arm64/include/asm/pgtable-types.h"
	.file 46 "/mnt/disk/jenkins/ci/workspace/chipset_release_960_xloader/opensource/component_code/vendor/huawei/extra/build/build_script/kirin_kernel_release/kernel/arch/arm64/include/asm/page.h"
	.file 47 "/mnt/disk/jenkins/ci/workspace/chipset_release_960_xloader/opensource/component_code/vendor/huawei/extra/build/build_script/kirin_kernel_release/kernel/include/linux/llist.h"
	.file 48 "/mnt/disk/jenkins/ci/workspace/chipset_release_960_xloader/opensource/component_code/vendor/huawei/extra/build/build_script/kirin_kernel_release/kernel/arch/arm64/include/asm/smp.h"
	.file 49 "/mnt/disk/jenkins/ci/workspace/chipset_release_960_xloader/opensource/component_code/vendor/huawei/extra/build/build_script/kirin_kernel_release/kernel/arch/arm64/include/asm/mmu.h"
	.file 50 "/mnt/disk/jenkins/ci/workspace/chipset_release_960_xloader/opensource/component_code/vendor/huawei/extra/build/build_script/kirin_kernel_release/kernel/include/linux/fs.h"
	.file 51 "/mnt/disk/jenkins/ci/workspace/chipset_release_960_xloader/opensource/component_code/vendor/huawei/extra/build/build_script/kirin_kernel_release/kernel/include/linux/mm.h"
	.file 52 "/mnt/disk/jenkins/ci/workspace/chipset_release_960_xloader/opensource/component_code/vendor/huawei/extra/build/build_script/kirin_kernel_release/kernel/include/linux/user_namespace.h"
	.file 53 "/mnt/disk/jenkins/ci/workspace/chipset_release_960_xloader/opensource/component_code/vendor/huawei/extra/build/build_script/kirin_kernel_release/kernel/include/linux/mmzone.h"
	.file 54 "/mnt/disk/jenkins/ci/workspace/chipset_release_960_xloader/opensource/component_code/vendor/huawei/extra/build/build_script/kirin_kernel_release/kernel/include/linux/mutex.h"
	.file 55 "/mnt/disk/jenkins/ci/workspace/chipset_release_960_xloader/opensource/component_code/vendor/huawei/extra/build/build_script/kirin_kernel_release/kernel/include/linux/percpu-refcount.h"
	.file 56 "/mnt/disk/jenkins/ci/workspace/chipset_release_960_xloader/opensource/component_code/vendor/huawei/extra/build/build_script/kirin_kernel_release/kernel/include/linux/shrinker.h"
	.file 57 "/mnt/disk/jenkins/ci/workspace/chipset_release_960_xloader/opensource/component_code/vendor/huawei/extra/build/build_script/kirin_kernel_release/kernel/include/uapi/linux/resource.h"
	.file 58 "/mnt/disk/jenkins/ci/workspace/chipset_release_960_xloader/opensource/component_code/vendor/huawei/extra/build/build_script/kirin_kernel_release/kernel/include/linux/tracepoint-defs.h"
	.file 59 "/mnt/disk/jenkins/ci/workspace/chipset_release_960_xloader/opensource/component_code/vendor/huawei/extra/build/build_script/kirin_kernel_release/kernel/include/linux/vmstat.h"
	.file 60 "/mnt/disk/jenkins/ci/workspace/chipset_release_960_xloader/opensource/component_code/vendor/huawei/extra/build/build_script/kirin_kernel_release/kernel/include/linux/capability.h"
	.file 61 "/mnt/disk/jenkins/ci/workspace/chipset_release_960_xloader/opensource/component_code/vendor/huawei/extra/build/build_script/kirin_kernel_release/kernel/include/linux/plist.h"
	.file 62 "/mnt/disk/jenkins/ci/workspace/chipset_release_960_xloader/opensource/component_code/vendor/huawei/extra/build/build_script/kirin_kernel_release/kernel/include/asm-generic/cputime_jiffies.h"
	.file 63 "/mnt/disk/jenkins/ci/workspace/chipset_release_960_xloader/opensource/component_code/vendor/huawei/extra/build/build_script/kirin_kernel_release/kernel/include/uapi/asm-generic/signal.h"
	.file 64 "/mnt/disk/jenkins/ci/workspace/chipset_release_960_xloader/opensource/component_code/vendor/huawei/extra/build/build_script/kirin_kernel_release/kernel/include/uapi/asm-generic/signal-defs.h"
	.file 65 "/mnt/disk/jenkins/ci/workspace/chipset_release_960_xloader/opensource/component_code/vendor/huawei/extra/build/build_script/kirin_kernel_release/kernel/include/uapi/asm-generic/siginfo.h"
	.file 66 "/mnt/disk/jenkins/ci/workspace/chipset_release_960_xloader/opensource/component_code/vendor/huawei/extra/build/build_script/kirin_kernel_release/kernel/include/linux/signal.h"
	.file 67 "/mnt/disk/jenkins/ci/workspace/chipset_release_960_xloader/opensource/component_code/vendor/huawei/extra/build/build_script/kirin_kernel_release/kernel/include/linux/pid.h"
	.file 68 "/mnt/disk/jenkins/ci/workspace/chipset_release_960_xloader/opensource/component_code/vendor/huawei/extra/build/build_script/kirin_kernel_release/kernel/include/linux/pid_namespace.h"
	.file 69 "/mnt/disk/jenkins/ci/workspace/chipset_release_960_xloader/opensource/component_code/vendor/huawei/extra/build/build_script/kirin_kernel_release/kernel/include/linux/seccomp.h"
	.file 70 "/mnt/disk/jenkins/ci/workspace/chipset_release_960_xloader/opensource/component_code/vendor/huawei/extra/build/build_script/kirin_kernel_release/kernel/include/linux/timerqueue.h"
	.file 71 "/mnt/disk/jenkins/ci/workspace/chipset_release_960_xloader/opensource/component_code/vendor/huawei/extra/build/build_script/kirin_kernel_release/kernel/include/linux/hrtimer.h"
	.file 72 "/mnt/disk/jenkins/ci/workspace/chipset_release_960_xloader/opensource/component_code/vendor/huawei/extra/build/build_script/kirin_kernel_release/kernel/include/linux/task_io_accounting.h"
	.file 73 "/mnt/disk/jenkins/ci/workspace/chipset_release_960_xloader/opensource/component_code/vendor/huawei/extra/build/build_script/kirin_kernel_release/kernel/include/linux/assoc_array.h"
	.file 74 "/mnt/disk/jenkins/ci/workspace/chipset_release_960_xloader/opensource/component_code/vendor/huawei/extra/build/build_script/kirin_kernel_release/kernel/include/linux/key.h"
	.file 75 "/mnt/disk/jenkins/ci/workspace/chipset_release_960_xloader/opensource/component_code/vendor/huawei/extra/build/build_script/kirin_kernel_release/kernel/include/linux/cred.h"
	.file 76 "/mnt/disk/jenkins/ci/workspace/chipset_release_960_xloader/opensource/component_code/vendor/huawei/extra/build/build_script/kirin_kernel_release/kernel/include/linux/idr.h"
	.file 77 "/mnt/disk/jenkins/ci/workspace/chipset_release_960_xloader/opensource/component_code/vendor/huawei/extra/build/build_script/kirin_kernel_release/kernel/include/linux/rcu_sync.h"
	.file 78 "/mnt/disk/jenkins/ci/workspace/chipset_release_960_xloader/opensource/component_code/vendor/huawei/extra/build/build_script/kirin_kernel_release/kernel/include/linux/percpu-rwsem.h"
	.file 79 "/mnt/disk/jenkins/ci/workspace/chipset_release_960_xloader/opensource/component_code/vendor/huawei/extra/build/build_script/kirin_kernel_release/kernel/include/linux/bpf-cgroup.h"
	.file 80 "/mnt/disk/jenkins/ci/workspace/chipset_release_960_xloader/opensource/component_code/vendor/huawei/extra/build/build_script/kirin_kernel_release/kernel/include/linux/cgroup-defs.h"
	.file 81 "/mnt/disk/jenkins/ci/workspace/chipset_release_960_xloader/opensource/component_code/vendor/huawei/extra/build/build_script/kirin_kernel_release/kernel/include/linux/kernfs.h"
	.file 82 "/mnt/disk/jenkins/ci/workspace/chipset_release_960_xloader/opensource/component_code/vendor/huawei/extra/build/build_script/kirin_kernel_release/kernel/include/linux/seq_file.h"
	.file 83 "/mnt/disk/jenkins/ci/workspace/chipset_release_960_xloader/opensource/component_code/vendor/huawei/extra/build/build_script/kirin_kernel_release/kernel/include/uapi/linux/taskstats.h"
	.file 84 "/mnt/disk/jenkins/ci/workspace/chipset_release_960_xloader/opensource/component_code/vendor/huawei/extra/build/build_script/kirin_kernel_release/kernel/include/linux/nsproxy.h"
	.file 85 "/mnt/disk/jenkins/ci/workspace/chipset_release_960_xloader/opensource/component_code/vendor/huawei/extra/build/build_script/kirin_kernel_release/kernel/include/linux/compat.h"
	.file 86 "/mnt/disk/jenkins/ci/workspace/chipset_release_960_xloader/opensource/component_code/vendor/huawei/extra/build/build_script/kirin_kernel_release/kernel/include/linux/stat.h"
	.file 87 "/mnt/disk/jenkins/ci/workspace/chipset_release_960_xloader/opensource/component_code/vendor/huawei/extra/build/build_script/kirin_kernel_release/kernel/include/uapi/linux/elf.h"
	.file 88 "/mnt/disk/jenkins/ci/workspace/chipset_release_960_xloader/opensource/component_code/vendor/huawei/extra/build/build_script/kirin_kernel_release/kernel/include/linux/kobject_ns.h"
	.file 89 "/mnt/disk/jenkins/ci/workspace/chipset_release_960_xloader/opensource/component_code/vendor/huawei/extra/build/build_script/kirin_kernel_release/kernel/include/linux/sysfs.h"
	.file 90 "/mnt/disk/jenkins/ci/workspace/chipset_release_960_xloader/opensource/component_code/vendor/huawei/extra/build/build_script/kirin_kernel_release/kernel/include/linux/kobject.h"
	.file 91 "/mnt/disk/jenkins/ci/workspace/chipset_release_960_xloader/opensource/component_code/vendor/huawei/extra/build/build_script/kirin_kernel_release/kernel/include/linux/kref.h"
	.file 92 "/mnt/disk/jenkins/ci/workspace/chipset_release_960_xloader/opensource/component_code/vendor/huawei/extra/build/build_script/kirin_kernel_release/kernel/include/linux/moduleparam.h"
	.file 93 "/mnt/disk/jenkins/ci/workspace/chipset_release_960_xloader/opensource/component_code/vendor/huawei/extra/build/build_script/kirin_kernel_release/kernel/include/linux/module.h"
	.file 94 "/mnt/disk/jenkins/ci/workspace/chipset_release_960_xloader/opensource/component_code/vendor/huawei/extra/build/build_script/kirin_kernel_release/kernel/include/linux/rbtree_latch.h"
	.file 95 "/mnt/disk/jenkins/ci/workspace/chipset_release_960_xloader/opensource/component_code/vendor/huawei/extra/build/build_script/kirin_kernel_release/kernel/arch/arm64/include/asm/module.h"
	.file 96 "/mnt/disk/jenkins/ci/workspace/chipset_release_960_xloader/opensource/component_code/vendor/huawei/extra/build/build_script/kirin_kernel_release/kernel/arch/arm64/include/asm/uaccess.h"
	.file 97 "/mnt/disk/jenkins/ci/workspace/chipset_release_960_xloader/opensource/component_code/vendor/huawei/extra/build/build_script/kirin_kernel_release/kernel/include/linux/trace_events.h"
	.file 98 "/mnt/disk/jenkins/ci/workspace/chipset_release_960_xloader/opensource/component_code/vendor/huawei/extra/build/build_script/kirin_kernel_release/kernel/include/linux/tracepoint.h"
	.file 99 "/mnt/disk/jenkins/ci/workspace/chipset_release_960_xloader/opensource/component_code/vendor/huawei/extra/build/build_script/kirin_kernel_release/kernel/include/linux/percpu_counter.h"
	.file 100 "/mnt/disk/jenkins/ci/workspace/chipset_release_960_xloader/opensource/component_code/vendor/huawei/extra/build/build_script/kirin_kernel_release/kernel/include/linux/quota.h"
	.file 101 "/mnt/disk/jenkins/ci/workspace/chipset_release_960_xloader/opensource/component_code/vendor/huawei/extra/build/build_script/kirin_kernel_release/kernel/include/linux/projid.h"
	.file 102 "/mnt/disk/jenkins/ci/workspace/chipset_release_960_xloader/opensource/component_code/vendor/huawei/extra/build/build_script/kirin_kernel_release/kernel/include/linux/path.h"
	.file 103 "/mnt/disk/jenkins/ci/workspace/chipset_release_960_xloader/opensource/component_code/vendor/huawei/extra/build/build_script/kirin_kernel_release/kernel/include/linux/list_bl.h"
	.file 104 "/mnt/disk/jenkins/ci/workspace/chipset_release_960_xloader/opensource/component_code/vendor/huawei/extra/build/build_script/kirin_kernel_release/kernel/include/linux/lockref.h"
	.file 105 "/mnt/disk/jenkins/ci/workspace/chipset_release_960_xloader/opensource/component_code/vendor/huawei/extra/build/build_script/kirin_kernel_release/kernel/include/linux/dcache.h"
	.file 106 "/mnt/disk/jenkins/ci/workspace/chipset_release_960_xloader/opensource/component_code/vendor/huawei/extra/build/build_script/kirin_kernel_release/kernel/include/linux/list_lru.h"
	.file 107 "/mnt/disk/jenkins/ci/workspace/chipset_release_960_xloader/opensource/component_code/vendor/huawei/extra/build/build_script/kirin_kernel_release/kernel/include/linux/radix-tree.h"
	.file 108 "/mnt/disk/jenkins/ci/workspace/chipset_release_960_xloader/opensource/component_code/vendor/huawei/extra/build/build_script/kirin_kernel_release/kernel/include/uapi/linux/fiemap.h"
	.file 109 "/mnt/disk/jenkins/ci/workspace/chipset_release_960_xloader/opensource/component_code/vendor/huawei/extra/build/build_script/kirin_kernel_release/kernel/include/linux/migrate_mode.h"
	.file 110 "/mnt/disk/jenkins/ci/workspace/chipset_release_960_xloader/opensource/component_code/vendor/huawei/extra/build/build_script/kirin_kernel_release/kernel/include/linux/bvec.h"
	.file 111 "/mnt/disk/jenkins/ci/workspace/chipset_release_960_xloader/opensource/component_code/vendor/huawei/extra/build/build_script/kirin_kernel_release/kernel/include/linux/delayed_call.h"
	.file 112 "/mnt/disk/jenkins/ci/workspace/chipset_release_960_xloader/opensource/component_code/vendor/huawei/extra/build/build_script/kirin_kernel_release/kernel/include/linux/uio.h"
	.file 113 "/mnt/disk/jenkins/ci/workspace/chipset_release_960_xloader/opensource/component_code/vendor/huawei/extra/build/build_script/kirin_kernel_release/kernel/include/linux/nfs_fs_i.h"
	.file 114 "/mnt/disk/jenkins/ci/workspace/chipset_release_960_xloader/opensource/component_code/vendor/huawei/extra/build/build_script/kirin_kernel_release/kernel/include/linux/poll.h"
	.file 115 "/mnt/disk/jenkins/ci/workspace/chipset_release_960_xloader/opensource/component_code/vendor/huawei/extra/build/build_script/kirin_kernel_release/kernel/include/linux/seq_buf.h"
	.file 116 "/mnt/disk/jenkins/ci/workspace/chipset_release_960_xloader/opensource/component_code/vendor/huawei/extra/build/build_script/kirin_kernel_release/kernel/include/linux/trace_seq.h"
	.file 117 "/mnt/disk/jenkins/ci/workspace/chipset_release_960_xloader/opensource/component_code/vendor/huawei/extra/build/build_script/kirin_kernel_release/kernel/include/uapi/linux/perf_event.h"
	.file 118 "/mnt/disk/jenkins/ci/workspace/chipset_release_960_xloader/opensource/component_code/vendor/huawei/extra/build/build_script/kirin_kernel_release/kernel/include/asm-generic/local.h"
	.file 119 "/mnt/disk/jenkins/ci/workspace/chipset_release_960_xloader/opensource/component_code/vendor/huawei/extra/build/build_script/kirin_kernel_release/kernel/include/asm-generic/local64.h"
	.file 120 "/mnt/disk/jenkins/ci/workspace/chipset_release_960_xloader/opensource/component_code/vendor/huawei/extra/build/build_script/kirin_kernel_release/kernel/include/linux/cgroup.h"
	.file 121 "/mnt/disk/jenkins/ci/workspace/chipset_release_960_xloader/opensource/component_code/vendor/huawei/extra/build/build_script/kirin_kernel_release/kernel/include/linux/ns_common.h"
	.file 122 "/mnt/disk/jenkins/ci/workspace/chipset_release_960_xloader/opensource/component_code/vendor/huawei/extra/build/build_script/kirin_kernel_release/kernel/include/uapi/linux/uio.h"
	.file 123 "/mnt/disk/jenkins/ci/workspace/chipset_release_960_xloader/opensource/component_code/vendor/huawei/extra/build/build_script/kirin_kernel_release/kernel/include/linux/klist.h"
	.file 124 "/mnt/disk/jenkins/ci/workspace/chipset_release_960_xloader/opensource/component_code/vendor/huawei/extra/build/build_script/kirin_kernel_release/kernel/include/linux/pinctrl/devinfo.h"
	.file 125 "/mnt/disk/jenkins/ci/workspace/chipset_release_960_xloader/opensource/component_code/vendor/huawei/extra/build/build_script/kirin_kernel_release/kernel/include/linux/pm.h"
	.file 126 "/mnt/disk/jenkins/ci/workspace/chipset_release_960_xloader/opensource/component_code/vendor/huawei/extra/build/build_script/kirin_kernel_release/kernel/include/linux/device.h"
	.file 127 "/mnt/disk/jenkins/ci/workspace/chipset_release_960_xloader/opensource/component_code/vendor/huawei/extra/build/build_script/kirin_kernel_release/kernel/include/linux/pm_wakeup.h"
	.file 128 "/mnt/disk/jenkins/ci/workspace/chipset_release_960_xloader/opensource/component_code/vendor/huawei/extra/build/build_script/kirin_kernel_release/kernel/arch/arm64/include/asm/device.h"
	.file 129 "/mnt/disk/jenkins/ci/workspace/chipset_release_960_xloader/opensource/component_code/vendor/huawei/extra/build/build_script/kirin_kernel_release/kernel/include/linux/irq_work.h"
	.file 130 "/mnt/disk/jenkins/ci/workspace/chipset_release_960_xloader/opensource/component_code/vendor/huawei/extra/build/build_script/kirin_kernel_release/kernel/include/linux/perf_regs.h"
	.file 131 "/mnt/disk/jenkins/ci/workspace/chipset_release_960_xloader/opensource/component_code/vendor/huawei/extra/build/build_script/kirin_kernel_release/kernel/drivers/vcodec/hi_vcodec/vdec/vfmw/vfmw_v4.0/firmware/osal/vfmw_osal_ext.h"
	.file 132 "/mnt/disk/jenkins/ci/workspace/chipset_release_960_xloader/opensource/component_code/vendor/huawei/extra/build/build_script/kirin_kernel_release/kernel/drivers/vcodec/hi_vcodec/vdec/vfmw/vfmw_v4.0/firmware/common/decparam.h"
	.file 133 "/mnt/disk/jenkins/ci/workspace/chipset_release_960_xloader/opensource/component_code/vendor/huawei/extra/build/build_script/kirin_kernel_release/kernel/drivers/vcodec/hi_vcodec/vdec/vfmw/vfmw_v4.0/firmware/common/vdm_drv.h"
	.file 134 "/mnt/disk/jenkins/ci/workspace/chipset_release_960_xloader/opensource/component_code/vendor/huawei/extra/build/build_script/kirin_kernel_release/kernel/drivers/vcodec/hi_vcodec/vdec/vfmw/vfmw_v4.0/firmware/common/public.h"
	.file 135 "/mnt/disk/jenkins/ci/workspace/chipset_release_960_xloader/opensource/component_code/vendor/huawei/extra/build/build_script/kirin_kernel_release/kernel/drivers/vcodec/hi_vcodec/vdec/vfmw/vfmw_v4.0/firmware/common/bitstream.h"
	.file 136 "/mnt/disk/jenkins/ci/workspace/chipset_release_960_xloader/opensource/component_code/vendor/huawei/extra/build/build_script/kirin_kernel_release/kernel/drivers/vcodec/hi_vcodec/vdec/vfmw/vfmw_v4.0/firmware/common/syntax/vc1.h"
	.file 137 "/mnt/disk/jenkins/ci/workspace/chipset_release_960_xloader/opensource/component_code/vendor/huawei/extra/build/build_script/kirin_kernel_release/kernel/drivers/vcodec/hi_vcodec/vdec/vfmw/vfmw_v4.0/firmware/driver/HiVDHV400R004/bitplane.h"
	.file 138 "/mnt/disk/jenkins/ci/workspace/chipset_release_960_xloader/opensource/component_code/vendor/huawei/extra/build/build_script/kirin_kernel_release/kernel/drivers/vcodec/hi_vcodec/vdec/vfmw/vfmw_v4.0/firmware/driver/HiSMMUV100/smmu.h"
	.file 139 "/mnt/disk/jenkins/ci/workspace/chipset_release_960_xloader/opensource/component_code/vendor/huawei/extra/build/build_script/kirin_kernel_release/kernel/arch/arm64/include/asm/cachetype.h"
	.file 140 "/mnt/disk/jenkins/ci/workspace/chipset_release_960_xloader/opensource/component_code/vendor/huawei/extra/build/build_script/kirin_kernel_release/kernel/include/linux/printk.h"
	.file 141 "/mnt/disk/jenkins/ci/workspace/chipset_release_960_xloader/opensource/component_code/vendor/huawei/extra/build/build_script/kirin_kernel_release/kernel/include/linux/kernel.h"
	.file 142 "/mnt/disk/jenkins/ci/workspace/chipset_release_960_xloader/opensource/component_code/vendor/huawei/extra/build/build_script/kirin_kernel_release/kernel/arch/arm64/include/asm/stack_pointer.h"
	.file 143 "/mnt/disk/jenkins/ci/workspace/chipset_release_960_xloader/opensource/component_code/vendor/huawei/extra/build/build_script/kirin_kernel_release/kernel/arch/arm64/include/asm/hwcap.h"
	.file 144 "/mnt/disk/jenkins/ci/workspace/chipset_release_960_xloader/opensource/component_code/vendor/huawei/extra/build/build_script/kirin_kernel_release/kernel/arch/arm64/include/asm/cpufeature.h"
	.file 145 "/mnt/disk/jenkins/ci/workspace/chipset_release_960_xloader/opensource/component_code/vendor/huawei/extra/build/build_script/kirin_kernel_release/kernel/arch/arm64/include/asm/virt.h"
	.file 146 "/mnt/disk/jenkins/ci/workspace/chipset_release_960_xloader/opensource/component_code/vendor/huawei/extra/build/build_script/kirin_kernel_release/kernel/include/linux/jiffies.h"
	.file 147 "/mnt/disk/jenkins/ci/workspace/chipset_release_960_xloader/opensource/component_code/vendor/huawei/extra/build/build_script/kirin_kernel_release/kernel/include/linux/highuid.h"
	.file 148 "/mnt/disk/jenkins/ci/workspace/chipset_release_960_xloader/opensource/component_code/vendor/huawei/extra/build/build_script/kirin_kernel_release/kernel/arch/arm64/include/asm/memory.h"
	.file 149 "/mnt/disk/jenkins/ci/workspace/chipset_release_960_xloader/opensource/component_code/vendor/huawei/extra/build/build_script/kirin_kernel_release/kernel/include/asm-generic/percpu.h"
	.file 150 "/mnt/disk/jenkins/ci/workspace/chipset_release_960_xloader/opensource/component_code/vendor/huawei/extra/build/build_script/kirin_kernel_release/kernel/include/linux/debug_locks.h"
	.file 151 "/mnt/disk/jenkins/ci/workspace/chipset_release_960_xloader/opensource/component_code/vendor/huawei/extra/build/build_script/kirin_kernel_release/kernel/include/asm-generic/pgtable.h"
	.file 152 "/mnt/disk/jenkins/ci/workspace/chipset_release_960_xloader/opensource/component_code/vendor/huawei/extra/build/build_script/kirin_kernel_release/kernel/arch/arm64/include/asm/irq.h"
	.file 153 "/mnt/disk/jenkins/ci/workspace/chipset_release_960_xloader/opensource/component_code/vendor/huawei/extra/build/build_script/kirin_kernel_release/kernel/arch/arm64/include/asm/hardirq.h"
	.file 154 "/mnt/disk/jenkins/ci/workspace/chipset_release_960_xloader/opensource/component_code/vendor/huawei/extra/build/build_script/kirin_kernel_release/kernel/include/linux/slab.h"
	.file 155 "/mnt/disk/jenkins/ci/workspace/chipset_release_960_xloader/opensource/component_code/vendor/huawei/extra/build/build_script/kirin_kernel_release/kernel/include/linux/interrupt.h"
	.file 156 "/mnt/disk/jenkins/ci/workspace/chipset_release_960_xloader/opensource/component_code/vendor/huawei/extra/build/build_script/kirin_kernel_release/kernel/drivers/vcodec/hi_vcodec/vdec/vfmw/vfmw_v4.0/firmware/common/mem_manage.h"
	.file 157 "/mnt/disk/jenkins/ci/workspace/chipset_release_960_xloader/opensource/component_code/vendor/huawei/extra/build/build_script/kirin_kernel_release/kernel/drivers/vcodec/hi_vcodec/vdec/vfmw/vfmw_v4.0/firmware/driver/HiVDHV400R004/vdm_hal_api.h"
	.section	.note.GNU-stack,"",%progbits
