	.cpu generic+fp+simd
	.file	"nf_hw_hook.c"
	.text
.Ltext0:
	.cfi_sections	.debug_frame
	.section	.exit.text,"ax",%progbits
	.align	2
	.type	nf_exit, %function
nf_exit:
.LFB4056:
	.file 1 "/mnt/disk/jenkins/ci/workspace/chipset_release_960_xloader/opensource/component_code/vendor/huawei/extra/build/build_script/kirin_kernel_release/kernel/drivers/huawei_platform/net/hw_netfilter/nf_hw_hook.c"
	.loc 1 453 0
	.cfi_startproc
	stp	x29, x30, [sp, -16]!
	.cfi_def_cfa_offset 16
	.cfi_offset 29, -16
	.cfi_offset 30, -8
	add	x29, sp, 0
	.cfi_def_cfa_register 29
	.loc 1 454 0
	bl	uninit_ad
.LVL0:
	.loc 1 455 0
	bl	uninit_appdl
.LVL1:
	.loc 1 456 0
	adrp	x0, .LANCHOR0
	mov	w1, 1
	add	x0, x0, :lo12:.LANCHOR0
	bl	nf_unregister_hooks
.LVL2:
	.loc 1 457 0
	ldp	x29, x30, [sp], 16
	.cfi_restore 30
	.cfi_restore 29
	.cfi_def_cfa 31, 0
	ret
	.cfi_endproc
.LFE4056:
	.size	nf_exit, .-nf_exit
	.section	.init.text,"ax",%progbits
	.align	2
	.type	nf_init, %function
nf_init:
.LFB4055:
	.loc 1 436 0
	.cfi_startproc
	stp	x29, x30, [sp, -96]!
	.cfi_def_cfa_offset 96
	.cfi_offset 29, -96
	.cfi_offset 30, -88
	adrp	x0, __stack_chk_guard
	add	x29, sp, 0
	.cfi_def_cfa_register 29
	stp	x19, x20, [sp,16]
	.cfi_offset 19, -80
	.cfi_offset 20, -72
	mov	x20, x0
	.loc 1 436 0
	ldr	x0, [x0,#:lo12:__stack_chk_guard]
	str	x0, [x29,88]
	.loc 1 439 0
	bl	init_appdl
.LVL3:
	.loc 1 440 0
	bl	init_ad
.LVL4:
	.loc 1 441 0
	adrp	x0, .LANCHOR0
	mov	w1, 1
	add	x0, x0, :lo12:.LANCHOR0
	bl	nf_register_hooks
.LVL5:
	.loc 1 442 0
	cbz	w0, .L3
	.loc 1 443 0
	mov	w1, w0
	adrp	x0, .LC0
.LVL6:
	add	x0, x0, :lo12:.LC0
	bl	printk
.LVL7:
	.loc 1 444 0
	mov	w0, -1
	b	.L4
.LVL8:
.L3:
.LBB148:
.LBB149:
	.loc 1 196 0
	add	x4, x29, 40
.LBB150:
.LBB151:
	.file 2 "/mnt/disk/jenkins/ci/workspace/chipset_release_960_xloader/opensource/component_code/vendor/huawei/extra/build/build_script/kirin_kernel_release/kernel/include/linux/netlink.h"
	.loc 2 62 0
	adrp	x0, init_net
.LVL9:
	mov	x3, x4
	mov	w1, 32
	add	x0, x0, :lo12:init_net
	mov	x2, 0
.LBE151:
.LBE150:
	.loc 1 196 0
	stp	xzr, xzr, [x4]
	stp	xzr, xzr, [x4,16]
	stp	xzr, xzr, [x4,32]
	adrp	x4, kernel_hw_receive
	add	x4, x4, :lo12:kernel_hw_receive
	str	x4, [x29,48]
.LBB153:
.LBB152:
	.loc 2 62 0
	bl	__netlink_kernel_create
.LVL10:
.LBE152:
.LBE153:
	.loc 1 199 0
	adrp	x1, .LANCHOR1
	mov	x19, x1
	str	x0, [x1,#:lo12:.LANCHOR1]
	.loc 1 200 0
	cbnz	x0, .L5
	.loc 1 201 0
	adrp	x0, .LC1
	add	x0, x0, :lo12:.LC1
	bl	printk
.LVL11:
.L5:
.LBE149:
.LBE148:
.LBB154:
	.loc 1 447 0 discriminator 1
	add	x2, x19, :lo12:.LANCHOR1
	adrp	x1, .LC2
	add	x0, x2, 8
	add	x1, x1, :lo12:.LC2
	add	x2, x2, 32
	bl	__raw_spin_lock_init
.LVL12:
.LBE154:
	.loc 1 448 0
	adrp	x0, .LC3
	add	x0, x0, :lo12:.LC3
	bl	printk
.LVL13:
	.loc 1 449 0
	mov	w0, 0
.L4:
	.loc 1 450 0
	ldr	x2, [x29,88]
	ldr	x1, [x20,#:lo12:__stack_chk_guard]
	cmp	x2, x1
	beq	.L6
	bl	__stack_chk_fail
.LVL14:
.L6:
	ldp	x19, x20, [sp,16]
	.cfi_restore 20
	.cfi_restore 19
	ldp	x29, x30, [sp], 96
	.cfi_restore 30
	.cfi_restore 29
	.cfi_def_cfa 31, 0
	ret
	.cfi_endproc
.LFE4055:
	.size	nf_init, .-nf_init
	.text
	.align	2
	.type	notify_event.constprop.7, %function
notify_event.constprop.7:
.LFB4064:
	.loc 1 154 0
	.cfi_startproc
.LVL15:
	stp	x29, x30, [sp, -80]!
	.cfi_def_cfa_offset 80
	.cfi_offset 29, -80
	.cfi_offset 30, -72
	add	x29, sp, 0
	.cfi_def_cfa_register 29
	stp	x23, x24, [sp,48]
	.cfi_offset 23, -32
	.cfi_offset 24, -24
	mov	w24, w0
	.loc 1 161 0
	mov	x0, x1
.LVL16:
	.loc 1 154 0
	stp	x25, x26, [sp,64]
	stp	x19, x20, [sp,16]
	stp	x21, x22, [sp,32]
	.cfi_offset 25, -16
	.cfi_offset 26, -8
	.cfi_offset 19, -64
	.cfi_offset 20, -56
	.cfi_offset 21, -48
	.cfi_offset 22, -40
	.loc 1 154 0
	mov	x25, x1
	.loc 1 161 0
	bl	strlen
.LVL17:
	mov	x23, x0
	.loc 1 163 0
	cbz	w24, .L9
	.loc 1 163 0 is_stmt 0 discriminator 1
	adrp	x21, .LANCHOR1
	add	x0, x21, :lo12:.LANCHOR1
	ldr	x1, [x21,#:lo12:.LANCHOR1]
	cbz	x1, .L9
	.loc 1 163 0 discriminator 2
	ldr	w0, [x0,32]
	cbz	w0, .L9
.LBB155:
.LBB156:
.LBB157:
.LBB158:
	.file 3 "/mnt/disk/jenkins/ci/workspace/chipset_release_960_xloader/opensource/component_code/vendor/huawei/extra/build/build_script/kirin_kernel_release/kernel/include/net/netlink.h"
	.loc 3 287 0 is_stmt 1
	add	w19, w23, 28
.LBE158:
.LBE157:
.LBB160:
.LBB161:
	.file 4 "/mnt/disk/jenkins/ci/workspace/chipset_release_960_xloader/opensource/component_code/vendor/huawei/extra/build/build_script/kirin_kernel_release/kernel/include/linux/skbuff.h"
	.loc 4 930 0
	mov	w1, 32
.LBE161:
.LBE160:
.LBB164:
.LBB159:
	.loc 3 287 0
	and	w19, w19, -4
.LBE159:
.LBE164:
.LBB165:
.LBB162:
	.loc 4 930 0
	movk	w1, 0x208, lsl 16
	mov	w0, w19
	mov	w2, 0
	mov	w3, -1
.LBE162:
.LBE165:
.LBE156:
.LBE155:
	.loc 1 168 0
	add	w26, w23, 9
.LVL18:
.LBB168:
.LBB167:
.LBB166:
.LBB163:
	.loc 4 930 0
	bl	__alloc_skb
.LVL19:
	mov	x20, x0
.LBE163:
.LBE166:
.LBE167:
.LBE168:
	.loc 1 170 0
	cbz	x0, .L26
.LBB169:
.LBB170:
.LBB171:
.LBB172:
	.loc 4 1999 0
	ldr	w1, [x0,156]
	.loc 4 1999 0 is_stmt 0 discriminator 1
	mov	w0, 0
	.loc 4 1999 0
	cbz	w1, .L27
.L13:
.LBE172:
.LBE171:
	.loc 3 460 0 is_stmt 1
	cmp	w19, w0
	bgt	.L15
	.loc 3 463 0
	mov	x0, x20
	mov	w1, 0
	mov	w2, 0
	mov	w3, 0
	mov	w4, w26
	mov	w5, 0
	bl	__nlmsg_put
.LVL20:
	mov	x22, x0
.LBE170:
.LBE169:
	.loc 1 176 0
	cbz	x0, .L15
	.loc 1 184 0
	mov	w1, 0
	sxtw	x2, w26
	add	x0, x0, 16
.LBB176:
.LBB177:
	.file 5 "/mnt/disk/jenkins/ci/workspace/chipset_release_960_xloader/opensource/component_code/vendor/huawei/extra/build/build_script/kirin_kernel_release/kernel/include/linux/spinlock.h"
	.loc 5 307 0
	add	x19, x21, :lo12:.LANCHOR1
	add	x19, x19, 8
.LBE177:
.LBE176:
	.loc 1 184 0
	bl	memset
.LVL21:
	.loc 1 185 0
	sxtw	x2, w23
	mov	x1, x25
	add	x0, x22, 20
	bl	memcpy
.LVL22:
	.loc 1 186 0
	mov	w1, 1000
.LBB180:
.LBB178:
	.loc 5 307 0
	mov	x0, x19
.LBE178:
.LBE180:
	.loc 1 186 0
	str	w1, [x22,16]
.LBB181:
.LBB179:
	.loc 5 307 0
	bl	_raw_spin_lock_bh
.LVL23:
.LBE179:
.LBE181:
	.loc 1 188 0
	ldr	x0, [x21,#:lo12:.LANCHOR1]
	mov	x1, x20
	mov	w2, w24
	mov	w3, 64
	bl	netlink_unicast
.LVL24:
	mov	w21, w0
.LVL25:
.LBB182:
.LBB183:
	.loc 5 352 0
	mov	x0, x19
	bl	_raw_spin_unlock_bh
.LVL26:
.L11:
.LBE183:
.LBE182:
	.loc 1 192 0
	mov	w0, w21
	ldp	x19, x20, [sp,16]
	.cfi_remember_state
	.cfi_restore 20
	.cfi_restore 19
	ldp	x21, x22, [sp,32]
	.cfi_restore 22
	.cfi_restore 21
.LVL27:
	ldp	x23, x24, [sp,48]
	.cfi_restore 24
	.cfi_restore 23
.LVL28:
	ldp	x25, x26, [sp,64]
	.cfi_restore 26
	.cfi_restore 25
.LVL29:
	ldp	x29, x30, [sp], 80
	.cfi_restore 30
	.cfi_restore 29
	.cfi_def_cfa 31, 0
	ret
.LVL30:
.L27:
	.cfi_restore_state
.LBB184:
.LBB175:
.LBB174:
.LBB173:
	.loc 4 1999 0 discriminator 2
	ldr	w0, [x20,228]
	ldr	w1, [x20,224]
	sub	w0, w0, w1
	b	.L13
.L15:
.LBE173:
.LBE174:
.LBE175:
.LBE184:
	.loc 1 177 0
	adrp	x0, .LC6
	.loc 1 180 0
	mov	w21, -1
.LVL31:
	.loc 1 177 0
	add	x0, x0, :lo12:.LC6
	bl	printk
.LVL32:
	.loc 1 178 0
	mov	x0, x20
	bl	kfree_skb
.LVL33:
	b	.L11
.LVL34:
.L9:
	.loc 1 164 0
	adrp	x0, .LC4
	.loc 1 165 0
	mov	w21, -1
.LVL35:
	.loc 1 164 0
	add	x0, x0, :lo12:.LC4
	bl	printk
.LVL36:
	b	.L11
.LVL37:
.L26:
	.loc 1 171 0
	adrp	x0, .LC5
	.loc 1 172 0
	mov	w21, -1
.LVL38:
	.loc 1 171 0
	add	x0, x0, :lo12:.LC5
	bl	printk
.LVL39:
	b	.L11
	.cfi_endproc
.LFE4064:
	.size	notify_event.constprop.7, .-notify_event.constprop.7
	.align	2
	.global	proc_cmd
	.type	proc_cmd, %function
proc_cmd:
.LFB4046:
	.loc 1 67 0
	.cfi_startproc
.LVL40:
	stp	x29, x30, [sp, -16]!
	.cfi_def_cfa_offset 16
	.cfi_offset 29, -16
	.cfi_offset 30, -8
	.loc 1 68 0
	cmp	w0, 3
	.loc 1 67 0
	add	x29, sp, 0
	.cfi_def_cfa_register 29
	.loc 1 68 0
	beq	.L40
	.loc 1 70 0
	cmp	w0, 5
	beq	.L41
	.loc 1 72 0
	cmp	w0, 7
	beq	.L42
	.loc 1 74 0
	cmp	w0, 4
	beq	.L43
	.loc 1 76 0
	cmp	w0, 6
	beq	.L44
	.loc 1 78 0
	cmp	w0, 8
	beq	.L45
.LBB187:
.LBB188:
	.loc 1 80 0
	cmp	w0, 9
	beq	.L46
	.loc 1 82 0
	cmp	w0, 10
	beq	.L47
	.loc 1 84 0
	cmp	w0, 11
	beq	.L48
	.loc 1 86 0
	cmp	w0, 12
	bne	.L39
	.loc 1 87 0
	adrp	x0, g_deltalist_info
.LVL41:
	add	x0, x0, :lo12:g_deltalist_info
	bl	output_ad_rule
.LVL42:
.L28:
.LBE188:
.LBE187:
	.loc 1 90 0
	ldp	x29, x30, [sp], 16
	.cfi_remember_state
	.cfi_restore 30
	.cfi_restore 29
	.cfi_def_cfa 31, 0
	ret
.LVL43:
.L40:
	.cfi_restore_state
	.loc 1 69 0
	cmp	w1, wzr
	adrp	x0, g_adlist_info
.LVL44:
	mov	x1, x2
.LVL45:
	add	x0, x0, :lo12:g_adlist_info
	cset	w2, ne
.LVL46:
	bl	add_ad_rule
.LVL47:
	b	.L28
.LVL48:
.L41:
	.loc 1 71 0
	adrp	x0, g_adlist_info
.LVL49:
	add	x0, x0, :lo12:g_adlist_info
	bl	clear_ad_rule
.LVL50:
	b	.L28
.LVL51:
.L42:
	.loc 1 73 0
	adrp	x0, g_adlist_info
.LVL52:
	add	x0, x0, :lo12:g_adlist_info
	bl	output_ad_rule
.LVL53:
	b	.L28
.LVL54:
.L43:
	.loc 1 75 0
	cmp	w1, wzr
	mov	x0, x2
.LVL55:
	cset	w1, ne
.LVL56:
	bl	add_appdl_rule
.LVL57:
	b	.L28
.LVL58:
.L44:
	.loc 1 77 0
	mov	w0, w1
.LVL59:
	mov	x1, x2
.LVL60:
	bl	clear_appdl_rule
.LVL61:
	b	.L28
.LVL62:
.L45:
	.loc 1 79 0
	bl	output_appdl_rule
.LVL63:
	b	.L28
.LVL64:
.L46:
.LBB190:
.LBB189:
	.loc 1 81 0
	mov	w0, w1
.LVL65:
	mov	x1, x2
.LVL66:
	bl	download_notify
.LVL67:
	b	.L28
.LVL68:
.L47:
	.loc 1 83 0
	cmp	w1, wzr
	adrp	x0, g_deltalist_info
.LVL69:
	mov	x1, x2
.LVL70:
	add	x0, x0, :lo12:g_deltalist_info
	cset	w2, ne
.LVL71:
	bl	add_ad_rule
.LVL72:
	b	.L28
.LVL73:
.L48:
	.loc 1 85 0
	adrp	x0, g_deltalist_info
.LVL74:
	add	x0, x0, :lo12:g_deltalist_info
	bl	clear_ad_rule
.LVL75:
	b	.L28
.LVL76:
.L39:
	.loc 1 89 0
	mov	w1, w0
.LVL77:
	adrp	x0, .LC7
.LVL78:
	add	x0, x0, :lo12:.LC7
	bl	printk
.LVL79:
	b	.L28
.LBE189:
.LBE190:
	.cfi_endproc
.LFE4046:
	.size	proc_cmd, .-proc_cmd
	.align	2
	.type	kernel_hw_receive, %function
kernel_hw_receive:
.LFB4048:
	.loc 1 112 0
	.cfi_startproc
.LVL80:
	stp	x29, x30, [sp, -32]!
	.cfi_def_cfa_offset 32
	.cfi_offset 29, -32
	.cfi_offset 30, -24
	add	x29, sp, 0
	.cfi_def_cfa_register 29
	str	x19, [sp,16]
	.cfi_offset 19, -16
	.loc 1 112 0
	mov	x19, x0
	.loc 1 117 0
	cbz	x0, .L62
.LBB191:
.LBB192:
.LBB193:
.LBB194:
	.file 6 "/mnt/disk/jenkins/ci/workspace/chipset_release_960_xloader/opensource/component_code/vendor/huawei/extra/build/build_script/kirin_kernel_release/kernel/arch/arm64/include/asm/atomic_ll_sc.h"
	.loc 6 113 0
	add	x2, x0, 252
#APP
// 113 "/mnt/disk/jenkins/ci/workspace/chipset_release_960_xloader/opensource/component_code/vendor/huawei/extra/build/build_script/kirin_kernel_release/kernel/arch/arm64/include/asm/atomic_ll_sc.h" 1
	// atomic_add
	prfm	pstl1strm, [x2]
1:	ldxr	w0, [x2]
	add	w0, w0, 1
	stxr	w1, w0, [x2]
	cbnz	w1, 1b
// 0 "" 2
.LVL81:
#NO_APP
.LBE194:
.LBE193:
.LBE192:
.LBE191:
	.loc 1 126 0
	ldr	w0, [x19,152]
.LVL82:
	cmp	w0, 15
	bls	.L52
	ldr	x1, [x19,240]
.LVL83:
	.loc 1 128 0
	cbz	x1, .L63
	.loc 1 133 0
	ldr	w2, [x1]
	.loc 1 133 0 is_stmt 0 discriminator 1
	cmp	w2, 15
	bls	.L52
	cmp	w0, w2
	bcc	.L52
	.loc 1 135 0 is_stmt 1
	ldrh	w0, [x1,4]
	cbnz	w0, .L54
	.loc 1 136 0
	adrp	x0, .LANCHOR1+32
	ldr	w1, [x1,12]
	str	w1, [x0,#:lo12:.LANCHOR1+32]
.LVL84:
.L52:
	.loc 1 150 0
	mov	x0, x19
	bl	kfree_skb
.LVL85:
.L49:
	.loc 1 151 0
	ldr	x19, [sp,16]
	.cfi_remember_state
	.cfi_restore 19
.LVL86:
	ldp	x29, x30, [sp], 32
	.cfi_restore 30
	.cfi_restore 29
	.cfi_def_cfa 31, 0
	ret
.LVL87:
.L54:
	.cfi_restore_state
	.loc 1 137 0
	cmp	w0, 1
	beq	.L64
.LBB195:
.LBB196:
	.loc 1 104 0
	subs	w3, w2, #21
.LVL88:
	bmi	.L52
.LBE196:
.LBE195:
	.loc 1 141 0
	add	x0, x1, 20
.LVL89:
	.loc 1 146 0
	mov	x2, x0
.LBB198:
.LBB197:
	.loc 1 107 0
	strb	wzr, [x0,w3,sxtw]
.LBE197:
.LBE198:
	.loc 1 146 0
	ldrh	w0, [x1,4]
.LVL90:
	ldr	w1, [x1,16]
	bl	proc_cmd
.LVL91:
	b	.L52
.L64:
	.loc 1 138 0
	adrp	x0, .LANCHOR1+32
	str	wzr, [x0,#:lo12:.LANCHOR1+32]
	b	.L52
.LVL92:
.L62:
	.loc 1 118 0
	adrp	x0, .LC8
.LVL93:
	add	x0, x0, :lo12:.LC8
	bl	printk
.LVL94:
	.loc 1 119 0
	b	.L49
.L63:
	.loc 1 129 0
	adrp	x0, .LC9
	add	x0, x0, :lo12:.LC9
	bl	printk
.LVL95:
	.loc 1 130 0
	mov	x0, x19
	bl	kfree_skb
.LVL96:
	.loc 1 131 0
	b	.L49
	.cfi_endproc
.LFE4048:
	.size	kernel_hw_receive, .-kernel_hw_receive
	.align	2
	.global	check_str
	.type	check_str, %function
check_str:
.LFB4047:
	.loc 1 93 0
	.cfi_startproc
.LVL97:
	.loc 1 99 0
	add	x1, x0, 20
.LVL98:
	.loc 1 102 0
	ldr	w0, [x0]
.LVL99:
	.loc 1 104 0
	subs	w0, w0, #21
.LVL100:
	bmi	.L67
	.loc 1 107 0
	strb	wzr, [x1,w0,sxtw]
	.loc 1 108 0
	mov	w0, 0
.LVL101:
	.loc 1 109 0
	ret
.LVL102:
.L67:
	.loc 1 105 0
	mov	w0, 1
.LVL103:
	.loc 1 109 0
	ret
	.cfi_endproc
.LFE4047:
	.size	check_str, .-check_str
	.align	2
	.global	download_app_pro
	.type	download_app_pro, %function
download_app_pro:
.LFB4052:
	.loc 1 216 0
	.cfi_startproc
.LVL104:
	stp	x29, x30, [sp, -80]!
	.cfi_def_cfa_offset 80
	.cfi_offset 29, -80
	.cfi_offset 30, -72
	add	x29, sp, 0
	.cfi_def_cfa_register 29
	stp	x21, x22, [sp,32]
	stp	x23, x24, [sp,48]
	.cfi_offset 21, -48
	.cfi_offset 22, -40
	.cfi_offset 23, -32
	.cfi_offset 24, -24
	mov	x21, x0
	mov	w24, w1
	.loc 1 217 0
	mov	x0, x2
.LVL105:
	mov	w1, w3
.LVL106:
	.loc 1 216 0
	stp	x19, x20, [sp,16]
	str	x25, [sp,64]
	.cfi_offset 19, -64
	.cfi_offset 20, -56
	.cfi_offset 25, -16
	.loc 1 216 0
	mov	x23, x2
	mov	w22, w3
	mov	x25, x4
	.loc 1 217 0
	bl	get_url_path
.LVL107:
	mov	x19, x0
.LVL108:
	.loc 1 225 0
	cbz	x0, .L91
	.loc 1 227 0
	mov	x0, x21
	bl	get_select
.LVL109:
	mov	w20, w0
.LVL110:
	.loc 1 228 0
	cbz	w0, .L75
	.loc 1 229 0
	mov	x0, x19
	bl	kfree
.LVL111:
	.loc 1 230 0
	cmp	w20, 3
	beq	.L82
	.loc 1 232 0
	cmp	w20, 2
	beq	.L91
	.loc 1 234 0
	cmp	w20, 1
	beq	.L76
.L75:
	.loc 1 237 0
	mov	x0, x21
	mov	w1, w24
	mov	x2, x19
	bl	get_download_monitor
.LVL112:
	mov	x21, x0
.LVL113:
	.loc 1 238 0
	mov	x0, x19
	bl	kfree
.LVL114:
	.loc 1 239 0
	cbz	x21, .L93
	.loc 1 243 0
	ldrb	w0, [x21,72]
	cbz	w0, .L94
.LVL115:
.L76:
	.loc 1 235 0
	mov	w0, -1
.L70:
	.loc 1 274 0
	ldp	x19, x20, [sp,16]
	.cfi_remember_state
	.cfi_restore 20
	.cfi_restore 19
.LVL116:
	ldp	x21, x22, [sp,32]
	.cfi_restore 22
	.cfi_restore 21
.LVL117:
	ldp	x23, x24, [sp,48]
	.cfi_restore 24
	.cfi_restore 23
.LVL118:
	ldr	x25, [sp,64]
	.cfi_restore 25
.LVL119:
	ldp	x29, x30, [sp], 80
	.cfi_restore 30
	.cfi_restore 29
	.cfi_def_cfa 31, 0
	ret
.LVL120:
.L90:
	.cfi_restore_state
	.loc 1 259 0
	mov	x0, x21
	bl	free_node
.LVL121:
.L91:
	.loc 1 260 0
	mov	w0, 1
	.loc 1 274 0
	ldr	x25, [sp,64]
	.cfi_remember_state
	.cfi_restore 25
.LVL122:
	ldp	x19, x20, [sp,16]
	.cfi_restore 19
	.cfi_restore 20
.LVL123:
	ldp	x21, x22, [sp,32]
	.cfi_restore 21
	.cfi_restore 22
.LVL124:
	ldp	x23, x24, [sp,48]
	.cfi_restore 23
	.cfi_restore 24
.LVL125:
	ldp	x29, x30, [sp], 80
	.cfi_restore 29
	.cfi_restore 30
	.cfi_def_cfa 31, 0
	ret
.LVL126:
.L94:
	.cfi_restore_state
	.loc 1 245 0
	mov	x0, x23
	mov	w1, w22
	bl	get_url_form_data
.LVL127:
	mov	x19, x0
.LVL128:
	.loc 1 246 0
	cbz	x0, .L90
	.loc 1 250 0
	ldr	w0, [x21,80]
	mov	w1, w24
	mov	x2, x19
	mov	x3, x25
	bl	get_report_msg
.LVL129:
	mov	x22, x0
.LVL130:
	.loc 1 251 0
	mov	x0, x19
	bl	kfree
.LVL131:
	.loc 1 252 0
	cbz	x22, .L90
	.loc 1 256 0
	adrp	x0, .LANCHOR1+32
	mov	x1, x22
	ldr	w0, [x0,#:lo12:.LANCHOR1+32]
	bl	notify_event.constprop.7
.LVL132:
	mov	w19, w0
.LVL133:
	.loc 1 257 0
	mov	x0, x22
	bl	kfree
.LVL134:
	.loc 1 258 0
	tbnz	w19, #31, .L90
.LBB199:
.LBB200:
.LBB201:
.LBB202:
	.file 7 "/mnt/disk/jenkins/ci/workspace/chipset_release_960_xloader/opensource/component_code/vendor/huawei/extra/build/build_script/kirin_kernel_release/kernel/arch/arm64/include/asm/current.h"
	.loc 7 20 0
#APP
// 20 "/mnt/disk/jenkins/ci/workspace/chipset_release_960_xloader/opensource/component_code/vendor/huawei/extra/build/build_script/kirin_kernel_release/kernel/arch/arm64/include/asm/current.h" 1
	mrs x0, sp_el0
// 0 "" 2
.LVL135:
#NO_APP
.LBE202:
.LBE201:
.LBB203:
.LBB204:
	.file 8 "/mnt/disk/jenkins/ci/workspace/chipset_release_960_xloader/opensource/component_code/vendor/huawei/extra/build/build_script/kirin_kernel_release/kernel/include/linux/compiler.h"
	.loc 8 247 0 discriminator 4
	ldr	w1, [x0,16]
.LBE204:
.LBE203:
.LBE200:
.LBE199:
	.loc 1 262 0
	tst	w1, 983040
	bne	.L80
.LBB205:
.LBB206:
.LBB207:
.LBB208:
	.loc 8 247 0 discriminator 4
	ldr	w0, [x0,16]
.LVL136:
.LBE208:
.LBE207:
.LBE206:
.LBE205:
	.loc 1 262 0 discriminator 1
	tst	w0, 2096896
	bne	.L80
	.loc 1 263 0
	mov	x0, x21
	bl	wait_user_event
.LVL137:
	mov	w20, w0
	.loc 1 268 0
	cbz	w20, .L76
.L95:
	.loc 1 269 0
	cmp	w20, 2
	cset	w0, eq
	b	.L70
.LVL138:
.L82:
	.loc 1 231 0
	mov	w0, 0
	b	.L70
.LVL139:
.L93:
	.loc 1 240 0
	adrp	x0, .LC10
	add	x0, x0, :lo12:.LC10
	bl	printk
.LVL140:
	.loc 1 241 0
	mov	w0, 1
	b	.L70
.LVL141:
.L80:
.LBB209:
.LBB210:
.LBB211:
.LBB212:
	.loc 7 20 0
#APP
// 20 "/mnt/disk/jenkins/ci/workspace/chipset_release_960_xloader/opensource/component_code/vendor/huawei/extra/build/build_script/kirin_kernel_release/kernel/arch/arm64/include/asm/current.h" 1
	mrs x0, sp_el0
// 0 "" 2
.LVL142:
#NO_APP
.LBE212:
.LBE211:
.LBB213:
.LBB214:
	.loc 8 247 0 discriminator 4
	ldr	w1, [x0,16]
.LBE214:
.LBE213:
.LBE210:
.LBE209:
.LBB215:
.LBB216:
.LBB217:
.LBB218:
	ldr	w2, [x0,16]
.LBE218:
.LBE217:
.LBE216:
.LBE215:
	.loc 1 265 0 discriminator 2
	adrp	x0, .LC11
.LVL143:
	add	x0, x0, :lo12:.LC11
	and	w1, w1, 983040
	and	w2, w2, 2096896
	bl	printk
.LVL144:
	.loc 1 268 0
	cbz	w20, .L76
	b	.L95
	.cfi_endproc
.LFE4052:
	.size	download_app_pro, .-download_app_pro
	.align	2
	.global	hw_match_httppack
	.type	hw_match_httppack, %function
hw_match_httppack:
.LFB4053:
	.loc 1 278 0
	.cfi_startproc
.LVL145:
	stp	x29, x30, [sp, -80]!
	.cfi_def_cfa_offset 80
	.cfi_offset 29, -80
	.cfi_offset 30, -72
	add	x29, sp, 0
	.cfi_def_cfa_register 29
	stp	x19, x20, [sp,16]
	.cfi_offset 19, -64
	.cfi_offset 20, -56
	mov	x20, x0
	.loc 1 283 0
	mov	w0, w1
.LVL146:
	.loc 1 278 0
	stp	x23, x24, [sp,48]
	stp	x21, x22, [sp,32]
	stp	x25, x26, [sp,64]
	.cfi_offset 23, -32
	.cfi_offset 24, -24
	.cfi_offset 21, -48
	.cfi_offset 22, -40
	.cfi_offset 25, -16
	.cfi_offset 26, -8
	.loc 1 278 0
	mov	w19, w1
	mov	x22, x2
	mov	w23, w3
	mov	x24, x4
	.loc 1 283 0
	bl	match_appdl_uid
.LVL147:
	uxtb	w0, w0
	cbnz	w0, .L147
.L97:
	.loc 1 289 0
	adrp	x21, g_deltalist_info
	mov	w1, w19
	add	x20, x21, :lo12:g_deltalist_info
.LVL148:
	mov	x0, x20
	bl	match_ad_uid
.LVL149:
	uxtb	w0, w0
	cbnz	w0, .L111
.L114:
	.loc 1 285 0
	mov	w20, 1
.LVL150:
.L112:
	.loc 1 314 0 discriminator 1
	adrp	x21, g_adlist_info
	mov	w1, w19
	add	x21, x21, :lo12:g_adlist_info
	mov	x0, x21
	bl	match_ad_uid
.LVL151:
	uxtb	w0, w0
	cbnz	w0, .L148
.L99:
	.loc 1 342 0
	cbz	w20, .L104
.L149:
	cmn	w19, #1
	beq	.L104
.L127:
	.loc 1 355 0
	mov	w0, w20
	ldp	x19, x20, [sp,16]
	.cfi_remember_state
	.cfi_restore 20
	.cfi_restore 19
.LVL152:
	ldp	x21, x22, [sp,32]
	.cfi_restore 22
	.cfi_restore 21
.LVL153:
	ldp	x23, x24, [sp,48]
	.cfi_restore 24
	.cfi_restore 23
.LVL154:
	ldp	x25, x26, [sp,64]
	.cfi_restore 26
	.cfi_restore 25
.LVL155:
	ldp	x29, x30, [sp], 80
	.cfi_restore 30
	.cfi_restore 29
	.cfi_def_cfa 31, 0
	ret
.LVL156:
.L111:
	.cfi_restore_state
	.loc 1 290 0
	mov	x0, x20
	mov	w1, w19
	mov	x2, x22
	mov	w3, w23
	bl	match_ad_url
.LVL157:
	uxtb	w0, w0
	cbz	w0, .L114
.LBB219:
	.loc 1 294 0
	bl	get_cur_time
.LVL158:
	ldr	x1, [x20,10248]
	sub	x0, x0, x1
	cmp	x0, 1000
	bls	.L114
	mov	w25, 0
.LVL159:
	mov	w20, 1
.LVL160:
	b	.L115
.LVL161:
.L147:
.LBE219:
	.loc 1 284 0
	mov	x0, x22
	mov	w1, w23
	bl	match_appdl_url
.LVL162:
	uxtb	w0, w0
	cbz	w0, .L97
	.loc 1 286 0
	mov	w1, w19
	mov	x2, x22
	mov	w3, w23
	mov	x4, x24
	mov	x0, x20
	.loc 1 289 0
	adrp	x21, g_deltalist_info
	add	x25, x21, :lo12:g_deltalist_info
	.loc 1 286 0
	bl	download_app_pro
.LVL163:
	mov	w20, w0
.LVL164:
	.loc 1 289 0
	mov	w1, w19
	mov	x0, x25
	bl	match_ad_uid
.LVL165:
	uxtb	w0, w0
	cbz	w0, .L99
	.loc 1 290 0
	mov	x0, x25
	mov	w1, w19
	mov	x2, x22
	mov	w3, w23
	bl	match_ad_url
.LVL166:
	uxtb	w0, w0
	cbz	w0, .L99
.LBB220:
	.loc 1 294 0
	bl	get_cur_time
.LVL167:
	ldr	x1, [x25,10248]
	sub	x0, x0, x1
	cmp	x0, 1000
	bls	.L99
.LBE220:
	.loc 1 285 0
	mov	w25, 1
.LVL168:
.L115:
.LBB221:
	.loc 1 295 0
	add	x21, x21, :lo12:g_deltalist_info
	bl	get_cur_time
.LVL169:
	.loc 1 296 0
	mov	w1, w23
	.loc 1 295 0
	str	x0, [x21,10248]
	.loc 1 296 0
	mov	x0, x22
	bl	get_url_form_data
.LVL170:
	mov	x21, x0
	.loc 1 297 0
	cbz	x0, .L100
	.loc 1 298 0
	mov	w0, 999
	mov	w1, w19
	mov	x2, x21
	mov	x3, x24
	bl	get_report_msg
.LVL171:
	mov	x26, x0
.LVL172:
	.loc 1 299 0
	cbz	x0, .L101
	.loc 1 300 0
	mov	x1, x0
	adrp	x0, .LANCHOR1+32
	ldr	w0, [x0,#:lo12:.LANCHOR1+32]
	bl	notify_event.constprop.7
.LVL173:
	.loc 1 303 0
	mov	x0, x26
	bl	kfree
.LVL174:
.L102:
	.loc 1 307 0
	mov	x0, x21
	bl	kfree
.LVL175:
.LBE221:
	.loc 1 314 0
	cbz	w25, .L112
.L146:
	.loc 1 342 0
	cbnz	w20, .L149
.LVL176:
.L104:
	.loc 1 343 0
	mov	x0, x22
	mov	w1, w23
	bl	get_url_path
.LVL177:
	mov	x19, x0
.LVL178:
	.loc 1 344 0
	cbz	x0, .L127
	.loc 1 346 0
	bl	strlen
.LVL179:
	mov	x1, x0
	.loc 1 346 0 is_stmt 0 discriminator 1
	mov	x0, x19
	bl	is_droplist
.LVL180:
	uxtb	w0, w0
	.loc 1 346 0
	cbnz	w0, .L117
	.loc 1 349 0 is_stmt 1
	cbz	w20, .L150
.L110:
	.loc 1 352 0
	mov	x0, x19
	bl	kfree
.LVL181:
	.loc 1 355 0
	mov	w0, w20
	ldp	x19, x20, [sp,16]
	.cfi_remember_state
	.cfi_restore 19
	.cfi_restore 20
.LVL182:
	ldp	x21, x22, [sp,32]
	.cfi_restore 21
	.cfi_restore 22
.LVL183:
	ldp	x23, x24, [sp,48]
	.cfi_restore 23
	.cfi_restore 24
.LVL184:
	ldp	x25, x26, [sp,64]
	.cfi_restore 25
	.cfi_restore 26
.LVL185:
	ldp	x29, x30, [sp], 80
	.cfi_restore 29
	.cfi_restore 30
	.cfi_def_cfa 31, 0
	ret
.LVL186:
.L117:
	.cfi_restore_state
	.loc 1 347 0
	mov	w20, 0
	b	.L110
.LVL187:
.L148:
	.loc 1 315 0
	mov	x0, x21
	mov	w1, w19
	mov	x2, x22
	mov	w3, w23
	bl	match_ad_url
.LVL188:
	uxtb	w0, w0
	cbz	w0, .L99
.LBB222:
	.loc 1 320 0
	bl	get_cur_time
.LVL189:
	ldr	x1, [x21,10248]
	sub	x0, x0, x1
	cmp	x0, 1000
	bhi	.L151
	mov	w20, 0
	b	.L104
.LVL190:
.L150:
.LBE222:
	.loc 1 350 0
	mov	x0, x19
	bl	strlen
.LVL191:
	mov	x1, x0
	.loc 1 350 0 is_stmt 0 discriminator 1
	mov	x0, x19
	bl	add_to_droplist
.LVL192:
	b	.L110
.LVL193:
.L151:
.LBB223:
	.loc 1 321 0 is_stmt 1
	bl	get_cur_time
.LVL194:
	str	x0, [x21,10248]
	.loc 1 323 0
	mov	w1, w23
	mov	x0, x22
	bl	get_url_form_data
.LVL195:
	mov	x21, x0
	.loc 1 324 0
	cbz	x0, .L152
	.loc 1 328 0
	mov	w1, w19
	mov	w0, 100
	mov	x2, x21
	mov	x3, x24
	bl	get_report_msg
.LVL196:
	mov	x19, x0
.LVL197:
	.loc 1 329 0
	cbz	x0, .L107
	.loc 1 330 0
	mov	x1, x0
	adrp	x0, .LANCHOR1+32
	ldr	w0, [x0,#:lo12:.LANCHOR1+32]
	bl	notify_event.constprop.7
.LVL198:
	.loc 1 333 0
	mov	x0, x19
	bl	kfree
.LVL199:
.L108:
	.loc 1 337 0
	mov	x0, x21
	mov	w20, 0
	bl	kfree
.LVL200:
	b	.L104
.LVL201:
.L101:
.LBE223:
.LBB224:
	.loc 1 305 0
	adrp	x0, .LC12
.LVL202:
	add	x0, x0, :lo12:.LC12
	bl	printk
.LVL203:
	b	.L102
.LVL204:
.L100:
	.loc 1 309 0
	adrp	x0, .LC13
	add	x0, x0, :lo12:.LC13
	bl	printk
.LVL205:
.LBE224:
	.loc 1 314 0
	cbnz	w25, .L146
	b	.L112
.LVL206:
.L107:
.LBB225:
	.loc 1 335 0
	adrp	x0, .LC12
.LVL207:
	add	x0, x0, :lo12:.LC12
	bl	printk
.LVL208:
	b	.L108
.LVL209:
.L152:
	.loc 1 325 0
	adrp	x0, .LC14
	add	x0, x0, :lo12:.LC14
	bl	printk
.LVL210:
	.loc 1 326 0
	b	.L127
.LBE225:
	.cfi_endproc
.LFE4053:
	.size	hw_match_httppack, .-hw_match_httppack
	.align	2
	.type	net_hw_hook_localout, %function
net_hw_hook_localout:
.LFB4054:
	.loc 1 363 0
	.cfi_startproc
.LVL211:
	stp	x29, x30, [sp, -128]!
	.cfi_def_cfa_offset 128
	.cfi_offset 29, -128
	.cfi_offset 30, -120
	add	x29, sp, 0
	.cfi_def_cfa_register 29
	stp	x19, x20, [sp,16]
	stp	x21, x22, [sp,32]
	stp	x23, x24, [sp,48]
	str	x25, [sp,64]
	.cfi_offset 19, -112
	.cfi_offset 20, -104
	.cfi_offset 21, -96
	.cfi_offset 22, -88
	.cfi_offset 23, -80
	.cfi_offset 24, -72
	.cfi_offset 25, -64
	.loc 1 363 0
	adrp	x20, __stack_chk_guard
	mov	x19, x1
.LBB244:
.LBB245:
	.loc 4 1810 0
	ldr	w0, [x1,152]
.LVL212:
	ldr	w2, [x1,156]
.LVL213:
.LBE245:
.LBE244:
	.loc 1 363 0
	ldr	x1, [x20,#:lo12:__stack_chk_guard]
.LVL214:
.LBB247:
.LBB246:
	.loc 4 1810 0
	sub	w0, w0, w2
.LBE246:
.LBE247:
	.loc 1 363 0
	str	x1, [x29,120]
	.loc 1 371 0
	cmp	w0, 19
	bls	.L184
	ldr	x2, [x19,232]
.LBB248:
.LBB249:
.LBB250:
.LBB251:
.LBB252:
	.loc 4 2164 0
	ldrh	w1, [x19,220]
	add	x21, x2, x1
.LBE252:
.LBE251:
.LBE250:
	.file 9 "/mnt/disk/jenkins/ci/workspace/chipset_release_960_xloader/opensource/component_code/vendor/huawei/extra/build/build_script/kirin_kernel_release/kernel/include/net/ip.h"
	.loc 9 64 0
	ldrb	w1, [x2,x1]
	and	w1, w1, 15
	lsl	w3, w1, 2
.LBE249:
.LBE248:
	.loc 1 371 0 discriminator 1
	cmp	w3, 19
	ble	.L184
.LBB253:
.LBB254:
.LBB255:
	.loc 4 2147 0
	ldrh	w3, [x19,218]
.LBE255:
.LBE254:
.LBE253:
	.loc 1 378 0
	adds	x25, x2, x3
	beq	.L171
	cbz	x21, .L171
	.loc 1 382 0
	ldrb	w2, [x21,9]
	cmp	w2, 6
	beq	.L186
.LVL215:
.L184:
	.loc 1 380 0
	mov	w0, 1
.L155:
	.loc 1 421 0
	ldr	x2, [x29,120]
.LVL216:
	ldr	x1, [x20,#:lo12:__stack_chk_guard]
	cmp	x2, x1
	bne	.L187
	ldp	x19, x20, [sp,16]
	.cfi_remember_state
	.cfi_restore 20
	.cfi_restore 19
.LVL217:
	ldp	x21, x22, [sp,32]
	.cfi_restore 22
	.cfi_restore 21
.LVL218:
	ldp	x23, x24, [sp,48]
	.cfi_restore 24
	.cfi_restore 23
	ldr	x25, [sp,64]
	.cfi_restore 25
	ldp	x29, x30, [sp], 128
	.cfi_restore 30
	.cfi_restore 29
	.cfi_def_cfa 31, 0
	ret
.LVL219:
.L186:
	.cfi_restore_state
	.loc 1 385 0
	ldr	x2, [x19,240]
.LVL220:
	.loc 1 386 0
	cbz	x2, .L184
.LBB256:
	.loc 1 389 0
	ubfiz	x1, x1, 2, 4
	add	x1, x21, x1
.LVL221:
	.loc 1 390 0
	ldrb	w22, [x1,12]
	ubfx	x22, x22, 4, 4
	add	x22, x1, x22, lsl 2
.LVL222:
	.loc 1 391 0
	sub	x4, x21, x22
	add	w4, w0, w4
	.loc 1 392 0
	sub	w1, w4, #5
.LVL223:
	.loc 1 394 0
	cmp	w1, 1495
	bhi	.L184
	cmp	x2, x22
	bhi	.L184
	.loc 1 396 0
	add	x0, x2, x0, uxtw
	add	x1, x22, x4, uxtw
	cmp	x0, x1
	bcc	.L184
	.loc 1 400 0
	adrp	x24, .LANCHOR0
	cmp	w4, 1000
	add	x1, x24, :lo12:.LANCHOR0
	mov	x0, x22
	add	x1, x1, 56
	mov	w2, 5
.LVL224:
	mov	w23, 1000
	csel	w23, w4, w23, le
	bl	strfindpos
.LVL225:
	cbz	x0, .L188
.L183:
.LBB257:
	.loc 1 410 0
	ldrh	w0, [x25,2]
	.loc 1 405 0 discriminator 4
	adrp	x1, .LC16
	.loc 1 406 0
	ldr	w5, [x21,16]
	.loc 1 405 0 discriminator 4
	add	x1, x1, :lo12:.LC16
.LBB258:
.LBB259:
	.file 10 "/mnt/disk/jenkins/ci/workspace/chipset_release_960_xloader/opensource/component_code/vendor/huawei/extra/build/build_script/kirin_kernel_release/kernel/include/uapi/linux/swab.h"
	.loc 10 51 0
	lsl	w6, w0, 8
	orr	w6, w6, w0, lsr 8
.LBE259:
.LBE258:
	.loc 1 405 0
	and	w2, w5, 255
	ubfx	x3, x5, 8, 8
	ubfx	x4, x5, 16, 8
	.loc 1 405 0 is_stmt 0 discriminator 4
	add	x0, x29, 88
	.loc 1 405 0
	lsr	w5, w5, 24
	.loc 1 405 0 discriminator 4
	uxth	w6, w6
	bl	sprintf
.LVL226:
.LBB260:
.LBB261:
	.loc 1 48 0 is_stmt 1
	cbz	x19, .L166
	.loc 1 50 0
	ldr	x0, [x19,24]
.LVL227:
	.loc 1 51 0
	cbz	x0, .L166
	.loc 1 53 0 discriminator 1
	ldrb	w1, [x0,18]
	.loc 1 49 0
	mov	w21, -1
	.loc 1 53 0 discriminator 1
	uxtb	w1, w1
	cmp	w1, 6
	beq	.L160
	.loc 1 55 0
	ldr	x0, [x0,744]
.LVL228:
	cbz	x0, .L160
	.loc 1 55 0 is_stmt 0 discriminator 1
	ldr	x0, [x0,24]
	.loc 1 56 0 is_stmt 1
	cbz	x0, .L160
	ldr	x0, [x0,216]
	ldr	w21, [x0,28]
.LVL229:
.L160:
.LBE261:
.LBE260:
	.loc 1 412 0
	mov	x0, x19
.LVL230:
	mov	w1, w21
	mov	x2, x22
	mov	w3, w23
	add	x4, x29, 88
	bl	hw_match_httppack
.LVL231:
	.loc 1 413 0
	cbnz	w0, .L161
.LBB263:
.LBB264:
	.loc 1 206 0
	ldr	x0, [x19,24]
.LVL232:
	cbnz	x0, .L189
.LBE264:
.LBE263:
	mov	w0, 0
	b	.L155
.LVL233:
.L161:
.LBE257:
.LBE256:
	.loc 1 418 0
	cmn	w0, #1
	csel	w0, w0, wzr, ne
.LVL234:
	b	.L155
.LVL235:
.L166:
.LBB270:
.LBB268:
.LBB266:
.LBB262:
	.loc 1 49 0
	mov	w21, -1
	b	.L160
.LVL236:
.L188:
.LBE262:
.LBE266:
.LBE268:
	.loc 1 401 0
	add	x1, x24, :lo12:.LANCHOR0
	mov	x0, x22
	add	x1, x1, 64
	mov	w2, 5
	bl	strfindpos
.LVL237:
	.loc 1 400 0 discriminator 1
	cbnz	x0, .L183
	b	.L184
.L187:
.LBE270:
	.loc 1 421 0
	bl	__stack_chk_fail
.LVL238:
.L171:
	.loc 1 379 0
	adrp	x0, .LC15
	add	x0, x0, :lo12:.LC15
	bl	printk
.LVL239:
	b	.L184
.LVL240:
.L189:
.LBB271:
.LBB269:
.LBB267:
.LBB265:
	.loc 1 207 0
	mov	w1, 104
	str	w1, [x0,616]
	.loc 1 208 0
	ldr	x1, [x19,24]
	mov	x0, x1
	ldr	x1, [x1,840]
	blr	x1
.LVL241:
	.loc 1 209 0
	ldr	x4, [x19,24]
	adrp	x0, .LC17
	mov	w1, w21
	add	x0, x0, :lo12:.LC17
	mov	x3, x19
	ldr	w2, [x4,616]
	bl	printk
.LVL242:
.LBE265:
.LBE267:
	mov	w0, 0
	b	.L155
.LBE269:
.LBE271:
	.cfi_endproc
.LFE4054:
	.size	net_hw_hook_localout, .-net_hw_hook_localout
	.global	g_http_s
	.global	g_post_s
	.global	g_get_s
	.section	__modver,"a",%progbits
	.align	3
	.type	__modver_attr, %object
	.size	__modver_attr, 8
__modver_attr:
	.xword	___modver_attr
	.section	.exitcall.exit,"aw",%progbits
	.align	3
	.type	__exitcall_nf_exit, %object
	.size	__exitcall_nf_exit, 8
__exitcall_nf_exit:
	.xword	nf_exit
	.section	__hwlog_tag,"aw",%progbits
	.align	3
	.type	_hwtag_ARGO, %object
	.size	_hwtag_ARGO, 16
_hwtag_ARGO:
	.xword	.LC21
	.word	7
	.zero	4
	.section	.initcall6.init,"aw",%progbits
	.align	3
	.type	__initcall_nf_init6, %object
	.size	__initcall_nf_init6, 8
__initcall_nf_init6:
	.xword	nf_init
	.data
	.align	3
.LANCHOR0 = . + 0
	.type	net_hooks, %object
	.size	net_hooks, 56
net_hooks:
	.zero	16
	.xword	net_hw_hook_localout
	.zero	16
	.byte	2
	.zero	3
	.word	3
	.word	-1
	.zero	4
	.type	g_get_s, %object
	.size	g_get_s, 4
g_get_s:
	.byte	71
	.byte	69
	.byte	84
	.byte	0
	.zero	4
	.type	g_post_s, %object
	.size	g_post_s, 5
g_post_s:
	.byte	80
	.byte	79
	.byte	83
	.byte	84
	.byte	0
	.zero	3
	.type	___modver_attr, %object
	.size	___modver_attr, 72
___modver_attr:
	.xword	.LC18
	.hword	292
	.zero	6
	.xword	__modver_version_show
	.zero	32
	.xword	.LC19
	.xword	.LC20
	.type	g_http_s, %object
	.size	g_http_s, 5
g_http_s:
	.byte	72
	.byte	84
	.byte	84
	.byte	80
	.byte	0
	.section	.rodata.str1.8,"aMS",%progbits,1
	.align	3
.LC0:
	.string	"\0016hwad:nf_init ret=%d  "
.LC1:
	.string	"\0016hwad: netlink_init failed NETLINK_HW_NF\n"
	.zero	5
.LC2:
	.string	"&(&g_netlink_lock)->rlock"
	.zero	6
.LC3:
	.string	"\0016hwad:nf_init success\n"
.LC4:
	.string	"\0016hwad:cannot notify pid 0 or nlfd 0\n"
	.zero	2
.LC5:
	.string	"\0016hwad: alloc skb fail\n"
.LC6:
	.string	"\0016hwad: notify_event fail\n"
	.zero	5
.LC7:
	.string	"\0016hwad:kernel_hw_receive cmd=%d\n"
	.zero	7
.LC8:
	.string	"\0013Invalid parameter: zero pointer reference(__skb)\n"
	.zero	4
.LC9:
	.string	"\0013wifi_tcp_nl_receive  nlh = NULL\n"
	.zero	5
.LC10:
	.string	"\0016hwad:get_download_monitor=NULL\n "
	.zero	5
.LC11:
	.string	"\0016hwad:in_irq=%d in_interrupt=%d"
	.zero	7
.LC12:
	.string	"\0016hwad:report to systemmanager false\n"
	.zero	2
.LC13:
	.string	"\0016hwad:notify_event delta tempurl=NULL\n"
.LC14:
	.string	"\0016hwad:notify_event ad tempurl=NULL\n"
	.zero	3
.LC15:
	.string	"\0016\nhwad:net_hw_hook_localout drop NULL==iph\n"
	.zero	3
.LC16:
	.string	"%d.%d.%d.%d:%d"
	.zero	1
.LC17:
	.string	"\0016hwad:reject: uid=%d sk_err=%d for skb=%p sk=%p\n"
	.zero	6
.LC18:
	.string	"version"
.LC19:
	.string	"nf_hw_hook"
	.zero	5
.LC20:
	.string	"1.0.1"
	.zero	2
.LC21:
	.string	"ARGO"
	.bss
	.align	3
.LANCHOR1 = . + 0
	.type	g_hw_nlfd, %object
	.size	g_hw_nlfd, 8
g_hw_nlfd:
	.zero	8
	.type	g_netlink_lock, %object
	.size	g_netlink_lock, 24
g_netlink_lock:
	.zero	24
	.type	__key.54208, %object
	.size	__key.54208, 0
__key.54208:
	.type	g_uspa_pid, %object
	.size	g_uspa_pid, 4
g_uspa_pid:
	.zero	4
	.text
.Letext0:
	.file 11 "/mnt/disk/jenkins/ci/workspace/chipset_release_960_xloader/opensource/component_code/vendor/huawei/extra/build/build_script/kirin_kernel_release/kernel/include/uapi/asm-generic/int-ll64.h"
	.file 12 "/mnt/disk/jenkins/ci/workspace/chipset_release_960_xloader/opensource/component_code/vendor/huawei/extra/build/build_script/kirin_kernel_release/kernel/include/asm-generic/int-ll64.h"
	.file 13 "/mnt/disk/jenkins/ci/workspace/chipset_release_960_xloader/opensource/component_code/vendor/huawei/extra/build/build_script/kirin_kernel_release/kernel/include/uapi/asm-generic/posix_types.h"
	.file 14 "/mnt/disk/jenkins/ci/workspace/chipset_release_960_xloader/opensource/component_code/vendor/huawei/extra/build/build_script/kirin_kernel_release/kernel/include/uapi/linux/types.h"
	.file 15 "/mnt/disk/jenkins/ci/workspace/chipset_release_960_xloader/opensource/component_code/vendor/huawei/extra/build/build_script/kirin_kernel_release/kernel/include/linux/types.h"
	.file 16 "/mnt/disk/jenkins/ci/workspace/chipset_release_960_xloader/opensource/component_code/vendor/huawei/extra/build/build_script/kirin_kernel_release/kernel/include/linux/export.h"
	.file 17 "/mnt/disk/jenkins/ci/workspace/chipset_release_960_xloader/opensource/component_code/vendor/huawei/extra/build/build_script/kirin_kernel_release/kernel/include/linux/init.h"
	.file 18 "/mnt/disk/jenkins/ci/workspace/chipset_release_960_xloader/opensource/component_code/vendor/huawei/extra/build/build_script/kirin_kernel_release/kernel/include/linux/capability.h"
	.file 19 "/mnt/disk/jenkins/ci/workspace/chipset_release_960_xloader/opensource/component_code/vendor/huawei/extra/build/build_script/kirin_kernel_release/kernel/include/asm-generic/bug.h"
	.file 20 "/mnt/disk/jenkins/ci/workspace/chipset_release_960_xloader/opensource/component_code/vendor/huawei/extra/build/build_script/kirin_kernel_release/kernel/include/linux/restart_block.h"
	.file 21 "/mnt/disk/jenkins/ci/workspace/chipset_release_960_xloader/opensource/component_code/vendor/huawei/extra/build/build_script/kirin_kernel_release/kernel/include/uapi/linux/time.h"
	.file 22 "/mnt/disk/jenkins/ci/workspace/chipset_release_960_xloader/opensource/component_code/vendor/huawei/extra/build/build_script/kirin_kernel_release/kernel/arch/arm64/include/asm/compat.h"
	.file 23 "/mnt/disk/jenkins/ci/workspace/chipset_release_960_xloader/opensource/component_code/vendor/huawei/extra/build/build_script/kirin_kernel_release/kernel/include/uapi/asm-generic/poll.h"
	.file 24 "/mnt/disk/jenkins/ci/workspace/chipset_release_960_xloader/opensource/component_code/vendor/huawei/extra/build/build_script/kirin_kernel_release/kernel/arch/arm64/include/asm/thread_info.h"
	.file 25 "/mnt/disk/jenkins/ci/workspace/chipset_release_960_xloader/opensource/component_code/vendor/huawei/extra/build/build_script/kirin_kernel_release/kernel/arch/arm64/include/uapi/asm/ptrace.h"
	.file 26 "/mnt/disk/jenkins/ci/workspace/chipset_release_960_xloader/opensource/component_code/vendor/huawei/extra/build/build_script/kirin_kernel_release/kernel/arch/arm64/include/asm/spinlock_types.h"
	.file 27 "/mnt/disk/jenkins/ci/workspace/chipset_release_960_xloader/opensource/component_code/vendor/huawei/extra/build/build_script/kirin_kernel_release/kernel/include/linux/spinlock_types.h"
	.file 28 "/mnt/disk/jenkins/ci/workspace/chipset_release_960_xloader/opensource/component_code/vendor/huawei/extra/build/build_script/kirin_kernel_release/kernel/include/linux/rwlock_types.h"
	.file 29 "/mnt/disk/jenkins/ci/workspace/chipset_release_960_xloader/opensource/component_code/vendor/huawei/extra/build/build_script/kirin_kernel_release/kernel/arch/arm64/include/asm/fpsimd.h"
	.file 30 "/mnt/disk/jenkins/ci/workspace/chipset_release_960_xloader/opensource/component_code/vendor/huawei/extra/build/build_script/kirin_kernel_release/kernel/include/linux/jump_label.h"
	.file 31 "/mnt/disk/jenkins/ci/workspace/chipset_release_960_xloader/opensource/component_code/vendor/huawei/extra/build/build_script/kirin_kernel_release/kernel/include/asm-generic/atomic-long.h"
	.file 32 "/mnt/disk/jenkins/ci/workspace/chipset_release_960_xloader/opensource/component_code/vendor/huawei/extra/build/build_script/kirin_kernel_release/kernel/arch/arm64/include/asm/processor.h"
	.file 33 "/mnt/disk/jenkins/ci/workspace/chipset_release_960_xloader/opensource/component_code/vendor/huawei/extra/build/build_script/kirin_kernel_release/kernel/include/linux/seqlock.h"
	.file 34 "/mnt/disk/jenkins/ci/workspace/chipset_release_960_xloader/opensource/component_code/vendor/huawei/extra/build/build_script/kirin_kernel_release/kernel/include/linux/time64.h"
	.file 35 "/mnt/disk/jenkins/ci/workspace/chipset_release_960_xloader/opensource/component_code/vendor/huawei/extra/build/build_script/kirin_kernel_release/kernel/include/linux/plist.h"
	.file 36 "/mnt/disk/jenkins/ci/workspace/chipset_release_960_xloader/opensource/component_code/vendor/huawei/extra/build/build_script/kirin_kernel_release/kernel/include/linux/cpumask.h"
	.file 37 "/mnt/disk/jenkins/ci/workspace/chipset_release_960_xloader/opensource/component_code/vendor/huawei/extra/build/build_script/kirin_kernel_release/kernel/include/linux/wait.h"
	.file 38 "/mnt/disk/jenkins/ci/workspace/chipset_release_960_xloader/opensource/component_code/vendor/huawei/extra/build/build_script/kirin_kernel_release/kernel/include/linux/completion.h"
	.file 39 "/mnt/disk/jenkins/ci/workspace/chipset_release_960_xloader/opensource/component_code/vendor/huawei/extra/build/build_script/kirin_kernel_release/kernel/include/linux/ktime.h"
	.file 40 "/mnt/disk/jenkins/ci/workspace/chipset_release_960_xloader/opensource/component_code/vendor/huawei/extra/build/build_script/kirin_kernel_release/kernel/include/linux/rbtree.h"
	.file 41 "/mnt/disk/jenkins/ci/workspace/chipset_release_960_xloader/opensource/component_code/vendor/huawei/extra/build/build_script/kirin_kernel_release/kernel/include/linux/nodemask.h"
	.file 42 "/mnt/disk/jenkins/ci/workspace/chipset_release_960_xloader/opensource/component_code/vendor/huawei/extra/build/build_script/kirin_kernel_release/kernel/include/linux/osq_lock.h"
	.file 43 "/mnt/disk/jenkins/ci/workspace/chipset_release_960_xloader/opensource/component_code/vendor/huawei/extra/build/build_script/kirin_kernel_release/kernel/include/linux/rwsem.h"
	.file 44 "/mnt/disk/jenkins/ci/workspace/chipset_release_960_xloader/opensource/component_code/vendor/huawei/extra/build/build_script/kirin_kernel_release/kernel/include/linux/sched.h"
	.file 45 "/mnt/disk/jenkins/ci/workspace/chipset_release_960_xloader/opensource/component_code/vendor/huawei/extra/build/build_script/kirin_kernel_release/kernel/include/linux/mm_types.h"
	.file 46 "/mnt/disk/jenkins/ci/workspace/chipset_release_960_xloader/opensource/component_code/vendor/huawei/extra/build/build_script/kirin_kernel_release/kernel/include/linux/lockdep.h"
	.file 47 "/mnt/disk/jenkins/ci/workspace/chipset_release_960_xloader/opensource/component_code/vendor/huawei/extra/build/build_script/kirin_kernel_release/kernel/include/linux/uprobes.h"
	.file 48 "/mnt/disk/jenkins/ci/workspace/chipset_release_960_xloader/opensource/component_code/vendor/huawei/extra/build/build_script/kirin_kernel_release/kernel/include/linux/timer.h"
	.file 49 "/mnt/disk/jenkins/ci/workspace/chipset_release_960_xloader/opensource/component_code/vendor/huawei/extra/build/build_script/kirin_kernel_release/kernel/include/linux/uidgid.h"
	.file 50 "/mnt/disk/jenkins/ci/workspace/chipset_release_960_xloader/opensource/component_code/vendor/huawei/extra/build/build_script/kirin_kernel_release/kernel/include/linux/sysctl.h"
	.file 51 "/mnt/disk/jenkins/ci/workspace/chipset_release_960_xloader/opensource/component_code/vendor/huawei/extra/build/build_script/kirin_kernel_release/kernel/include/linux/workqueue.h"
	.file 52 "/mnt/disk/jenkins/ci/workspace/chipset_release_960_xloader/opensource/component_code/vendor/huawei/extra/build/build_script/kirin_kernel_release/kernel/arch/arm64/include/asm/pgtable-types.h"
	.file 53 "/mnt/disk/jenkins/ci/workspace/chipset_release_960_xloader/opensource/component_code/vendor/huawei/extra/build/build_script/kirin_kernel_release/kernel/arch/arm64/include/asm/page.h"
	.file 54 "/mnt/disk/jenkins/ci/workspace/chipset_release_960_xloader/opensource/component_code/vendor/huawei/extra/build/build_script/kirin_kernel_release/kernel/include/linux/llist.h"
	.file 55 "/mnt/disk/jenkins/ci/workspace/chipset_release_960_xloader/opensource/component_code/vendor/huawei/extra/build/build_script/kirin_kernel_release/kernel/arch/arm64/include/asm/smp.h"
	.file 56 "/mnt/disk/jenkins/ci/workspace/chipset_release_960_xloader/opensource/component_code/vendor/huawei/extra/build/build_script/kirin_kernel_release/kernel/arch/arm64/include/asm/mmu.h"
	.file 57 "/mnt/disk/jenkins/ci/workspace/chipset_release_960_xloader/opensource/component_code/vendor/huawei/extra/build/build_script/kirin_kernel_release/kernel/include/linux/fs.h"
	.file 58 "/mnt/disk/jenkins/ci/workspace/chipset_release_960_xloader/opensource/component_code/vendor/huawei/extra/build/build_script/kirin_kernel_release/kernel/include/linux/mm.h"
	.file 59 "/mnt/disk/jenkins/ci/workspace/chipset_release_960_xloader/opensource/component_code/vendor/huawei/extra/build/build_script/kirin_kernel_release/kernel/include/linux/user_namespace.h"
	.file 60 "/mnt/disk/jenkins/ci/workspace/chipset_release_960_xloader/opensource/component_code/vendor/huawei/extra/build/build_script/kirin_kernel_release/kernel/include/asm-generic/cputime_jiffies.h"
	.file 61 "/mnt/disk/jenkins/ci/workspace/chipset_release_960_xloader/opensource/component_code/vendor/huawei/extra/build/build_script/kirin_kernel_release/kernel/include/uapi/asm-generic/signal.h"
	.file 62 "/mnt/disk/jenkins/ci/workspace/chipset_release_960_xloader/opensource/component_code/vendor/huawei/extra/build/build_script/kirin_kernel_release/kernel/include/uapi/asm-generic/signal-defs.h"
	.file 63 "/mnt/disk/jenkins/ci/workspace/chipset_release_960_xloader/opensource/component_code/vendor/huawei/extra/build/build_script/kirin_kernel_release/kernel/include/uapi/asm-generic/siginfo.h"
	.file 64 "/mnt/disk/jenkins/ci/workspace/chipset_release_960_xloader/opensource/component_code/vendor/huawei/extra/build/build_script/kirin_kernel_release/kernel/include/linux/signal.h"
	.file 65 "/mnt/disk/jenkins/ci/workspace/chipset_release_960_xloader/opensource/component_code/vendor/huawei/extra/build/build_script/kirin_kernel_release/kernel/include/linux/pid.h"
	.file 66 "/mnt/disk/jenkins/ci/workspace/chipset_release_960_xloader/opensource/component_code/vendor/huawei/extra/build/build_script/kirin_kernel_release/kernel/include/linux/mmzone.h"
	.file 67 "/mnt/disk/jenkins/ci/workspace/chipset_release_960_xloader/opensource/component_code/vendor/huawei/extra/build/build_script/kirin_kernel_release/kernel/include/linux/mutex.h"
	.file 68 "/mnt/disk/jenkins/ci/workspace/chipset_release_960_xloader/opensource/component_code/vendor/huawei/extra/build/build_script/kirin_kernel_release/kernel/include/linux/notifier.h"
	.file 69 "/mnt/disk/jenkins/ci/workspace/chipset_release_960_xloader/opensource/component_code/vendor/huawei/extra/build/build_script/kirin_kernel_release/kernel/include/linux/seccomp.h"
	.file 70 "/mnt/disk/jenkins/ci/workspace/chipset_release_960_xloader/opensource/component_code/vendor/huawei/extra/build/build_script/kirin_kernel_release/kernel/include/uapi/linux/resource.h"
	.file 71 "/mnt/disk/jenkins/ci/workspace/chipset_release_960_xloader/opensource/component_code/vendor/huawei/extra/build/build_script/kirin_kernel_release/kernel/include/linux/timerqueue.h"
	.file 72 "/mnt/disk/jenkins/ci/workspace/chipset_release_960_xloader/opensource/component_code/vendor/huawei/extra/build/build_script/kirin_kernel_release/kernel/include/linux/hrtimer.h"
	.file 73 "/mnt/disk/jenkins/ci/workspace/chipset_release_960_xloader/opensource/component_code/vendor/huawei/extra/build/build_script/kirin_kernel_release/kernel/include/linux/task_io_accounting.h"
	.file 74 "/mnt/disk/jenkins/ci/workspace/chipset_release_960_xloader/opensource/component_code/vendor/huawei/extra/build/build_script/kirin_kernel_release/kernel/include/linux/assoc_array.h"
	.file 75 "/mnt/disk/jenkins/ci/workspace/chipset_release_960_xloader/opensource/component_code/vendor/huawei/extra/build/build_script/kirin_kernel_release/kernel/include/linux/key.h"
	.file 76 "/mnt/disk/jenkins/ci/workspace/chipset_release_960_xloader/opensource/component_code/vendor/huawei/extra/build/build_script/kirin_kernel_release/kernel/include/linux/cred.h"
	.file 77 "/mnt/disk/jenkins/ci/workspace/chipset_release_960_xloader/opensource/component_code/vendor/huawei/extra/build/build_script/kirin_kernel_release/kernel/include/linux/idr.h"
	.file 78 "/mnt/disk/jenkins/ci/workspace/chipset_release_960_xloader/opensource/component_code/vendor/huawei/extra/build/build_script/kirin_kernel_release/kernel/include/linux/percpu-refcount.h"
	.file 79 "/mnt/disk/jenkins/ci/workspace/chipset_release_960_xloader/opensource/component_code/vendor/huawei/extra/build/build_script/kirin_kernel_release/kernel/include/linux/rcu_sync.h"
	.file 80 "/mnt/disk/jenkins/ci/workspace/chipset_release_960_xloader/opensource/component_code/vendor/huawei/extra/build/build_script/kirin_kernel_release/kernel/include/linux/percpu-rwsem.h"
	.file 81 "/mnt/disk/jenkins/ci/workspace/chipset_release_960_xloader/opensource/component_code/vendor/huawei/extra/build/build_script/kirin_kernel_release/kernel/include/uapi/linux/bpf.h"
	.file 82 "/mnt/disk/jenkins/ci/workspace/chipset_release_960_xloader/opensource/component_code/vendor/huawei/extra/build/build_script/kirin_kernel_release/kernel/include/linux/bpf-cgroup.h"
	.file 83 "/mnt/disk/jenkins/ci/workspace/chipset_release_960_xloader/opensource/component_code/vendor/huawei/extra/build/build_script/kirin_kernel_release/kernel/include/linux/filter.h"
	.file 84 "/mnt/disk/jenkins/ci/workspace/chipset_release_960_xloader/opensource/component_code/vendor/huawei/extra/build/build_script/kirin_kernel_release/kernel/include/linux/cgroup-defs.h"
	.file 85 "/mnt/disk/jenkins/ci/workspace/chipset_release_960_xloader/opensource/component_code/vendor/huawei/extra/build/build_script/kirin_kernel_release/kernel/include/linux/kernfs.h"
	.file 86 "/mnt/disk/jenkins/ci/workspace/chipset_release_960_xloader/opensource/component_code/vendor/huawei/extra/build/build_script/kirin_kernel_release/kernel/include/linux/seq_file.h"
	.file 87 "/mnt/disk/jenkins/ci/workspace/chipset_release_960_xloader/opensource/component_code/vendor/huawei/extra/build/build_script/kirin_kernel_release/kernel/include/uapi/linux/taskstats.h"
	.file 88 "/mnt/disk/jenkins/ci/workspace/chipset_release_960_xloader/opensource/component_code/vendor/huawei/extra/build/build_script/kirin_kernel_release/kernel/include/linux/nsproxy.h"
	.file 89 "/mnt/disk/jenkins/ci/workspace/chipset_release_960_xloader/opensource/component_code/vendor/huawei/extra/build/build_script/kirin_kernel_release/kernel/include/linux/backing-dev-defs.h"
	.file 90 "/mnt/disk/jenkins/ci/workspace/chipset_release_960_xloader/opensource/component_code/vendor/huawei/extra/build/build_script/kirin_kernel_release/kernel/include/linux/compat.h"
	.file 91 "/mnt/disk/jenkins/ci/workspace/chipset_release_960_xloader/opensource/component_code/vendor/huawei/extra/build/build_script/kirin_kernel_release/kernel/include/linux/pipe_fs_i.h"
	.file 92 "/mnt/disk/jenkins/ci/workspace/chipset_release_960_xloader/opensource/component_code/vendor/huawei/extra/build/build_script/kirin_kernel_release/kernel/include/linux/stat.h"
	.file 93 "/mnt/disk/jenkins/ci/workspace/chipset_release_960_xloader/opensource/component_code/vendor/huawei/extra/build/build_script/kirin_kernel_release/kernel/include/uapi/linux/elf.h"
	.file 94 "/mnt/disk/jenkins/ci/workspace/chipset_release_960_xloader/opensource/component_code/vendor/huawei/extra/build/build_script/kirin_kernel_release/kernel/include/linux/kobject_ns.h"
	.file 95 "/mnt/disk/jenkins/ci/workspace/chipset_release_960_xloader/opensource/component_code/vendor/huawei/extra/build/build_script/kirin_kernel_release/kernel/include/net/sock.h"
	.file 96 "/mnt/disk/jenkins/ci/workspace/chipset_release_960_xloader/opensource/component_code/vendor/huawei/extra/build/build_script/kirin_kernel_release/kernel/include/linux/sysfs.h"
	.file 97 "/mnt/disk/jenkins/ci/workspace/chipset_release_960_xloader/opensource/component_code/vendor/huawei/extra/build/build_script/kirin_kernel_release/kernel/include/linux/kobject.h"
	.file 98 "/mnt/disk/jenkins/ci/workspace/chipset_release_960_xloader/opensource/component_code/vendor/huawei/extra/build/build_script/kirin_kernel_release/kernel/include/linux/kref.h"
	.file 99 "/mnt/disk/jenkins/ci/workspace/chipset_release_960_xloader/opensource/component_code/vendor/huawei/extra/build/build_script/kirin_kernel_release/kernel/include/linux/moduleparam.h"
	.file 100 "/mnt/disk/jenkins/ci/workspace/chipset_release_960_xloader/opensource/component_code/vendor/huawei/extra/build/build_script/kirin_kernel_release/kernel/include/linux/module.h"
	.file 101 "/mnt/disk/jenkins/ci/workspace/chipset_release_960_xloader/opensource/component_code/vendor/huawei/extra/build/build_script/kirin_kernel_release/kernel/include/linux/rbtree_latch.h"
	.file 102 "/mnt/disk/jenkins/ci/workspace/chipset_release_960_xloader/opensource/component_code/vendor/huawei/extra/build/build_script/kirin_kernel_release/kernel/arch/arm64/include/asm/module.h"
	.file 103 "/mnt/disk/jenkins/ci/workspace/chipset_release_960_xloader/opensource/component_code/vendor/huawei/extra/build/build_script/kirin_kernel_release/kernel/arch/arm64/include/asm/uaccess.h"
	.file 104 "/mnt/disk/jenkins/ci/workspace/chipset_release_960_xloader/opensource/component_code/vendor/huawei/extra/build/build_script/kirin_kernel_release/kernel/include/linux/tracepoint-defs.h"
	.file 105 "/mnt/disk/jenkins/ci/workspace/chipset_release_960_xloader/opensource/component_code/vendor/huawei/extra/build/build_script/kirin_kernel_release/kernel/include/linux/klist.h"
	.file 106 "/mnt/disk/jenkins/ci/workspace/chipset_release_960_xloader/opensource/component_code/vendor/huawei/extra/build/build_script/kirin_kernel_release/kernel/include/linux/list_bl.h"
	.file 107 "/mnt/disk/jenkins/ci/workspace/chipset_release_960_xloader/opensource/component_code/vendor/huawei/extra/build/build_script/kirin_kernel_release/kernel/include/linux/lockref.h"
	.file 108 "/mnt/disk/jenkins/ci/workspace/chipset_release_960_xloader/opensource/component_code/vendor/huawei/extra/build/build_script/kirin_kernel_release/kernel/include/linux/dcache.h"
	.file 109 "/mnt/disk/jenkins/ci/workspace/chipset_release_960_xloader/opensource/component_code/vendor/huawei/extra/build/build_script/kirin_kernel_release/kernel/include/linux/path.h"
	.file 110 "/mnt/disk/jenkins/ci/workspace/chipset_release_960_xloader/opensource/component_code/vendor/huawei/extra/build/build_script/kirin_kernel_release/kernel/include/linux/shrinker.h"
	.file 111 "/mnt/disk/jenkins/ci/workspace/chipset_release_960_xloader/opensource/component_code/vendor/huawei/extra/build/build_script/kirin_kernel_release/kernel/include/linux/list_lru.h"
	.file 112 "/mnt/disk/jenkins/ci/workspace/chipset_release_960_xloader/opensource/component_code/vendor/huawei/extra/build/build_script/kirin_kernel_release/kernel/include/linux/radix-tree.h"
	.file 113 "/mnt/disk/jenkins/ci/workspace/chipset_release_960_xloader/opensource/component_code/vendor/huawei/extra/build/build_script/kirin_kernel_release/kernel/include/uapi/linux/fiemap.h"
	.file 114 "/mnt/disk/jenkins/ci/workspace/chipset_release_960_xloader/opensource/component_code/vendor/huawei/extra/build/build_script/kirin_kernel_release/kernel/include/linux/migrate_mode.h"
	.file 115 "/mnt/disk/jenkins/ci/workspace/chipset_release_960_xloader/opensource/component_code/vendor/huawei/extra/build/build_script/kirin_kernel_release/kernel/include/linux/bvec.h"
	.file 116 "/mnt/disk/jenkins/ci/workspace/chipset_release_960_xloader/opensource/component_code/vendor/huawei/extra/build/build_script/kirin_kernel_release/kernel/include/linux/delayed_call.h"
	.file 117 "/mnt/disk/jenkins/ci/workspace/chipset_release_960_xloader/opensource/component_code/vendor/huawei/extra/build/build_script/kirin_kernel_release/kernel/include/linux/percpu_counter.h"
	.file 118 "/mnt/disk/jenkins/ci/workspace/chipset_release_960_xloader/opensource/component_code/vendor/huawei/extra/build/build_script/kirin_kernel_release/kernel/include/linux/quota.h"
	.file 119 "/mnt/disk/jenkins/ci/workspace/chipset_release_960_xloader/opensource/component_code/vendor/huawei/extra/build/build_script/kirin_kernel_release/kernel/include/linux/projid.h"
	.file 120 "/mnt/disk/jenkins/ci/workspace/chipset_release_960_xloader/opensource/component_code/vendor/huawei/extra/build/build_script/kirin_kernel_release/kernel/include/linux/writeback.h"
	.file 121 "/mnt/disk/jenkins/ci/workspace/chipset_release_960_xloader/opensource/component_code/vendor/huawei/extra/build/build_script/kirin_kernel_release/kernel/include/linux/uio.h"
	.file 122 "/mnt/disk/jenkins/ci/workspace/chipset_release_960_xloader/opensource/component_code/vendor/huawei/extra/build/build_script/kirin_kernel_release/kernel/include/linux/nfs_fs_i.h"
	.file 123 "/mnt/disk/jenkins/ci/workspace/chipset_release_960_xloader/opensource/component_code/vendor/huawei/extra/build/build_script/kirin_kernel_release/kernel/include/linux/poll.h"
	.file 124 "/mnt/disk/jenkins/ci/workspace/chipset_release_960_xloader/opensource/component_code/vendor/huawei/extra/build/build_script/kirin_kernel_release/kernel/include/linux/pinctrl/devinfo.h"
	.file 125 "/mnt/disk/jenkins/ci/workspace/chipset_release_960_xloader/opensource/component_code/vendor/huawei/extra/build/build_script/kirin_kernel_release/kernel/include/linux/pm.h"
	.file 126 "/mnt/disk/jenkins/ci/workspace/chipset_release_960_xloader/opensource/component_code/vendor/huawei/extra/build/build_script/kirin_kernel_release/kernel/include/linux/device.h"
	.file 127 "/mnt/disk/jenkins/ci/workspace/chipset_release_960_xloader/opensource/component_code/vendor/huawei/extra/build/build_script/kirin_kernel_release/kernel/include/linux/pm_wakeup.h"
	.file 128 "/mnt/disk/jenkins/ci/workspace/chipset_release_960_xloader/opensource/component_code/vendor/huawei/extra/build/build_script/kirin_kernel_release/kernel/arch/arm64/include/asm/device.h"
	.file 129 "/mnt/disk/jenkins/ci/workspace/chipset_release_960_xloader/opensource/component_code/vendor/huawei/extra/build/build_script/kirin_kernel_release/kernel/include/linux/dma-mapping.h"
	.file 130 "/mnt/disk/jenkins/ci/workspace/chipset_release_960_xloader/opensource/component_code/vendor/huawei/extra/build/build_script/kirin_kernel_release/kernel/include/linux/mod_devicetable.h"
	.file 131 "/mnt/disk/jenkins/ci/workspace/chipset_release_960_xloader/opensource/component_code/vendor/huawei/extra/build/build_script/kirin_kernel_release/kernel/include/linux/of.h"
	.file 132 "/mnt/disk/jenkins/ci/workspace/chipset_release_960_xloader/opensource/component_code/vendor/huawei/extra/build/build_script/kirin_kernel_release/kernel/include/linux/fwnode.h"
	.file 133 "/mnt/disk/jenkins/ci/workspace/chipset_release_960_xloader/opensource/component_code/vendor/huawei/extra/build/build_script/kirin_kernel_release/kernel/include/uapi/linux/uio.h"
	.file 134 "/mnt/disk/jenkins/ci/workspace/chipset_release_960_xloader/opensource/component_code/vendor/huawei/extra/build/build_script/kirin_kernel_release/kernel/include/linux/vm_event_item.h"
	.file 135 "/mnt/disk/jenkins/ci/workspace/chipset_release_960_xloader/opensource/component_code/vendor/huawei/extra/build/build_script/kirin_kernel_release/kernel/include/linux/vmstat.h"
	.file 136 "/mnt/disk/jenkins/ci/workspace/chipset_release_960_xloader/opensource/component_code/vendor/huawei/extra/build/build_script/kirin_kernel_release/kernel/include/linux/scatterlist.h"
	.file 137 "/mnt/disk/jenkins/ci/workspace/chipset_release_960_xloader/opensource/component_code/vendor/huawei/extra/build/build_script/kirin_kernel_release/kernel/include/linux/dmaengine.h"
	.file 138 "/mnt/disk/jenkins/ci/workspace/chipset_release_960_xloader/opensource/component_code/vendor/huawei/extra/build/build_script/kirin_kernel_release/kernel/include/linux/dynamic_queue_limits.h"
	.file 139 "/mnt/disk/jenkins/ci/workspace/chipset_release_960_xloader/opensource/component_code/vendor/huawei/extra/build/build_script/kirin_kernel_release/kernel/include/uapi/linux/socket.h"
	.file 140 "/mnt/disk/jenkins/ci/workspace/chipset_release_960_xloader/opensource/component_code/vendor/huawei/extra/build/build_script/kirin_kernel_release/kernel/include/linux/socket.h"
	.file 141 "/mnt/disk/jenkins/ci/workspace/chipset_release_960_xloader/opensource/component_code/vendor/huawei/extra/build/build_script/kirin_kernel_release/kernel/include/uapi/linux/hdlc/ioctl.h"
	.file 142 "/mnt/disk/jenkins/ci/workspace/chipset_release_960_xloader/opensource/component_code/vendor/huawei/extra/build/build_script/kirin_kernel_release/kernel/include/uapi/linux/if.h"
	.file 143 "/mnt/disk/jenkins/ci/workspace/chipset_release_960_xloader/opensource/component_code/vendor/huawei/extra/build/build_script/kirin_kernel_release/kernel/include/linux/stddef.h"
	.file 144 "/mnt/disk/jenkins/ci/workspace/chipset_release_960_xloader/opensource/component_code/vendor/huawei/extra/build/build_script/kirin_kernel_release/kernel/include/uapi/linux/net.h"
	.file 145 "/mnt/disk/jenkins/ci/workspace/chipset_release_960_xloader/opensource/component_code/vendor/huawei/extra/build/build_script/kirin_kernel_release/kernel/include/linux/net.h"
	.file 146 "/mnt/disk/jenkins/ci/workspace/chipset_release_960_xloader/opensource/component_code/vendor/huawei/extra/build/build_script/kirin_kernel_release/kernel/include/net/net_namespace.h"
	.file 147 "/mnt/disk/jenkins/ci/workspace/chipset_release_960_xloader/opensource/component_code/vendor/huawei/extra/build/build_script/kirin_kernel_release/kernel/include/linux/dma-direction.h"
	.file 148 "/mnt/disk/jenkins/ci/workspace/chipset_release_960_xloader/opensource/component_code/vendor/huawei/extra/build/build_script/kirin_kernel_release/kernel/include/linux/netdev_features.h"
	.file 149 "/mnt/disk/jenkins/ci/workspace/chipset_release_960_xloader/opensource/component_code/vendor/huawei/extra/build/build_script/kirin_kernel_release/kernel/include/uapi/linux/in6.h"
	.file 150 "/mnt/disk/jenkins/ci/workspace/chipset_release_960_xloader/opensource/component_code/vendor/huawei/extra/build/build_script/kirin_kernel_release/kernel/include/uapi/linux/if_ether.h"
	.file 151 "/mnt/disk/jenkins/ci/workspace/chipset_release_960_xloader/opensource/component_code/vendor/huawei/extra/build/build_script/kirin_kernel_release/kernel/include/net/flow_dissector.h"
	.file 152 "/mnt/disk/jenkins/ci/workspace/chipset_release_960_xloader/opensource/component_code/vendor/huawei/extra/build/build_script/kirin_kernel_release/kernel/include/net/flow.h"
	.file 153 "/mnt/disk/jenkins/ci/workspace/chipset_release_960_xloader/opensource/component_code/vendor/huawei/extra/build/build_script/kirin_kernel_release/kernel/include/linux/netdevice.h"
	.file 154 "/mnt/disk/jenkins/ci/workspace/chipset_release_960_xloader/opensource/component_code/vendor/huawei/extra/build/build_script/kirin_kernel_release/kernel/include/uapi/linux/ethtool.h"
	.file 155 "/mnt/disk/jenkins/ci/workspace/chipset_release_960_xloader/opensource/component_code/vendor/huawei/extra/build/build_script/kirin_kernel_release/kernel/include/linux/ethtool.h"
	.file 156 "/mnt/disk/jenkins/ci/workspace/chipset_release_960_xloader/opensource/component_code/vendor/huawei/extra/build/build_script/kirin_kernel_release/kernel/include/net/netns/core.h"
	.file 157 "/mnt/disk/jenkins/ci/workspace/chipset_release_960_xloader/opensource/component_code/vendor/huawei/extra/build/build_script/kirin_kernel_release/kernel/include/uapi/linux/snmp.h"
	.file 158 "/mnt/disk/jenkins/ci/workspace/chipset_release_960_xloader/opensource/component_code/vendor/huawei/extra/build/build_script/kirin_kernel_release/kernel/include/linux/u64_stats_sync.h"
	.file 159 "/mnt/disk/jenkins/ci/workspace/chipset_release_960_xloader/opensource/component_code/vendor/huawei/extra/build/build_script/kirin_kernel_release/kernel/include/net/snmp.h"
	.file 160 "/mnt/disk/jenkins/ci/workspace/chipset_release_960_xloader/opensource/component_code/vendor/huawei/extra/build/build_script/kirin_kernel_release/kernel/include/net/netns/mib.h"
	.file 161 "/mnt/disk/jenkins/ci/workspace/chipset_release_960_xloader/opensource/component_code/vendor/huawei/extra/build/build_script/kirin_kernel_release/kernel/include/net/netns/unix.h"
	.file 162 "/mnt/disk/jenkins/ci/workspace/chipset_release_960_xloader/opensource/component_code/vendor/huawei/extra/build/build_script/kirin_kernel_release/kernel/include/net/netns/packet.h"
	.file 163 "/mnt/disk/jenkins/ci/workspace/chipset_release_960_xloader/opensource/component_code/vendor/huawei/extra/build/build_script/kirin_kernel_release/kernel/include/net/inet_frag.h"
	.file 164 "/mnt/disk/jenkins/ci/workspace/chipset_release_960_xloader/opensource/component_code/vendor/huawei/extra/build/build_script/kirin_kernel_release/kernel/include/net/netns/ipv4.h"
	.file 165 "/mnt/disk/jenkins/ci/workspace/chipset_release_960_xloader/opensource/component_code/vendor/huawei/extra/build/build_script/kirin_kernel_release/kernel/include/net/fib_rules.h"
	.file 166 "/mnt/disk/jenkins/ci/workspace/chipset_release_960_xloader/opensource/component_code/vendor/huawei/extra/build/build_script/kirin_kernel_release/kernel/include/net/ip_fib.h"
	.file 167 "/mnt/disk/jenkins/ci/workspace/chipset_release_960_xloader/opensource/component_code/vendor/huawei/extra/build/build_script/kirin_kernel_release/kernel/include/net/inetpeer.h"
	.file 168 "/mnt/disk/jenkins/ci/workspace/chipset_release_960_xloader/opensource/component_code/vendor/huawei/extra/build/build_script/kirin_kernel_release/kernel/include/net/dst_ops.h"
	.file 169 "/mnt/disk/jenkins/ci/workspace/chipset_release_960_xloader/opensource/component_code/vendor/huawei/extra/build/build_script/kirin_kernel_release/kernel/include/net/dst.h"
	.file 170 "/mnt/disk/jenkins/ci/workspace/chipset_release_960_xloader/opensource/component_code/vendor/huawei/extra/build/build_script/kirin_kernel_release/kernel/include/net/neighbour.h"
	.file 171 "/mnt/disk/jenkins/ci/workspace/chipset_release_960_xloader/opensource/component_code/vendor/huawei/extra/build/build_script/kirin_kernel_release/kernel/include/net/netns/ipv6.h"
	.file 172 "/mnt/disk/jenkins/ci/workspace/chipset_release_960_xloader/opensource/component_code/vendor/huawei/extra/build/build_script/kirin_kernel_release/kernel/include/linux/ipv6.h"
	.file 173 "/mnt/disk/jenkins/ci/workspace/chipset_release_960_xloader/opensource/component_code/vendor/huawei/extra/build/build_script/kirin_kernel_release/kernel/include/net/netns/mptcp.h"
	.file 174 "/mnt/disk/jenkins/ci/workspace/chipset_release_960_xloader/opensource/component_code/vendor/huawei/extra/build/build_script/kirin_kernel_release/kernel/include/uapi/linux/in.h"
	.file 175 "/mnt/disk/jenkins/ci/workspace/chipset_release_960_xloader/opensource/component_code/vendor/huawei/extra/build/build_script/kirin_kernel_release/kernel/include/uapi/linux/netfilter.h"
	.file 176 "/mnt/disk/jenkins/ci/workspace/chipset_release_960_xloader/opensource/component_code/vendor/huawei/extra/build/build_script/kirin_kernel_release/kernel/include/net/netns/netfilter.h"
	.file 177 "/mnt/disk/jenkins/ci/workspace/chipset_release_960_xloader/opensource/component_code/vendor/huawei/extra/build/build_script/kirin_kernel_release/kernel/include/linux/netfilter.h"
	.file 178 "/mnt/disk/jenkins/ci/workspace/chipset_release_960_xloader/opensource/component_code/vendor/huawei/extra/build/build_script/kirin_kernel_release/kernel/include/net/netns/x_tables.h"
	.file 179 "/mnt/disk/jenkins/ci/workspace/chipset_release_960_xloader/opensource/component_code/vendor/huawei/extra/build/build_script/kirin_kernel_release/kernel/include/linux/list_nulls.h"
	.file 180 "/mnt/disk/jenkins/ci/workspace/chipset_release_960_xloader/opensource/component_code/vendor/huawei/extra/build/build_script/kirin_kernel_release/kernel/include/uapi/linux/netfilter/nf_conntrack_tcp.h"
	.file 181 "/mnt/disk/jenkins/ci/workspace/chipset_release_960_xloader/opensource/component_code/vendor/huawei/extra/build/build_script/kirin_kernel_release/kernel/include/net/netns/conntrack.h"
	.file 182 "/mnt/disk/jenkins/ci/workspace/chipset_release_960_xloader/opensource/component_code/vendor/huawei/extra/build/build_script/kirin_kernel_release/kernel/include/net/netns/nftables.h"
	.file 183 "/mnt/disk/jenkins/ci/workspace/chipset_release_960_xloader/opensource/component_code/vendor/huawei/extra/build/build_script/kirin_kernel_release/kernel/include/uapi/linux/xfrm.h"
	.file 184 "/mnt/disk/jenkins/ci/workspace/chipset_release_960_xloader/opensource/component_code/vendor/huawei/extra/build/build_script/kirin_kernel_release/kernel/include/linux/interrupt.h"
	.file 185 "/mnt/disk/jenkins/ci/workspace/chipset_release_960_xloader/opensource/component_code/vendor/huawei/extra/build/build_script/kirin_kernel_release/kernel/include/net/flowcache.h"
	.file 186 "/mnt/disk/jenkins/ci/workspace/chipset_release_960_xloader/opensource/component_code/vendor/huawei/extra/build/build_script/kirin_kernel_release/kernel/include/net/netns/xfrm.h"
	.file 187 "/mnt/disk/jenkins/ci/workspace/chipset_release_960_xloader/opensource/component_code/vendor/huawei/extra/build/build_script/kirin_kernel_release/kernel/include/linux/ns_common.h"
	.file 188 "/mnt/disk/jenkins/ci/workspace/chipset_release_960_xloader/opensource/component_code/vendor/huawei/extra/build/build_script/kirin_kernel_release/kernel/include/linux/cgroup.h"
	.file 189 "/mnt/disk/jenkins/ci/workspace/chipset_release_960_xloader/opensource/component_code/vendor/huawei/extra/build/build_script/kirin_kernel_release/kernel/include/linux/mdio.h"
	.file 190 "/mnt/disk/jenkins/ci/workspace/chipset_release_960_xloader/opensource/component_code/vendor/huawei/extra/build/build_script/kirin_kernel_release/kernel/include/linux/phy.h"
	.file 191 "/mnt/disk/jenkins/ci/workspace/chipset_release_960_xloader/opensource/component_code/vendor/huawei/extra/build/build_script/kirin_kernel_release/kernel/include/uapi/linux/netlink.h"
	.file 192 "/mnt/disk/jenkins/ci/workspace/chipset_release_960_xloader/opensource/component_code/vendor/huawei/extra/build/build_script/kirin_kernel_release/kernel/include/uapi/linux/neighbour.h"
	.file 193 "/mnt/disk/jenkins/ci/workspace/chipset_release_960_xloader/opensource/component_code/vendor/huawei/extra/build/build_script/kirin_kernel_release/kernel/include/uapi/linux/if_link.h"
	.file 194 "/mnt/disk/jenkins/ci/workspace/chipset_release_960_xloader/opensource/component_code/vendor/huawei/extra/build/build_script/kirin_kernel_release/kernel/include/linux/if_link.h"
	.file 195 "/mnt/disk/jenkins/ci/workspace/chipset_release_960_xloader/opensource/component_code/vendor/huawei/extra/build/build_script/kirin_kernel_release/kernel/include/uapi/linux/pkt_sched.h"
	.file 196 "/mnt/disk/jenkins/ci/workspace/chipset_release_960_xloader/opensource/component_code/vendor/huawei/extra/build/build_script/kirin_kernel_release/kernel/include/net/sch_generic.h"
	.file 197 "/mnt/disk/jenkins/ci/workspace/chipset_release_960_xloader/opensource/component_code/vendor/huawei/extra/build/build_script/kirin_kernel_release/kernel/include/net/ndisc.h"
	.file 198 "/mnt/disk/jenkins/ci/workspace/chipset_release_960_xloader/opensource/component_code/vendor/huawei/extra/build/build_script/kirin_kernel_release/kernel/include/net/if_inet6.h"
	.file 199 "/mnt/disk/jenkins/ci/workspace/chipset_release_960_xloader/opensource/component_code/vendor/huawei/extra/build/build_script/kirin_kernel_release/kernel/include/net/rtnetlink.h"
	.file 200 "/mnt/disk/jenkins/ci/workspace/chipset_release_960_xloader/opensource/component_code/vendor/huawei/extra/build/build_script/kirin_kernel_release/kernel/include/uapi/linux/netfilter_ipv4.h"
	.file 201 "/mnt/disk/jenkins/ci/workspace/chipset_release_960_xloader/opensource/component_code/vendor/huawei/extra/build/build_script/kirin_kernel_release/kernel/include/uapi/linux/ip.h"
	.file 202 "/mnt/disk/jenkins/ci/workspace/chipset_release_960_xloader/opensource/component_code/vendor/huawei/extra/build/build_script/kirin_kernel_release/kernel/include/linux/flex_proportions.h"
	.file 203 "/mnt/disk/jenkins/ci/workspace/chipset_release_960_xloader/opensource/component_code/vendor/huawei/extra/build/build_script/kirin_kernel_release/kernel/include/uapi/linux/gen_stats.h"
	.file 204 "/mnt/disk/jenkins/ci/workspace/chipset_release_960_xloader/opensource/component_code/vendor/huawei/extra/build/build_script/kirin_kernel_release/kernel/include/uapi/linux/rtnetlink.h"
	.file 205 "/mnt/disk/jenkins/ci/workspace/chipset_release_960_xloader/opensource/component_code/vendor/huawei/extra/build/build_script/kirin_kernel_release/kernel/include/net/gen_stats.h"
	.file 206 "/mnt/disk/jenkins/ci/workspace/chipset_release_960_xloader/opensource/component_code/vendor/huawei/extra/build/build_script/kirin_kernel_release/kernel/include/uapi/linux/filter.h"
	.file 207 "/mnt/disk/jenkins/ci/workspace/chipset_release_960_xloader/opensource/component_code/vendor/huawei/extra/build/build_script/kirin_kernel_release/kernel/include/net/route.h"
	.file 208 "/mnt/disk/jenkins/ci/workspace/chipset_release_960_xloader/opensource/component_code/vendor/huawei/extra/build/build_script/kirin_kernel_release/kernel/include/net/tcp_states.h"
	.file 209 "/mnt/disk/jenkins/ci/workspace/chipset_release_960_xloader/opensource/component_code/vendor/huawei/extra/build/build_script/kirin_kernel_release/kernel/include/huawei_platform/emcom/smartcare/network_measurement/nm_types.h"
	.file 210 "/mnt/disk/jenkins/ci/workspace/chipset_release_960_xloader/opensource/component_code/vendor/huawei/extra/build/build_script/kirin_kernel_release/kernel/include/net/inet_timewait_sock.h"
	.file 211 "/mnt/disk/jenkins/ci/workspace/chipset_release_960_xloader/opensource/component_code/vendor/huawei/extra/build/build_script/kirin_kernel_release/kernel/include/net/request_sock.h"
	.file 212 "/mnt/disk/jenkins/ci/workspace/chipset_release_960_xloader/opensource/component_code/vendor/huawei/extra/build/build_script/kirin_kernel_release/kernel/include/net/timewait_sock.h"
	.file 213 "/mnt/disk/jenkins/ci/workspace/chipset_release_960_xloader/opensource/component_code/vendor/huawei/extra/build/build_script/kirin_kernel_release/kernel/include/uapi/linux/fib_rules.h"
	.file 214 "/mnt/disk/jenkins/ci/workspace/chipset_release_960_xloader/opensource/component_code/vendor/huawei/extra/build/build_script/kirin_kernel_release/kernel/include/uapi/linux/tcp.h"
	.file 215 "/mnt/disk/jenkins/ci/workspace/chipset_release_960_xloader/opensource/component_code/vendor/huawei/extra/build/build_script/kirin_kernel_release/kernel/include/huawei_platform/log/hw_log.h"
	.file 216 "/mnt/disk/jenkins/ci/workspace/chipset_release_960_xloader/opensource/component_code/vendor/huawei/extra/build/build_script/kirin_kernel_release/kernel/drivers/huawei_platform/net/hw_netfilter/nf_app_dl_monitor.h"
	.file 217 "/mnt/disk/jenkins/ci/workspace/chipset_release_960_xloader/opensource/component_code/vendor/huawei/extra/build/build_script/kirin_kernel_release/kernel/drivers/huawei_platform/net/hw_netfilter/nf_ad_filter.h"
	.file 218 "/mnt/disk/jenkins/ci/workspace/chipset_release_960_xloader/opensource/component_code/vendor/huawei/extra/build/build_script/kirin_kernel_release/kernel/include/linux/ip.h"
	.file 219 "/mnt/disk/jenkins/ci/workspace/chipset_release_960_xloader/opensource/component_code/vendor/huawei/extra/build/build_script/kirin_kernel_release/kernel/include/asm-generic/preempt.h"
	.file 220 "/mnt/disk/jenkins/ci/workspace/chipset_release_960_xloader/opensource/component_code/vendor/huawei/extra/build/build_script/kirin_kernel_release/kernel/include/linux/tcp.h"
	.file 221 "/mnt/disk/jenkins/ci/workspace/chipset_release_960_xloader/opensource/component_code/vendor/huawei/extra/build/build_script/kirin_kernel_release/kernel/include/huawei_platform/emcom/argo/tcp_argo.h"
	.file 222 "/mnt/disk/jenkins/ci/workspace/chipset_release_960_xloader/opensource/component_code/vendor/huawei/extra/build/build_script/kirin_kernel_release/kernel/arch/arm64/include/asm/cachetype.h"
	.file 223 "/mnt/disk/jenkins/ci/workspace/chipset_release_960_xloader/opensource/component_code/vendor/huawei/extra/build/build_script/kirin_kernel_release/kernel/include/linux/printk.h"
	.file 224 "/mnt/disk/jenkins/ci/workspace/chipset_release_960_xloader/opensource/component_code/vendor/huawei/extra/build/build_script/kirin_kernel_release/kernel/include/linux/kernel.h"
	.file 225 "/mnt/disk/jenkins/ci/workspace/chipset_release_960_xloader/opensource/component_code/vendor/huawei/extra/build/build_script/kirin_kernel_release/kernel/arch/arm64/include/asm/stack_pointer.h"
	.file 226 "/mnt/disk/jenkins/ci/workspace/chipset_release_960_xloader/opensource/component_code/vendor/huawei/extra/build/build_script/kirin_kernel_release/kernel/arch/arm64/include/asm/hwcap.h"
	.file 227 "/mnt/disk/jenkins/ci/workspace/chipset_release_960_xloader/opensource/component_code/vendor/huawei/extra/build/build_script/kirin_kernel_release/kernel/arch/arm64/include/asm/cpufeature.h"
	.file 228 "/mnt/disk/jenkins/ci/workspace/chipset_release_960_xloader/opensource/component_code/vendor/huawei/extra/build/build_script/kirin_kernel_release/kernel/arch/arm64/include/asm/virt.h"
	.file 229 "/mnt/disk/jenkins/ci/workspace/chipset_release_960_xloader/opensource/component_code/vendor/huawei/extra/build/build_script/kirin_kernel_release/kernel/include/linux/jiffies.h"
	.file 230 "/mnt/disk/jenkins/ci/workspace/chipset_release_960_xloader/opensource/component_code/vendor/huawei/extra/build/build_script/kirin_kernel_release/kernel/include/linux/highuid.h"
	.file 231 "/mnt/disk/jenkins/ci/workspace/chipset_release_960_xloader/opensource/component_code/vendor/huawei/extra/build/build_script/kirin_kernel_release/kernel/arch/arm64/include/asm/memory.h"
	.file 232 "/mnt/disk/jenkins/ci/workspace/chipset_release_960_xloader/opensource/component_code/vendor/huawei/extra/build/build_script/kirin_kernel_release/kernel/include/asm-generic/percpu.h"
	.file 233 "/mnt/disk/jenkins/ci/workspace/chipset_release_960_xloader/opensource/component_code/vendor/huawei/extra/build/build_script/kirin_kernel_release/kernel/include/asm-generic/pgtable.h"
	.file 234 "/mnt/disk/jenkins/ci/workspace/chipset_release_960_xloader/opensource/component_code/vendor/huawei/extra/build/build_script/kirin_kernel_release/kernel/include/linux/debug_locks.h"
	.file 235 "/mnt/disk/jenkins/ci/workspace/chipset_release_960_xloader/opensource/component_code/vendor/huawei/extra/build/build_script/kirin_kernel_release/kernel/include/linux/slab.h"
	.file 236 "/mnt/disk/jenkins/ci/workspace/chipset_release_960_xloader/opensource/component_code/vendor/huawei/extra/build/build_script/kirin_kernel_release/kernel/arch/arm64/include/../../arm/include/asm/xen/hypervisor.h"
	.file 237 "/mnt/disk/jenkins/ci/workspace/chipset_release_960_xloader/opensource/component_code/vendor/huawei/extra/build/build_script/kirin_kernel_release/kernel/arch/arm64/include/asm/dma-mapping.h"
	.file 238 "/mnt/disk/jenkins/ci/workspace/chipset_release_960_xloader/opensource/component_code/vendor/huawei/extra/build/build_script/kirin_kernel_release/kernel/arch/arm64/include/asm/irq.h"
	.file 239 "/mnt/disk/jenkins/ci/workspace/chipset_release_960_xloader/opensource/component_code/vendor/huawei/extra/build/build_script/kirin_kernel_release/kernel/arch/arm64/include/asm/hardirq.h"
	.file 240 "/mnt/disk/jenkins/ci/workspace/chipset_release_960_xloader/opensource/component_code/vendor/huawei/extra/build/build_script/kirin_kernel_release/kernel/include/net/inet_connection_sock.h"
	.file 241 "/mnt/disk/jenkins/ci/workspace/chipset_release_960_xloader/opensource/component_code/vendor/huawei/extra/build/build_script/kirin_kernel_release/kernel/include/linux/ctype.h"
	.file 242 "/mnt/disk/jenkins/ci/workspace/chipset_release_960_xloader/opensource/component_code/vendor/huawei/extra/build/build_script/kirin_kernel_release/kernel/include/linux/spinlock_api_smp.h"
	.file 243 "/mnt/disk/jenkins/ci/workspace/chipset_release_960_xloader/opensource/component_code/vendor/huawei/extra/build/build_script/kirin_kernel_release/kernel/arch/arm64/include/asm/string.h"
	.file 244 "/mnt/disk/jenkins/ci/workspace/chipset_release_960_xloader/opensource/component_code/vendor/huawei/extra/build/build_script/kirin_kernel_release/kernel/drivers/huawei_platform/net/hw_netfilter/nf_hw_common.h"
	.section	.note.GNU-stack,"",%progbits
