	.cpu generic+fp+simd
	.file	"linux_kernel_osal.c"
	.text
.Ltext0:
	.cfi_sections	.debug_frame
	.align	2
	.global	OSAL_RegisterMap
	.type	OSAL_RegisterMap, %function
OSAL_RegisterMap:
.LFB2646:
	.file 1 "/mnt/disk/jenkins/ci/workspace/chipset_release_960_xloader/opensource/component_code/vendor/huawei/extra/build/build_script/kirin_kernel_release/kernel/drivers/vcodec/hi_vcodec/vdec/vfmw/vfmw_v4.0/firmware/osal/linux_kernel/linux_kernel_osal.c"
	.loc 1 168 0
	.cfi_startproc
.LVL0:
	stp	x29, x30, [sp, -16]!
	.cfi_def_cfa_offset 16
	.cfi_offset 29, -16
	.cfi_offset 30, -8
	.loc 1 169 0 discriminator 4
	mov	x2, 1799
	.loc 1 169 0 is_stmt 0 discriminator 5
	uxtw	x1, w1
.LVL1:
	.loc 1 168 0 is_stmt 1
	add	x29, sp, 0
	.cfi_def_cfa_register 29
	.loc 1 169 0 discriminator 4
	movk	x2, 0xe8, lsl 48
	.loc 1 169 0 is_stmt 0 discriminator 5
	uxtw	x0, w0
.LVL2:
	.loc 1 168 0 is_stmt 1
	.loc 1 169 0 discriminator 5
	bl	__ioremap
.LVL3:
	.loc 1 170 0
	ldp	x29, x30, [sp], 16
	.cfi_restore 30
	.cfi_restore 29
	.cfi_def_cfa 31, 0
	ret
	.cfi_endproc
.LFE2646:
	.size	OSAL_RegisterMap, .-OSAL_RegisterMap
	.align	2
	.global	OSAL_RegisterUnMap
	.type	OSAL_RegisterUnMap, %function
OSAL_RegisterUnMap:
.LFB2647:
	.loc 1 176 0
	.cfi_startproc
.LVL4:
	stp	x29, x30, [sp, -16]!
	.cfi_def_cfa_offset 16
	.cfi_offset 29, -16
	.cfi_offset 30, -8
	add	x29, sp, 0
	.cfi_def_cfa_register 29
	.loc 1 177 0
	bl	__iounmap
.LVL5:
	.loc 1 179 0
	ldp	x29, x30, [sp], 16
	.cfi_restore 30
	.cfi_restore 29
	.cfi_def_cfa 31, 0
	ret
	.cfi_endproc
.LFE2647:
	.size	OSAL_RegisterUnMap, .-OSAL_RegisterUnMap
	.align	2
	.global	OSAL_Mb
	.type	OSAL_Mb, %function
OSAL_Mb:
.LFB2658:
	.loc 1 325 0
	.cfi_startproc
	.loc 1 326 0
#APP
// 326 "/mnt/disk/jenkins/ci/workspace/chipset_release_960_xloader/opensource/component_code/vendor/huawei/extra/build/build_script/kirin_kernel_release/kernel/drivers/vcodec/hi_vcodec/vdec/vfmw/vfmw_v4.0/firmware/osal/linux_kernel/linux_kernel_osal.c" 1
	dsb sy
// 0 "" 2
	.loc 1 327 0
#NO_APP
	ret
	.cfi_endproc
.LFE2658:
	.size	OSAL_Mb, .-OSAL_Mb
	.align	2
	.global	OSAL_uDelay
	.type	OSAL_uDelay, %function
OSAL_uDelay:
.LFB2659:
	.loc 1 333 0
	.cfi_startproc
.LVL6:
	stp	x29, x30, [sp, -16]!
	.cfi_def_cfa_offset 16
	.cfi_offset 29, -16
	.cfi_offset 30, -8
	add	x29, sp, 0
	.cfi_def_cfa_register 29
	.loc 1 334 0 discriminator 7
	bl	__udelay
.LVL7:
	.loc 1 335 0
	ldp	x29, x30, [sp], 16
	.cfi_restore 30
	.cfi_restore 29
	.cfi_def_cfa 31, 0
	ret
	.cfi_endproc
.LFE2659:
	.size	OSAL_uDelay, .-OSAL_uDelay
	.align	2
	.global	OSAL_mSleep
	.type	OSAL_mSleep, %function
OSAL_mSleep:
.LFB2660:
	.loc 1 341 0
	.cfi_startproc
.LVL8:
	stp	x29, x30, [sp, -16]!
	.cfi_def_cfa_offset 16
	.cfi_offset 29, -16
	.cfi_offset 30, -8
	add	x29, sp, 0
	.cfi_def_cfa_register 29
	.loc 1 342 0
	bl	msleep
.LVL9:
	.loc 1 343 0
	ldp	x29, x30, [sp], 16
	.cfi_restore 30
	.cfi_restore 29
	.cfi_def_cfa 31, 0
	ret
	.cfi_endproc
.LFE2660:
	.size	OSAL_mSleep, .-OSAL_mSleep
	.align	2
	.global	OSAL_RequestIrq
	.type	OSAL_RequestIrq, %function
OSAL_RequestIrq:
.LFB2661:
	.loc 1 349 0
	.cfi_startproc
.LVL10:
	stp	x29, x30, [sp, -16]!
	.cfi_def_cfa_offset 16
	.cfi_offset 29, -16
	.cfi_offset 30, -8
	mov	x7, x2
	mov	x6, x3
	add	x29, sp, 0
	.cfi_def_cfa_register 29
	mov	x5, x4
.LBB108:
.LBB109:
	.file 2 "/mnt/disk/jenkins/ci/workspace/chipset_release_960_xloader/opensource/component_code/vendor/huawei/extra/build/build_script/kirin_kernel_release/kernel/include/linux/interrupt.h"
	.loc 2 148 0
	mov	x2, 0
.LVL11:
	mov	x3, x7
.LVL12:
	mov	x4, x6
.LVL13:
.LBE109:
.LBE108:
	.loc 1 349 0
.LBB111:
.LBB110:
	.loc 2 148 0
	bl	request_threaded_irq
.LVL14:
.LBE110:
.LBE111:
	.loc 1 351 0
	ldp	x29, x30, [sp], 16
	.cfi_restore 30
	.cfi_restore 29
	.cfi_def_cfa 31, 0
	ret
	.cfi_endproc
.LFE2661:
	.size	OSAL_RequestIrq, .-OSAL_RequestIrq
	.align	2
	.global	OSAL_FreeIrq
	.type	OSAL_FreeIrq, %function
OSAL_FreeIrq:
.LFB2662:
	.loc 1 357 0
	.cfi_startproc
.LVL15:
	stp	x29, x30, [sp, -16]!
	.cfi_def_cfa_offset 16
	.cfi_offset 29, -16
	.cfi_offset 30, -8
	add	x29, sp, 0
	.cfi_def_cfa_register 29
	.loc 1 358 0
	bl	free_irq
.LVL16:
	.loc 1 359 0
	ldp	x29, x30, [sp], 16
	.cfi_restore 30
	.cfi_restore 29
	.cfi_def_cfa 31, 0
	ret
	.cfi_endproc
.LFE2662:
	.size	OSAL_FreeIrq, .-OSAL_FreeIrq
	.align	2
	.global	OSAL_AllocVirMem
	.type	OSAL_AllocVirMem, %function
OSAL_AllocVirMem:
.LFB2663:
	.loc 1 365 0
	.cfi_startproc
.LVL17:
	stp	x29, x30, [sp, -16]!
	.cfi_def_cfa_offset 16
	.cfi_offset 29, -16
	.cfi_offset 30, -8
	.loc 1 366 0
	sxtw	x0, w0
.LVL18:
	.loc 1 365 0
	add	x29, sp, 0
	.cfi_def_cfa_register 29
	.loc 1 366 0
	bl	vmalloc
.LVL19:
	.loc 1 367 0
	ldp	x29, x30, [sp], 16
	.cfi_restore 30
	.cfi_restore 29
	.cfi_def_cfa 31, 0
	ret
	.cfi_endproc
.LFE2663:
	.size	OSAL_AllocVirMem, .-OSAL_AllocVirMem
	.align	2
	.global	OSAL_FreeVirMem
	.type	OSAL_FreeVirMem, %function
OSAL_FreeVirMem:
.LFB2664:
	.loc 1 373 0
	.cfi_startproc
.LVL20:
	stp	x29, x30, [sp, -16]!
	.cfi_def_cfa_offset 16
	.cfi_offset 29, -16
	.cfi_offset 30, -8
	add	x29, sp, 0
	.cfi_def_cfa_register 29
	.loc 1 374 0
	cbz	x0, .L9
	.loc 1 376 0
	bl	vfree
.LVL21:
.L9:
	.loc 1 378 0
	ldp	x29, x30, [sp], 16
	.cfi_restore 30
	.cfi_restore 29
	.cfi_def_cfa 31, 0
	ret
	.cfi_endproc
.LFE2664:
	.size	OSAL_FreeVirMem, .-OSAL_FreeVirMem
	.align	2
	.global	OSAL_Mmap
	.type	OSAL_Mmap, %function
OSAL_Mmap:
.LFB2667:
	.loc 1 439 0
	.cfi_startproc
.LVL22:
	.loc 1 442 0
	mov	x0, 0
.LVL23:
	ret
	.cfi_endproc
.LFE2667:
	.size	OSAL_Mmap, .-OSAL_Mmap
	.align	2
	.global	OSAL_MmapCache
	.type	OSAL_MmapCache, %function
OSAL_MmapCache:
.LFB2668:
	.loc 1 448 0
	.cfi_startproc
.LVL24:
	.loc 1 451 0
	mov	x0, 0
.LVL25:
	ret
	.cfi_endproc
.LFE2668:
	.size	OSAL_MmapCache, .-OSAL_MmapCache
	.align	2
	.global	OSAL_Munmap
	.type	OSAL_Munmap, %function
OSAL_Munmap:
.LFB2669:
	.loc 1 457 0
	.cfi_startproc
.LVL26:
	.loc 1 460 0
	ret
	.cfi_endproc
.LFE2669:
	.size	OSAL_Munmap, .-OSAL_Munmap
	.align	2
	.global	OSAL_GetTimeInMs
	.type	OSAL_GetTimeInMs, %function
OSAL_GetTimeInMs:
.LFB2638:
	.loc 1 76 0
	.cfi_startproc
	stp	x29, x30, [sp, -16]!
	.cfi_def_cfa_offset 16
	.cfi_offset 29, -16
	.cfi_offset 30, -8
	add	x29, sp, 0
	.cfi_def_cfa_register 29
	.loc 1 79 0
	bl	sched_clock
.LVL27:
.LBB112:
	.loc 1 80 0
	mov	x1, 13531
	movk	x1, 0xd7b6, lsl 16
	movk	x1, 0xde82, lsl 32
	movk	x1, 0x431b, lsl 48
.LBE112:
	.loc 1 83 0
	ldp	x29, x30, [sp], 16
	.cfi_restore 30
	.cfi_restore 29
	.cfi_def_cfa 31, 0
.LBB113:
	.loc 1 80 0
	umulh	x0, x0, x1
.LBE113:
	.loc 1 83 0
	lsr	x0, x0, 18
	ret
	.cfi_endproc
.LFE2638:
	.size	OSAL_GetTimeInMs, .-OSAL_GetTimeInMs
	.align	2
	.global	OSAL_GetTimeInUs
	.type	OSAL_GetTimeInUs, %function
OSAL_GetTimeInUs:
.LFB2639:
	.loc 1 86 0
	.cfi_startproc
	stp	x29, x30, [sp, -16]!
	.cfi_def_cfa_offset 16
	.cfi_offset 29, -16
	.cfi_offset 30, -8
	add	x29, sp, 0
	.cfi_def_cfa_register 29
	.loc 1 89 0
	bl	sched_clock
.LVL28:
.LBB114:
	.loc 1 90 0
	lsr	x0, x0, 3
	mov	x1, 63439
	movk	x1, 0xe353, lsl 16
	movk	x1, 0x9ba5, lsl 32
	movk	x1, 0x20c4, lsl 48
.LBE114:
	.loc 1 93 0
	ldp	x29, x30, [sp], 16
	.cfi_restore 30
	.cfi_restore 29
	.cfi_def_cfa 31, 0
.LBB115:
	.loc 1 90 0
	umulh	x0, x0, x1
.LBE115:
	.loc 1 93 0
	lsr	x0, x0, 4
	ret
	.cfi_endproc
.LFE2639:
	.size	OSAL_GetTimeInUs, .-OSAL_GetTimeInUs
	.align	2
	.global	OSAL_InitWaitQue
	.type	OSAL_InitWaitQue, %function
OSAL_InitWaitQue:
.LFB2678:
	.loc 1 597 0
	.cfi_startproc
.LVL29:
	stp	x29, x30, [sp, -16]!
	.cfi_def_cfa_offset 16
	.cfi_offset 29, -16
	.cfi_offset 30, -8
	add	x29, sp, 0
	.cfi_def_cfa_register 29
	.loc 1 600 0
	cbnz	w0, .L24
.LBB116:
.LBB117:
	.loc 1 133 0
	adrp	x3, .LANCHOR0
	mov	w4, w1
	add	x3, x3, :lo12:.LANCHOR0
.LBB118:
	.loc 1 134 0
	adrp	x1, .LC0
.LVL30:
	mov	x0, x3
.LVL31:
	add	x1, x1, :lo12:.LC0
	add	x2, x3, 48
.LBE118:
	.loc 1 133 0
	str	w4, [x3,40]
.LBB119:
	.loc 1 134 0
	bl	__init_waitqueue_head
.LVL32:
.LBE119:
.LBE117:
.LBE116:
	.loc 1 603 0
	mov	w0, 0
.LVL33:
.L21:
.LVL34:
	.loc 1 611 0
	ldp	x29, x30, [sp], 16
	.cfi_remember_state
	.cfi_restore 30
	.cfi_restore 29
	.cfi_def_cfa 31, 0
	ret
.LVL35:
.L24:
	.cfi_restore_state
	.loc 1 598 0
	mov	w0, -1
.LVL36:
	b	.L21
	.cfi_endproc
.LFE2678:
	.size	OSAL_InitWaitQue, .-OSAL_InitWaitQue
	.align	2
	.global	OSAL_WaitWaitQue
	.type	OSAL_WaitWaitQue, %function
OSAL_WaitWaitQue:
.LFB2680:
	.loc 1 637 0
	.cfi_startproc
.LVL37:
	stp	x29, x30, [sp, -112]!
	.cfi_def_cfa_offset 112
	.cfi_offset 29, -112
	.cfi_offset 30, -104
	add	x29, sp, 0
	.cfi_def_cfa_register 29
	stp	x21, x22, [sp,32]
	.cfi_offset 21, -80
	.cfi_offset 22, -72
	adrp	x22, __stack_chk_guard
	stp	x19, x20, [sp,16]
	.cfi_offset 19, -96
	.cfi_offset 20, -88
	.loc 1 637 0
	ldr	x2, [x22,#:lo12:__stack_chk_guard]
	str	x2, [x29,104]
	.loc 1 640 0
	cbnz	w0, .L47
.LBB120:
.LBB121:
.LBB122:
.LBB123:
.LBB124:
	.file 3 "/mnt/disk/jenkins/ci/workspace/chipset_release_960_xloader/opensource/component_code/vendor/huawei/extra/build/build_script/kirin_kernel_release/kernel/include/linux/jiffies.h"
	.loc 3 364 0
	mov	w0, w1
.LVL38:
	str	x1, [x29,56]
.LBE124:
.LBE123:
.LBB126:
	.loc 1 157 0
	adrp	x21, .LANCHOR0
.LBE126:
.LBB127:
.LBB125:
	.loc 3 364 0
	bl	__msecs_to_jiffies
.LVL39:
.LBE125:
.LBE127:
.LBB128:
	.loc 1 157 0
	add	x4, x21, :lo12:.LANCHOR0
	ldr	x1, [x29,56]
.LVL40:
	ldr	w2, [x4,40]
	cmp	w2, wzr
	cset	w2, ne
.LVL41:
	cmp	x0, xzr
	cset	w3, eq
	cbz	w3, .L39
	cbz	w2, .L39
.LBE128:
.LBE122:
	.loc 1 159 0
	str	wzr, [x4,40]
	.loc 1 161 0 discriminator 2
	mov	w0, -1
.LVL42:
	b	.L26
.LVL43:
.L39:
.LBB138:
.LBB129:
	.loc 1 157 0 discriminator 3
	orr	w2, w3, w2
.LVL44:
.LBE129:
	cbnz	w2, .L30
.LBB130:
.LBB131:
.LBB132:
	.loc 3 364 0
	mov	w0, w1
.LBE132:
.LBE131:
.LBB134:
	.loc 1 157 0 discriminator 19
	add	x20, x21, :lo12:.LANCHOR0
.LBE134:
.LBB136:
.LBB133:
	.loc 3 364 0
	bl	__msecs_to_jiffies
.LVL45:
	mov	x19, x0
.LBE133:
.LBE136:
	.loc 1 157 0 discriminator 7
	mov	w1, 0
	add	x0, x29, 64
	bl	init_wait_entry
.LVL46:
.L35:
.LBB137:
	.loc 1 157 0 is_stmt 0 discriminator 19
	add	x1, x29, 64
	mov	x0, x20
	mov	w2, 1
	bl	prepare_to_wait_event
.LVL47:
.LBB135:
	ldr	w1, [x20,40]
	cmp	w1, wzr
	cset	w1, ne
.LVL48:
	cbnz	x19, .L40
	cbz	w1, .L33
	.loc 1 157 0 discriminator 10
	mov	x19, 1
.L40:
.LBE135:
	.loc 1 157 0 discriminator 12
	cbnz	w1, .L33
	.loc 1 157 0 discriminator 14
	cbnz	x0, .L30
	.loc 1 157 0 discriminator 18
	mov	x0, x19
	bl	schedule_timeout
.LVL49:
	mov	x19, x0
	b	.L35
.LVL50:
.L33:
.LBE137:
	.loc 1 157 0 discriminator 20
	add	x0, x21, :lo12:.LANCHOR0
	add	x1, x29, 64
.LVL51:
	bl	finish_wait
.LVL52:
	mov	x0, x19
.L34:
.LVL53:
.L30:
.LBE130:
.LBE138:
	.loc 1 159 0 is_stmt 1
	add	x21, x21, :lo12:.LANCHOR0
	.loc 1 161 0
	cmp	w0, wzr
	csetm	w0, ne
.LVL54:
	.loc 1 159 0
	str	wzr, [x21,40]
.LVL55:
.L26:
.LBE121:
.LBE120:
	.loc 1 650 0
	ldr	x2, [x29,104]
.LVL56:
	ldr	x1, [x22,#:lo12:__stack_chk_guard]
.LVL57:
	cmp	x2, x1
	bne	.L49
	ldp	x19, x20, [sp,16]
	.cfi_remember_state
	.cfi_restore 20
	.cfi_restore 19
.LVL58:
	ldp	x21, x22, [sp,32]
	.cfi_restore 22
	.cfi_restore 21
	ldp	x29, x30, [sp], 112
	.cfi_restore 30
	.cfi_restore 29
	.cfi_def_cfa 31, 0
	ret
.LVL59:
.L47:
	.cfi_restore_state
	.loc 1 638 0
	mov	w0, -1
.LVL60:
	b	.L26
.LVL61:
.L49:
	.loc 1 650 0
	bl	__stack_chk_fail
.LVL62:
	.cfi_endproc
.LFE2680:
	.size	OSAL_WaitWaitQue, .-OSAL_WaitWaitQue
	.align	2
	.global	OSAL_MemMalloc
	.type	OSAL_MemMalloc, %function
OSAL_MemMalloc:
.LFB2665:
	.loc 1 384 0
	.cfi_startproc
.LVL63:
	stp	x29, x30, [sp, -80]!
	.cfi_def_cfa_offset 80
	.cfi_offset 29, -80
	.cfi_offset 30, -72
	add	x29, sp, 0
	.cfi_def_cfa_register 29
	stp	x19, x20, [sp,16]
	.cfi_offset 19, -64
	.cfi_offset 20, -56
	adrp	x20, __stack_chk_guard
	mov	x19, x4
	stp	x21, x22, [sp,32]
	.cfi_offset 21, -48
	.cfi_offset 22, -40
	.loc 1 384 0
	mov	x21, x0
	mov	w22, w1
	ldr	x4, [x20,#:lo12:__stack_chk_guard]
.LVL64:
	str	x4, [x29,72]
	.loc 1 388 0
	adrp	x4, g_pfnMemMalloc
	ldr	x5, [x4,#:lo12:g_pfnMemMalloc]
	.loc 1 388 0 is_stmt 0 discriminator 1
	cbz	x19, .L56
	cbz	x5, .L56
	.loc 1 394 0 is_stmt 1
	stp	xzr, xzr, [x29,48]
	.loc 1 395 0
	ldr	w7, [x19,4]
	.loc 1 398 0
	add	x4, x29, 48
	.loc 1 396 0
	ldrb	w6, [x19]
	.loc 1 394 0
	str	xzr, [x29,64]
	.loc 1 395 0
	str	w7, [x29,52]
	.loc 1 396 0
	strb	w6, [x29,48]
	.loc 1 398 0
	blr	x5
.LVL65:
	.loc 1 399 0
	cbnz	w0, .L57
	.loc 1 406 0
	ldr	w1, [x29,56]
	.loc 1 409 0
	mov	w0, 0
	.loc 1 406 0
	str	w1, [x19,8]
	.loc 1 407 0
	ldr	x1, [x29,64]
	str	x1, [x19,16]
	.loc 1 408 0
	ldr	w1, [x29,60]
	str	w1, [x19,12]
.L53:
	.loc 1 411 0
	ldr	x2, [x29,72]
	ldr	x1, [x20,#:lo12:__stack_chk_guard]
	cmp	x2, x1
	bne	.L58
	ldp	x19, x20, [sp,16]
	.cfi_remember_state
	.cfi_restore 20
	.cfi_restore 19
.LVL66:
	ldp	x21, x22, [sp,32]
	.cfi_restore 22
	.cfi_restore 21
.LVL67:
	ldp	x29, x30, [sp], 80
	.cfi_restore 30
	.cfi_restore 29
	.cfi_def_cfa 31, 0
	ret
.LVL68:
.L56:
	.cfi_restore_state
	.loc 1 390 0
	adrp	x1, .LC1
	mov	w0, 0
	add	x1, x1, :lo12:.LC1
	mov	x2, x21
.LVL69:
	mov	x3, x5
.LVL70:
	mov	x4, x19
	bl	dprint_linux_kernel
.LVL71:
	.loc 1 391 0
	mov	w0, -1
	b	.L53
.L57:
	.loc 1 401 0
	adrp	x1, .LC2
	mov	w0, 0
	add	x1, x1, :lo12:.LC2
	mov	x2, x21
	mov	w3, w22
	bl	dprint_linux_kernel
.LVL72:
	.loc 1 402 0
	mov	w0, -1
	b	.L53
.L58:
	.loc 1 411 0
	bl	__stack_chk_fail
.LVL73:
	.cfi_endproc
.LFE2665:
	.size	OSAL_MemMalloc, .-OSAL_MemMalloc
	.align	2
	.global	OSAL_MemFree
	.type	OSAL_MemFree, %function
OSAL_MemFree:
.LFB2666:
	.loc 1 417 0
	.cfi_startproc
.LVL74:
	.loc 1 418 0
	adrp	x1, g_pfnMemFree
	.loc 1 417 0
	stp	x29, x30, [sp, -16]!
	.cfi_def_cfa_offset 16
	.cfi_offset 29, -16
	.cfi_offset 30, -8
	add	x29, sp, 0
	.cfi_def_cfa_register 29
	.loc 1 418 0
	ldr	x1, [x1,#:lo12:g_pfnMemFree]
	cbz	x1, .L63
	.loc 1 424 0
	cbz	x0, .L64
	.loc 1 430 0
	blr	x1
.LVL75:
	.loc 1 432 0
	mov	w0, 0
.L61:
	.loc 1 433 0
	ldp	x29, x30, [sp], 16
	.cfi_remember_state
	.cfi_restore 30
	.cfi_restore 29
	.cfi_def_cfa 31, 0
	ret
.LVL76:
.L64:
	.cfi_restore_state
	.loc 1 426 0
	ldr	w2, [x0,8]
	adrp	x1, .LC4
	mov	w0, 0
.LVL77:
	add	x1, x1, :lo12:.LC4
	bl	dprint_linux_kernel
.LVL78:
	.loc 1 427 0
	mov	w0, -1
	b	.L61
.LVL79:
.L63:
.LBB141:
.LBB142:
	.loc 1 420 0
	ldr	w2, [x0,8]
	adrp	x1, .LC3
	mov	w0, 0
.LVL80:
	add	x1, x1, :lo12:.LC3
	bl	dprint_linux_kernel
.LVL81:
	mov	w0, -1
	b	.L61
.LBE142:
.LBE141:
	.cfi_endproc
.LFE2666:
	.size	OSAL_MemFree, .-OSAL_MemFree
	.align	2
	.global	OSAL_WakeupWaitQue
	.type	OSAL_WakeupWaitQue, %function
OSAL_WakeupWaitQue:
.LFB2679:
	.loc 1 617 0
	.cfi_startproc
.LVL82:
	stp	x29, x30, [sp, -16]!
	.cfi_def_cfa_offset 16
	.cfi_offset 29, -16
	.cfi_offset 30, -8
	add	x29, sp, 0
	.cfi_def_cfa_register 29
	.loc 1 620 0
	cbnz	w0, .L66
.LBB147:
.LBB148:
.LBB149:
.LBB150:
	.loc 1 143 0
	adrp	x4, .LANCHOR0
	mov	w5, 1
	add	x4, x4, :lo12:.LANCHOR0
	.loc 1 144 0
	mov	w1, w5
	mov	x0, x4
.LVL83:
	mov	w2, w5
	mov	x3, 0
	.loc 1 143 0
	str	w5, [x4,40]
	.loc 1 144 0
	bl	__wake_up
.LVL84:
.L66:
.LBE150:
.LBE149:
.LBE148:
.LBE147:
	.loc 1 631 0
	mov	w0, -1
.LVL85:
	ldp	x29, x30, [sp], 16
	.cfi_restore 30
	.cfi_restore 29
	.cfi_def_cfa 31, 0
	ret
	.cfi_endproc
.LFE2679:
	.size	OSAL_WakeupWaitQue, .-OSAL_WakeupWaitQue
	.align	2
	.global	OSAL_SemInit
	.type	OSAL_SemInit, %function
OSAL_SemInit:
.LFB2675:
	.loc 1 561 0
	.cfi_startproc
.LVL86:
	stp	x29, x30, [sp, -16]!
	.cfi_def_cfa_offset 16
	.cfi_offset 29, -16
	.cfi_offset 30, -8
	add	x29, sp, 0
	.cfi_def_cfa_register 29
.LBB158:
.LBB159:
	.loc 1 543 0
	cbnz	w0, .L72
	.loc 1 546 0
	adrp	x0, .LANCHOR0
.LVL87:
	add	x0, x0, :lo12:.LANCHOR0
	add	x0, x0, 48
.LVL88:
.L70:
.LBE159:
.LBE158:
.LBB163:
.LBB164:
.LBB165:
	.file 4 "/mnt/disk/jenkins/ci/workspace/chipset_release_960_xloader/opensource/component_code/vendor/huawei/extra/build/build_script/kirin_kernel_release/kernel/include/linux/semaphore.h"
	.loc 4 35 0
	mov	w2, 20141
	add	x1, x0, 32
	movk	w2, 0xdead, lsl 16
	str	w2, [x0,4]
	mov	w2, -1
	str	w2, [x0,8]
	mov	x2, -1
	strh	wzr, [x0]
	str	x2, [x0,16]
	mov	w2, 1
	strh	wzr, [x0,2]
	str	w2, [x0,24]
	str	x1, [x0,32]
	str	x1, [x0,40]
.LBE165:
.LBE164:
.LBE163:
	.loc 1 567 0
	ldp	x29, x30, [sp], 16
	.cfi_remember_state
	.cfi_restore 30
	.cfi_restore 29
	.cfi_def_cfa 31, 0
	ret
.LVL89:
.L72:
	.cfi_restore_state
.LBB166:
.LBB162:
.LBB160:
.LBB161:
	.loc 1 550 0
	adrp	x1, .LC5
	adrp	x2, .LANCHOR1
	mov	w3, w0
	add	x1, x1, :lo12:.LC5
	mov	w0, 1
.LVL90:
	add	x2, x2, :lo12:.LANCHOR1
	bl	dprint_linux_kernel
.LVL91:
	mov	x0, 0
.LVL92:
	b	.L70
.LBE161:
.LBE160:
.LBE162:
.LBE166:
	.cfi_endproc
.LFE2675:
	.size	OSAL_SemInit, .-OSAL_SemInit
	.align	2
	.global	OSAL_SemUp
	.type	OSAL_SemUp, %function
OSAL_SemUp:
.LFB2677:
	.loc 1 585 0
	.cfi_startproc
.LVL93:
	stp	x29, x30, [sp, -16]!
	.cfi_def_cfa_offset 16
	.cfi_offset 29, -16
	.cfi_offset 30, -8
	mov	w3, w0
	add	x29, sp, 0
	.cfi_def_cfa_register 29
.LBB173:
.LBB174:
	.loc 1 543 0
	cbnz	w0, .L77
	.loc 1 546 0
	adrp	x0, .LANCHOR0
	add	x0, x0, :lo12:.LANCHOR0
	add	x0, x0, 48
.LVL94:
.LBE174:
.LBE173:
.LBB178:
.LBB179:
	.loc 1 284 0
	bl	up
.LVL95:
.LBE179:
.LBE178:
	.loc 1 591 0
	ldp	x29, x30, [sp], 16
	.cfi_remember_state
	.cfi_restore 30
	.cfi_restore 29
	.cfi_def_cfa 31, 0
	ret
.LVL96:
.L77:
	.cfi_restore_state
.LBB181:
.LBB177:
.LBB175:
.LBB176:
	.loc 1 550 0
	adrp	x1, .LC5
	adrp	x2, .LANCHOR1
	add	x1, x1, :lo12:.LC5
	add	x2, x2, :lo12:.LANCHOR1
	mov	w0, 1
.LVL97:
	bl	dprint_linux_kernel
.LVL98:
	mov	x0, 0
.LVL99:
.LBE176:
.LBE175:
.LBE177:
.LBE181:
.LBB182:
.LBB180:
	.loc 1 284 0
	bl	up
.LVL100:
.LBE180:
.LBE182:
	.loc 1 591 0
	ldp	x29, x30, [sp], 16
	.cfi_restore 29
	.cfi_restore 30
	.cfi_def_cfa 31, 0
	ret
	.cfi_endproc
.LFE2677:
	.size	OSAL_SemUp, .-OSAL_SemUp
	.align	2
	.global	OSAL_SemDown
	.type	OSAL_SemDown, %function
OSAL_SemDown:
.LFB2676:
	.loc 1 573 0
	.cfi_startproc
.LVL101:
	stp	x29, x30, [sp, -16]!
	.cfi_def_cfa_offset 16
	.cfi_offset 29, -16
	.cfi_offset 30, -8
	mov	w3, w0
	add	x29, sp, 0
	.cfi_def_cfa_register 29
.LBB189:
.LBB190:
	.loc 1 543 0
	cbnz	w0, .L82
	.loc 1 546 0
	adrp	x0, .LANCHOR0
	add	x0, x0, :lo12:.LANCHOR0
	add	x0, x0, 48
.LVL102:
.LBE190:
.LBE189:
.LBB194:
.LBB195:
	.loc 1 276 0
	bl	down_interruptible
.LVL103:
.LBE195:
.LBE194:
	.loc 1 579 0
	ldp	x29, x30, [sp], 16
	.cfi_remember_state
	.cfi_restore 30
	.cfi_restore 29
	.cfi_def_cfa 31, 0
	ret
.LVL104:
.L82:
	.cfi_restore_state
.LBB197:
.LBB193:
.LBB191:
.LBB192:
	.loc 1 550 0
	adrp	x1, .LC5
	adrp	x2, .LANCHOR1
	add	x1, x1, :lo12:.LC5
	add	x2, x2, :lo12:.LANCHOR1
	mov	w0, 1
.LVL105:
	bl	dprint_linux_kernel
.LVL106:
	mov	x0, 0
.LVL107:
.LBE192:
.LBE191:
.LBE193:
.LBE197:
.LBB198:
.LBB196:
	.loc 1 276 0
	bl	down_interruptible
.LVL108:
.LBE196:
.LBE198:
	.loc 1 579 0
	ldp	x29, x30, [sp], 16
	.cfi_restore 29
	.cfi_restore 30
	.cfi_def_cfa 31, 0
	ret
	.cfi_endproc
.LFE2676:
	.size	OSAL_SemDown, .-OSAL_SemDown
	.align	2
	.global	OSAL_SpinUnLock
	.type	OSAL_SpinUnLock, %function
OSAL_SpinUnLock:
.LFB2673:
	.loc 1 528 0
	.cfi_startproc
.LVL109:
	stp	x29, x30, [sp, -16]!
	.cfi_def_cfa_offset 16
	.cfi_offset 29, -16
	.cfi_offset 30, -8
.LBB207:
.LBB208:
	.loc 1 469 0
	cmp	w0, 4
.LBE208:
.LBE207:
	.loc 1 528 0
	mov	w3, w0
	add	x29, sp, 0
	.cfi_def_cfa_register 29
.LBB217:
.LBB211:
	.loc 1 469 0
	bls	.L92
.LBB209:
.LBB210:
	.loc 1 492 0
	adrp	x2, .LANCHOR1
	adrp	x1, .LC6
	add	x2, x2, :lo12:.LANCHOR1
	add	x1, x1, :lo12:.LC6
	add	x2, x2, 16
	mov	w0, 1
	bl	dprint_linux_kernel
.LVL110:
	mov	x0, 0
.LVL111:
.LBE210:
.LBE209:
.LBE211:
.LBE217:
.LBB218:
.LBB219:
.LBB220:
.LBB221:
	.file 5 "/mnt/disk/jenkins/ci/workspace/chipset_release_960_xloader/opensource/component_code/vendor/huawei/extra/build/build_script/kirin_kernel_release/kernel/include/linux/spinlock.h"
	.loc 5 362 0
	ldr	x1, [x0,24]
	bl	_raw_spin_unlock_irqrestore
.LVL112:
.LBE221:
.LBE220:
.LBE219:
.LBE218:
	.loc 1 534 0
	mov	w0, 0
	ldp	x29, x30, [sp], 16
	.cfi_remember_state
	.cfi_restore 30
	.cfi_restore 29
	.cfi_def_cfa 31, 0
	ret
.LVL113:
.L92:
	.cfi_restore_state
.LBB237:
.LBB212:
	.loc 1 469 0
	adrp	x0, .L86
	add	x0, x0, :lo12:.L86
	ldrb	w0, [x0,w3,uxtw]
	adr	x1, .Lrtx86
	add	x0, x1, w0, sxtb #2
	br	x0
.Lrtx86:
	.section	.rodata
	.align	0
	.align	2
.L86:
	.byte	(.L91 - .Lrtx86) / 4
	.byte	(.L87 - .Lrtx86) / 4
	.byte	(.L88 - .Lrtx86) / 4
	.byte	(.L89 - .Lrtx86) / 4
	.byte	(.L90 - .Lrtx86) / 4
	.text
.L91:
	.loc 1 472 0
	adrp	x0, .LANCHOR0
	add	x0, x0, :lo12:.LANCHOR0
	add	x0, x0, 96
.LVL114:
.LBE212:
.LBE237:
.LBB238:
.LBB232:
.LBB227:
.LBB222:
	.loc 5 362 0
	ldr	x1, [x0,24]
	bl	_raw_spin_unlock_irqrestore
.LVL115:
.LBE222:
.LBE227:
.LBE232:
.LBE238:
	.loc 1 534 0
	mov	w0, 0
	ldp	x29, x30, [sp], 16
	.cfi_remember_state
	.cfi_restore 29
	.cfi_restore 30
	.cfi_def_cfa 31, 0
	ret
.LVL116:
.L90:
	.cfi_restore_state
.LBB239:
.LBB213:
	.loc 1 488 0
	adrp	x0, .LANCHOR0
	add	x0, x0, :lo12:.LANCHOR0
	add	x0, x0, 256
.LVL117:
.LBE213:
.LBE239:
.LBB240:
.LBB233:
.LBB228:
.LBB223:
	.loc 5 362 0
	ldr	x1, [x0,24]
	bl	_raw_spin_unlock_irqrestore
.LVL118:
.LBE223:
.LBE228:
.LBE233:
.LBE240:
	.loc 1 534 0
	mov	w0, 0
	ldp	x29, x30, [sp], 16
	.cfi_remember_state
	.cfi_restore 29
	.cfi_restore 30
	.cfi_def_cfa 31, 0
	ret
.LVL119:
.L87:
	.cfi_restore_state
.LBB241:
.LBB214:
	.loc 1 476 0
	adrp	x0, .LANCHOR0
	add	x0, x0, :lo12:.LANCHOR0
	add	x0, x0, 136
.LVL120:
.LBE214:
.LBE241:
.LBB242:
.LBB234:
.LBB229:
.LBB224:
	.loc 5 362 0
	ldr	x1, [x0,24]
	bl	_raw_spin_unlock_irqrestore
.LVL121:
.LBE224:
.LBE229:
.LBE234:
.LBE242:
	.loc 1 534 0
	mov	w0, 0
	ldp	x29, x30, [sp], 16
	.cfi_remember_state
	.cfi_restore 29
	.cfi_restore 30
	.cfi_def_cfa 31, 0
	ret
.LVL122:
.L88:
	.cfi_restore_state
.LBB243:
.LBB215:
	.loc 1 480 0
	adrp	x0, .LANCHOR0
	add	x0, x0, :lo12:.LANCHOR0
	add	x0, x0, 176
.LVL123:
.LBE215:
.LBE243:
.LBB244:
.LBB235:
.LBB230:
.LBB225:
	.loc 5 362 0
	ldr	x1, [x0,24]
	bl	_raw_spin_unlock_irqrestore
.LVL124:
.LBE225:
.LBE230:
.LBE235:
.LBE244:
	.loc 1 534 0
	mov	w0, 0
	ldp	x29, x30, [sp], 16
	.cfi_remember_state
	.cfi_restore 29
	.cfi_restore 30
	.cfi_def_cfa 31, 0
	ret
.LVL125:
.L89:
	.cfi_restore_state
.LBB245:
.LBB216:
	.loc 1 484 0
	adrp	x0, .LANCHOR0
	add	x0, x0, :lo12:.LANCHOR0
	add	x0, x0, 216
.LVL126:
.LBE216:
.LBE245:
.LBB246:
.LBB236:
.LBB231:
.LBB226:
	.loc 5 362 0
	ldr	x1, [x0,24]
	bl	_raw_spin_unlock_irqrestore
.LVL127:
.LBE226:
.LBE231:
.LBE236:
.LBE246:
	.loc 1 534 0
	mov	w0, 0
	ldp	x29, x30, [sp], 16
	.cfi_restore 29
	.cfi_restore 30
	.cfi_def_cfa 31, 0
	ret
	.cfi_endproc
.LFE2673:
	.size	OSAL_SpinUnLock, .-OSAL_SpinUnLock
	.align	2
	.global	OSAL_SpinLockInit
	.type	OSAL_SpinLockInit, %function
OSAL_SpinLockInit:
.LFB2671:
	.loc 1 503 0
	.cfi_startproc
.LVL128:
	stp	x29, x30, [sp, -32]!
	.cfi_def_cfa_offset 32
	.cfi_offset 29, -32
	.cfi_offset 30, -24
.LBB254:
.LBB255:
	.loc 1 469 0
	cmp	w0, 4
.LBE255:
.LBE254:
	.loc 1 503 0
	mov	w3, w0
	add	x29, sp, 0
	.cfi_def_cfa_register 29
	str	x19, [sp,16]
	.cfi_offset 19, -16
.LBB260:
.LBB258:
	.loc 1 469 0
	bls	.L102
.LBB256:
.LBB257:
	.loc 1 492 0
	adrp	x2, .LANCHOR1
	adrp	x1, .LC6
	add	x2, x2, :lo12:.LANCHOR1
	mov	w0, 1
	add	x2, x2, 16
	add	x1, x1, :lo12:.LC6
	mov	x19, 0
.LVL129:
	bl	dprint_linux_kernel
.LVL130:
	adrp	x2, .LANCHOR0
.LVL131:
.L95:
.LBE257:
.LBE256:
.LBE258:
.LBE260:
.LBB261:
.LBB262:
.LBB263:
	.loc 1 292 0 discriminator 1
	add	x2, x2, :lo12:.LANCHOR0
	adrp	x1, .LC7
	mov	x0, x19
	add	x1, x1, :lo12:.LC7
	add	x2, x2, 296
	bl	__raw_spin_lock_init
.LVL132:
.LBE263:
	.loc 1 293 0
	mov	w0, 1
	str	w0, [x19,32]
.LBE262:
.LBE261:
	.loc 1 509 0
	ldr	x19, [sp,16]
	.cfi_remember_state
	.cfi_restore 19
.LVL133:
	ldp	x29, x30, [sp], 32
	.cfi_restore 30
	.cfi_restore 29
	.cfi_def_cfa 31, 0
	ret
.LVL134:
.L102:
	.cfi_restore_state
.LBB264:
.LBB259:
	.loc 1 469 0
	adrp	x0, .L96
	.loc 1 488 0
	adrp	x2, .LANCHOR0
	.loc 1 469 0
	add	x0, x0, :lo12:.L96
	.loc 1 488 0
	add	x19, x2, :lo12:.LANCHOR0
	.loc 1 469 0
	ldrb	w0, [x0,w3,uxtw]
	adr	x1, .Lrtx96
	add	x0, x1, w0, sxtb #2
	br	x0
.Lrtx96:
	.section	.rodata
	.align	0
	.align	2
.L96:
	.byte	(.L101 - .Lrtx96) / 4
	.byte	(.L97 - .Lrtx96) / 4
	.byte	(.L98 - .Lrtx96) / 4
	.byte	(.L99 - .Lrtx96) / 4
	.byte	(.L100 - .Lrtx96) / 4
	.text
.L101:
	.loc 1 472 0
	add	x19, x19, 96
.LVL135:
	b	.L95
.LVL136:
.L100:
	.loc 1 488 0
	add	x19, x19, 256
.LVL137:
	b	.L95
.LVL138:
.L97:
	.loc 1 476 0
	add	x19, x19, 136
.LVL139:
	b	.L95
.LVL140:
.L98:
	.loc 1 480 0
	add	x19, x19, 176
.LVL141:
	b	.L95
.LVL142:
.L99:
	.loc 1 484 0
	add	x19, x19, 216
.LVL143:
	b	.L95
.LBE259:
.LBE264:
	.cfi_endproc
.LFE2671:
	.size	OSAL_SpinLockInit, .-OSAL_SpinLockInit
	.align	2
	.global	OSAL_SpinLock
	.type	OSAL_SpinLock, %function
OSAL_SpinLock:
.LFB2672:
	.loc 1 515 0
	.cfi_startproc
.LVL144:
	stp	x29, x30, [sp, -32]!
	.cfi_def_cfa_offset 32
	.cfi_offset 29, -32
	.cfi_offset 30, -24
.LBB274:
.LBB275:
	.loc 1 469 0
	cmp	w0, 4
.LBE275:
.LBE274:
	.loc 1 515 0
	mov	w3, w0
	add	x29, sp, 0
	.cfi_def_cfa_register 29
	str	x19, [sp,16]
	.cfi_offset 19, -16
.LBB280:
.LBB278:
	.loc 1 469 0
	bls	.L114
.LBB276:
.LBB277:
	.loc 1 492 0
	adrp	x2, .LANCHOR1
	adrp	x1, .LC6
	add	x2, x2, :lo12:.LANCHOR1
	mov	w0, 1
	add	x1, x1, :lo12:.LC6
	add	x2, x2, 16
	mov	x19, 0
.LVL145:
	bl	dprint_linux_kernel
.LVL146:
.L105:
.LBE277:
.LBE276:
.LBE278:
.LBE280:
.LBB281:
.LBB282:
	.loc 1 301 0
	ldr	w0, [x19,32]
	cbnz	w0, .L112
.LBB283:
	.loc 1 303 0 discriminator 1
	adrp	x2, .LANCHOR0
	adrp	x1, .LC7
	add	x2, x2, :lo12:.LANCHOR0
	mov	x0, x19
	add	x1, x1, :lo12:.LC7
	add	x2, x2, 296
	bl	__raw_spin_lock_init
.LVL147:
.LBE283:
	.loc 1 304 0
	mov	w0, 1
	str	w0, [x19,32]
.LVL148:
.L112:
	.loc 1 306 0 discriminator 1
	mov	x0, x19
	bl	_raw_spin_lock_irqsave
.LVL149:
	.loc 1 306 0 is_stmt 0
	str	x0, [x19,24]
.LBE282:
.LBE281:
	.loc 1 521 0 is_stmt 1
	mov	w0, 0
	ldr	x19, [sp,16]
	.cfi_remember_state
	.cfi_restore 19
.LVL150:
	ldp	x29, x30, [sp], 32
	.cfi_restore 30
	.cfi_restore 29
	.cfi_def_cfa 31, 0
	ret
.LVL151:
.L114:
	.cfi_restore_state
.LBB284:
.LBB279:
	.loc 1 469 0
	adrp	x0, .L106
	.loc 1 488 0
	adrp	x19, .LANCHOR0
	.loc 1 469 0
	add	x0, x0, :lo12:.L106
	.loc 1 488 0
	add	x19, x19, :lo12:.LANCHOR0
	.loc 1 469 0
	ldrb	w0, [x0,w3,uxtw]
	adr	x1, .Lrtx106
	add	x0, x1, w0, sxtb #2
	br	x0
.Lrtx106:
	.section	.rodata
	.align	0
	.align	2
.L106:
	.byte	(.L113 - .Lrtx106) / 4
	.byte	(.L107 - .Lrtx106) / 4
	.byte	(.L108 - .Lrtx106) / 4
	.byte	(.L109 - .Lrtx106) / 4
	.byte	(.L110 - .Lrtx106) / 4
	.text
.L113:
	.loc 1 472 0
	add	x19, x19, 96
.LVL152:
	b	.L105
.LVL153:
.L110:
	.loc 1 488 0
	add	x19, x19, 256
.LVL154:
	b	.L105
.LVL155:
.L107:
	.loc 1 476 0
	add	x19, x19, 136
.LVL156:
	b	.L105
.LVL157:
.L108:
	.loc 1 480 0
	add	x19, x19, 176
.LVL158:
	b	.L105
.LVL159:
.L109:
	.loc 1 484 0
	add	x19, x19, 216
.LVL160:
	b	.L105
.LBE279:
.LBE284:
	.cfi_endproc
.LFE2672:
	.size	OSAL_SpinLock, .-OSAL_SpinLock
	.align	2
	.global	OSAL_CreateTask
	.type	OSAL_CreateTask, %function
OSAL_CreateTask:
.LFB2640:
	.loc 1 99 0
	.cfi_startproc
.LVL161:
	stp	x29, x30, [sp, -32]!
	.cfi_def_cfa_offset 32
	.cfi_offset 29, -32
	.cfi_offset 30, -24
	mov	x3, x1
	.loc 1 100 0
	mov	x1, 0
.LVL162:
	.loc 1 99 0
	add	x29, sp, 0
	.cfi_def_cfa_register 29
	str	x19, [sp,16]
	.cfi_offset 19, -16
	.loc 1 99 0
	mov	x19, x0
	.loc 1 100 0
	mov	x0, x2
.LVL163:
	mov	w2, -1
.LVL164:
	bl	kthread_create_on_node
.LVL165:
	str	x0, [x19]
	.loc 1 102 0
	cbz	x0, .L116
	.loc 1 102 0 is_stmt 0 discriminator 1
	cmn	x0, #4096
	bhi	.L116
	.loc 1 108 0 is_stmt 1
	bl	wake_up_process
.LVL166:
	.loc 1 110 0
	ldr	x19, [sp,16]
	.cfi_remember_state
	.cfi_restore 19
.LVL167:
	.loc 1 109 0
	mov	w0, 0
	.loc 1 110 0
	ldp	x29, x30, [sp], 32
	.cfi_restore 30
	.cfi_restore 29
	.cfi_def_cfa 31, 0
	ret
.LVL168:
.L116:
	.cfi_restore_state
	.loc 1 104 0
	adrp	x1, .LC8
	mov	w0, 0
	add	x1, x1, :lo12:.LC8
	bl	dprint_linux_kernel
.LVL169:
	.loc 1 110 0
	ldr	x19, [sp,16]
	.cfi_restore 19
.LVL170:
	.loc 1 105 0
	mov	w0, -20
	.loc 1 110 0
	ldp	x29, x30, [sp], 32
	.cfi_restore 29
	.cfi_restore 30
	.cfi_def_cfa 31, 0
	ret
	.cfi_endproc
.LFE2640:
	.size	OSAL_CreateTask, .-OSAL_CreateTask
	.align	2
	.global	OSAL_WakeupTask
	.type	OSAL_WakeupTask, %function
OSAL_WakeupTask:
.LFB2641:
	.loc 1 116 0
	.cfi_startproc
.LVL171:
	.loc 1 118 0
	mov	w0, 0
.LVL172:
	ret
	.cfi_endproc
.LFE2641:
	.size	OSAL_WakeupTask, .-OSAL_WakeupTask
	.align	2
	.global	OSAL_DeleteTask
	.type	OSAL_DeleteTask, %function
OSAL_DeleteTask:
.LFB2642:
	.loc 1 124 0
	.cfi_startproc
.LVL173:
	.loc 1 126 0
	mov	w0, 0
.LVL174:
	ret
	.cfi_endproc
.LFE2642:
	.size	OSAL_DeleteTask, .-OSAL_DeleteTask
	.align	2
	.global	OSAL_InitEvent
	.type	OSAL_InitEvent, %function
OSAL_InitEvent:
.LFB2643:
	.loc 1 132 0
	.cfi_startproc
.LVL175:
	stp	x29, x30, [sp, -16]!
	.cfi_def_cfa_offset 16
	.cfi_offset 29, -16
	.cfi_offset 30, -8
.LBB285:
	.loc 1 134 0
	adrp	x2, .LANCHOR0
.LBE285:
	.loc 1 132 0
	add	x29, sp, 0
	.cfi_def_cfa_register 29
	.loc 1 133 0
	str	w1, [x0,40]
.LBB286:
	.loc 1 134 0
	add	x2, x2, :lo12:.LANCHOR0
	adrp	x1, .LC0
.LVL176:
	add	x2, x2, 48
	add	x1, x1, :lo12:.LC0
	bl	__init_waitqueue_head
.LVL177:
.LBE286:
	.loc 1 136 0
	mov	w0, 0
	ldp	x29, x30, [sp], 16
	.cfi_restore 30
	.cfi_restore 29
	.cfi_def_cfa 31, 0
	ret
	.cfi_endproc
.LFE2643:
	.size	OSAL_InitEvent, .-OSAL_InitEvent
	.align	2
	.global	OSAL_GiveEvent
	.type	OSAL_GiveEvent, %function
OSAL_GiveEvent:
.LFB2644:
	.loc 1 142 0
	.cfi_startproc
.LVL178:
	stp	x29, x30, [sp, -16]!
	.cfi_def_cfa_offset 16
	.cfi_offset 29, -16
	.cfi_offset 30, -8
	.loc 1 143 0
	mov	w1, 1
	.loc 1 144 0
	mov	x3, 0
	.loc 1 142 0
	add	x29, sp, 0
	.cfi_def_cfa_register 29
	.loc 1 143 0
	str	w1, [x0,40]
	.loc 1 144 0
	mov	w2, w1
	bl	__wake_up
.LVL179:
	.loc 1 147 0
	mov	w0, -1
	ldp	x29, x30, [sp], 16
	.cfi_restore 30
	.cfi_restore 29
	.cfi_def_cfa 31, 0
	ret
	.cfi_endproc
.LFE2644:
	.size	OSAL_GiveEvent, .-OSAL_GiveEvent
	.align	2
	.global	OSAL_WaitEvent
	.type	OSAL_WaitEvent, %function
OSAL_WaitEvent:
.LFB2645:
	.loc 1 154 0
	.cfi_startproc
.LVL180:
	stp	x29, x30, [sp, -112]!
	.cfi_def_cfa_offset 112
	.cfi_offset 29, -112
	.cfi_offset 30, -104
	add	x29, sp, 0
	.cfi_def_cfa_register 29
	str	x21, [sp,32]
	.cfi_offset 21, -80
	adrp	x21, __stack_chk_guard
	stp	x19, x20, [sp,16]
	.cfi_offset 19, -96
	.cfi_offset 20, -88
	.loc 1 154 0
	mov	x20, x0
.LBB287:
.LBB288:
.LBB289:
	.loc 3 364 0
	mov	w0, w1
.LVL181:
.LBE289:
.LBE288:
.LBE287:
	.loc 1 154 0
	ldr	x2, [x21,#:lo12:__stack_chk_guard]
.LBB301:
.LBB292:
.LBB290:
	.loc 3 364 0
	str	x1, [x29,56]
.LBE290:
.LBE292:
.LBE301:
	.loc 1 154 0
	str	x2, [x29,104]
.LBB302:
.LBB293:
.LBB291:
	.loc 3 364 0
	bl	__msecs_to_jiffies
.LVL182:
.LBE291:
.LBE293:
.LBB294:
	.loc 1 157 0
	ldr	w2, [x20,40]
	ldr	x1, [x29,56]
.LVL183:
	cmp	w2, wzr
	cset	w2, ne
.LVL184:
	cmp	x0, xzr
	cset	w3, eq
	cbz	w3, .L139
	cbz	w2, .L139
.LBE294:
.LBE302:
	.loc 1 159 0
	str	wzr, [x20,40]
	.loc 1 161 0 discriminator 2
	mov	w0, -1
	b	.L136
.L139:
.LBB303:
.LBB295:
	.loc 1 157 0 discriminator 3
	orr	w2, w3, w2
.LVL185:
.LBE295:
	cbnz	w2, .L129
.LBB296:
.LBB297:
.LBB298:
	.loc 3 364 0
	mov	w0, w1
	bl	__msecs_to_jiffies
.LVL186:
	mov	x19, x0
.LBE298:
.LBE297:
	.loc 1 157 0 discriminator 7
	mov	w1, 0
	add	x0, x29, 64
	bl	init_wait_entry
.LVL187:
.L135:
.LBB299:
	.loc 1 157 0 is_stmt 0 discriminator 19
	add	x1, x29, 64
	mov	x0, x20
	mov	w2, 1
	bl	prepare_to_wait_event
.LVL188:
.LBB300:
	ldr	w1, [x20,40]
	cmp	w1, wzr
	cset	w1, ne
.LVL189:
	cbnz	x19, .L140
	cbz	w1, .L133
	.loc 1 157 0 discriminator 10
	mov	x19, 1
.L140:
.LBE300:
	.loc 1 157 0 discriminator 12
	cbnz	w1, .L133
	.loc 1 157 0 discriminator 14
	cbnz	x0, .L129
	.loc 1 157 0 discriminator 18
	mov	x0, x19
	bl	schedule_timeout
.LVL190:
	mov	x19, x0
.LBE299:
	.loc 1 157 0
	b	.L135
.LVL191:
.L133:
	.loc 1 157 0 discriminator 20
	mov	x0, x20
	add	x1, x29, 64
.LVL192:
	bl	finish_wait
.LVL193:
	mov	x0, x19
.L134:
.LVL194:
.L129:
.LBE296:
.LBE303:
	.loc 1 161 0 is_stmt 1
	cmp	w0, wzr
	.loc 1 159 0
	str	wzr, [x20,40]
	.loc 1 161 0
	csetm	w0, ne
.LVL195:
.L136:
	.loc 1 162 0
	ldr	x2, [x29,104]
.LVL196:
	ldr	x1, [x21,#:lo12:__stack_chk_guard]
.LVL197:
	cmp	x2, x1
	bne	.L152
	ldp	x19, x20, [sp,16]
	.cfi_remember_state
	.cfi_restore 20
	.cfi_restore 19
.LVL198:
	ldr	x21, [sp,32]
	.cfi_restore 21
	ldp	x29, x30, [sp], 112
	.cfi_restore 30
	.cfi_restore 29
	.cfi_def_cfa 31, 0
	ret
.LVL199:
.L152:
	.cfi_restore_state
	bl	__stack_chk_fail
.LVL200:
	.cfi_endproc
.LFE2645:
	.size	OSAL_WaitEvent, .-OSAL_WaitEvent
	.align	2
	.global	OSAL_FileOpen
	.type	OSAL_FileOpen, %function
OSAL_FileOpen:
.LFB2648:
	.loc 1 185 0
	.cfi_startproc
.LVL201:
	stp	x29, x30, [sp, -16]!
	.cfi_def_cfa_offset 16
	.cfi_offset 29, -16
	.cfi_offset 30, -8
	add	x29, sp, 0
	.cfi_def_cfa_register 29
	.loc 1 186 0
	bl	filp_open
.LVL202:
	.loc 1 187 0 discriminator 2
	cmn	x0, #4096
	.loc 1 188 0
	csel	x0, x0, xzr, ls
.LVL203:
	ldp	x29, x30, [sp], 16
	.cfi_restore 30
	.cfi_restore 29
	.cfi_def_cfa 31, 0
	ret
	.cfi_endproc
.LFE2648:
	.size	OSAL_FileOpen, .-OSAL_FileOpen
	.align	2
	.global	OSAL_FileClose
	.type	OSAL_FileClose, %function
OSAL_FileClose:
.LFB2649:
	.loc 1 194 0
	.cfi_startproc
.LVL204:
	stp	x29, x30, [sp, -16]!
	.cfi_def_cfa_offset 16
	.cfi_offset 29, -16
	.cfi_offset 30, -8
	add	x29, sp, 0
	.cfi_def_cfa_register 29
	.loc 1 195 0
	cbz	x0, .L156
	.loc 1 197 0
	mov	x1, 0
	bl	filp_close
.LVL205:
.L156:
	.loc 1 199 0
	ldp	x29, x30, [sp], 16
	.cfi_restore 30
	.cfi_restore 29
	.cfi_def_cfa 31, 0
	ret
	.cfi_endproc
.LFE2649:
	.size	OSAL_FileClose, .-OSAL_FileClose
	.align	2
	.global	OSAL_FileRead
	.type	OSAL_FileRead, %function
OSAL_FileRead:
.LFB2650:
	.loc 1 205 0
	.cfi_startproc
.LVL206:
	stp	x29, x30, [sp, -32]!
	.cfi_def_cfa_offset 32
	.cfi_offset 29, -32
	.cfi_offset 30, -24
	add	x29, sp, 0
	.cfi_def_cfa_register 29
	stp	x19, x20, [sp,16]
	.cfi_offset 19, -16
	.cfi_offset 20, -8
	.loc 1 209 0
	cbz	x2, .L163
	.loc 1 214 0
	ldr	x3, [x2,40]
	ldr	x3, [x3,16]
	cbz	x3, .L164
	.loc 1 219 0
	ldr	w3, [x2,80]
	tbz	x3, 1, .L165
.LBB304:
.LBB305:
	.file 6 "/mnt/disk/jenkins/ci/workspace/chipset_release_960_xloader/opensource/component_code/vendor/huawei/extra/build/build_script/kirin_kernel_release/kernel/arch/arm64/include/asm/current.h"
	.loc 6 20 0
#APP
// 20 "/mnt/disk/jenkins/ci/workspace/chipset_release_960_xloader/opensource/component_code/vendor/huawei/extra/build/build_script/kirin_kernel_release/kernel/arch/arm64/include/asm/current.h" 1
	mrs x19, sp_el0
// 0 "" 2
.LVL207:
#NO_APP
	mov	w3, w1
.LBE305:
.LBE304:
	.loc 1 224 0
	ldr	x20, [x19,8]
.LVL208:
	mov	x1, x0
.LVL209:
	mov	x0, x2
.LVL210:
.LBB306:
.LBB307:
	.file 7 "/mnt/disk/jenkins/ci/workspace/chipset_release_960_xloader/opensource/component_code/vendor/huawei/extra/build/build_script/kirin_kernel_release/kernel/arch/arm64/include/asm/uaccess.h"
	.loc 7 79 0
	mov	x2, -1
.LVL211:
	str	x2, [x19,8]
	.loc 7 87 0
#APP
// 87 "/mnt/disk/jenkins/ci/workspace/chipset_release_960_xloader/opensource/component_code/vendor/huawei/extra/build/build_script/kirin_kernel_release/kernel/arch/arm64/include/asm/uaccess.h" 1
	dsb nsh
// 0 "" 2
	.loc 7 88 0
// 88 "/mnt/disk/jenkins/ci/workspace/chipset_release_960_xloader/opensource/component_code/vendor/huawei/extra/build/build_script/kirin_kernel_release/kernel/arch/arm64/include/asm/uaccess.h" 1
	isb
// 0 "" 2
	.loc 7 97 0
// 97 "/mnt/disk/jenkins/ci/workspace/chipset_release_960_xloader/opensource/component_code/vendor/huawei/extra/build/build_script/kirin_kernel_release/kernel/arch/arm64/include/asm/uaccess.h" 1
	.if 0 == 1
661:
	nop
662:
.pushsection .altinstructions,"a"
 .word 661b - .
 .if 0 == 0
 .word 663f - .
 .else
 .word 0- .
 .endif
 .hword 9
 .byte 662b-661b
 .byte 664f-663f
.popsection
 .if 0 == 0
.pushsection .altinstr_replacement, "a"
663:
	.long ((0xd5000000 | ((((0)&3)<<19)|((0)<<16)|((4)<<12)|((0)<<8)|((3)<<5)) | (!!0)<<8 | 0x1f) & 0xFFFFFFFF)
	
664:
	.popsection
	.org	. - (664b-663b) + (662b-661b)
	.org	. - (662b-661b) + (664b-663b)
.else
	663:
	664:
	.endif
.endif

// 0 "" 2
#NO_APP
.LBE307:
.LBE306:
	.loc 1 226 0
	ldr	x4, [x0,40]
	uxtw	x2, w3
	add	x3, x0, 160
.LVL212:
	ldr	x4, [x4,16]
	blr	x4
.LVL213:
.LBB308:
.LBB309:
	.loc 7 79 0
	str	x20, [x19,8]
	.loc 7 87 0
#APP
// 87 "/mnt/disk/jenkins/ci/workspace/chipset_release_960_xloader/opensource/component_code/vendor/huawei/extra/build/build_script/kirin_kernel_release/kernel/arch/arm64/include/asm/uaccess.h" 1
	dsb nsh
// 0 "" 2
	.loc 7 88 0
// 88 "/mnt/disk/jenkins/ci/workspace/chipset_release_960_xloader/opensource/component_code/vendor/huawei/extra/build/build_script/kirin_kernel_release/kernel/arch/arm64/include/asm/uaccess.h" 1
	isb
// 0 "" 2
	.loc 7 97 0
// 97 "/mnt/disk/jenkins/ci/workspace/chipset_release_960_xloader/opensource/component_code/vendor/huawei/extra/build/build_script/kirin_kernel_release/kernel/arch/arm64/include/asm/uaccess.h" 1
	.if 0 == 1
661:
	nop
662:
.pushsection .altinstructions,"a"
 .word 661b - .
 .if 0 == 0
 .word 663f - .
 .else
 .word 0- .
 .endif
 .hword 9
 .byte 662b-661b
 .byte 664f-663f
.popsection
 .if 0 == 0
.pushsection .altinstr_replacement, "a"
663:
	.long ((0xd5000000 | ((((0)&3)<<19)|((0)<<16)|((4)<<12)|((0)<<8)|((3)<<5)) | (!!0)<<8 | 0x1f) & 0xFFFFFFFF)
	
664:
	.popsection
	.org	. - (664b-663b) + (662b-661b)
	.org	. - (662b-661b) + (664b-663b)
.else
	663:
	664:
	.endif
.endif

// 0 "" 2
.LVL214:
#NO_APP
.L162:
.LBE309:
.LBE308:
	.loc 1 230 0
	ldp	x19, x20, [sp,16]
	.cfi_remember_state
	.cfi_restore 20
	.cfi_restore 19
.LVL215:
	ldp	x29, x30, [sp], 32
	.cfi_restore 30
	.cfi_restore 29
	.cfi_def_cfa 31, 0
	ret
.LVL216:
.L165:
	.cfi_restore_state
	.loc 1 221 0
	mov	w0, -13
.LVL217:
	b	.L162
.LVL218:
.L163:
	.loc 1 211 0
	mov	w0, -2
.LVL219:
	b	.L162
.LVL220:
.L164:
	.loc 1 216 0
	mov	w0, -38
.LVL221:
	b	.L162
	.cfi_endproc
.LFE2650:
	.size	OSAL_FileRead, .-OSAL_FileRead
	.align	2
	.global	OSAL_FileWrite
	.type	OSAL_FileWrite, %function
OSAL_FileWrite:
.LFB2651:
	.loc 1 236 0
	.cfi_startproc
.LVL222:
	stp	x29, x30, [sp, -32]!
	.cfi_def_cfa_offset 32
	.cfi_offset 29, -32
	.cfi_offset 30, -24
	add	x29, sp, 0
	.cfi_def_cfa_register 29
	stp	x19, x20, [sp,16]
	.cfi_offset 19, -16
	.cfi_offset 20, -8
	.loc 1 240 0
	cbz	x2, .L168
	.loc 1 245 0
	ldr	x3, [x2,40]
	ldr	x3, [x3,24]
	cbz	x3, .L169
	.loc 1 250 0
	ldr	w3, [x2,80]
	and	w3, w3, 3
	cbz	w3, .L170
.LBB310:
.LBB311:
	.loc 6 20 0
#APP
// 20 "/mnt/disk/jenkins/ci/workspace/chipset_release_960_xloader/opensource/component_code/vendor/huawei/extra/build/build_script/kirin_kernel_release/kernel/arch/arm64/include/asm/current.h" 1
	mrs x19, sp_el0
// 0 "" 2
.LVL223:
#NO_APP
	mov	w3, w1
.LBE311:
.LBE310:
	.loc 1 255 0
	ldr	x20, [x19,8]
.LVL224:
	mov	x1, x0
.LVL225:
	mov	x0, x2
.LVL226:
.LBB312:
.LBB313:
	.loc 7 79 0
	mov	x2, -1
.LVL227:
	str	x2, [x19,8]
	.loc 7 87 0
#APP
// 87 "/mnt/disk/jenkins/ci/workspace/chipset_release_960_xloader/opensource/component_code/vendor/huawei/extra/build/build_script/kirin_kernel_release/kernel/arch/arm64/include/asm/uaccess.h" 1
	dsb nsh
// 0 "" 2
	.loc 7 88 0
// 88 "/mnt/disk/jenkins/ci/workspace/chipset_release_960_xloader/opensource/component_code/vendor/huawei/extra/build/build_script/kirin_kernel_release/kernel/arch/arm64/include/asm/uaccess.h" 1
	isb
// 0 "" 2
	.loc 7 97 0
// 97 "/mnt/disk/jenkins/ci/workspace/chipset_release_960_xloader/opensource/component_code/vendor/huawei/extra/build/build_script/kirin_kernel_release/kernel/arch/arm64/include/asm/uaccess.h" 1
	.if 0 == 1
661:
	nop
662:
.pushsection .altinstructions,"a"
 .word 661b - .
 .if 0 == 0
 .word 663f - .
 .else
 .word 0- .
 .endif
 .hword 9
 .byte 662b-661b
 .byte 664f-663f
.popsection
 .if 0 == 0
.pushsection .altinstr_replacement, "a"
663:
	.long ((0xd5000000 | ((((0)&3)<<19)|((0)<<16)|((4)<<12)|((0)<<8)|((3)<<5)) | (!!0)<<8 | 0x1f) & 0xFFFFFFFF)
	
664:
	.popsection
	.org	. - (664b-663b) + (662b-661b)
	.org	. - (662b-661b) + (664b-663b)
.else
	663:
	664:
	.endif
.endif

// 0 "" 2
#NO_APP
.LBE313:
.LBE312:
	.loc 1 257 0
	ldr	x4, [x0,40]
	sxtw	x2, w3
	add	x3, x0, 160
.LVL228:
	ldr	x4, [x4,24]
	blr	x4
.LVL229:
.LBB314:
.LBB315:
	.loc 7 79 0
	str	x20, [x19,8]
	.loc 7 87 0
#APP
// 87 "/mnt/disk/jenkins/ci/workspace/chipset_release_960_xloader/opensource/component_code/vendor/huawei/extra/build/build_script/kirin_kernel_release/kernel/arch/arm64/include/asm/uaccess.h" 1
	dsb nsh
// 0 "" 2
	.loc 7 88 0
// 88 "/mnt/disk/jenkins/ci/workspace/chipset_release_960_xloader/opensource/component_code/vendor/huawei/extra/build/build_script/kirin_kernel_release/kernel/arch/arm64/include/asm/uaccess.h" 1
	isb
// 0 "" 2
	.loc 7 97 0
// 97 "/mnt/disk/jenkins/ci/workspace/chipset_release_960_xloader/opensource/component_code/vendor/huawei/extra/build/build_script/kirin_kernel_release/kernel/arch/arm64/include/asm/uaccess.h" 1
	.if 0 == 1
661:
	nop
662:
.pushsection .altinstructions,"a"
 .word 661b - .
 .if 0 == 0
 .word 663f - .
 .else
 .word 0- .
 .endif
 .hword 9
 .byte 662b-661b
 .byte 664f-663f
.popsection
 .if 0 == 0
.pushsection .altinstr_replacement, "a"
663:
	.long ((0xd5000000 | ((((0)&3)<<19)|((0)<<16)|((4)<<12)|((0)<<8)|((3)<<5)) | (!!0)<<8 | 0x1f) & 0xFFFFFFFF)
	
664:
	.popsection
	.org	. - (664b-663b) + (662b-661b)
	.org	. - (662b-661b) + (664b-663b)
.else
	663:
	664:
	.endif
.endif

// 0 "" 2
.LVL230:
#NO_APP
.L167:
.LBE315:
.LBE314:
	.loc 1 261 0
	ldp	x19, x20, [sp,16]
	.cfi_remember_state
	.cfi_restore 20
	.cfi_restore 19
.LVL231:
	ldp	x29, x30, [sp], 32
	.cfi_restore 30
	.cfi_restore 29
	.cfi_def_cfa 31, 0
	ret
.LVL232:
.L170:
	.cfi_restore_state
	.loc 1 252 0
	mov	w0, -13
.LVL233:
	b	.L167
.LVL234:
.L168:
	.loc 1 242 0
	mov	w0, -2
.LVL235:
	b	.L167
.LVL236:
.L169:
	.loc 1 247 0
	mov	w0, -38
.LVL237:
	b	.L167
	.cfi_endproc
.LFE2651:
	.size	OSAL_FileWrite, .-OSAL_FileWrite
	.align	2
	.global	OSAL_SEMA_INTIT
	.type	OSAL_SEMA_INTIT, %function
OSAL_SEMA_INTIT:
.LFB2652:
	.loc 1 267 0
	.cfi_startproc
.LVL238:
.LBB316:
.LBB317:
	.loc 4 35 0
	mov	w2, 20141
	add	x1, x0, 32
	movk	w2, 0xdead, lsl 16
	str	w2, [x0,4]
	mov	w2, -1
	str	w2, [x0,8]
	mov	x2, -1
	strh	wzr, [x0]
	str	x2, [x0,16]
	mov	w2, 1
	strh	wzr, [x0,2]
	str	w2, [x0,24]
	str	x1, [x0,32]
	str	x1, [x0,40]
.LBE317:
.LBE316:
	.loc 1 269 0
	ret
	.cfi_endproc
.LFE2652:
	.size	OSAL_SEMA_INTIT, .-OSAL_SEMA_INTIT
	.align	2
	.global	OSAL_DOWN_INTERRUPTIBLE
	.type	OSAL_DOWN_INTERRUPTIBLE, %function
OSAL_DOWN_INTERRUPTIBLE:
.LFB2653:
	.loc 1 275 0
	.cfi_startproc
.LVL239:
	stp	x29, x30, [sp, -16]!
	.cfi_def_cfa_offset 16
	.cfi_offset 29, -16
	.cfi_offset 30, -8
	add	x29, sp, 0
	.cfi_def_cfa_register 29
	.loc 1 276 0
	bl	down_interruptible
.LVL240:
	.loc 1 277 0
	ldp	x29, x30, [sp], 16
	.cfi_restore 30
	.cfi_restore 29
	.cfi_def_cfa 31, 0
	ret
	.cfi_endproc
.LFE2653:
	.size	OSAL_DOWN_INTERRUPTIBLE, .-OSAL_DOWN_INTERRUPTIBLE
	.align	2
	.global	OSAL_UP
	.type	OSAL_UP, %function
OSAL_UP:
.LFB2654:
	.loc 1 283 0
	.cfi_startproc
.LVL241:
	stp	x29, x30, [sp, -16]!
	.cfi_def_cfa_offset 16
	.cfi_offset 29, -16
	.cfi_offset 30, -8
	add	x29, sp, 0
	.cfi_def_cfa_register 29
	.loc 1 284 0
	bl	up
.LVL242:
	.loc 1 285 0
	ldp	x29, x30, [sp], 16
	.cfi_restore 30
	.cfi_restore 29
	.cfi_def_cfa 31, 0
	ret
	.cfi_endproc
.LFE2654:
	.size	OSAL_UP, .-OSAL_UP
	.align	2
	.global	OSAL_SpinLockIRQInit
	.type	OSAL_SpinLockIRQInit, %function
OSAL_SpinLockIRQInit:
.LFB2655:
	.loc 1 291 0
	.cfi_startproc
.LVL243:
	stp	x29, x30, [sp, -32]!
	.cfi_def_cfa_offset 32
	.cfi_offset 29, -32
	.cfi_offset 30, -24
.LBB318:
	.loc 1 292 0 discriminator 1
	adrp	x2, .LANCHOR0
	adrp	x1, .LC7
.LBE318:
	.loc 1 291 0
	add	x29, sp, 0
	.cfi_def_cfa_register 29
.LBB319:
	.loc 1 292 0 discriminator 1
	add	x2, x2, :lo12:.LANCHOR0
.LBE319:
	.loc 1 291 0
.LBB320:
	.loc 1 292 0 discriminator 1
	add	x1, x1, :lo12:.LC7
.LBE320:
	.loc 1 291 0
	str	x19, [sp,16]
	.cfi_offset 19, -16
.LBB321:
	.loc 1 292 0 discriminator 1
	add	x2, x2, 296
.LBE321:
	.loc 1 291 0
	mov	x19, x0
.LBB322:
	.loc 1 292 0 discriminator 1
	bl	__raw_spin_lock_init
.LVL244:
.LBE322:
	.loc 1 293 0
	mov	w0, 1
	str	w0, [x19,32]
	.loc 1 294 0
	ldr	x19, [sp,16]
	.cfi_restore 19
.LVL245:
	ldp	x29, x30, [sp], 32
	.cfi_restore 30
	.cfi_restore 29
	.cfi_def_cfa 31, 0
	ret
	.cfi_endproc
.LFE2655:
	.size	OSAL_SpinLockIRQInit, .-OSAL_SpinLockIRQInit
	.align	2
	.global	OSAL_SpinLockIRQ
	.type	OSAL_SpinLockIRQ, %function
OSAL_SpinLockIRQ:
.LFB2656:
	.loc 1 300 0
	.cfi_startproc
.LVL246:
	stp	x29, x30, [sp, -32]!
	.cfi_def_cfa_offset 32
	.cfi_offset 29, -32
	.cfi_offset 30, -24
	add	x29, sp, 0
	.cfi_def_cfa_register 29
	str	x19, [sp,16]
	.cfi_offset 19, -16
	.loc 1 300 0
	mov	x19, x0
	.loc 1 301 0
	ldr	w1, [x0,32]
	cbnz	w1, .L177
.LBB323:
	.loc 1 303 0 discriminator 1
	adrp	x2, .LANCHOR0
	adrp	x1, .LC7
	add	x2, x2, :lo12:.LANCHOR0
	add	x1, x1, :lo12:.LC7
	add	x2, x2, 296
	bl	__raw_spin_lock_init
.LVL247:
.LBE323:
	.loc 1 304 0
	mov	w0, 1
	str	w0, [x19,32]
.LVL248:
.L177:
	.loc 1 306 0 discriminator 1
	mov	x0, x19
	bl	_raw_spin_lock_irqsave
.LVL249:
	.loc 1 306 0 is_stmt 0
	str	x0, [x19,24]
	.loc 1 309 0 is_stmt 1
	mov	w0, 0
	ldr	x19, [sp,16]
	.cfi_restore 19
.LVL250:
	ldp	x29, x30, [sp], 32
	.cfi_restore 30
	.cfi_restore 29
	.cfi_def_cfa 31, 0
	ret
	.cfi_endproc
.LFE2656:
	.size	OSAL_SpinLockIRQ, .-OSAL_SpinLockIRQ
	.align	2
	.global	OSAL_SpinUnLockIRQ
	.type	OSAL_SpinUnLockIRQ, %function
OSAL_SpinUnLockIRQ:
.LFB2657:
	.loc 1 315 0
	.cfi_startproc
.LVL251:
	stp	x29, x30, [sp, -16]!
	.cfi_def_cfa_offset 16
	.cfi_offset 29, -16
	.cfi_offset 30, -8
	add	x29, sp, 0
	.cfi_def_cfa_register 29
.LBB324:
.LBB325:
	.loc 5 362 0
	ldr	x1, [x0,24]
	bl	_raw_spin_unlock_irqrestore
.LVL252:
.LBE325:
.LBE324:
	.loc 1 319 0
	mov	w0, 0
	ldp	x29, x30, [sp], 16
	.cfi_restore 30
	.cfi_restore 29
	.cfi_def_cfa 31, 0
	ret
	.cfi_endproc
.LFE2657:
	.size	OSAL_SpinUnLockIRQ, .-OSAL_SpinUnLockIRQ
	.align	2
	.global	GetSpinLockByEnum
	.type	GetSpinLockByEnum, %function
GetSpinLockByEnum:
.LFB2670:
	.loc 1 466 0
	.cfi_startproc
.LVL253:
	stp	x29, x30, [sp, -16]!
	.cfi_def_cfa_offset 16
	.cfi_offset 29, -16
	.cfi_offset 30, -8
	.loc 1 469 0
	cmp	w0, 4
	.loc 1 466 0
	add	x29, sp, 0
	.cfi_def_cfa_register 29
	.loc 1 469 0
	bls	.L188
.LBB328:
.LBB329:
	.loc 1 492 0
	adrp	x2, .LANCHOR1
	adrp	x1, .LC6
	add	x2, x2, :lo12:.LANCHOR1
	mov	w3, w0
	add	x1, x1, :lo12:.LC6
	add	x2, x2, 16
	mov	w0, 1
.LVL254:
	bl	dprint_linux_kernel
.LVL255:
	mov	x0, 0
.LVL256:
.LVL257:
.LBE329:
.LBE328:
	.loc 1 497 0
	ldp	x29, x30, [sp], 16
	.cfi_remember_state
	.cfi_restore 30
	.cfi_restore 29
	.cfi_def_cfa 31, 0
	ret
.LVL258:
.L188:
	.cfi_restore_state
	.loc 1 469 0
	adrp	x1, .L182
	add	x1, x1, :lo12:.L182
	ldrb	w0, [x1,w0,uxtw]
	adr	x1, .Lrtx182
	add	x0, x1, w0, sxtb #2
	br	x0
.Lrtx182:
.LVL259:
	.section	.rodata
	.align	0
	.align	2
.L182:
	.byte	(.L187 - .Lrtx182) / 4
	.byte	(.L183 - .Lrtx182) / 4
	.byte	(.L184 - .Lrtx182) / 4
	.byte	(.L185 - .Lrtx182) / 4
	.byte	(.L186 - .Lrtx182) / 4
	.text
.L187:
	.loc 1 472 0
	adrp	x0, .LANCHOR0
	add	x0, x0, :lo12:.LANCHOR0
	add	x0, x0, 96
.LVL260:
.LVL261:
	.loc 1 497 0
	ldp	x29, x30, [sp], 16
	.cfi_remember_state
	.cfi_restore 29
	.cfi_restore 30
	.cfi_def_cfa 31, 0
	ret
.L186:
	.cfi_restore_state
	.loc 1 488 0
	adrp	x0, .LANCHOR0
	add	x0, x0, :lo12:.LANCHOR0
	add	x0, x0, 256
.LVL262:
.LVL263:
	.loc 1 497 0
	ldp	x29, x30, [sp], 16
	.cfi_remember_state
	.cfi_restore 29
	.cfi_restore 30
	.cfi_def_cfa 31, 0
	ret
.L183:
	.cfi_restore_state
	.loc 1 476 0
	adrp	x0, .LANCHOR0
	add	x0, x0, :lo12:.LANCHOR0
	add	x0, x0, 136
.LVL264:
.LVL265:
	.loc 1 497 0
	ldp	x29, x30, [sp], 16
	.cfi_remember_state
	.cfi_restore 29
	.cfi_restore 30
	.cfi_def_cfa 31, 0
	ret
.L184:
	.cfi_restore_state
	.loc 1 480 0
	adrp	x0, .LANCHOR0
	add	x0, x0, :lo12:.LANCHOR0
	add	x0, x0, 176
.LVL266:
.LVL267:
	.loc 1 497 0
	ldp	x29, x30, [sp], 16
	.cfi_remember_state
	.cfi_restore 29
	.cfi_restore 30
	.cfi_def_cfa 31, 0
	ret
.L185:
	.cfi_restore_state
	.loc 1 484 0
	adrp	x0, .LANCHOR0
	add	x0, x0, :lo12:.LANCHOR0
	add	x0, x0, 216
.LVL268:
.LVL269:
	.loc 1 497 0
	ldp	x29, x30, [sp], 16
	.cfi_restore 29
	.cfi_restore 30
	.cfi_def_cfa 31, 0
	ret
	.cfi_endproc
.LFE2670:
	.size	GetSpinLockByEnum, .-GetSpinLockByEnum
	.align	2
	.global	GetSemByEnum
	.type	GetSemByEnum, %function
GetSemByEnum:
.LFB2674:
	.loc 1 540 0
	.cfi_startproc
.LVL270:
	stp	x29, x30, [sp, -16]!
	.cfi_def_cfa_offset 16
	.cfi_offset 29, -16
	.cfi_offset 30, -8
	add	x29, sp, 0
	.cfi_def_cfa_register 29
	.loc 1 543 0
	cbnz	w0, .L193
	.loc 1 546 0
	adrp	x0, .LANCHOR0
.LVL271:
	add	x0, x0, :lo12:.LANCHOR0
	add	x0, x0, 48
.LVL272:
.L191:
.LVL273:
	.loc 1 555 0
	ldp	x29, x30, [sp], 16
	.cfi_remember_state
	.cfi_restore 30
	.cfi_restore 29
	.cfi_def_cfa 31, 0
	ret
.LVL274:
.L193:
	.cfi_restore_state
.LBB332:
.LBB333:
	.loc 1 550 0
	adrp	x1, .LC5
	adrp	x2, .LANCHOR1
	mov	w3, w0
	add	x1, x1, :lo12:.LC5
	mov	w0, 1
.LVL275:
	add	x2, x2, :lo12:.LANCHOR1
	bl	dprint_linux_kernel
.LVL276:
	mov	x0, 0
.LVL277:
	b	.L191
.LBE333:
.LBE332:
	.cfi_endproc
.LFE2674:
	.size	GetSemByEnum, .-GetSemByEnum
	.align	2
	.global	OSAL_InitInterface
	.type	OSAL_InitInterface, %function
OSAL_InitInterface:
.LFB2681:
	.loc 1 656 0
	.cfi_startproc
	.loc 1 657 0
	adrp	x2, g_vfmw_osal_fun_ptr
	.loc 1 659 0
	adrp	x1, OSAL_GetTimeInMs
	.loc 1 657 0
	add	x0, x2, :lo12:g_vfmw_osal_fun_ptr
	.loc 1 659 0
	add	x1, x1, :lo12:OSAL_GetTimeInMs
	str	x1, [x2,#:lo12:g_vfmw_osal_fun_ptr]
	.loc 1 660 0
	adrp	x1, OSAL_GetTimeInUs
	add	x1, x1, :lo12:OSAL_GetTimeInUs
	str	x1, [x0,8]
	.loc 1 661 0
	adrp	x1, OSAL_SpinLockInit
	add	x1, x1, :lo12:OSAL_SpinLockInit
	str	x1, [x0,16]
	.loc 1 662 0
	adrp	x1, OSAL_SpinLock
	add	x1, x1, :lo12:OSAL_SpinLock
	str	x1, [x0,24]
	.loc 1 663 0
	adrp	x1, OSAL_SpinUnLock
	add	x1, x1, :lo12:OSAL_SpinUnLock
	str	x1, [x0,32]
	.loc 1 664 0
	adrp	x1, OSAL_SemInit
	add	x1, x1, :lo12:OSAL_SemInit
	str	x1, [x0,40]
	.loc 1 665 0
	adrp	x1, OSAL_SemDown
	add	x1, x1, :lo12:OSAL_SemDown
	str	x1, [x0,48]
	.loc 1 666 0
	adrp	x1, OSAL_SemUp
	add	x1, x1, :lo12:OSAL_SemUp
	str	x1, [x0,56]
	.loc 1 667 0
	adrp	x1, printk
	add	x1, x1, :lo12:printk
	str	x1, [x0,64]
	.loc 1 668 0
	adrp	x1, OSAL_mSleep
	add	x1, x1, :lo12:OSAL_mSleep
	str	x1, [x0,88]
	.loc 1 669 0
	adrp	x1, OSAL_Mb
	add	x1, x1, :lo12:OSAL_Mb
	str	x1, [x0,72]
	.loc 1 670 0
	adrp	x1, OSAL_uDelay
	add	x1, x1, :lo12:OSAL_uDelay
	str	x1, [x0,80]
	.loc 1 671 0
	adrp	x1, OSAL_InitWaitQue
	add	x1, x1, :lo12:OSAL_InitWaitQue
	str	x1, [x0,96]
	.loc 1 672 0
	adrp	x1, OSAL_WakeupWaitQue
	add	x1, x1, :lo12:OSAL_WakeupWaitQue
	str	x1, [x0,104]
	.loc 1 673 0
	adrp	x1, OSAL_WaitWaitQue
	add	x1, x1, :lo12:OSAL_WaitWaitQue
	str	x1, [x0,112]
	.loc 1 674 0
	adrp	x1, OSAL_RequestIrq
	add	x1, x1, :lo12:OSAL_RequestIrq
	str	x1, [x0,120]
	.loc 1 675 0
	adrp	x1, OSAL_FreeIrq
	add	x1, x1, :lo12:OSAL_FreeIrq
	str	x1, [x0,128]
	.loc 1 676 0
	adrp	x1, OSAL_MemMalloc
	add	x1, x1, :lo12:OSAL_MemMalloc
	str	x1, [x0,136]
	.loc 1 677 0
	adrp	x1, OSAL_MemFree
	add	x1, x1, :lo12:OSAL_MemFree
	str	x1, [x0,144]
	.loc 1 678 0
	adrp	x1, OSAL_RegisterMap
	add	x1, x1, :lo12:OSAL_RegisterMap
	str	x1, [x0,152]
	.loc 1 679 0
	adrp	x1, OSAL_RegisterUnMap
	add	x1, x1, :lo12:OSAL_RegisterUnMap
	str	x1, [x0,160]
	.loc 1 680 0
	adrp	x1, OSAL_Mmap
	add	x1, x1, :lo12:OSAL_Mmap
	str	x1, [x0,168]
	.loc 1 681 0
	adrp	x1, OSAL_MmapCache
	add	x1, x1, :lo12:OSAL_MmapCache
	str	x1, [x0,176]
	.loc 1 682 0
	adrp	x1, OSAL_Munmap
	add	x1, x1, :lo12:OSAL_Munmap
	str	x1, [x0,184]
	.loc 1 683 0
	adrp	x1, OSAL_AllocVirMem
	add	x1, x1, :lo12:OSAL_AllocVirMem
	str	x1, [x0,192]
	.loc 1 684 0
	adrp	x1, OSAL_FreeVirMem
	add	x1, x1, :lo12:OSAL_FreeVirMem
	str	x1, [x0,200]
	.loc 1 685 0
	adrp	x1, OSAL_ProcInit
	add	x1, x1, :lo12:OSAL_ProcInit
	str	x1, [x0,208]
	.loc 1 686 0
	adrp	x1, OSAL_ProcExit
	add	x1, x1, :lo12:OSAL_ProcExit
	str	x1, [x0,216]
	.loc 1 687 0
	ret
	.cfi_endproc
.LFE2681:
	.size	OSAL_InitInterface, .-OSAL_InitInterface
	.global	g_VfmwSem
	.global	g_IntEvent
	.global	g_SpinLock_Destroy
	.global	g_SpinLock_Fsp
	.global	g_SpinLock_VoQueue
	.global	g_SpinLock_Record
	.global	g_SpinLock_Thread
	.section	.rodata
	.align	3
.LANCHOR1 = . + 0
	.type	__func__.37779, %object
	.size	__func__.37779, 13
__func__.37779:
	.string	"GetSemByEnum"
	.zero	3
	.type	__func__.37759, %object
	.size	__func__.37759, 18
__func__.37759:
	.string	"GetSpinLockByEnum"
	.section	.rodata.str1.8,"aMS",%progbits,1
	.align	3
.LC0:
	.string	"&(pEvent->queue_head)"
	.zero	2
.LC1:
	.string	"Alloc mem %s failed, g_pfnMemMalloc(%pK)/pMemDesc(%pK) = NULL\n"
	.zero	1
.LC2:
	.string	"Alloc mem %s failed, size = %d\n"
.LC3:
	.string	"Free mem %x failed, mem_free = NULL\n"
	.zero	3
.LC4:
	.string	"Free mem %x failed, param pMemDesc = NULL\n"
	.zero	5
.LC5:
	.string	"%s unkown SemType %d\n"
	.zero	2
.LC6:
	.string	"%s unkown SpinLockType %d\n"
	.zero	5
.LC7:
	.string	"&(&pIntrMutex->irq_lock)->rlock"
.LC8:
	.string	"can not create thread!\n"
	.bss
	.align	3
.LANCHOR0 = . + 0
	.type	g_IntEvent, %object
	.size	g_IntEvent, 48
g_IntEvent:
	.zero	48
	.type	__key.37622, %object
	.size	__key.37622, 0
__key.37622:
	.type	g_VfmwSem, %object
	.size	g_VfmwSem, 48
g_VfmwSem:
	.zero	48
	.type	g_SpinLock_Thread, %object
	.size	g_SpinLock_Thread, 40
g_SpinLock_Thread:
	.zero	40
	.type	g_SpinLock_Record, %object
	.size	g_SpinLock_Record, 40
g_SpinLock_Record:
	.zero	40
	.type	g_SpinLock_VoQueue, %object
	.size	g_SpinLock_VoQueue, 40
g_SpinLock_VoQueue:
	.zero	40
	.type	g_SpinLock_Fsp, %object
	.size	g_SpinLock_Fsp, 40
g_SpinLock_Fsp:
	.zero	40
	.type	g_SpinLock_Destroy, %object
	.size	g_SpinLock_Destroy, 40
g_SpinLock_Destroy:
	.zero	40
	.type	__key.37688, %object
	.size	__key.37688, 0
__key.37688:
	.type	__key.37692, %object
	.size	__key.37692, 0
__key.37692:
	.text
.Letext0:
	.file 8 "/mnt/disk/jenkins/ci/workspace/chipset_release_960_xloader/opensource/component_code/vendor/huawei/extra/build/build_script/kirin_kernel_release/kernel/drivers/vcodec/hi_vcodec/vdec/include/hi_type.h"
	.file 9 "/mnt/disk/jenkins/ci/workspace/chipset_release_960_xloader/opensource/component_code/vendor/huawei/extra/build/build_script/kirin_kernel_release/kernel/drivers/vcodec/hi_vcodec/vdec/vfmw/vfmw_v4.0/vfmw.h"
	.file 10 "/mnt/disk/jenkins/ci/workspace/chipset_release_960_xloader/opensource/component_code/vendor/huawei/extra/build/build_script/kirin_kernel_release/kernel/include/uapi/asm-generic/int-ll64.h"
	.file 11 "/mnt/disk/jenkins/ci/workspace/chipset_release_960_xloader/opensource/component_code/vendor/huawei/extra/build/build_script/kirin_kernel_release/kernel/include/asm-generic/int-ll64.h"
	.file 12 "/mnt/disk/jenkins/ci/workspace/chipset_release_960_xloader/opensource/component_code/vendor/huawei/extra/build/build_script/kirin_kernel_release/kernel/include/uapi/asm-generic/posix_types.h"
	.file 13 "/mnt/disk/jenkins/ci/workspace/chipset_release_960_xloader/opensource/component_code/vendor/huawei/extra/build/build_script/kirin_kernel_release/kernel/include/linux/export.h"
	.file 14 "/mnt/disk/jenkins/ci/workspace/chipset_release_960_xloader/opensource/component_code/vendor/huawei/extra/build/build_script/kirin_kernel_release/kernel/include/linux/types.h"
	.file 15 "/mnt/disk/jenkins/ci/workspace/chipset_release_960_xloader/opensource/component_code/vendor/huawei/extra/build/build_script/kirin_kernel_release/kernel/include/asm-generic/bug.h"
	.file 16 "/mnt/disk/jenkins/ci/workspace/chipset_release_960_xloader/opensource/component_code/vendor/huawei/extra/build/build_script/kirin_kernel_release/kernel/include/linux/restart_block.h"
	.file 17 "/mnt/disk/jenkins/ci/workspace/chipset_release_960_xloader/opensource/component_code/vendor/huawei/extra/build/build_script/kirin_kernel_release/kernel/include/uapi/linux/time.h"
	.file 18 "/mnt/disk/jenkins/ci/workspace/chipset_release_960_xloader/opensource/component_code/vendor/huawei/extra/build/build_script/kirin_kernel_release/kernel/arch/arm64/include/asm/compat.h"
	.file 19 "/mnt/disk/jenkins/ci/workspace/chipset_release_960_xloader/opensource/component_code/vendor/huawei/extra/build/build_script/kirin_kernel_release/kernel/include/uapi/asm-generic/poll.h"
	.file 20 "/mnt/disk/jenkins/ci/workspace/chipset_release_960_xloader/opensource/component_code/vendor/huawei/extra/build/build_script/kirin_kernel_release/kernel/arch/arm64/include/asm/thread_info.h"
	.file 21 "/mnt/disk/jenkins/ci/workspace/chipset_release_960_xloader/opensource/component_code/vendor/huawei/extra/build/build_script/kirin_kernel_release/kernel/arch/arm64/include/uapi/asm/ptrace.h"
	.file 22 "/mnt/disk/jenkins/ci/workspace/chipset_release_960_xloader/opensource/component_code/vendor/huawei/extra/build/build_script/kirin_kernel_release/kernel/arch/arm64/include/asm/ptrace.h"
	.file 23 "/mnt/disk/jenkins/ci/workspace/chipset_release_960_xloader/opensource/component_code/vendor/huawei/extra/build/build_script/kirin_kernel_release/kernel/arch/arm64/include/asm/spinlock_types.h"
	.file 24 "/mnt/disk/jenkins/ci/workspace/chipset_release_960_xloader/opensource/component_code/vendor/huawei/extra/build/build_script/kirin_kernel_release/kernel/include/linux/spinlock_types.h"
	.file 25 "/mnt/disk/jenkins/ci/workspace/chipset_release_960_xloader/opensource/component_code/vendor/huawei/extra/build/build_script/kirin_kernel_release/kernel/include/linux/rwlock_types.h"
	.file 26 "/mnt/disk/jenkins/ci/workspace/chipset_release_960_xloader/opensource/component_code/vendor/huawei/extra/build/build_script/kirin_kernel_release/kernel/arch/arm64/include/asm/fpsimd.h"
	.file 27 "/mnt/disk/jenkins/ci/workspace/chipset_release_960_xloader/opensource/component_code/vendor/huawei/extra/build/build_script/kirin_kernel_release/kernel/include/linux/jump_label.h"
	.file 28 "/mnt/disk/jenkins/ci/workspace/chipset_release_960_xloader/opensource/component_code/vendor/huawei/extra/build/build_script/kirin_kernel_release/kernel/include/asm-generic/atomic-long.h"
	.file 29 "/mnt/disk/jenkins/ci/workspace/chipset_release_960_xloader/opensource/component_code/vendor/huawei/extra/build/build_script/kirin_kernel_release/kernel/arch/arm64/include/asm/hw_breakpoint.h"
	.file 30 "/mnt/disk/jenkins/ci/workspace/chipset_release_960_xloader/opensource/component_code/vendor/huawei/extra/build/build_script/kirin_kernel_release/kernel/arch/arm64/include/asm/processor.h"
	.file 31 "/mnt/disk/jenkins/ci/workspace/chipset_release_960_xloader/opensource/component_code/vendor/huawei/extra/build/build_script/kirin_kernel_release/kernel/include/linux/perf_event.h"
	.file 32 "/mnt/disk/jenkins/ci/workspace/chipset_release_960_xloader/opensource/component_code/vendor/huawei/extra/build/build_script/kirin_kernel_release/kernel/include/linux/wait.h"
	.file 33 "/mnt/disk/jenkins/ci/workspace/chipset_release_960_xloader/opensource/component_code/vendor/huawei/extra/build/build_script/kirin_kernel_release/kernel/include/linux/seqlock.h"
	.file 34 "/mnt/disk/jenkins/ci/workspace/chipset_release_960_xloader/opensource/component_code/vendor/huawei/extra/build/build_script/kirin_kernel_release/kernel/include/linux/nodemask.h"
	.file 35 "/mnt/disk/jenkins/ci/workspace/chipset_release_960_xloader/opensource/component_code/vendor/huawei/extra/build/build_script/kirin_kernel_release/kernel/include/linux/cpumask.h"
	.file 36 "/mnt/disk/jenkins/ci/workspace/chipset_release_960_xloader/opensource/component_code/vendor/huawei/extra/build/build_script/kirin_kernel_release/kernel/include/linux/completion.h"
	.file 37 "/mnt/disk/jenkins/ci/workspace/chipset_release_960_xloader/opensource/component_code/vendor/huawei/extra/build/build_script/kirin_kernel_release/kernel/include/linux/time64.h"
	.file 38 "/mnt/disk/jenkins/ci/workspace/chipset_release_960_xloader/opensource/component_code/vendor/huawei/extra/build/build_script/kirin_kernel_release/kernel/include/linux/ktime.h"
	.file 39 "/mnt/disk/jenkins/ci/workspace/chipset_release_960_xloader/opensource/component_code/vendor/huawei/extra/build/build_script/kirin_kernel_release/kernel/include/linux/rbtree.h"
	.file 40 "/mnt/disk/jenkins/ci/workspace/chipset_release_960_xloader/opensource/component_code/vendor/huawei/extra/build/build_script/kirin_kernel_release/kernel/include/linux/osq_lock.h"
	.file 41 "/mnt/disk/jenkins/ci/workspace/chipset_release_960_xloader/opensource/component_code/vendor/huawei/extra/build/build_script/kirin_kernel_release/kernel/include/linux/rwsem.h"
	.file 42 "/mnt/disk/jenkins/ci/workspace/chipset_release_960_xloader/opensource/component_code/vendor/huawei/extra/build/build_script/kirin_kernel_release/kernel/include/linux/sched.h"
	.file 43 "/mnt/disk/jenkins/ci/workspace/chipset_release_960_xloader/opensource/component_code/vendor/huawei/extra/build/build_script/kirin_kernel_release/kernel/include/linux/mm_types.h"
	.file 44 "/mnt/disk/jenkins/ci/workspace/chipset_release_960_xloader/opensource/component_code/vendor/huawei/extra/build/build_script/kirin_kernel_release/kernel/include/linux/lockdep.h"
	.file 45 "/mnt/disk/jenkins/ci/workspace/chipset_release_960_xloader/opensource/component_code/vendor/huawei/extra/build/build_script/kirin_kernel_release/kernel/include/linux/uprobes.h"
	.file 46 "/mnt/disk/jenkins/ci/workspace/chipset_release_960_xloader/opensource/component_code/vendor/huawei/extra/build/build_script/kirin_kernel_release/kernel/include/linux/timer.h"
	.file 47 "/mnt/disk/jenkins/ci/workspace/chipset_release_960_xloader/opensource/component_code/vendor/huawei/extra/build/build_script/kirin_kernel_release/kernel/include/linux/uidgid.h"
	.file 48 "/mnt/disk/jenkins/ci/workspace/chipset_release_960_xloader/opensource/component_code/vendor/huawei/extra/build/build_script/kirin_kernel_release/kernel/include/linux/sysctl.h"
	.file 49 "/mnt/disk/jenkins/ci/workspace/chipset_release_960_xloader/opensource/component_code/vendor/huawei/extra/build/build_script/kirin_kernel_release/kernel/include/linux/workqueue.h"
	.file 50 "/mnt/disk/jenkins/ci/workspace/chipset_release_960_xloader/opensource/component_code/vendor/huawei/extra/build/build_script/kirin_kernel_release/kernel/arch/arm64/include/asm/pgtable-types.h"
	.file 51 "/mnt/disk/jenkins/ci/workspace/chipset_release_960_xloader/opensource/component_code/vendor/huawei/extra/build/build_script/kirin_kernel_release/kernel/arch/arm64/include/asm/page.h"
	.file 52 "/mnt/disk/jenkins/ci/workspace/chipset_release_960_xloader/opensource/component_code/vendor/huawei/extra/build/build_script/kirin_kernel_release/kernel/include/linux/llist.h"
	.file 53 "/mnt/disk/jenkins/ci/workspace/chipset_release_960_xloader/opensource/component_code/vendor/huawei/extra/build/build_script/kirin_kernel_release/kernel/arch/arm64/include/asm/smp.h"
	.file 54 "/mnt/disk/jenkins/ci/workspace/chipset_release_960_xloader/opensource/component_code/vendor/huawei/extra/build/build_script/kirin_kernel_release/kernel/arch/arm64/include/asm/mmu.h"
	.file 55 "/mnt/disk/jenkins/ci/workspace/chipset_release_960_xloader/opensource/component_code/vendor/huawei/extra/build/build_script/kirin_kernel_release/kernel/include/linux/fs.h"
	.file 56 "/mnt/disk/jenkins/ci/workspace/chipset_release_960_xloader/opensource/component_code/vendor/huawei/extra/build/build_script/kirin_kernel_release/kernel/include/linux/mm.h"
	.file 57 "/mnt/disk/jenkins/ci/workspace/chipset_release_960_xloader/opensource/component_code/vendor/huawei/extra/build/build_script/kirin_kernel_release/kernel/include/linux/user_namespace.h"
	.file 58 "/mnt/disk/jenkins/ci/workspace/chipset_release_960_xloader/opensource/component_code/vendor/huawei/extra/build/build_script/kirin_kernel_release/kernel/include/linux/mmzone.h"
	.file 59 "/mnt/disk/jenkins/ci/workspace/chipset_release_960_xloader/opensource/component_code/vendor/huawei/extra/build/build_script/kirin_kernel_release/kernel/include/linux/mutex.h"
	.file 60 "/mnt/disk/jenkins/ci/workspace/chipset_release_960_xloader/opensource/component_code/vendor/huawei/extra/build/build_script/kirin_kernel_release/kernel/include/linux/percpu-refcount.h"
	.file 61 "/mnt/disk/jenkins/ci/workspace/chipset_release_960_xloader/opensource/component_code/vendor/huawei/extra/build/build_script/kirin_kernel_release/kernel/include/linux/shrinker.h"
	.file 62 "/mnt/disk/jenkins/ci/workspace/chipset_release_960_xloader/opensource/component_code/vendor/huawei/extra/build/build_script/kirin_kernel_release/kernel/include/uapi/linux/resource.h"
	.file 63 "/mnt/disk/jenkins/ci/workspace/chipset_release_960_xloader/opensource/component_code/vendor/huawei/extra/build/build_script/kirin_kernel_release/kernel/include/linux/tracepoint-defs.h"
	.file 64 "/mnt/disk/jenkins/ci/workspace/chipset_release_960_xloader/opensource/component_code/vendor/huawei/extra/build/build_script/kirin_kernel_release/kernel/include/linux/vmstat.h"
	.file 65 "/mnt/disk/jenkins/ci/workspace/chipset_release_960_xloader/opensource/component_code/vendor/huawei/extra/build/build_script/kirin_kernel_release/kernel/include/linux/capability.h"
	.file 66 "/mnt/disk/jenkins/ci/workspace/chipset_release_960_xloader/opensource/component_code/vendor/huawei/extra/build/build_script/kirin_kernel_release/kernel/include/linux/plist.h"
	.file 67 "/mnt/disk/jenkins/ci/workspace/chipset_release_960_xloader/opensource/component_code/vendor/huawei/extra/build/build_script/kirin_kernel_release/kernel/include/asm-generic/cputime_jiffies.h"
	.file 68 "/mnt/disk/jenkins/ci/workspace/chipset_release_960_xloader/opensource/component_code/vendor/huawei/extra/build/build_script/kirin_kernel_release/kernel/include/uapi/asm-generic/signal.h"
	.file 69 "/mnt/disk/jenkins/ci/workspace/chipset_release_960_xloader/opensource/component_code/vendor/huawei/extra/build/build_script/kirin_kernel_release/kernel/include/uapi/asm-generic/signal-defs.h"
	.file 70 "/mnt/disk/jenkins/ci/workspace/chipset_release_960_xloader/opensource/component_code/vendor/huawei/extra/build/build_script/kirin_kernel_release/kernel/include/uapi/asm-generic/siginfo.h"
	.file 71 "/mnt/disk/jenkins/ci/workspace/chipset_release_960_xloader/opensource/component_code/vendor/huawei/extra/build/build_script/kirin_kernel_release/kernel/include/linux/signal.h"
	.file 72 "/mnt/disk/jenkins/ci/workspace/chipset_release_960_xloader/opensource/component_code/vendor/huawei/extra/build/build_script/kirin_kernel_release/kernel/include/linux/pid.h"
	.file 73 "/mnt/disk/jenkins/ci/workspace/chipset_release_960_xloader/opensource/component_code/vendor/huawei/extra/build/build_script/kirin_kernel_release/kernel/include/linux/pid_namespace.h"
	.file 74 "/mnt/disk/jenkins/ci/workspace/chipset_release_960_xloader/opensource/component_code/vendor/huawei/extra/build/build_script/kirin_kernel_release/kernel/include/linux/seccomp.h"
	.file 75 "/mnt/disk/jenkins/ci/workspace/chipset_release_960_xloader/opensource/component_code/vendor/huawei/extra/build/build_script/kirin_kernel_release/kernel/include/linux/timerqueue.h"
	.file 76 "/mnt/disk/jenkins/ci/workspace/chipset_release_960_xloader/opensource/component_code/vendor/huawei/extra/build/build_script/kirin_kernel_release/kernel/include/linux/hrtimer.h"
	.file 77 "/mnt/disk/jenkins/ci/workspace/chipset_release_960_xloader/opensource/component_code/vendor/huawei/extra/build/build_script/kirin_kernel_release/kernel/include/linux/task_io_accounting.h"
	.file 78 "/mnt/disk/jenkins/ci/workspace/chipset_release_960_xloader/opensource/component_code/vendor/huawei/extra/build/build_script/kirin_kernel_release/kernel/include/linux/assoc_array.h"
	.file 79 "/mnt/disk/jenkins/ci/workspace/chipset_release_960_xloader/opensource/component_code/vendor/huawei/extra/build/build_script/kirin_kernel_release/kernel/include/linux/key.h"
	.file 80 "/mnt/disk/jenkins/ci/workspace/chipset_release_960_xloader/opensource/component_code/vendor/huawei/extra/build/build_script/kirin_kernel_release/kernel/include/linux/cred.h"
	.file 81 "/mnt/disk/jenkins/ci/workspace/chipset_release_960_xloader/opensource/component_code/vendor/huawei/extra/build/build_script/kirin_kernel_release/kernel/include/linux/idr.h"
	.file 82 "/mnt/disk/jenkins/ci/workspace/chipset_release_960_xloader/opensource/component_code/vendor/huawei/extra/build/build_script/kirin_kernel_release/kernel/include/linux/rcu_sync.h"
	.file 83 "/mnt/disk/jenkins/ci/workspace/chipset_release_960_xloader/opensource/component_code/vendor/huawei/extra/build/build_script/kirin_kernel_release/kernel/include/linux/percpu-rwsem.h"
	.file 84 "/mnt/disk/jenkins/ci/workspace/chipset_release_960_xloader/opensource/component_code/vendor/huawei/extra/build/build_script/kirin_kernel_release/kernel/include/linux/bpf-cgroup.h"
	.file 85 "/mnt/disk/jenkins/ci/workspace/chipset_release_960_xloader/opensource/component_code/vendor/huawei/extra/build/build_script/kirin_kernel_release/kernel/include/linux/cgroup-defs.h"
	.file 86 "/mnt/disk/jenkins/ci/workspace/chipset_release_960_xloader/opensource/component_code/vendor/huawei/extra/build/build_script/kirin_kernel_release/kernel/include/linux/kernfs.h"
	.file 87 "/mnt/disk/jenkins/ci/workspace/chipset_release_960_xloader/opensource/component_code/vendor/huawei/extra/build/build_script/kirin_kernel_release/kernel/include/linux/seq_file.h"
	.file 88 "/mnt/disk/jenkins/ci/workspace/chipset_release_960_xloader/opensource/component_code/vendor/huawei/extra/build/build_script/kirin_kernel_release/kernel/include/uapi/linux/taskstats.h"
	.file 89 "/mnt/disk/jenkins/ci/workspace/chipset_release_960_xloader/opensource/component_code/vendor/huawei/extra/build/build_script/kirin_kernel_release/kernel/include/linux/nsproxy.h"
	.file 90 "/mnt/disk/jenkins/ci/workspace/chipset_release_960_xloader/opensource/component_code/vendor/huawei/extra/build/build_script/kirin_kernel_release/kernel/include/linux/compat.h"
	.file 91 "/mnt/disk/jenkins/ci/workspace/chipset_release_960_xloader/opensource/component_code/vendor/huawei/extra/build/build_script/kirin_kernel_release/kernel/include/linux/stat.h"
	.file 92 "/mnt/disk/jenkins/ci/workspace/chipset_release_960_xloader/opensource/component_code/vendor/huawei/extra/build/build_script/kirin_kernel_release/kernel/include/uapi/linux/elf.h"
	.file 93 "/mnt/disk/jenkins/ci/workspace/chipset_release_960_xloader/opensource/component_code/vendor/huawei/extra/build/build_script/kirin_kernel_release/kernel/include/linux/kobject_ns.h"
	.file 94 "/mnt/disk/jenkins/ci/workspace/chipset_release_960_xloader/opensource/component_code/vendor/huawei/extra/build/build_script/kirin_kernel_release/kernel/include/linux/sysfs.h"
	.file 95 "/mnt/disk/jenkins/ci/workspace/chipset_release_960_xloader/opensource/component_code/vendor/huawei/extra/build/build_script/kirin_kernel_release/kernel/include/linux/kobject.h"
	.file 96 "/mnt/disk/jenkins/ci/workspace/chipset_release_960_xloader/opensource/component_code/vendor/huawei/extra/build/build_script/kirin_kernel_release/kernel/include/linux/kref.h"
	.file 97 "/mnt/disk/jenkins/ci/workspace/chipset_release_960_xloader/opensource/component_code/vendor/huawei/extra/build/build_script/kirin_kernel_release/kernel/include/linux/moduleparam.h"
	.file 98 "/mnt/disk/jenkins/ci/workspace/chipset_release_960_xloader/opensource/component_code/vendor/huawei/extra/build/build_script/kirin_kernel_release/kernel/include/linux/module.h"
	.file 99 "/mnt/disk/jenkins/ci/workspace/chipset_release_960_xloader/opensource/component_code/vendor/huawei/extra/build/build_script/kirin_kernel_release/kernel/include/linux/rbtree_latch.h"
	.file 100 "/mnt/disk/jenkins/ci/workspace/chipset_release_960_xloader/opensource/component_code/vendor/huawei/extra/build/build_script/kirin_kernel_release/kernel/arch/arm64/include/asm/module.h"
	.file 101 "/mnt/disk/jenkins/ci/workspace/chipset_release_960_xloader/opensource/component_code/vendor/huawei/extra/build/build_script/kirin_kernel_release/kernel/include/linux/trace_events.h"
	.file 102 "/mnt/disk/jenkins/ci/workspace/chipset_release_960_xloader/opensource/component_code/vendor/huawei/extra/build/build_script/kirin_kernel_release/kernel/include/linux/tracepoint.h"
	.file 103 "/mnt/disk/jenkins/ci/workspace/chipset_release_960_xloader/opensource/component_code/vendor/huawei/extra/build/build_script/kirin_kernel_release/kernel/include/linux/percpu_counter.h"
	.file 104 "/mnt/disk/jenkins/ci/workspace/chipset_release_960_xloader/opensource/component_code/vendor/huawei/extra/build/build_script/kirin_kernel_release/kernel/include/linux/quota.h"
	.file 105 "/mnt/disk/jenkins/ci/workspace/chipset_release_960_xloader/opensource/component_code/vendor/huawei/extra/build/build_script/kirin_kernel_release/kernel/include/linux/projid.h"
	.file 106 "/mnt/disk/jenkins/ci/workspace/chipset_release_960_xloader/opensource/component_code/vendor/huawei/extra/build/build_script/kirin_kernel_release/kernel/include/linux/path.h"
	.file 107 "/mnt/disk/jenkins/ci/workspace/chipset_release_960_xloader/opensource/component_code/vendor/huawei/extra/build/build_script/kirin_kernel_release/kernel/include/linux/list_bl.h"
	.file 108 "/mnt/disk/jenkins/ci/workspace/chipset_release_960_xloader/opensource/component_code/vendor/huawei/extra/build/build_script/kirin_kernel_release/kernel/include/linux/lockref.h"
	.file 109 "/mnt/disk/jenkins/ci/workspace/chipset_release_960_xloader/opensource/component_code/vendor/huawei/extra/build/build_script/kirin_kernel_release/kernel/include/linux/dcache.h"
	.file 110 "/mnt/disk/jenkins/ci/workspace/chipset_release_960_xloader/opensource/component_code/vendor/huawei/extra/build/build_script/kirin_kernel_release/kernel/include/linux/list_lru.h"
	.file 111 "/mnt/disk/jenkins/ci/workspace/chipset_release_960_xloader/opensource/component_code/vendor/huawei/extra/build/build_script/kirin_kernel_release/kernel/include/linux/radix-tree.h"
	.file 112 "/mnt/disk/jenkins/ci/workspace/chipset_release_960_xloader/opensource/component_code/vendor/huawei/extra/build/build_script/kirin_kernel_release/kernel/include/uapi/linux/fiemap.h"
	.file 113 "/mnt/disk/jenkins/ci/workspace/chipset_release_960_xloader/opensource/component_code/vendor/huawei/extra/build/build_script/kirin_kernel_release/kernel/include/linux/migrate_mode.h"
	.file 114 "/mnt/disk/jenkins/ci/workspace/chipset_release_960_xloader/opensource/component_code/vendor/huawei/extra/build/build_script/kirin_kernel_release/kernel/include/linux/bvec.h"
	.file 115 "/mnt/disk/jenkins/ci/workspace/chipset_release_960_xloader/opensource/component_code/vendor/huawei/extra/build/build_script/kirin_kernel_release/kernel/include/linux/delayed_call.h"
	.file 116 "/mnt/disk/jenkins/ci/workspace/chipset_release_960_xloader/opensource/component_code/vendor/huawei/extra/build/build_script/kirin_kernel_release/kernel/include/linux/uio.h"
	.file 117 "/mnt/disk/jenkins/ci/workspace/chipset_release_960_xloader/opensource/component_code/vendor/huawei/extra/build/build_script/kirin_kernel_release/kernel/include/linux/nfs_fs_i.h"
	.file 118 "/mnt/disk/jenkins/ci/workspace/chipset_release_960_xloader/opensource/component_code/vendor/huawei/extra/build/build_script/kirin_kernel_release/kernel/include/linux/poll.h"
	.file 119 "/mnt/disk/jenkins/ci/workspace/chipset_release_960_xloader/opensource/component_code/vendor/huawei/extra/build/build_script/kirin_kernel_release/kernel/include/linux/seq_buf.h"
	.file 120 "/mnt/disk/jenkins/ci/workspace/chipset_release_960_xloader/opensource/component_code/vendor/huawei/extra/build/build_script/kirin_kernel_release/kernel/include/linux/trace_seq.h"
	.file 121 "/mnt/disk/jenkins/ci/workspace/chipset_release_960_xloader/opensource/component_code/vendor/huawei/extra/build/build_script/kirin_kernel_release/kernel/include/uapi/linux/perf_event.h"
	.file 122 "/mnt/disk/jenkins/ci/workspace/chipset_release_960_xloader/opensource/component_code/vendor/huawei/extra/build/build_script/kirin_kernel_release/kernel/include/asm-generic/local.h"
	.file 123 "/mnt/disk/jenkins/ci/workspace/chipset_release_960_xloader/opensource/component_code/vendor/huawei/extra/build/build_script/kirin_kernel_release/kernel/include/asm-generic/local64.h"
	.file 124 "/mnt/disk/jenkins/ci/workspace/chipset_release_960_xloader/opensource/component_code/vendor/huawei/extra/build/build_script/kirin_kernel_release/kernel/include/linux/cgroup.h"
	.file 125 "/mnt/disk/jenkins/ci/workspace/chipset_release_960_xloader/opensource/component_code/vendor/huawei/extra/build/build_script/kirin_kernel_release/kernel/include/linux/ns_common.h"
	.file 126 "/mnt/disk/jenkins/ci/workspace/chipset_release_960_xloader/opensource/component_code/vendor/huawei/extra/build/build_script/kirin_kernel_release/kernel/include/uapi/linux/uio.h"
	.file 127 "/mnt/disk/jenkins/ci/workspace/chipset_release_960_xloader/opensource/component_code/vendor/huawei/extra/build/build_script/kirin_kernel_release/kernel/include/linux/klist.h"
	.file 128 "/mnt/disk/jenkins/ci/workspace/chipset_release_960_xloader/opensource/component_code/vendor/huawei/extra/build/build_script/kirin_kernel_release/kernel/include/linux/pinctrl/devinfo.h"
	.file 129 "/mnt/disk/jenkins/ci/workspace/chipset_release_960_xloader/opensource/component_code/vendor/huawei/extra/build/build_script/kirin_kernel_release/kernel/include/linux/pm.h"
	.file 130 "/mnt/disk/jenkins/ci/workspace/chipset_release_960_xloader/opensource/component_code/vendor/huawei/extra/build/build_script/kirin_kernel_release/kernel/include/linux/device.h"
	.file 131 "/mnt/disk/jenkins/ci/workspace/chipset_release_960_xloader/opensource/component_code/vendor/huawei/extra/build/build_script/kirin_kernel_release/kernel/include/linux/pm_wakeup.h"
	.file 132 "/mnt/disk/jenkins/ci/workspace/chipset_release_960_xloader/opensource/component_code/vendor/huawei/extra/build/build_script/kirin_kernel_release/kernel/arch/arm64/include/asm/device.h"
	.file 133 "/mnt/disk/jenkins/ci/workspace/chipset_release_960_xloader/opensource/component_code/vendor/huawei/extra/build/build_script/kirin_kernel_release/kernel/include/linux/irq_work.h"
	.file 134 "/mnt/disk/jenkins/ci/workspace/chipset_release_960_xloader/opensource/component_code/vendor/huawei/extra/build/build_script/kirin_kernel_release/kernel/include/linux/perf_regs.h"
	.file 135 "/mnt/disk/jenkins/ci/workspace/chipset_release_960_xloader/opensource/component_code/vendor/huawei/extra/build/build_script/kirin_kernel_release/kernel/include/linux/irqreturn.h"
	.file 136 "/mnt/disk/jenkins/ci/workspace/chipset_release_960_xloader/opensource/component_code/vendor/huawei/extra/build/build_script/kirin_kernel_release/kernel/drivers/vcodec/hi_vcodec/vdec/vfmw/vfmw_v4.0/firmware/osal/vfmw_osal_ext.h"
	.file 137 "/mnt/disk/jenkins/ci/workspace/chipset_release_960_xloader/opensource/component_code/vendor/huawei/extra/build/build_script/kirin_kernel_release/kernel/drivers/vcodec/hi_vcodec/vdec/vfmw/vfmw_v4.0/firmware/osal/linux_kernel/linux_kernel_osal.h"
	.file 138 "/mnt/disk/jenkins/ci/workspace/chipset_release_960_xloader/opensource/component_code/vendor/huawei/extra/build/build_script/kirin_kernel_release/kernel/drivers/vcodec/hi_vcodec/vdec/vfmw/vfmw_v4.0/firmware/common/public.h"
	.file 139 "/mnt/disk/jenkins/ci/workspace/chipset_release_960_xloader/opensource/component_code/vendor/huawei/extra/build/build_script/kirin_kernel_release/kernel/include/linux/err.h"
	.file 140 "/mnt/disk/jenkins/ci/workspace/chipset_release_960_xloader/opensource/component_code/vendor/huawei/extra/build/build_script/kirin_kernel_release/kernel/drivers/vcodec/hi_vcodec/vdec/vfmw/vfmw_v4.0/firmware/osal/linux_kernel/linux_kernel_proc.h"
	.file 141 "/mnt/disk/jenkins/ci/workspace/chipset_release_960_xloader/opensource/component_code/vendor/huawei/extra/build/build_script/kirin_kernel_release/kernel/arch/arm64/include/asm/cachetype.h"
	.file 142 "/mnt/disk/jenkins/ci/workspace/chipset_release_960_xloader/opensource/component_code/vendor/huawei/extra/build/build_script/kirin_kernel_release/kernel/include/linux/printk.h"
	.file 143 "/mnt/disk/jenkins/ci/workspace/chipset_release_960_xloader/opensource/component_code/vendor/huawei/extra/build/build_script/kirin_kernel_release/kernel/include/linux/kernel.h"
	.file 144 "/mnt/disk/jenkins/ci/workspace/chipset_release_960_xloader/opensource/component_code/vendor/huawei/extra/build/build_script/kirin_kernel_release/kernel/arch/arm64/include/asm/stack_pointer.h"
	.file 145 "/mnt/disk/jenkins/ci/workspace/chipset_release_960_xloader/opensource/component_code/vendor/huawei/extra/build/build_script/kirin_kernel_release/kernel/arch/arm64/include/asm/hwcap.h"
	.file 146 "/mnt/disk/jenkins/ci/workspace/chipset_release_960_xloader/opensource/component_code/vendor/huawei/extra/build/build_script/kirin_kernel_release/kernel/arch/arm64/include/asm/cpufeature.h"
	.file 147 "/mnt/disk/jenkins/ci/workspace/chipset_release_960_xloader/opensource/component_code/vendor/huawei/extra/build/build_script/kirin_kernel_release/kernel/arch/arm64/include/asm/virt.h"
	.file 148 "/mnt/disk/jenkins/ci/workspace/chipset_release_960_xloader/opensource/component_code/vendor/huawei/extra/build/build_script/kirin_kernel_release/kernel/include/linux/highuid.h"
	.file 149 "/mnt/disk/jenkins/ci/workspace/chipset_release_960_xloader/opensource/component_code/vendor/huawei/extra/build/build_script/kirin_kernel_release/kernel/arch/arm64/include/asm/memory.h"
	.file 150 "/mnt/disk/jenkins/ci/workspace/chipset_release_960_xloader/opensource/component_code/vendor/huawei/extra/build/build_script/kirin_kernel_release/kernel/include/asm-generic/percpu.h"
	.file 151 "/mnt/disk/jenkins/ci/workspace/chipset_release_960_xloader/opensource/component_code/vendor/huawei/extra/build/build_script/kirin_kernel_release/kernel/include/linux/debug_locks.h"
	.file 152 "/mnt/disk/jenkins/ci/workspace/chipset_release_960_xloader/opensource/component_code/vendor/huawei/extra/build/build_script/kirin_kernel_release/kernel/include/asm-generic/pgtable.h"
	.file 153 "/mnt/disk/jenkins/ci/workspace/chipset_release_960_xloader/opensource/component_code/vendor/huawei/extra/build/build_script/kirin_kernel_release/kernel/arch/arm64/include/asm/irq.h"
	.file 154 "/mnt/disk/jenkins/ci/workspace/chipset_release_960_xloader/opensource/component_code/vendor/huawei/extra/build/build_script/kirin_kernel_release/kernel/arch/arm64/include/asm/hardirq.h"
	.file 155 "/mnt/disk/jenkins/ci/workspace/chipset_release_960_xloader/opensource/component_code/vendor/huawei/extra/build/build_script/kirin_kernel_release/kernel/include/linux/slab.h"
	.file 156 "/mnt/disk/jenkins/ci/workspace/chipset_release_960_xloader/opensource/component_code/vendor/huawei/extra/build/build_script/kirin_kernel_release/kernel/arch/arm64/include/asm/io.h"
	.file 157 "/mnt/disk/jenkins/ci/workspace/chipset_release_960_xloader/opensource/component_code/vendor/huawei/extra/build/build_script/kirin_kernel_release/kernel/include/asm-generic/delay.h"
	.file 158 "/mnt/disk/jenkins/ci/workspace/chipset_release_960_xloader/opensource/component_code/vendor/huawei/extra/build/build_script/kirin_kernel_release/kernel/include/linux/delay.h"
	.file 159 "/mnt/disk/jenkins/ci/workspace/chipset_release_960_xloader/opensource/component_code/vendor/huawei/extra/build/build_script/kirin_kernel_release/kernel/include/linux/vmalloc.h"
	.file 160 "/mnt/disk/jenkins/ci/workspace/chipset_release_960_xloader/opensource/component_code/vendor/huawei/extra/build/build_script/kirin_kernel_release/kernel/include/linux/spinlock_api_smp.h"
	.file 161 "/mnt/disk/jenkins/ci/workspace/chipset_release_960_xloader/opensource/component_code/vendor/huawei/extra/build/build_script/kirin_kernel_release/kernel/include/linux/kthread.h"
	.section	.note.GNU-stack,"",%progbits
