	.cpu generic+fp+simd
	.file	"smmu.c"
	.text
.Ltext0:
	.cfi_sections	.debug_frame
	.align	2
	.global	SMMU_InitGlobalReg
	.type	SMMU_InitGlobalReg, %function
SMMU_InitGlobalReg:
.LFB2645:
	.file 1 "/mnt/disk/jenkins/ci/workspace/chipset_release_960_xloader/opensource/component_code/vendor/huawei/extra/build/build_script/kirin_kernel_release/kernel/drivers/vcodec/hi_vcodec/vdec/vfmw/vfmw_v4.0/firmware/driver/HiSMMUV100/smmu.c"
	.loc 1 307 0
	.cfi_startproc
	.loc 1 309 0
	adrp	x3, .LANCHOR0
	add	x4, x3, :lo12:.LANCHOR0
	ldr	w0, [x3,#:lo12:.LANCHOR0]
	cmp	w0, 1
	beq	.L11
	.loc 1 349 0
	ret
.L11:
.LBB28:
.LBB29:
	.loc 1 105 0
	ldr	x5, [x4,8]
.LBE29:
.LBE28:
.LBB31:
.LBB32:
	.loc 1 107 0
	mov	w2, 112
.LBE32:
.LBE31:
.LBB34:
.LBB35:
	mov	w1, 113
.LBE35:
.LBE34:
.LBB40:
.LBB30:
	.loc 1 105 0
	ldr	w0, [x5]
	.loc 1 106 0
	and	w0, w0, -2
	.loc 1 107 0
	str	w0, [x5]
.LBE30:
.LBE40:
.LBB41:
.LBB42:
	.loc 1 105 0
	ldr	x5, [x4,8]
	ldr	w0, [x5]
	.loc 1 107 0
	orr	w0, w0, 56
	str	w0, [x5]
.LBE42:
.LBE41:
.LBB43:
.LBB44:
	.loc 1 105 0
	ldr	x5, [x4,8]
	ldr	w0, [x5]
	.loc 1 107 0
	orr	w0, w0, 983040
	str	w0, [x5]
.LBE44:
.LBE43:
.LBB45:
.LBB46:
	.loc 1 105 0
	ldr	x5, [x4,8]
	ldr	w0, [x5]
	.loc 1 106 0
	and	w0, w0, -267386881
	.loc 1 107 0
	str	w0, [x5]
.LBE46:
.LBE45:
.LBB47:
.LBB33:
	.loc 1 105 0
	ldr	x0, [x4,8]
	ldr	w5, [x0,32]
	.loc 1 107 0
	str	w2, [x0,32]
	.loc 1 105 0
	ldr	w5, [x0,40]
	.loc 1 107 0
	str	w2, [x0,40]
	.loc 1 105 0
	ldr	w5, [x0,48]
	.loc 1 107 0
	str	w2, [x0,48]
	.loc 1 105 0
	ldr	w5, [x0,56]
	.loc 1 107 0
	str	w2, [x0,56]
	.loc 1 105 0
	ldr	w5, [x0,64]
	.loc 1 107 0
	str	w2, [x0,64]
	.loc 1 105 0
	ldr	w5, [x0,72]
	.loc 1 107 0
	str	w2, [x0,72]
	.loc 1 105 0
	ldr	w5, [x0,80]
	.loc 1 107 0
	str	w2, [x0,80]
	.loc 1 105 0
	ldr	w5, [x0,88]
	.loc 1 107 0
	str	w2, [x0,88]
	.loc 1 105 0
	ldr	w5, [x0,96]
	.loc 1 107 0
	str	w2, [x0,96]
	.loc 1 105 0
	ldr	w5, [x0,104]
	.loc 1 107 0
	str	w2, [x0,104]
	.loc 1 105 0
	ldr	w5, [x0,112]
	.loc 1 107 0
	str	w2, [x0,112]
	.loc 1 105 0
	ldr	w5, [x0,120]
	.loc 1 107 0
	str	w2, [x0,120]
	.loc 1 105 0
	ldr	w5, [x0,128]
	.loc 1 107 0
	str	w2, [x0,128]
	.loc 1 105 0
	ldr	w5, [x0,136]
	.loc 1 107 0
	str	w2, [x0,136]
	.loc 1 105 0
	ldr	w5, [x0,144]
	.loc 1 107 0
	str	w2, [x0,144]
	.loc 1 105 0
	ldr	w5, [x0,152]
	.loc 1 107 0
	str	w2, [x0,152]
.LBE33:
.LBE47:
.LBB48:
.LBB36:
	.loc 1 105 0
	ldr	w2, [x0,36]
	.loc 1 107 0
	str	w1, [x0,36]
	.loc 1 105 0
	ldr	w2, [x0,44]
	.loc 1 107 0
	str	w1, [x0,44]
	.loc 1 105 0
	ldr	w2, [x0,52]
	.loc 1 107 0
	str	w1, [x0,52]
	.loc 1 105 0
	ldr	w2, [x0,60]
	.loc 1 107 0
	str	w1, [x0,60]
	.loc 1 105 0
	ldr	w2, [x0,68]
	.loc 1 107 0
	str	w1, [x0,68]
	.loc 1 105 0
	ldr	w2, [x0,76]
	.loc 1 107 0
	str	w1, [x0,76]
	.loc 1 105 0
	ldr	w2, [x0,84]
	.loc 1 107 0
	str	w1, [x0,84]
	.loc 1 105 0
	ldr	w2, [x0,92]
	.loc 1 107 0
	str	w1, [x0,92]
	.loc 1 105 0
	ldr	w2, [x0,100]
	.loc 1 107 0
	str	w1, [x0,100]
	.loc 1 105 0
	ldr	w2, [x0,108]
	.loc 1 107 0
	str	w1, [x0,108]
	.loc 1 105 0
	ldr	w2, [x0,116]
	.loc 1 107 0
	str	w1, [x0,116]
	.loc 1 105 0
	ldr	w2, [x0,124]
.LBE36:
.LBE48:
	.loc 1 331 0
	adrp	x2, gSmmuPageBase
.LBB49:
.LBB37:
	.loc 1 107 0
	str	w1, [x0,124]
.LBE37:
.LBE49:
	.loc 1 331 0
	ldr	x5, [x2,#:lo12:gSmmuPageBase]
.LBB50:
.LBB38:
	.loc 1 105 0
	ldr	w2, [x0,132]
	.loc 1 107 0
	str	w1, [x0,132]
.LBE38:
.LBE50:
	.loc 1 334 0
	ldr	w2, [x4,56]
.LBB51:
.LBB39:
	.loc 1 105 0
	ldr	w6, [x0,140]
	.loc 1 107 0
	str	w1, [x0,140]
	.loc 1 105 0
	ldr	w6, [x0,148]
	.loc 1 107 0
	str	w1, [x0,148]
	.loc 1 105 0
	ldr	w6, [x0,156]
	.loc 1 107 0
	str	w1, [x0,156]
.LBE39:
.LBE51:
.LBB52:
.LBB53:
	.loc 1 105 0
	ldr	w1, [x0,496]
	.loc 1 107 0
	str	wzr, [x0,496]
.LBE53:
.LBE52:
.LBB54:
.LBB55:
	.loc 1 105 0
	ldr	w1, [x0,500]
	.loc 1 107 0
	str	wzr, [x0,500]
.LBE55:
.LBE54:
.LBB56:
.LBB57:
	.loc 1 105 0
	ldr	w1, [x0,516]
	.loc 1 107 0
	str	w5, [x0,516]
.LBE57:
.LBE56:
.LBB58:
.LBB59:
	.loc 1 105 0
	ldr	w1, [x0,524]
	.loc 1 107 0
	orr	w1, w1, 1
	str	w1, [x0,524]
.LBE59:
.LBE58:
	.loc 1 334 0
	cbz	w2, .L3
	.loc 1 334 0 is_stmt 0 discriminator 1
	ldr	w1, [x4,80]
	cbz	w1, .L3
.LBB60:
.LBB61:
	.loc 1 105 0 is_stmt 1
	ldr	w4, [x0,772]
	.loc 1 107 0
	str	w2, [x0,772]
.LBE61:
.LBE60:
.LBB62:
.LBB63:
	.loc 1 105 0
	ldr	w2, [x0,776]
	.loc 1 107 0
	str	w1, [x0,776]
.L3:
.LBE63:
.LBE62:
.LBB64:
.LBB65:
	.loc 1 122 0
	add	x3, x3, :lo12:.LANCHOR0
	ldr	x0, [x3,16]
	ldr	w1, [x0]
	.loc 1 124 0
	str	wzr, [x0]
.LBE65:
.LBE64:
	.loc 1 349 0
	ret
	.cfi_endproc
.LFE2645:
	.size	SMMU_InitGlobalReg, .-SMMU_InitGlobalReg
	.align	2
	.global	SMMU_SetMasterReg
	.type	SMMU_SetMasterReg, %function
SMMU_SetMasterReg:
.LFB2646:
	.loc 1 355 0
	.cfi_startproc
.LVL0:
	stp	x29, x30, [sp, -64]!
	.cfi_def_cfa_offset 64
	.cfi_offset 29, -64
	.cfi_offset 30, -56
	.loc 1 356 0
	cmp	w0, 1
	.loc 1 355 0
	mov	w3, w0
	add	x29, sp, 0
	.cfi_def_cfa_register 29
	stp	x19, x20, [sp,16]
	stp	x21, x22, [sp,32]
	str	x23, [sp,48]
	.cfi_offset 19, -48
	.cfi_offset 20, -40
	.cfi_offset 21, -32
	.cfi_offset 22, -24
	.cfi_offset 23, -16
	.loc 1 355 0
	uxtb	w21, w1
.LVL1:
	uxtb	w20, w2
.LVL2:
	.loc 1 356 0
	beq	.L14
	cbz	w0, .L15
	cmp	w0, 2
	beq	.L16
	.loc 1 374 0
	adrp	x2, .LANCHOR1
	adrp	x1, .LC3
	add	x2, x2, :lo12:.LANCHOR1
	add	x1, x1, :lo12:.LC3
	add	x2, x2, 72
	mov	w0, 0
	bl	dprint_linux_kernel
.LVL3:
	.loc 1 377 0
	ldr	x23, [sp,48]
	.cfi_remember_state
	.cfi_restore 23
	ldp	x19, x20, [sp,16]
	.cfi_restore 20
	.cfi_restore 19
.LVL4:
	ldp	x21, x22, [sp,32]
	.cfi_restore 22
	.cfi_restore 21
.LVL5:
	ldp	x29, x30, [sp], 64
	.cfi_restore 30
	.cfi_restore 29
	.cfi_def_cfa 31, 0
	ret
.LVL6:
.L16:
	.cfi_restore_state
.LBB108:
.LBB109:
.LBB110:
.LBB111:
	.loc 1 154 0
	adrp	x19, .LANCHOR0
	add	x22, x19, :lo12:.LANCHOR0
.LBE111:
.LBE110:
	.loc 1 242 0
	cbnz	w20, .L35
.LBB113:
.LBB114:
	.loc 1 154 0
	add	x22, x22, 8
	ldr	x1, [x22,32]
	ldr	w0, [x1,2080]
.LVL7:
	.loc 1 155 0
	and	w0, w0, -513
	.loc 1 156 0
	str	w0, [x1,2080]
.LBE114:
.LBE113:
	.loc 1 260 0
	cbnz	w21, .L36
	.loc 1 267 0
	adrp	x23, .LANCHOR1
	adrp	x1, .LC2
	add	x23, x23, :lo12:.LANCHOR1
	add	x1, x1, :lo12:.LC2
	add	x23, x23, 24
	mov	w0, 32
	mov	x2, x23
	bl	dprint_linux_kernel
.LVL8:
	.loc 1 268 0
	adrp	x1, .LC1
	mov	w0, 32
	add	x1, x1, :lo12:.LC1
	mov	x2, x23
	mov	w3, 0
	mov	w4, 0
	bl	dprint_linux_kernel
.LVL9:
.LBB115:
.LBB116:
	.loc 1 154 0
	ldr	x1, [x22,32]
.LVL10:
.L32:
	ldr	w0, [x1,2080]
	.loc 1 155 0
	and	w0, w0, -129
	.loc 1 156 0
	str	w0, [x1,2080]
.L24:
.LBE116:
.LBE115:
.LBE109:
.LBE108:
	.loc 1 365 0
	add	x19, x19, :lo12:.LANCHOR0
	.loc 1 366 0
	adrp	x0, .LANCHOR2+4
	.loc 1 377 0
	ldr	x23, [sp,48]
	.cfi_remember_state
	.cfi_restore 23
	.loc 1 365 0
	str	w21, [x19,100]
	.loc 1 366 0
	str	w20, [x0,#:lo12:.LANCHOR2+4]
	.loc 1 377 0
	ldp	x21, x22, [sp,32]
	.cfi_restore 21
	.cfi_restore 22
.LVL11:
	ldp	x19, x20, [sp,16]
	.cfi_restore 19
	.cfi_restore 20
.LVL12:
	ldp	x29, x30, [sp], 64
	.cfi_restore 29
	.cfi_restore 30
	.cfi_def_cfa 31, 0
	ret
.LVL13:
.L15:
	.cfi_restore_state
.LBB124:
.LBB125:
.LBB126:
.LBB127:
	.loc 1 144 0
	adrp	x19, .LANCHOR0
	add	x22, x19, :lo12:.LANCHOR0
	add	x22, x22, 8
	ldr	x1, [x22,16]
	ldr	w0, [x1,12]
.LVL14:
.LBE127:
.LBE126:
	.loc 1 168 0
	cbnz	w20, .L37
.LBB129:
.LBB130:
	.loc 1 145 0
	and	w0, w0, -4097
	.loc 1 146 0
	str	w0, [x1,12]
.LBE130:
.LBE129:
	.loc 1 186 0
	cbnz	w21, .L38
	.loc 1 193 0
	adrp	x23, .LANCHOR1
	adrp	x1, .LC2
	add	x23, x23, :lo12:.LANCHOR1
	add	x1, x1, :lo12:.LC2
	mov	x2, x23
	mov	w0, 32
	bl	dprint_linux_kernel
.LVL15:
	.loc 1 194 0
	adrp	x1, .LC1
	mov	w0, 32
	add	x1, x1, :lo12:.LC1
	mov	x2, x23
	mov	w3, 0
	mov	w4, 0
	bl	dprint_linux_kernel
.LVL16:
.L31:
.LBB131:
.LBB132:
	.loc 1 144 0
	ldr	x1, [x22,16]
	ldr	w0, [x1,8]
	.loc 1 145 0
	and	w0, w0, 2147483647
	.loc 1 146 0
	str	w0, [x1,8]
.L19:
.LBE132:
.LBE131:
.LBE125:
.LBE124:
	.loc 1 360 0
	add	x19, x19, :lo12:.LANCHOR0
	.loc 1 361 0
	adrp	x0, .LANCHOR2
	.loc 1 377 0
	ldr	x23, [sp,48]
	.cfi_remember_state
	.cfi_restore 23
	.loc 1 360 0
	str	w21, [x19,96]
	.loc 1 361 0
	str	w20, [x0,#:lo12:.LANCHOR2]
	.loc 1 377 0
	ldp	x21, x22, [sp,32]
	.cfi_restore 21
	.cfi_restore 22
.LVL17:
	ldp	x19, x20, [sp,16]
	.cfi_restore 19
	.cfi_restore 20
.LVL18:
	ldp	x29, x30, [sp], 64
	.cfi_restore 29
	.cfi_restore 30
	.cfi_def_cfa 31, 0
	ret
.LVL19:
.L14:
	.cfi_restore_state
.LBB140:
.LBB141:
.LBB142:
.LBB143:
	.loc 1 149 0
	adrp	x19, .LANCHOR0
	add	x22, x19, :lo12:.LANCHOR0
	add	x22, x22, 8
	ldr	x1, [x22,24]
	ldr	w0, [x1,4]
.LBE143:
.LBE142:
	.loc 1 205 0
	cbnz	w20, .L39
.LBB145:
.LBB146:
	.loc 1 150 0
	and	w0, w0, -2097153
	.loc 1 151 0
	str	w0, [x1,4]
.LBE146:
.LBE145:
	.loc 1 223 0
	cbnz	w21, .L40
	.loc 1 230 0
	adrp	x23, .LANCHOR1
	adrp	x1, .LC2
	add	x23, x23, :lo12:.LANCHOR1
	add	x1, x1, :lo12:.LC2
	add	x23, x23, 48
	mov	w0, 32
	mov	x2, x23
	bl	dprint_linux_kernel
.LVL20:
	.loc 1 231 0
	adrp	x1, .LC1
	mov	w0, 32
	add	x1, x1, :lo12:.LC1
	mov	x2, x23
	mov	w3, 0
	mov	w4, 0
	bl	dprint_linux_kernel
.LVL21:
.L33:
.LBB147:
.LBB148:
	.loc 1 149 0
	ldr	x1, [x22,24]
	ldr	w0, [x1,4]
	.loc 1 150 0
	and	w0, w0, -1048577
	.loc 1 151 0
	str	w0, [x1,4]
.L28:
.LBE148:
.LBE147:
.LBE141:
.LBE140:
	.loc 1 370 0
	add	x19, x19, :lo12:.LANCHOR0
	.loc 1 377 0
	ldr	x23, [sp,48]
	.cfi_remember_state
	.cfi_restore 23
	.loc 1 370 0
	str	w21, [x19,104]
	.loc 1 371 0
	str	w20, [x19,108]
	.loc 1 377 0
	ldp	x21, x22, [sp,32]
	.cfi_restore 21
	.cfi_restore 22
.LVL22:
	ldp	x19, x20, [sp,16]
	.cfi_restore 19
	.cfi_restore 20
.LVL23:
	ldp	x29, x30, [sp], 64
	.cfi_restore 29
	.cfi_restore 30
	.cfi_def_cfa 31, 0
	ret
.LVL24:
.L39:
	.cfi_restore_state
.LBB156:
.LBB154:
.LBB149:
.LBB144:
	.loc 1 151 0
	orr	w0, w0, 2097152
	str	w0, [x1,4]
.LBE144:
.LBE149:
	.loc 1 208 0
	cbz	w21, .L33
	.loc 1 210 0
	adrp	x23, .LANCHOR1
	adrp	x1, .LC0
	add	x23, x23, :lo12:.LANCHOR1
	add	x1, x1, :lo12:.LC0
	add	x23, x23, 48
	mov	w0, 32
	mov	x2, x23
	bl	dprint_linux_kernel
.LVL25:
	.loc 1 211 0
	adrp	x1, .LC1
	mov	w0, 32
	add	x1, x1, :lo12:.LC1
	mov	x2, x23
	mov	w3, w21
	mov	w4, w20
	bl	dprint_linux_kernel
.LVL26:
.LBB150:
.LBB151:
	.loc 1 149 0
	ldr	x1, [x22,24]
	ldr	w0, [x1,4]
	.loc 1 151 0
	orr	w0, w0, 1048576
	str	w0, [x1,4]
	b	.L28
.LVL27:
.L37:
.LBE151:
.LBE150:
.LBE154:
.LBE156:
.LBB157:
.LBB138:
.LBB133:
.LBB128:
	.loc 1 146 0
	orr	w0, w0, 4096
	str	w0, [x1,12]
.LBE128:
.LBE133:
	.loc 1 171 0
	cbz	w21, .L31
	.loc 1 173 0
	adrp	x23, .LANCHOR1
	adrp	x1, .LC0
	add	x23, x23, :lo12:.LANCHOR1
	add	x1, x1, :lo12:.LC0
	mov	x2, x23
	mov	w0, 32
	bl	dprint_linux_kernel
.LVL28:
	.loc 1 174 0
	adrp	x1, .LC1
	mov	w0, 32
	add	x1, x1, :lo12:.LC1
	mov	x2, x23
	mov	w3, w21
	mov	w4, w20
	bl	dprint_linux_kernel
.LVL29:
.LBB134:
.LBB135:
	.loc 1 144 0
	ldr	x1, [x22,16]
	ldr	w0, [x1,8]
	.loc 1 146 0
	orr	w0, w0, -2147483648
	str	w0, [x1,8]
	b	.L19
.LVL30:
.L35:
.LBE135:
.LBE134:
.LBE138:
.LBE157:
.LBB158:
.LBB122:
.LBB117:
.LBB112:
	.loc 1 154 0
	ldr	x1, [x22,40]
	add	x22, x22, 8
	ldr	w0, [x1,2080]
.LVL31:
	.loc 1 156 0
	orr	w0, w0, 512
	str	w0, [x1,2080]
.LBE112:
.LBE117:
	.loc 1 245 0
	cbz	w21, .L32
	.loc 1 247 0
	adrp	x23, .LANCHOR1
	adrp	x1, .LC0
	add	x23, x23, :lo12:.LANCHOR1
	add	x1, x1, :lo12:.LC0
	add	x23, x23, 24
	mov	w0, 32
	mov	x2, x23
	bl	dprint_linux_kernel
.LVL32:
	.loc 1 248 0
	adrp	x1, .LC1
	mov	w0, 32
	add	x1, x1, :lo12:.LC1
	mov	x2, x23
	mov	w3, w21
	mov	w4, w20
	bl	dprint_linux_kernel
.LVL33:
.LBB118:
.LBB119:
	.loc 1 154 0
	ldr	x1, [x22,32]
	ldr	w0, [x1,2080]
	.loc 1 156 0
	orr	w0, w0, 128
	str	w0, [x1,2080]
	b	.L24
.LVL34:
.L40:
.LBE119:
.LBE118:
.LBE122:
.LBE158:
.LBB159:
.LBB155:
.LBB152:
.LBB153:
	.loc 1 149 0
	ldr	x1, [x22,24]
	ldr	w0, [x1,4]
	.loc 1 151 0
	orr	w0, w0, 1048576
	str	w0, [x1,4]
	b	.L28
.L36:
.LBE153:
.LBE152:
.LBE155:
.LBE159:
.LBB160:
.LBB123:
.LBB120:
.LBB121:
	.loc 1 154 0
	ldr	w0, [x1,2080]
	.loc 1 156 0
	orr	w0, w0, 128
	str	w0, [x1,2080]
	b	.L24
.L38:
.LBE121:
.LBE120:
.LBE123:
.LBE160:
.LBB161:
.LBB139:
.LBB136:
.LBB137:
	.loc 1 144 0
	ldr	x1, [x22,16]
	ldr	w0, [x1,8]
	.loc 1 146 0
	orr	w0, w0, -2147483648
	str	w0, [x1,8]
	b	.L19
.LBE137:
.LBE136:
.LBE139:
.LBE161:
	.cfi_endproc
.LFE2646:
	.size	SMMU_SetMasterReg, .-SMMU_SetMasterReg
	.align	2
	.global	SMMU_IntServProc
	.type	SMMU_IntServProc, %function
SMMU_IntServProc:
.LFB2647:
	.loc 1 380 0
	.cfi_startproc
	stp	x29, x30, [sp, -32]!
	.cfi_def_cfa_offset 32
	.cfi_offset 29, -32
	.cfi_offset 30, -24
	.loc 1 382 0
	adrp	x1, .LC4
	mov	w0, 32
	.loc 1 380 0
	add	x29, sp, 0
	.cfi_def_cfa_register 29
	stp	x19, x20, [sp,16]
	.cfi_offset 19, -16
	.cfi_offset 20, -8
	.loc 1 382 0
	adrp	x20, .LANCHOR1
	add	x1, x1, :lo12:.LC4
	add	x20, x20, :lo12:.LANCHOR1
	add	x20, x20, 96
	mov	x2, x20
	bl	dprint_linux_kernel
.LVL35:
	.loc 1 383 0
	adrp	x2, .LANCHOR0
	.loc 1 384 0
	adrp	x1, .LC5
	.loc 1 383 0
	add	x2, x2, :lo12:.LANCHOR0
	.loc 1 384 0
	add	x1, x1, :lo12:.LC5
	.loc 1 383 0
	add	x19, x2, 8
	.loc 1 384 0
	mov	w0, 32
	.loc 1 383 0
	ldr	x2, [x2,8]
	ldr	w2, [x2,24]
	.loc 1 384 0
	bl	dprint_linux_kernel
.LVL36:
	.loc 1 385 0
	ldr	x2, [x19,8]
	.loc 1 386 0
	adrp	x1, .LC6
	add	x1, x1, :lo12:.LC6
	mov	w0, 32
	.loc 1 385 0
	ldr	w2, [x2,16]
	.loc 1 386 0
	bl	dprint_linux_kernel
.LVL37:
	.loc 1 387 0
	ldr	x2, [x19,8]
	.loc 1 388 0
	adrp	x1, .LC7
	add	x1, x1, :lo12:.LC7
	mov	w0, 32
	.loc 1 387 0
	ldr	w2, [x2,20]
	.loc 1 388 0
	bl	dprint_linux_kernel
.LVL38:
	.loc 1 389 0
	ldr	x2, [x19,8]
	.loc 1 390 0
	adrp	x1, .LC8
	add	x1, x1, :lo12:.LC8
	mov	w0, 32
	.loc 1 389 0
	ldr	w2, [x2,24]
	.loc 1 390 0
	bl	dprint_linux_kernel
.LVL39:
	.loc 1 391 0
	ldr	x2, [x19,8]
	.loc 1 392 0
	adrp	x1, .LC9
	add	x1, x1, :lo12:.LC9
	mov	w0, 32
	.loc 1 391 0
	ldr	w2, [x2,28]
	.loc 1 392 0
	bl	dprint_linux_kernel
.LVL40:
	.loc 1 393 0
	ldr	x2, [x19,8]
	.loc 1 394 0
	adrp	x1, .LC10
	add	x1, x1, :lo12:.LC10
	mov	w0, 32
	.loc 1 393 0
	ldr	w2, [x2,32]
	.loc 1 394 0
	bl	dprint_linux_kernel
.LVL41:
	.loc 1 395 0
	ldr	x2, [x19,8]
	.loc 1 396 0
	adrp	x1, .LC11
	add	x1, x1, :lo12:.LC11
	mov	w0, 32
	.loc 1 395 0
	ldr	w2, [x2,36]
	.loc 1 396 0
	bl	dprint_linux_kernel
.LVL42:
	.loc 1 397 0
	ldr	x2, [x19,8]
	.loc 1 398 0
	adrp	x1, .LC12
	add	x1, x1, :lo12:.LC12
	mov	w0, 32
	.loc 1 397 0
	ldr	w2, [x2,40]
	.loc 1 398 0
	bl	dprint_linux_kernel
.LVL43:
	.loc 1 399 0
	adrp	x1, .LC13
	mov	x2, x20
	add	x1, x1, :lo12:.LC13
	mov	w0, 32
	bl	dprint_linux_kernel
.LVL44:
	.loc 1 400 0
	ldp	x19, x20, [sp,16]
	.cfi_restore 20
	.cfi_restore 19
	ldp	x29, x30, [sp], 32
	.cfi_restore 30
	.cfi_restore 29
	.cfi_def_cfa 31, 0
	ret
	.cfi_endproc
.LFE2647:
	.size	SMMU_IntServProc, .-SMMU_IntServProc
	.align	2
	.global	SMMU_Init
	.type	SMMU_Init, %function
SMMU_Init:
.LFB2648:
	.loc 1 406 0
	.cfi_startproc
	stp	x29, x30, [sp, -48]!
	.cfi_def_cfa_offset 48
	.cfi_offset 29, -48
	.cfi_offset 30, -40
	add	x29, sp, 0
	.cfi_def_cfa_register 29
	stp	x21, x22, [sp,32]
	.cfi_offset 21, -16
	.cfi_offset 22, -8
	.loc 1 408 0
	adrp	x22, .LANCHOR0
	.loc 1 410 0
	adrp	x21, gVdhRegBaseAddr
	.loc 1 406 0
	stp	x19, x20, [sp,16]
	.cfi_offset 19, -32
	.cfi_offset 20, -24
	.loc 1 408 0
	add	x20, x22, :lo12:.LANCHOR0
	add	x19, x20, 8
	.loc 1 410 0
	ldr	w0, [x21,#:lo12:gVdhRegBaseAddr]
	.loc 1 408 0
	str	xzr, [x19,32]
	stp	xzr, xzr, [x19]
	stp	xzr, xzr, [x19,16]
	.loc 1 410 0
	bl	MEM_Phy2Vir
.LVL45:
	str	x0, [x19,16]
	.loc 1 413 0
	adrp	x1, .LC14
	add	x1, x1, :lo12:.LC14
	.loc 1 411 0
	cbz	x0, .L53
	.loc 1 416 0
	adrp	x0, gScdRegBaseAddr
	ldr	w0, [x0,#:lo12:gScdRegBaseAddr]
	bl	MEM_Phy2Vir
.LVL46:
	str	x0, [x19,32]
	.loc 1 419 0
	adrp	x1, .LC15
	add	x1, x1, :lo12:.LC15
	.loc 1 417 0
	cbz	x0, .L53
	.loc 1 422 0
	adrp	x0, gBpdRegBaseAddr
	ldr	w0, [x0,#:lo12:gBpdRegBaseAddr]
	bl	MEM_Phy2Vir
.LVL47:
	str	x0, [x19,24]
	.loc 1 425 0
	adrp	x1, .LC16
	add	x1, x1, :lo12:.LC16
	.loc 1 423 0
	cbz	x0, .L53
	.loc 1 428 0
	ldr	w0, [x21,#:lo12:gVdhRegBaseAddr]
	add	w0, w0, 57344
	bl	MEM_Phy2Vir
.LVL48:
	str	x0, [x20,8]
	.loc 1 431 0
	adrp	x1, .LC17
	add	x1, x1, :lo12:.LC17
	.loc 1 429 0
	cbz	x0, .L53
	.loc 1 434 0
	ldr	w0, [x21,#:lo12:gVdhRegBaseAddr]
	add	w0, w0, 61440
	bl	MEM_Phy2Vir
.LVL49:
	str	x0, [x19,8]
	.loc 1 435 0
	cbz	x0, .L54
	.loc 1 441 0
	add	x21, x20, 48
	.loc 1 442 0
	add	x19, x20, 72
	.loc 1 441 0
	stp	xzr, xzr, [x20,48]
.LBB164:
.LBB165:
	.loc 1 283 0
	adrp	x0, .LC19
	mov	w1, 128
	add	x0, x0, :lo12:.LC19
	mov	x2, x21
	mov	w3, 0
.LBE165:
.LBE164:
	.loc 1 441 0
	str	xzr, [x21,16]
	.loc 1 442 0
	stp	xzr, xzr, [x19]
	str	xzr, [x19,16]
.LBB169:
.LBB166:
	.loc 1 282 0
	mov	w20, 3
	str	w20, [x21,4]
	.loc 1 283 0
	bl	MEM_AllocMemBlock_2
.LVL50:
	.loc 1 284 0
	cbnz	w0, .L55
	.loc 1 291 0
	adrp	x0, .LC21
	mov	w1, 128
	add	x0, x0, :lo12:.LC21
	mov	x2, x19
	mov	w3, 0
	.loc 1 290 0
	str	w20, [x19,4]
	.loc 1 291 0
	bl	MEM_AllocMemBlock_2
.LVL51:
	.loc 1 292 0
	cbnz	w0, .L56
.LBE166:
.LBE169:
	.loc 1 453 0
	mov	w1, 1
	.loc 1 455 0
	mov	w0, 0
	.loc 1 453 0
	str	w1, [x22,#:lo12:.LANCHOR0]
.L52:
	.loc 1 456 0
	ldp	x19, x20, [sp,16]
	.cfi_remember_state
	.cfi_restore 20
	.cfi_restore 19
	ldp	x21, x22, [sp,32]
	.cfi_restore 22
	.cfi_restore 21
	ldp	x29, x30, [sp], 48
	.cfi_restore 30
	.cfi_restore 29
	.cfi_def_cfa 31, 0
	ret
.L55:
	.cfi_restore_state
.LBB170:
.LBB167:
	.loc 1 286 0
	adrp	x19, .LANCHOR1
	adrp	x1, .LC20
	add	x2, x19, :lo12:.LANCHOR1
	add	x1, x1, :lo12:.LC20
	add	x2, x2, 136
	mov	w0, 0
	bl	dprint_linux_kernel
.LVL52:
.L50:
.LBE167:
.LBE170:
	.loc 1 448 0
	add	x2, x19, :lo12:.LANCHOR1
	adrp	x1, .LC23
	mov	w0, 0
	add	x1, x1, :lo12:.LC23
	add	x2, x2, 120
	bl	dprint_linux_kernel
.LVL53:
	.loc 1 449 0
	mov	w0, -1
	b	.L52
.L54:
	.loc 1 437 0
	adrp	x1, .LC18
	add	x1, x1, :lo12:.LC18
.L53:
	adrp	x2, .LANCHOR1
	add	x2, x2, :lo12:.LANCHOR1
	add	x2, x2, 120
	bl	dprint_linux_kernel
.LVL54:
	.loc 1 438 0
	mov	w0, -1
	b	.L52
.L56:
.LBB171:
.LBB168:
	.loc 1 294 0
	adrp	x19, .LANCHOR1
	adrp	x1, .LC22
	add	x2, x19, :lo12:.LANCHOR1
	add	x1, x1, :lo12:.LC22
	add	x2, x2, 136
	mov	w0, 0
	bl	dprint_linux_kernel
.LVL55:
	.loc 1 295 0
	mov	x0, x21
	bl	MEM_ReleaseMemBlock_2
.LVL56:
	b	.L50
.LBE168:
.LBE171:
	.cfi_endproc
.LFE2648:
	.size	SMMU_Init, .-SMMU_Init
	.align	2
	.global	SMMU_DeInit
	.type	SMMU_DeInit, %function
SMMU_DeInit:
.LFB2649:
	.loc 1 462 0
	.cfi_startproc
	stp	x29, x30, [sp, -32]!
	.cfi_def_cfa_offset 32
	.cfi_offset 29, -32
	.cfi_offset 30, -24
	add	x29, sp, 0
	.cfi_def_cfa_register 29
	str	x19, [sp,16]
	.cfi_offset 19, -16
	.loc 1 463 0
	adrp	x19, .LANCHOR0
	add	x0, x19, :lo12:.LANCHOR0
	add	x0, x0, 48
	ldr	w1, [x0,8]
	cbnz	w1, .L66
.L58:
	.loc 1 467 0
	add	x0, x19, :lo12:.LANCHOR0
	add	x0, x0, 72
	ldr	w1, [x0,8]
	cbz	w1, .L57
	.loc 1 469 0
	bl	MEM_ReleaseMemBlock_2
.LVL57:
.L57:
	.loc 1 471 0
	ldr	x19, [sp,16]
	.cfi_remember_state
	.cfi_restore 19
	ldp	x29, x30, [sp], 32
	.cfi_restore 30
	.cfi_restore 29
	.cfi_def_cfa 31, 0
	ret
.L66:
	.cfi_restore_state
	.loc 1 465 0
	bl	MEM_ReleaseMemBlock_2
.LVL58:
	b	.L58
	.cfi_endproc
.LFE2649:
	.size	SMMU_DeInit, .-SMMU_DeInit
	.global	gBpdSmmuFlag
	.global	gBpdSecureFlag
	.global	gScdSmmuFlag
	.global	gScdSecureFlag
	.global	gMfdeSmmuFlag
	.global	gMfdeSecureFlag
	.global	gSmmuInitFlag
	.global	gAllocMem_WR
	.global	gAllocMem_RD
	.global	gSmmuRegVir
	.section	.rodata
	.align	3
.LANCHOR1 = . + 0
	.type	__func__.37594, %object
	.size	__func__.37594, 21
__func__.37594:
	.string	"set_mmu_cfg_reg_mfde"
	.zero	3
	.type	__func__.37606, %object
	.size	__func__.37606, 20
__func__.37606:
	.string	"set_mmu_cfg_reg_scd"
	.zero	4
	.type	__func__.37600, %object
	.size	__func__.37600, 20
__func__.37600:
	.string	"set_mmu_cfg_reg_bpd"
	.zero	4
	.type	__func__.37632, %object
	.size	__func__.37632, 18
__func__.37632:
	.string	"SMMU_SetMasterReg"
	.zero	6
	.type	__func__.37637, %object
	.size	__func__.37637, 17
__func__.37637:
	.string	"SMMU_IntServProc"
	.zero	7
	.type	__func__.37642, %object
	.size	__func__.37642, 10
__func__.37642:
	.string	"SMMU_Init"
	.zero	6
	.type	__func__.37611, %object
	.size	__func__.37611, 25
__func__.37611:
	.string	"alloc_smmu_tlb_miss_addr"
	.data
	.align	2
.LANCHOR2 = . + 0
	.type	gMfdeSmmuFlag, %object
	.size	gMfdeSmmuFlag, 4
gMfdeSmmuFlag:
	.word	1
	.type	gScdSmmuFlag, %object
	.size	gScdSmmuFlag, 4
gScdSmmuFlag:
	.word	1
	.section	.rodata.str1.8,"aMS",%progbits,1
	.align	3
.LC0:
	.string	"IN %s not support this mode: mmu_en:secure!\n"
	.zero	3
.LC1:
	.string	"%s, secure_en:%d, mmu_en:%d\n"
	.zero	3
.LC2:
	.string	"IN %s not support this mode: non_mmu:non_secure!\n"
	.zero	6
.LC3:
	.string	"%s unkown master type %d\n"
	.zero	6
.LC4:
	.string	"%s enter"
	.zero	7
.LC5:
	.string	"SMMU_INTSTAT_NS = 0x%x\n"
.LC6:
	.string	"SMMU_MSTR_DBG_0 = 0x%x\n"
.LC7:
	.string	"SMMU_MSTR_DBG_1 = 0x%x\n"
.LC8:
	.string	"SMMU_MSTR_DBG_2 = 0x%x\n"
.LC9:
	.string	"SMMU_MSTR_DBG_3 = 0x%x\n"
.LC10:
	.string	"SMMU_MSTR_DBG_4 = 0x%x\n"
.LC11:
	.string	"SMMU_MSTR_DBG_5 = 0x%x\n"
.LC12:
	.string	"SMMU_MSTR_DBG_6 = 0x%x\n"
.LC13:
	.string	"%s end"
	.zero	1
.LC14:
	.string	"%s pSMMUMFDERegVirAddr = NULL, SMMU Init failed!\n"
	.zero	6
.LC15:
	.string	"%s pSMMUSCDRegVirAddr = NULL, SMMU Init failed!\n"
	.zero	7
.LC16:
	.string	"%s pSMMUBPDRegVirAddr = NULL, SMMU Init failed!\n"
	.zero	7
.LC17:
	.string	"%s pSMMUCommonBaseVirAddr = NULL, SMMU Init failed!\n"
	.zero	3
.LC18:
	.string	"%s pSMMUMasterBaseVirAddr = NULL, SMMU Init failed!\n"
	.zero	3
.LC19:
	.string	"SMMU_RDERR"
	.zero	5
.LC20:
	.string	"%s kzalloc mem for smmu rderr failed!\n"
	.zero	1
.LC21:
	.string	"SMMU_WRERR"
	.zero	5
.LC22:
	.string	"%s kzalloc mem for smmu wrerr failed!\n"
	.zero	1
.LC23:
	.string	"%s alloc_smmu_tlb_miss_addr failed!\n"
	.bss
	.align	3
.LANCHOR0 = . + 0
	.type	gSmmuInitFlag, %object
	.size	gSmmuInitFlag, 4
gSmmuInitFlag:
	.zero	4
	.zero	4
	.type	gSmmuRegVir, %object
	.size	gSmmuRegVir, 40
gSmmuRegVir:
	.zero	40
	.type	gAllocMem_RD, %object
	.size	gAllocMem_RD, 24
gAllocMem_RD:
	.zero	24
	.type	gAllocMem_WR, %object
	.size	gAllocMem_WR, 24
gAllocMem_WR:
	.zero	24
	.type	gMfdeSecureFlag, %object
	.size	gMfdeSecureFlag, 4
gMfdeSecureFlag:
	.zero	4
	.type	gScdSecureFlag, %object
	.size	gScdSecureFlag, 4
gScdSecureFlag:
	.zero	4
	.type	gBpdSecureFlag, %object
	.size	gBpdSecureFlag, 4
gBpdSecureFlag:
	.zero	4
	.type	gBpdSmmuFlag, %object
	.size	gBpdSmmuFlag, 4
gBpdSmmuFlag:
	.zero	4
	.text
.Letext0:
	.file 2 "/mnt/disk/jenkins/ci/workspace/chipset_release_960_xloader/opensource/component_code/vendor/huawei/extra/build/build_script/kirin_kernel_release/kernel/include/uapi/asm-generic/int-ll64.h"
	.file 3 "/mnt/disk/jenkins/ci/workspace/chipset_release_960_xloader/opensource/component_code/vendor/huawei/extra/build/build_script/kirin_kernel_release/kernel/include/asm-generic/int-ll64.h"
	.file 4 "/mnt/disk/jenkins/ci/workspace/chipset_release_960_xloader/opensource/component_code/vendor/huawei/extra/build/build_script/kirin_kernel_release/kernel/include/uapi/asm-generic/posix_types.h"
	.file 5 "/mnt/disk/jenkins/ci/workspace/chipset_release_960_xloader/opensource/component_code/vendor/huawei/extra/build/build_script/kirin_kernel_release/kernel/include/linux/types.h"
	.file 6 "/mnt/disk/jenkins/ci/workspace/chipset_release_960_xloader/opensource/component_code/vendor/huawei/extra/build/build_script/kirin_kernel_release/kernel/include/linux/export.h"
	.file 7 "/mnt/disk/jenkins/ci/workspace/chipset_release_960_xloader/opensource/component_code/vendor/huawei/extra/build/build_script/kirin_kernel_release/kernel/include/asm-generic/bug.h"
	.file 8 "/mnt/disk/jenkins/ci/workspace/chipset_release_960_xloader/opensource/component_code/vendor/huawei/extra/build/build_script/kirin_kernel_release/kernel/include/linux/restart_block.h"
	.file 9 "/mnt/disk/jenkins/ci/workspace/chipset_release_960_xloader/opensource/component_code/vendor/huawei/extra/build/build_script/kirin_kernel_release/kernel/include/uapi/linux/time.h"
	.file 10 "/mnt/disk/jenkins/ci/workspace/chipset_release_960_xloader/opensource/component_code/vendor/huawei/extra/build/build_script/kirin_kernel_release/kernel/arch/arm64/include/asm/compat.h"
	.file 11 "/mnt/disk/jenkins/ci/workspace/chipset_release_960_xloader/opensource/component_code/vendor/huawei/extra/build/build_script/kirin_kernel_release/kernel/include/uapi/asm-generic/poll.h"
	.file 12 "/mnt/disk/jenkins/ci/workspace/chipset_release_960_xloader/opensource/component_code/vendor/huawei/extra/build/build_script/kirin_kernel_release/kernel/arch/arm64/include/asm/thread_info.h"
	.file 13 "/mnt/disk/jenkins/ci/workspace/chipset_release_960_xloader/opensource/component_code/vendor/huawei/extra/build/build_script/kirin_kernel_release/kernel/arch/arm64/include/uapi/asm/ptrace.h"
	.file 14 "/mnt/disk/jenkins/ci/workspace/chipset_release_960_xloader/opensource/component_code/vendor/huawei/extra/build/build_script/kirin_kernel_release/kernel/arch/arm64/include/asm/ptrace.h"
	.file 15 "/mnt/disk/jenkins/ci/workspace/chipset_release_960_xloader/opensource/component_code/vendor/huawei/extra/build/build_script/kirin_kernel_release/kernel/arch/arm64/include/asm/spinlock_types.h"
	.file 16 "/mnt/disk/jenkins/ci/workspace/chipset_release_960_xloader/opensource/component_code/vendor/huawei/extra/build/build_script/kirin_kernel_release/kernel/include/linux/spinlock_types.h"
	.file 17 "/mnt/disk/jenkins/ci/workspace/chipset_release_960_xloader/opensource/component_code/vendor/huawei/extra/build/build_script/kirin_kernel_release/kernel/include/linux/rwlock_types.h"
	.file 18 "/mnt/disk/jenkins/ci/workspace/chipset_release_960_xloader/opensource/component_code/vendor/huawei/extra/build/build_script/kirin_kernel_release/kernel/arch/arm64/include/asm/fpsimd.h"
	.file 19 "/mnt/disk/jenkins/ci/workspace/chipset_release_960_xloader/opensource/component_code/vendor/huawei/extra/build/build_script/kirin_kernel_release/kernel/include/linux/jump_label.h"
	.file 20 "/mnt/disk/jenkins/ci/workspace/chipset_release_960_xloader/opensource/component_code/vendor/huawei/extra/build/build_script/kirin_kernel_release/kernel/include/asm-generic/atomic-long.h"
	.file 21 "/mnt/disk/jenkins/ci/workspace/chipset_release_960_xloader/opensource/component_code/vendor/huawei/extra/build/build_script/kirin_kernel_release/kernel/arch/arm64/include/asm/hw_breakpoint.h"
	.file 22 "/mnt/disk/jenkins/ci/workspace/chipset_release_960_xloader/opensource/component_code/vendor/huawei/extra/build/build_script/kirin_kernel_release/kernel/arch/arm64/include/asm/processor.h"
	.file 23 "/mnt/disk/jenkins/ci/workspace/chipset_release_960_xloader/opensource/component_code/vendor/huawei/extra/build/build_script/kirin_kernel_release/kernel/include/linux/perf_event.h"
	.file 24 "/mnt/disk/jenkins/ci/workspace/chipset_release_960_xloader/opensource/component_code/vendor/huawei/extra/build/build_script/kirin_kernel_release/kernel/include/linux/wait.h"
	.file 25 "/mnt/disk/jenkins/ci/workspace/chipset_release_960_xloader/opensource/component_code/vendor/huawei/extra/build/build_script/kirin_kernel_release/kernel/include/linux/seqlock.h"
	.file 26 "/mnt/disk/jenkins/ci/workspace/chipset_release_960_xloader/opensource/component_code/vendor/huawei/extra/build/build_script/kirin_kernel_release/kernel/include/linux/nodemask.h"
	.file 27 "/mnt/disk/jenkins/ci/workspace/chipset_release_960_xloader/opensource/component_code/vendor/huawei/extra/build/build_script/kirin_kernel_release/kernel/include/linux/cpumask.h"
	.file 28 "/mnt/disk/jenkins/ci/workspace/chipset_release_960_xloader/opensource/component_code/vendor/huawei/extra/build/build_script/kirin_kernel_release/kernel/include/linux/completion.h"
	.file 29 "/mnt/disk/jenkins/ci/workspace/chipset_release_960_xloader/opensource/component_code/vendor/huawei/extra/build/build_script/kirin_kernel_release/kernel/include/linux/time64.h"
	.file 30 "/mnt/disk/jenkins/ci/workspace/chipset_release_960_xloader/opensource/component_code/vendor/huawei/extra/build/build_script/kirin_kernel_release/kernel/include/linux/ktime.h"
	.file 31 "/mnt/disk/jenkins/ci/workspace/chipset_release_960_xloader/opensource/component_code/vendor/huawei/extra/build/build_script/kirin_kernel_release/kernel/include/linux/rbtree.h"
	.file 32 "/mnt/disk/jenkins/ci/workspace/chipset_release_960_xloader/opensource/component_code/vendor/huawei/extra/build/build_script/kirin_kernel_release/kernel/include/linux/osq_lock.h"
	.file 33 "/mnt/disk/jenkins/ci/workspace/chipset_release_960_xloader/opensource/component_code/vendor/huawei/extra/build/build_script/kirin_kernel_release/kernel/include/linux/rwsem.h"
	.file 34 "/mnt/disk/jenkins/ci/workspace/chipset_release_960_xloader/opensource/component_code/vendor/huawei/extra/build/build_script/kirin_kernel_release/kernel/include/linux/sched.h"
	.file 35 "/mnt/disk/jenkins/ci/workspace/chipset_release_960_xloader/opensource/component_code/vendor/huawei/extra/build/build_script/kirin_kernel_release/kernel/include/linux/mm_types.h"
	.file 36 "/mnt/disk/jenkins/ci/workspace/chipset_release_960_xloader/opensource/component_code/vendor/huawei/extra/build/build_script/kirin_kernel_release/kernel/include/linux/lockdep.h"
	.file 37 "/mnt/disk/jenkins/ci/workspace/chipset_release_960_xloader/opensource/component_code/vendor/huawei/extra/build/build_script/kirin_kernel_release/kernel/include/linux/uprobes.h"
	.file 38 "/mnt/disk/jenkins/ci/workspace/chipset_release_960_xloader/opensource/component_code/vendor/huawei/extra/build/build_script/kirin_kernel_release/kernel/include/linux/timer.h"
	.file 39 "/mnt/disk/jenkins/ci/workspace/chipset_release_960_xloader/opensource/component_code/vendor/huawei/extra/build/build_script/kirin_kernel_release/kernel/include/linux/uidgid.h"
	.file 40 "/mnt/disk/jenkins/ci/workspace/chipset_release_960_xloader/opensource/component_code/vendor/huawei/extra/build/build_script/kirin_kernel_release/kernel/include/linux/sysctl.h"
	.file 41 "/mnt/disk/jenkins/ci/workspace/chipset_release_960_xloader/opensource/component_code/vendor/huawei/extra/build/build_script/kirin_kernel_release/kernel/include/linux/workqueue.h"
	.file 42 "/mnt/disk/jenkins/ci/workspace/chipset_release_960_xloader/opensource/component_code/vendor/huawei/extra/build/build_script/kirin_kernel_release/kernel/arch/arm64/include/asm/pgtable-types.h"
	.file 43 "/mnt/disk/jenkins/ci/workspace/chipset_release_960_xloader/opensource/component_code/vendor/huawei/extra/build/build_script/kirin_kernel_release/kernel/arch/arm64/include/asm/page.h"
	.file 44 "/mnt/disk/jenkins/ci/workspace/chipset_release_960_xloader/opensource/component_code/vendor/huawei/extra/build/build_script/kirin_kernel_release/kernel/include/linux/llist.h"
	.file 45 "/mnt/disk/jenkins/ci/workspace/chipset_release_960_xloader/opensource/component_code/vendor/huawei/extra/build/build_script/kirin_kernel_release/kernel/arch/arm64/include/asm/smp.h"
	.file 46 "/mnt/disk/jenkins/ci/workspace/chipset_release_960_xloader/opensource/component_code/vendor/huawei/extra/build/build_script/kirin_kernel_release/kernel/arch/arm64/include/asm/mmu.h"
	.file 47 "/mnt/disk/jenkins/ci/workspace/chipset_release_960_xloader/opensource/component_code/vendor/huawei/extra/build/build_script/kirin_kernel_release/kernel/include/linux/fs.h"
	.file 48 "/mnt/disk/jenkins/ci/workspace/chipset_release_960_xloader/opensource/component_code/vendor/huawei/extra/build/build_script/kirin_kernel_release/kernel/include/linux/mm.h"
	.file 49 "/mnt/disk/jenkins/ci/workspace/chipset_release_960_xloader/opensource/component_code/vendor/huawei/extra/build/build_script/kirin_kernel_release/kernel/include/linux/user_namespace.h"
	.file 50 "/mnt/disk/jenkins/ci/workspace/chipset_release_960_xloader/opensource/component_code/vendor/huawei/extra/build/build_script/kirin_kernel_release/kernel/include/linux/mmzone.h"
	.file 51 "/mnt/disk/jenkins/ci/workspace/chipset_release_960_xloader/opensource/component_code/vendor/huawei/extra/build/build_script/kirin_kernel_release/kernel/include/linux/mutex.h"
	.file 52 "/mnt/disk/jenkins/ci/workspace/chipset_release_960_xloader/opensource/component_code/vendor/huawei/extra/build/build_script/kirin_kernel_release/kernel/drivers/vcodec/hi_vcodec/vdec/include/hi_type.h"
	.file 53 "/mnt/disk/jenkins/ci/workspace/chipset_release_960_xloader/opensource/component_code/vendor/huawei/extra/build/build_script/kirin_kernel_release/kernel/drivers/vcodec/hi_vcodec/vdec/vfmw/vfmw_v4.0/vfmw.h"
	.file 54 "/mnt/disk/jenkins/ci/workspace/chipset_release_960_xloader/opensource/component_code/vendor/huawei/extra/build/build_script/kirin_kernel_release/kernel/drivers/vcodec/hi_vcodec/vdec/vfmw/vfmw_v4.0/firmware/driver/HiSMMUV100/smmu.h"
	.file 55 "/mnt/disk/jenkins/ci/workspace/chipset_release_960_xloader/opensource/component_code/vendor/huawei/extra/build/build_script/kirin_kernel_release/kernel/include/linux/percpu-refcount.h"
	.file 56 "/mnt/disk/jenkins/ci/workspace/chipset_release_960_xloader/opensource/component_code/vendor/huawei/extra/build/build_script/kirin_kernel_release/kernel/include/linux/shrinker.h"
	.file 57 "/mnt/disk/jenkins/ci/workspace/chipset_release_960_xloader/opensource/component_code/vendor/huawei/extra/build/build_script/kirin_kernel_release/kernel/include/uapi/linux/resource.h"
	.file 58 "/mnt/disk/jenkins/ci/workspace/chipset_release_960_xloader/opensource/component_code/vendor/huawei/extra/build/build_script/kirin_kernel_release/kernel/include/linux/tracepoint-defs.h"
	.file 59 "/mnt/disk/jenkins/ci/workspace/chipset_release_960_xloader/opensource/component_code/vendor/huawei/extra/build/build_script/kirin_kernel_release/kernel/include/linux/vmstat.h"
	.file 60 "/mnt/disk/jenkins/ci/workspace/chipset_release_960_xloader/opensource/component_code/vendor/huawei/extra/build/build_script/kirin_kernel_release/kernel/include/linux/capability.h"
	.file 61 "/mnt/disk/jenkins/ci/workspace/chipset_release_960_xloader/opensource/component_code/vendor/huawei/extra/build/build_script/kirin_kernel_release/kernel/include/linux/plist.h"
	.file 62 "/mnt/disk/jenkins/ci/workspace/chipset_release_960_xloader/opensource/component_code/vendor/huawei/extra/build/build_script/kirin_kernel_release/kernel/include/asm-generic/cputime_jiffies.h"
	.file 63 "/mnt/disk/jenkins/ci/workspace/chipset_release_960_xloader/opensource/component_code/vendor/huawei/extra/build/build_script/kirin_kernel_release/kernel/include/uapi/asm-generic/signal.h"
	.file 64 "/mnt/disk/jenkins/ci/workspace/chipset_release_960_xloader/opensource/component_code/vendor/huawei/extra/build/build_script/kirin_kernel_release/kernel/include/uapi/asm-generic/signal-defs.h"
	.file 65 "/mnt/disk/jenkins/ci/workspace/chipset_release_960_xloader/opensource/component_code/vendor/huawei/extra/build/build_script/kirin_kernel_release/kernel/include/uapi/asm-generic/siginfo.h"
	.file 66 "/mnt/disk/jenkins/ci/workspace/chipset_release_960_xloader/opensource/component_code/vendor/huawei/extra/build/build_script/kirin_kernel_release/kernel/include/linux/signal.h"
	.file 67 "/mnt/disk/jenkins/ci/workspace/chipset_release_960_xloader/opensource/component_code/vendor/huawei/extra/build/build_script/kirin_kernel_release/kernel/include/linux/pid.h"
	.file 68 "/mnt/disk/jenkins/ci/workspace/chipset_release_960_xloader/opensource/component_code/vendor/huawei/extra/build/build_script/kirin_kernel_release/kernel/include/linux/pid_namespace.h"
	.file 69 "/mnt/disk/jenkins/ci/workspace/chipset_release_960_xloader/opensource/component_code/vendor/huawei/extra/build/build_script/kirin_kernel_release/kernel/include/linux/seccomp.h"
	.file 70 "/mnt/disk/jenkins/ci/workspace/chipset_release_960_xloader/opensource/component_code/vendor/huawei/extra/build/build_script/kirin_kernel_release/kernel/include/linux/timerqueue.h"
	.file 71 "/mnt/disk/jenkins/ci/workspace/chipset_release_960_xloader/opensource/component_code/vendor/huawei/extra/build/build_script/kirin_kernel_release/kernel/include/linux/hrtimer.h"
	.file 72 "/mnt/disk/jenkins/ci/workspace/chipset_release_960_xloader/opensource/component_code/vendor/huawei/extra/build/build_script/kirin_kernel_release/kernel/include/linux/task_io_accounting.h"
	.file 73 "/mnt/disk/jenkins/ci/workspace/chipset_release_960_xloader/opensource/component_code/vendor/huawei/extra/build/build_script/kirin_kernel_release/kernel/include/linux/assoc_array.h"
	.file 74 "/mnt/disk/jenkins/ci/workspace/chipset_release_960_xloader/opensource/component_code/vendor/huawei/extra/build/build_script/kirin_kernel_release/kernel/include/linux/key.h"
	.file 75 "/mnt/disk/jenkins/ci/workspace/chipset_release_960_xloader/opensource/component_code/vendor/huawei/extra/build/build_script/kirin_kernel_release/kernel/include/linux/cred.h"
	.file 76 "/mnt/disk/jenkins/ci/workspace/chipset_release_960_xloader/opensource/component_code/vendor/huawei/extra/build/build_script/kirin_kernel_release/kernel/include/linux/idr.h"
	.file 77 "/mnt/disk/jenkins/ci/workspace/chipset_release_960_xloader/opensource/component_code/vendor/huawei/extra/build/build_script/kirin_kernel_release/kernel/include/linux/rcu_sync.h"
	.file 78 "/mnt/disk/jenkins/ci/workspace/chipset_release_960_xloader/opensource/component_code/vendor/huawei/extra/build/build_script/kirin_kernel_release/kernel/include/linux/percpu-rwsem.h"
	.file 79 "/mnt/disk/jenkins/ci/workspace/chipset_release_960_xloader/opensource/component_code/vendor/huawei/extra/build/build_script/kirin_kernel_release/kernel/include/linux/bpf-cgroup.h"
	.file 80 "/mnt/disk/jenkins/ci/workspace/chipset_release_960_xloader/opensource/component_code/vendor/huawei/extra/build/build_script/kirin_kernel_release/kernel/include/linux/cgroup-defs.h"
	.file 81 "/mnt/disk/jenkins/ci/workspace/chipset_release_960_xloader/opensource/component_code/vendor/huawei/extra/build/build_script/kirin_kernel_release/kernel/include/linux/kernfs.h"
	.file 82 "/mnt/disk/jenkins/ci/workspace/chipset_release_960_xloader/opensource/component_code/vendor/huawei/extra/build/build_script/kirin_kernel_release/kernel/include/linux/seq_file.h"
	.file 83 "/mnt/disk/jenkins/ci/workspace/chipset_release_960_xloader/opensource/component_code/vendor/huawei/extra/build/build_script/kirin_kernel_release/kernel/include/uapi/linux/taskstats.h"
	.file 84 "/mnt/disk/jenkins/ci/workspace/chipset_release_960_xloader/opensource/component_code/vendor/huawei/extra/build/build_script/kirin_kernel_release/kernel/include/linux/nsproxy.h"
	.file 85 "/mnt/disk/jenkins/ci/workspace/chipset_release_960_xloader/opensource/component_code/vendor/huawei/extra/build/build_script/kirin_kernel_release/kernel/include/linux/compat.h"
	.file 86 "/mnt/disk/jenkins/ci/workspace/chipset_release_960_xloader/opensource/component_code/vendor/huawei/extra/build/build_script/kirin_kernel_release/kernel/include/linux/stat.h"
	.file 87 "/mnt/disk/jenkins/ci/workspace/chipset_release_960_xloader/opensource/component_code/vendor/huawei/extra/build/build_script/kirin_kernel_release/kernel/include/uapi/linux/elf.h"
	.file 88 "/mnt/disk/jenkins/ci/workspace/chipset_release_960_xloader/opensource/component_code/vendor/huawei/extra/build/build_script/kirin_kernel_release/kernel/include/linux/kobject_ns.h"
	.file 89 "/mnt/disk/jenkins/ci/workspace/chipset_release_960_xloader/opensource/component_code/vendor/huawei/extra/build/build_script/kirin_kernel_release/kernel/include/linux/sysfs.h"
	.file 90 "/mnt/disk/jenkins/ci/workspace/chipset_release_960_xloader/opensource/component_code/vendor/huawei/extra/build/build_script/kirin_kernel_release/kernel/include/linux/kobject.h"
	.file 91 "/mnt/disk/jenkins/ci/workspace/chipset_release_960_xloader/opensource/component_code/vendor/huawei/extra/build/build_script/kirin_kernel_release/kernel/include/linux/kref.h"
	.file 92 "/mnt/disk/jenkins/ci/workspace/chipset_release_960_xloader/opensource/component_code/vendor/huawei/extra/build/build_script/kirin_kernel_release/kernel/include/linux/moduleparam.h"
	.file 93 "/mnt/disk/jenkins/ci/workspace/chipset_release_960_xloader/opensource/component_code/vendor/huawei/extra/build/build_script/kirin_kernel_release/kernel/include/linux/module.h"
	.file 94 "/mnt/disk/jenkins/ci/workspace/chipset_release_960_xloader/opensource/component_code/vendor/huawei/extra/build/build_script/kirin_kernel_release/kernel/include/linux/rbtree_latch.h"
	.file 95 "/mnt/disk/jenkins/ci/workspace/chipset_release_960_xloader/opensource/component_code/vendor/huawei/extra/build/build_script/kirin_kernel_release/kernel/arch/arm64/include/asm/module.h"
	.file 96 "/mnt/disk/jenkins/ci/workspace/chipset_release_960_xloader/opensource/component_code/vendor/huawei/extra/build/build_script/kirin_kernel_release/kernel/arch/arm64/include/asm/uaccess.h"
	.file 97 "/mnt/disk/jenkins/ci/workspace/chipset_release_960_xloader/opensource/component_code/vendor/huawei/extra/build/build_script/kirin_kernel_release/kernel/include/linux/trace_events.h"
	.file 98 "/mnt/disk/jenkins/ci/workspace/chipset_release_960_xloader/opensource/component_code/vendor/huawei/extra/build/build_script/kirin_kernel_release/kernel/include/linux/tracepoint.h"
	.file 99 "/mnt/disk/jenkins/ci/workspace/chipset_release_960_xloader/opensource/component_code/vendor/huawei/extra/build/build_script/kirin_kernel_release/kernel/include/linux/percpu_counter.h"
	.file 100 "/mnt/disk/jenkins/ci/workspace/chipset_release_960_xloader/opensource/component_code/vendor/huawei/extra/build/build_script/kirin_kernel_release/kernel/include/linux/quota.h"
	.file 101 "/mnt/disk/jenkins/ci/workspace/chipset_release_960_xloader/opensource/component_code/vendor/huawei/extra/build/build_script/kirin_kernel_release/kernel/include/linux/projid.h"
	.file 102 "/mnt/disk/jenkins/ci/workspace/chipset_release_960_xloader/opensource/component_code/vendor/huawei/extra/build/build_script/kirin_kernel_release/kernel/include/linux/path.h"
	.file 103 "/mnt/disk/jenkins/ci/workspace/chipset_release_960_xloader/opensource/component_code/vendor/huawei/extra/build/build_script/kirin_kernel_release/kernel/include/linux/list_bl.h"
	.file 104 "/mnt/disk/jenkins/ci/workspace/chipset_release_960_xloader/opensource/component_code/vendor/huawei/extra/build/build_script/kirin_kernel_release/kernel/include/linux/lockref.h"
	.file 105 "/mnt/disk/jenkins/ci/workspace/chipset_release_960_xloader/opensource/component_code/vendor/huawei/extra/build/build_script/kirin_kernel_release/kernel/include/linux/dcache.h"
	.file 106 "/mnt/disk/jenkins/ci/workspace/chipset_release_960_xloader/opensource/component_code/vendor/huawei/extra/build/build_script/kirin_kernel_release/kernel/include/linux/list_lru.h"
	.file 107 "/mnt/disk/jenkins/ci/workspace/chipset_release_960_xloader/opensource/component_code/vendor/huawei/extra/build/build_script/kirin_kernel_release/kernel/include/linux/radix-tree.h"
	.file 108 "/mnt/disk/jenkins/ci/workspace/chipset_release_960_xloader/opensource/component_code/vendor/huawei/extra/build/build_script/kirin_kernel_release/kernel/include/uapi/linux/fiemap.h"
	.file 109 "/mnt/disk/jenkins/ci/workspace/chipset_release_960_xloader/opensource/component_code/vendor/huawei/extra/build/build_script/kirin_kernel_release/kernel/include/linux/migrate_mode.h"
	.file 110 "/mnt/disk/jenkins/ci/workspace/chipset_release_960_xloader/opensource/component_code/vendor/huawei/extra/build/build_script/kirin_kernel_release/kernel/include/linux/bvec.h"
	.file 111 "/mnt/disk/jenkins/ci/workspace/chipset_release_960_xloader/opensource/component_code/vendor/huawei/extra/build/build_script/kirin_kernel_release/kernel/include/linux/delayed_call.h"
	.file 112 "/mnt/disk/jenkins/ci/workspace/chipset_release_960_xloader/opensource/component_code/vendor/huawei/extra/build/build_script/kirin_kernel_release/kernel/include/linux/uio.h"
	.file 113 "/mnt/disk/jenkins/ci/workspace/chipset_release_960_xloader/opensource/component_code/vendor/huawei/extra/build/build_script/kirin_kernel_release/kernel/include/linux/nfs_fs_i.h"
	.file 114 "/mnt/disk/jenkins/ci/workspace/chipset_release_960_xloader/opensource/component_code/vendor/huawei/extra/build/build_script/kirin_kernel_release/kernel/include/linux/poll.h"
	.file 115 "/mnt/disk/jenkins/ci/workspace/chipset_release_960_xloader/opensource/component_code/vendor/huawei/extra/build/build_script/kirin_kernel_release/kernel/include/linux/seq_buf.h"
	.file 116 "/mnt/disk/jenkins/ci/workspace/chipset_release_960_xloader/opensource/component_code/vendor/huawei/extra/build/build_script/kirin_kernel_release/kernel/include/linux/trace_seq.h"
	.file 117 "/mnt/disk/jenkins/ci/workspace/chipset_release_960_xloader/opensource/component_code/vendor/huawei/extra/build/build_script/kirin_kernel_release/kernel/include/uapi/linux/perf_event.h"
	.file 118 "/mnt/disk/jenkins/ci/workspace/chipset_release_960_xloader/opensource/component_code/vendor/huawei/extra/build/build_script/kirin_kernel_release/kernel/include/asm-generic/local.h"
	.file 119 "/mnt/disk/jenkins/ci/workspace/chipset_release_960_xloader/opensource/component_code/vendor/huawei/extra/build/build_script/kirin_kernel_release/kernel/include/asm-generic/local64.h"
	.file 120 "/mnt/disk/jenkins/ci/workspace/chipset_release_960_xloader/opensource/component_code/vendor/huawei/extra/build/build_script/kirin_kernel_release/kernel/include/linux/cgroup.h"
	.file 121 "/mnt/disk/jenkins/ci/workspace/chipset_release_960_xloader/opensource/component_code/vendor/huawei/extra/build/build_script/kirin_kernel_release/kernel/include/linux/ns_common.h"
	.file 122 "/mnt/disk/jenkins/ci/workspace/chipset_release_960_xloader/opensource/component_code/vendor/huawei/extra/build/build_script/kirin_kernel_release/kernel/include/uapi/linux/uio.h"
	.file 123 "/mnt/disk/jenkins/ci/workspace/chipset_release_960_xloader/opensource/component_code/vendor/huawei/extra/build/build_script/kirin_kernel_release/kernel/include/linux/ftrace.h"
	.file 124 "/mnt/disk/jenkins/ci/workspace/chipset_release_960_xloader/opensource/component_code/vendor/huawei/extra/build/build_script/kirin_kernel_release/kernel/include/linux/klist.h"
	.file 125 "/mnt/disk/jenkins/ci/workspace/chipset_release_960_xloader/opensource/component_code/vendor/huawei/extra/build/build_script/kirin_kernel_release/kernel/include/linux/pinctrl/devinfo.h"
	.file 126 "/mnt/disk/jenkins/ci/workspace/chipset_release_960_xloader/opensource/component_code/vendor/huawei/extra/build/build_script/kirin_kernel_release/kernel/include/linux/pm.h"
	.file 127 "/mnt/disk/jenkins/ci/workspace/chipset_release_960_xloader/opensource/component_code/vendor/huawei/extra/build/build_script/kirin_kernel_release/kernel/include/linux/device.h"
	.file 128 "/mnt/disk/jenkins/ci/workspace/chipset_release_960_xloader/opensource/component_code/vendor/huawei/extra/build/build_script/kirin_kernel_release/kernel/include/linux/pm_wakeup.h"
	.file 129 "/mnt/disk/jenkins/ci/workspace/chipset_release_960_xloader/opensource/component_code/vendor/huawei/extra/build/build_script/kirin_kernel_release/kernel/arch/arm64/include/asm/device.h"
	.file 130 "/mnt/disk/jenkins/ci/workspace/chipset_release_960_xloader/opensource/component_code/vendor/huawei/extra/build/build_script/kirin_kernel_release/kernel/include/linux/irq_work.h"
	.file 131 "/mnt/disk/jenkins/ci/workspace/chipset_release_960_xloader/opensource/component_code/vendor/huawei/extra/build/build_script/kirin_kernel_release/kernel/include/linux/perf_regs.h"
	.file 132 "/mnt/disk/jenkins/ci/workspace/chipset_release_960_xloader/opensource/component_code/vendor/huawei/extra/build/build_script/kirin_kernel_release/kernel/include/linux/interrupt.h"
	.file 133 "/mnt/disk/jenkins/ci/workspace/chipset_release_960_xloader/opensource/component_code/vendor/huawei/extra/build/build_script/kirin_kernel_release/kernel/drivers/vcodec/hi_vcodec/vdec/vfmw/vfmw_v4.0/firmware/common/public.h"
	.file 134 "/mnt/disk/jenkins/ci/workspace/chipset_release_960_xloader/opensource/component_code/vendor/huawei/extra/build/build_script/kirin_kernel_release/kernel/arch/arm64/include/asm/cachetype.h"
	.file 135 "/mnt/disk/jenkins/ci/workspace/chipset_release_960_xloader/opensource/component_code/vendor/huawei/extra/build/build_script/kirin_kernel_release/kernel/include/linux/printk.h"
	.file 136 "/mnt/disk/jenkins/ci/workspace/chipset_release_960_xloader/opensource/component_code/vendor/huawei/extra/build/build_script/kirin_kernel_release/kernel/include/linux/kernel.h"
	.file 137 "/mnt/disk/jenkins/ci/workspace/chipset_release_960_xloader/opensource/component_code/vendor/huawei/extra/build/build_script/kirin_kernel_release/kernel/arch/arm64/include/asm/memory.h"
	.file 138 "/mnt/disk/jenkins/ci/workspace/chipset_release_960_xloader/opensource/component_code/vendor/huawei/extra/build/build_script/kirin_kernel_release/kernel/arch/arm64/include/asm/stack_pointer.h"
	.file 139 "/mnt/disk/jenkins/ci/workspace/chipset_release_960_xloader/opensource/component_code/vendor/huawei/extra/build/build_script/kirin_kernel_release/kernel/arch/arm64/include/asm/hwcap.h"
	.file 140 "/mnt/disk/jenkins/ci/workspace/chipset_release_960_xloader/opensource/component_code/vendor/huawei/extra/build/build_script/kirin_kernel_release/kernel/arch/arm64/include/asm/cpufeature.h"
	.file 141 "/mnt/disk/jenkins/ci/workspace/chipset_release_960_xloader/opensource/component_code/vendor/huawei/extra/build/build_script/kirin_kernel_release/kernel/arch/arm64/include/asm/virt.h"
	.file 142 "/mnt/disk/jenkins/ci/workspace/chipset_release_960_xloader/opensource/component_code/vendor/huawei/extra/build/build_script/kirin_kernel_release/kernel/include/linux/jiffies.h"
	.file 143 "/mnt/disk/jenkins/ci/workspace/chipset_release_960_xloader/opensource/component_code/vendor/huawei/extra/build/build_script/kirin_kernel_release/kernel/include/linux/highuid.h"
	.file 144 "/mnt/disk/jenkins/ci/workspace/chipset_release_960_xloader/opensource/component_code/vendor/huawei/extra/build/build_script/kirin_kernel_release/kernel/include/asm-generic/percpu.h"
	.file 145 "/mnt/disk/jenkins/ci/workspace/chipset_release_960_xloader/opensource/component_code/vendor/huawei/extra/build/build_script/kirin_kernel_release/kernel/drivers/vcodec/hi_vcodec/vdec/vfmw/vfmw_v4.0/firmware/product/HiVCodecV100/sysconfig.h"
	.file 146 "/mnt/disk/jenkins/ci/workspace/chipset_release_960_xloader/opensource/component_code/vendor/huawei/extra/build/build_script/kirin_kernel_release/kernel/include/linux/debug_locks.h"
	.file 147 "/mnt/disk/jenkins/ci/workspace/chipset_release_960_xloader/opensource/component_code/vendor/huawei/extra/build/build_script/kirin_kernel_release/kernel/include/asm-generic/pgtable.h"
	.file 148 "/mnt/disk/jenkins/ci/workspace/chipset_release_960_xloader/opensource/component_code/vendor/huawei/extra/build/build_script/kirin_kernel_release/kernel/arch/arm64/include/asm/irq.h"
	.file 149 "/mnt/disk/jenkins/ci/workspace/chipset_release_960_xloader/opensource/component_code/vendor/huawei/extra/build/build_script/kirin_kernel_release/kernel/arch/arm64/include/asm/hardirq.h"
	.file 150 "/mnt/disk/jenkins/ci/workspace/chipset_release_960_xloader/opensource/component_code/vendor/huawei/extra/build/build_script/kirin_kernel_release/kernel/include/linux/slab.h"
	.file 151 "/mnt/disk/jenkins/ci/workspace/chipset_release_960_xloader/opensource/component_code/vendor/huawei/extra/build/build_script/kirin_kernel_release/kernel/drivers/vcodec/hi_vcodec/vdec/vfmw/vfmw_v4.0/firmware/common/mem_manage.h"
	.section	.note.GNU-stack,"",%progbits
