	.cpu generic+fp+simd
	.file	"tvp_adapter.c"
	.text
.Ltext0:
	.cfi_sections	.debug_frame
	.align	2
	.type	TVP_VDEC_ReleaseChanImage.part.0, %function
TVP_VDEC_ReleaseChanImage.part.0:
.LFB2678:
	.file 1 "/mnt/disk/jenkins/ci/workspace/chipset_release_960_xloader/opensource/component_code/vendor/huawei/extra/build/build_script/kirin_kernel_release/kernel/drivers/vcodec/hi_vcodec/vdec/vfmw/vfmw_v4.0/scene/tvp/normal/tvp_adapter.c"
	.loc 1 284 0
	.cfi_startproc
	stp	x29, x30, [sp, -16]!
	.cfi_def_cfa_offset 16
	.cfi_offset 29, -16
	.cfi_offset 30, -8
	.loc 1 304 0 discriminator 1
	adrp	x1, .LC0
	mov	w0, 32
	.loc 1 284 0
	add	x29, sp, 0
	.cfi_def_cfa_register 29
	.loc 1 304 0 discriminator 1
	add	x1, x1, :lo12:.LC0
	.loc 1 284 0
	.loc 1 304 0 discriminator 1
	bl	dprint_linux_kernel
.LVL0:
	.loc 1 309 0
	mov	w0, -1
	ldp	x29, x30, [sp], 16
	.cfi_restore 30
	.cfi_restore 29
	.cfi_def_cfa 31, 0
	ret
	.cfi_endproc
.LFE2678:
	.size	TVP_VDEC_ReleaseChanImage.part.0, .-TVP_VDEC_ReleaseChanImage.part.0
	.align	2
	.global	TVP_VDEC_ReleaseChanImage
	.type	TVP_VDEC_ReleaseChanImage, %function
TVP_VDEC_ReleaseChanImage:
.LFB2649:
	.loc 1 285 0
	.cfi_startproc
.LVL1:
	stp	x29, x30, [sp, -160]!
	.cfi_def_cfa_offset 160
	.cfi_offset 29, -160
	.cfi_offset 30, -152
	mov	w8, w0
	add	x29, sp, 0
	.cfi_def_cfa_register 29
	str	x19, [sp,16]
	.cfi_offset 19, -144
	.loc 1 285 0
	adrp	x19, __stack_chk_guard
	.loc 1 289 0
	stp	xzr, xzr, [x29,48]
	.loc 1 285 0
	ldr	x2, [x19,#:lo12:__stack_chk_guard]
	.loc 1 289 0
	stp	xzr, xzr, [x29,64]
	.loc 1 285 0
	str	x2, [x29,152]
	.loc 1 289 0
	stp	xzr, xzr, [x29,80]
	stp	xzr, xzr, [x29,96]
	stp	xzr, xzr, [x29,112]
	stp	xzr, xzr, [x29,128]
	str	xzr, [x29,144]
.LBB6:
	.loc 1 291 0
	tbz	x1, 38, .L3
.LVL2:
	.loc 1 291 0 is_stmt 0 discriminator 1
	adrp	x0, memstart_addr
	and	x1, x1, 274877906943
.LVL3:
	ldr	x4, [x0,#:lo12:memstart_addr]
	add	x4, x1, x4
.LVL4:
.L4:
.LBE6:
	.loc 1 293 0 is_stmt 1
	mov	w9, 4115
	.loc 1 301 0
	adrp	x0, .LANCHOR0
	.loc 1 299 0
	mov	w6, 26140
	mov	w5, 26124
	.loc 1 297 0
	lsr	x7, x4, 32
	.loc 1 299 0
	movk	w6, 0x6728, lsl 16
	movk	w5, 0x5b9c, lsl 16
	.loc 1 293 0
	str	w9, [x29,36]
	.loc 1 301 0
	mov	w1, 8
.LVL5:
	.loc 1 295 0
	mov	w9, 1
	.loc 1 301 0
	add	x0, x0, :lo12:.LANCHOR0
	add	x2, x29, 32
	mov	x3, 0
	.loc 1 295 0
	str	w9, [x29,32]
	.loc 1 296 0
	str	w8, [x29,40]
	.loc 1 297 0
	str	w7, [x29,44]
	.loc 1 298 0
	str	w4, [x29,64]
	.loc 1 299 0
	str	w6, [x29,112]
	str	w5, [x29,116]
	.loc 1 301 0
	bl	TEEK_InvokeCommand
.LVL6:
	.loc 1 302 0
	cbz	w0, .L5
	bl	TVP_VDEC_ReleaseChanImage.part.0
.LVL7:
.L6:
	.loc 1 309 0
	ldr	x2, [x29,152]
	ldr	x1, [x19,#:lo12:__stack_chk_guard]
	cmp	x2, x1
	bne	.L9
	ldr	x19, [sp,16]
	.cfi_remember_state
	.cfi_restore 19
	ldp	x29, x30, [sp], 160
	.cfi_restore 30
	.cfi_restore 29
	.cfi_def_cfa 31, 0
	ret
.LVL8:
.L3:
	.cfi_restore_state
.LBB7:
	.loc 1 291 0 discriminator 2
	adrp	x0, kimage_voffset
	ldr	x4, [x0,#:lo12:kimage_voffset]
	sub	x4, x1, x4
	b	.L4
.LVL9:
.L5:
.LBE7:
	.loc 1 308 0
	ldr	w0, [x29,40]
	b	.L6
.L9:
	.loc 1 309 0
	bl	__stack_chk_fail
.LVL10:
	.cfi_endproc
.LFE2649:
	.size	TVP_VDEC_ReleaseChanImage, .-TVP_VDEC_ReleaseChanImage
	.align	2
	.type	TVP_VDEC_SecureExit.part.6, %function
TVP_VDEC_SecureExit.part.6:
.LFB2684:
	.loc 1 1775 0
	.cfi_startproc
	stp	x29, x30, [sp, -176]!
	.cfi_def_cfa_offset 176
	.cfi_offset 29, -176
	.cfi_offset 30, -168
	add	x29, sp, 0
	.cfi_def_cfa_register 29
	stp	x19, x20, [sp,16]
	str	x21, [sp,32]
	.cfi_offset 19, -160
	.cfi_offset 20, -152
	.cfi_offset 21, -144
	.loc 1 1800 0
	adrp	x20, .LANCHOR0
	.loc 1 1775 0
	adrp	x21, __stack_chk_guard
	.loc 1 1800 0
	add	x0, x20, :lo12:.LANCHOR0
	mov	w19, 50
	.loc 1 1775 0
	ldr	x1, [x21,#:lo12:__stack_chk_guard]
	str	x1, [x29,168]
	.loc 1 1800 0
	mov	w1, 3
	str	w1, [x0,72]
.L11:
	.loc 1 1810 0
	mov	w0, 10
	bl	msleep
.LVL11:
	.loc 1 1802 0 discriminator 1
	subs	w19, w19, #1
	beq	.L12
	.loc 1 1804 0
	add	x0, x20, :lo12:.LANCHOR0
	ldr	w0, [x0,72]
	cbnz	w0, .L11
.L12:
	.loc 1 1815 0
	mov	w6, 1
	.loc 1 1818 0
	mov	w5, 26140
	mov	w4, 26124
	movk	w5, 0x6728, lsl 16
	movk	w4, 0x5b9c, lsl 16
	.loc 1 1814 0
	mov	w7, 4099
	.loc 1 1815 0
	str	w6, [x29,48]
	.loc 1 1820 0
	add	x0, x20, :lo12:.LANCHOR0
	.loc 1 1816 0
	str	w6, [x29,56]
	.loc 1 1820 0
	mov	w1, 2
	.loc 1 1817 0
	mov	w6, -1
	.loc 1 1820 0
	add	x2, x29, 48
	mov	x3, 0
	.loc 1 1813 0
	str	xzr, [x29,160]
	stp	xzr, xzr, [x29,128]
	stp	xzr, xzr, [x29,64]
	stp	xzr, xzr, [x29,80]
	stp	xzr, xzr, [x29,96]
	stp	xzr, xzr, [x29,112]
	stp	xzr, xzr, [x29,144]
	.loc 1 1814 0
	str	w7, [x29,52]
	.loc 1 1817 0
	str	w6, [x29,60]
	.loc 1 1818 0
	str	w5, [x29,128]
	str	w4, [x29,132]
	.loc 1 1820 0
	bl	TEEK_InvokeCommand
.LVL12:
	.loc 1 1821 0
	cbz	w0, .L14
	.loc 1 1823 0 discriminator 1
	adrp	x1, .LC1
	mov	w0, 32
	add	x1, x1, :lo12:.LC1
	bl	dprint_linux_kernel
.LVL13:
.L14:
	.loc 1 1829 0
	add	x20, x20, :lo12:.LANCHOR0
	.loc 1 1826 0
	ldr	w19, [x29,56]
	.loc 1 1829 0
	mov	x0, x20
	bl	TEEK_CloseSession
.LVL14:
	.loc 1 1830 0
	add	x0, x20, 80
	bl	TEEK_FinalizeContext
.LVL15:
	.loc 1 1832 0
	add	x0, x20, 128
	bl	MEM_ReleaseMemBlock_2
.LVL16:
	.loc 1 1836 0
	strb	wzr, [x20,232]
	.loc 1 1838 0 discriminator 1
	adrp	x1, .LC2
	adrp	x2, .LANCHOR1
	add	x1, x1, :lo12:.LC2
	add	x2, x2, :lo12:.LANCHOR1
	mov	w0, 32
	bl	dprint_linux_kernel
.LVL17:
	.loc 1 1840 0
	add	x0, x20, 240
	bl	OSAL_UP
.LVL18:
	.loc 1 1842 0
	ldr	x2, [x29,168]
.LVL19:
	mov	w0, w19
	ldr	x1, [x21,#:lo12:__stack_chk_guard]
	cmp	x2, x1
	bne	.L22
	ldp	x19, x20, [sp,16]
	.cfi_remember_state
	.cfi_restore 20
	.cfi_restore 19
.LVL20:
	ldr	x21, [sp,32]
	.cfi_restore 21
	ldp	x29, x30, [sp], 176
	.cfi_restore 30
	.cfi_restore 29
	.cfi_def_cfa 31, 0
	ret
.LVL21:
.L22:
	.cfi_restore_state
	bl	__stack_chk_fail
.LVL22:
	.cfi_endproc
.LFE2684:
	.size	TVP_VDEC_SecureExit.part.6, .-TVP_VDEC_SecureExit.part.6
	.align	2
	.global	TVP_VDEC_ExtBufHandler
	.type	TVP_VDEC_ExtBufHandler, %function
TVP_VDEC_ExtBufHandler:
.LFB2647:
	.loc 1 236 0
	.cfi_startproc
.LVL23:
	.loc 1 237 0
	adrp	x3, .LANCHOR0+288
	.loc 1 236 0
	stp	x29, x30, [sp, -16]!
	.cfi_def_cfa_offset 16
	.cfi_offset 29, -16
	.cfi_offset 30, -8
	add	x29, sp, 0
	.cfi_def_cfa_register 29
	.loc 1 237 0
	ldr	x3, [x3,#:lo12:.LANCHOR0+288]
	cbz	x3, .L26
	.loc 1 243 0
	blr	x3
.LVL24:
	.loc 1 244 0
	ldp	x29, x30, [sp], 16
	.cfi_remember_state
	.cfi_restore 30
	.cfi_restore 29
	.cfi_def_cfa 31, 0
	ret
.LVL25:
.L26:
	.cfi_restore_state
.LBB10:
.LBB11:
	.loc 1 239 0
	adrp	x2, .LANCHOR1
.LVL26:
	adrp	x1, .LC3
.LVL27:
	add	x2, x2, :lo12:.LANCHOR1
	add	x1, x1, :lo12:.LC3
	add	x2, x2, 24
	mov	w0, 0
.LVL28:
	bl	dprint_linux_kernel
.LVL29:
	mov	w0, 0
.LBE11:
.LBE10:
	.loc 1 244 0
	ldp	x29, x30, [sp], 16
	.cfi_restore 29
	.cfi_restore 30
	.cfi_def_cfa 31, 0
	ret
	.cfi_endproc
.LFE2647:
	.size	TVP_VDEC_ExtBufHandler, .-TVP_VDEC_ExtBufHandler
	.align	2
	.global	TVP_VDEC_GetChanImage
	.type	TVP_VDEC_GetChanImage, %function
TVP_VDEC_GetChanImage:
.LFB2648:
	.loc 1 247 0
	.cfi_startproc
.LVL30:
	stp	x29, x30, [sp, -192]!
	.cfi_def_cfa_offset 192
	.cfi_offset 29, -192
	.cfi_offset 30, -184
	.loc 1 259 0
	mov	w3, 26140
	mov	w2, 26124
	.loc 1 247 0
	add	x29, sp, 0
	.cfi_def_cfa_register 29
	stp	x19, x20, [sp,16]
	.cfi_offset 19, -176
	.cfi_offset 20, -168
	adrp	x20, __stack_chk_guard
	.loc 1 261 0
	adrp	x19, .LANCHOR0
	.loc 1 247 0
	stp	x21, x22, [sp,32]
	.loc 1 251 0
	stp	xzr, xzr, [x29,64]
	.cfi_offset 21, -160
	.cfi_offset 22, -152
	.loc 1 261 0
	add	x21, x19, :lo12:.LANCHOR0
	.loc 1 247 0
	ldr	x4, [x20,#:lo12:__stack_chk_guard]
	.loc 1 257 0
	str	x1, [x29,96]
	.loc 1 253 0
	mov	w1, 4211
.LVL31:
	.loc 1 247 0
	str	x23, [sp,48]
	.cfi_offset 23, -144
	.loc 1 259 0
	movk	w3, 0x6728, lsl 16
	movk	w2, 0x5b9c, lsl 16
	.loc 1 247 0
	mov	w23, w0
	.loc 1 253 0
	str	w1, [x29,68]
	.loc 1 261 0
	add	x0, x21, 296
.LVL32:
	.loc 1 258 0
	mov	x1, 280
	.loc 1 247 0
	str	x4, [x29,184]
	.loc 1 251 0
	stp	xzr, xzr, [x29,144]
	.loc 1 258 0
	str	x1, [x29,104]
	.loc 1 255 0
	mov	w22, 1
	.loc 1 259 0
	str	w3, [x29,144]
	str	w2, [x29,148]
	.loc 1 251 0
	str	xzr, [x29,176]
	stp	xzr, xzr, [x29,80]
	stp	xzr, xzr, [x29,112]
	stp	xzr, xzr, [x29,128]
	stp	xzr, xzr, [x29,160]
	.loc 1 255 0
	str	w22, [x29,64]
	.loc 1 256 0
	str	w23, [x29,72]
	.loc 1 261 0
	bl	OSAL_DOWN_INTERRUPTIBLE
.LVL33:
	.loc 1 263 0
	mov	x0, x21
	mov	w1, 7
	add	x2, x29, 64
	mov	x3, 0
	bl	TEEK_InvokeCommand
.LVL34:
	.loc 1 264 0
	cbz	w0, .L28
	.loc 1 266 0 discriminator 1
	adrp	x1, .LC4
	mov	w0, 32
	add	x1, x1, :lo12:.LC4
	.loc 1 248 0
	mov	w21, -1
.LVL35:
	.loc 1 266 0 discriminator 1
	bl	dprint_linux_kernel
.LVL36:
.L29:
	.loc 1 278 0
	add	x0, x19, :lo12:.LANCHOR0
	add	x0, x0, 296
	bl	OSAL_UP
.LVL37:
	.loc 1 281 0
	ldr	x2, [x29,184]
	mov	w0, w21
	ldr	x1, [x20,#:lo12:__stack_chk_guard]
	cmp	x2, x1
	bne	.L31
	ldp	x19, x20, [sp,16]
	.cfi_remember_state
	.cfi_restore 20
	.cfi_restore 19
	ldp	x21, x22, [sp,32]
	.cfi_restore 22
	.cfi_restore 21
.LVL38:
	ldr	x23, [sp,48]
	.cfi_restore 23
.LVL39:
	ldp	x29, x30, [sp], 192
	.cfi_restore 30
	.cfi_restore 29
	.cfi_def_cfa 31, 0
	ret
.LVL40:
.L28:
	.cfi_restore_state
	.loc 1 270 0
	ldr	w21, [x29,72]
	.loc 1 271 0
	ldr	x2, [x29,96]
.LVL41:
	.loc 1 272 0
	cbnz	w21, .L29
	.loc 1 274 0
	mov	w0, w23
	mov	w1, w22
	add	x2, x2, 136
.LVL42:
	bl	TVP_VDEC_ExtBufHandler
.LVL43:
	b	.L29
.L31:
	.loc 1 281 0
	bl	__stack_chk_fail
.LVL44:
	.cfi_endproc
.LFE2648:
	.size	TVP_VDEC_GetChanImage, .-TVP_VDEC_GetChanImage
	.align	2
	.global	TVP_VDEC_ReadStream
	.type	TVP_VDEC_ReadStream, %function
TVP_VDEC_ReadStream:
.LFB2650:
	.loc 1 316 0
	.cfi_startproc
	stp	x29, x30, [sp, -80]!
	.cfi_def_cfa_offset 80
	.cfi_offset 29, -80
	.cfi_offset 30, -72
	add	x29, sp, 0
	.cfi_def_cfa_register 29
	stp	x19, x20, [sp,16]
	.cfi_offset 19, -64
	.cfi_offset 20, -56
	.loc 1 322 0
	adrp	x19, .LANCHOR0
	mov	w20, 0
	add	x19, x19, :lo12:.LANCHOR0
	.loc 1 316 0
	stp	x21, x22, [sp,32]
	stp	x23, x24, [sp,48]
	stp	x25, x26, [sp,64]
	.cfi_offset 21, -48
	.cfi_offset 22, -40
	.cfi_offset 23, -32
	.cfi_offset 24, -24
	.cfi_offset 25, -16
	.cfi_offset 26, -8
	.loc 1 322 0
	ldr	x24, [x19,192]
.LVL45:
	.loc 1 324 0
	cbz	x24, .L49
	.loc 1 332 0
	sxtw	x25, w20
	add	x23, x19, 344
	lsl	x22, x25, 4
	.loc 1 334 0
	add	x19, x19, 728
	.loc 1 332 0
	sub	x21, x22, x25, lsl 2
	add	x21, x23, x21
	ldr	w0, [x21,8]
	cmp	w0, 2
	beq	.L50
.LVL46:
.L35:
	.loc 1 330 0 discriminator 1
	cbz	w20, .L42
	.loc 1 377 0
	mov	w0, 0
.L34:
	.loc 1 378 0
	ldp	x19, x20, [sp,16]
	.cfi_remember_state
	.cfi_restore 20
	.cfi_restore 19
	ldp	x21, x22, [sp,32]
	.cfi_restore 22
	.cfi_restore 21
.LVL47:
	ldp	x23, x24, [sp,48]
	.cfi_restore 24
	.cfi_restore 23
.LVL48:
	ldp	x25, x26, [sp,64]
	.cfi_restore 26
	.cfi_restore 25
	ldp	x29, x30, [sp], 80
	.cfi_restore 30
	.cfi_restore 29
	.cfi_def_cfa 31, 0
	ret
.LVL49:
.L42:
	.cfi_restore_state
	mov	w20, 1
	.loc 1 332 0
	sxtw	x25, w20
	lsl	x22, x25, 4
.LVL50:
	sub	x21, x22, x25, lsl 2
.LVL51:
	add	x21, x23, x21
	ldr	w0, [x21,8]
	cmp	w0, 2
	bne	.L35
.L50:
	.loc 1 334 0
	add	x22, x22, x25, lsl 6
	add	x22, x19, x22
	add	x25, x22, 8
	mov	x0, x25
	bl	OSAL_DOWN_INTERRUPTIBLE
.LVL52:
	.loc 1 336 0
	ldr	w0, [x21,8]
	cmp	w0, 2
	bne	.L48
	.loc 1 343 0
	ldr	x21, [x22,64]
.LVL53:
	.loc 1 342 0
	add	x22, x22, 48
	ldr	w22, [x22,8]
	.loc 1 344 0
	cbz	x21, .L37
	.loc 1 353 0
	mov	w0, 32784
	movk	w0, 0x1, lsl 16
	smull	x0, w20, w0
	add	x26, x24, x0
	ldr	w1, [x24,x0]
	ldr	w3, [x26,12]
	add	w0, w1, 1
	b	.L47
.LVL54:
.L43:
	.loc 1 355 0
	sxtw	x1, w1
	.loc 1 357 0
	mov	w0, w22
	.loc 1 355 0
	lsl	x2, x1, 7
	sub	x1, x2, x1, lsl 5
	add	x1, x1, 16
	.loc 1 357 0
	add	x1, x26, x1
	blr	x21
.LVL55:
	.loc 1 358 0
	cbnz	w0, .L39
	.loc 1 362 0
	ldr	w0, [x26]
	.loc 1 353 0
	ldr	w3, [x26,12]
	.loc 1 362 0
	add	w0, w0, 1
	asr	w1, w0, 31
	lsr	w1, w1, 22
	add	w0, w0, w1
	and	w0, w0, 1023
	sub	w1, w0, w1
	str	w1, [x26]
	.loc 1 353 0
	add	w0, w1, 1
.L47:
	asr	w2, w0, 31
	lsr	w2, w2, 22
	add	w0, w0, w2
	and	w0, w0, 1023
	sub	w0, w0, w2
	cmp	w0, w3
	bne	.L43
.L39:
	.loc 1 373 0
	mov	x0, x25
	bl	OSAL_UP
.LVL56:
	b	.L35
.LVL57:
.L49:
	.loc 1 326 0 discriminator 1
	adrp	x2, .LANCHOR1
	adrp	x1, .LC5
	add	x2, x2, :lo12:.LANCHOR1
	mov	w0, 32
	add	x1, x1, :lo12:.LC5
	add	x2, x2, 48
	bl	dprint_linux_kernel
.LVL58:
	.loc 1 327 0
	mov	w0, -1
	b	.L34
.LVL59:
.L37:
	.loc 1 346 0 discriminator 1
	adrp	x2, .LANCHOR1
	adrp	x1, .LC6
	add	x2, x2, :lo12:.LANCHOR1
	add	x1, x1, :lo12:.LC6
	add	x2, x2, 48
	mov	w3, w20
	mov	w0, 32
	bl	dprint_linux_kernel
.LVL60:
.L48:
	.loc 1 347 0
	mov	x0, x25
	bl	OSAL_UP
.LVL61:
	.loc 1 348 0
	mov	w0, -1
	b	.L34
	.cfi_endproc
.LFE2650:
	.size	TVP_VDEC_ReadStream, .-TVP_VDEC_ReadStream
	.align	2
	.global	TVP_VDEC_ReleaseStream
	.type	TVP_VDEC_ReleaseStream, %function
TVP_VDEC_ReleaseStream:
.LFB2651:
	.loc 1 385 0
	.cfi_startproc
	stp	x29, x30, [sp, -80]!
	.cfi_def_cfa_offset 80
	.cfi_offset 29, -80
	.cfi_offset 30, -72
	add	x29, sp, 0
	.cfi_def_cfa_register 29
	stp	x19, x20, [sp,16]
	.cfi_offset 19, -64
	.cfi_offset 20, -56
	.loc 1 390 0
	adrp	x19, .LANCHOR0
	add	x19, x19, :lo12:.LANCHOR0
	.loc 1 385 0
	stp	x25, x26, [sp,64]
	stp	x21, x22, [sp,32]
	stp	x23, x24, [sp,48]
	.cfi_offset 25, -16
	.cfi_offset 26, -8
	.cfi_offset 21, -48
	.cfi_offset 22, -40
	.cfi_offset 23, -32
	.cfi_offset 24, -24
	mov	w26, 0
	.loc 1 390 0
	ldr	x21, [x19,192]
.LVL62:
	.loc 1 392 0
	cbz	x21, .L73
	.loc 1 400 0
	sxtw	x24, w26
	add	x20, x19, 344
	lsl	x23, x24, 4
	.loc 1 402 0
	add	x19, x19, 728
	.loc 1 400 0
	sub	x22, x23, x24, lsl 2
	add	x22, x20, x22
	ldr	w0, [x22,8]
	cbnz	w0, .L74
.LVL63:
.L54:
	.loc 1 398 0 discriminator 1
	cbz	w26, .L62
	.loc 1 443 0
	mov	w0, 0
.L53:
	.loc 1 444 0
	ldp	x19, x20, [sp,16]
	.cfi_remember_state
	.cfi_restore 20
	.cfi_restore 19
	ldp	x21, x22, [sp,32]
	.cfi_restore 22
	.cfi_restore 21
.LVL64:
	ldp	x23, x24, [sp,48]
	.cfi_restore 24
	.cfi_restore 23
.LVL65:
	ldp	x25, x26, [sp,64]
	.cfi_restore 26
	.cfi_restore 25
	ldp	x29, x30, [sp], 80
	.cfi_restore 30
	.cfi_restore 29
	.cfi_def_cfa 31, 0
	ret
.LVL66:
.L62:
	.cfi_restore_state
	mov	w26, 1
	.loc 1 400 0
	sxtw	x24, w26
	lsl	x23, x24, 4
.LVL67:
	sub	x22, x23, x24, lsl 2
.LVL68:
	add	x22, x20, x22
	ldr	w0, [x22,8]
	cbz	w0, .L54
.L74:
	.loc 1 402 0
	add	x23, x23, x24, lsl 6
	add	x23, x19, x23
	add	x24, x23, 8
	mov	x0, x24
	bl	OSAL_DOWN_INTERRUPTIBLE
.LVL69:
	.loc 1 404 0
	ldr	w0, [x22,8]
	cbz	w0, .L75
	.loc 1 412 0
	ldr	x22, [x23,72]
.LVL70:
	.loc 1 411 0
	ldr	w23, [x23,56]
	.loc 1 413 0
	cbz	x22, .L56
	.loc 1 422 0
	mov	w25, 32784
	movk	w25, 0x1, lsl 16
	smaddl	x25, w26, w25, x21
	ldr	w0, [x25,12]
	ldr	w3, [x25,8]
	cmp	w0, w3
	bne	.L67
	b	.L60
.LVL71:
.L58:
	.loc 1 431 0
	add	w1, w0, 1
	asr	w0, w1, 31
	lsr	w0, w0, 22
	add	w1, w1, w0
	and	w1, w1, 1023
	sub	w0, w1, w0
	str	w0, [x25,12]
	.loc 1 422 0
	cmp	w3, w0
	beq	.L60
.L67:
	.loc 1 426 0
	sxtw	x1, w0
	lsl	x2, x1, 7
	sub	x1, x2, x1, lsl 5
	add	x2, x25, x1
	ldr	w2, [x2,48]
	cbz	w2, .L58
	.loc 1 424 0
	add	x1, x1, 16
	.loc 1 428 0
	mov	w0, w23
	add	x1, x25, x1
	blr	x22
.LVL72:
	ldr	w0, [x25,12]
	ldr	w3, [x25,8]
	b	.L58
.L60:
	.loc 1 439 0
	mov	x0, x24
	bl	OSAL_UP
.LVL73:
	b	.L54
.LVL74:
.L73:
	.loc 1 394 0 discriminator 1
	adrp	x2, .LANCHOR1
	adrp	x1, .LC5
	add	x2, x2, :lo12:.LANCHOR1
	mov	w0, 32
	add	x1, x1, :lo12:.LC5
	add	x2, x2, 72
	bl	dprint_linux_kernel
.LVL75:
	.loc 1 395 0
	mov	w0, -1
	b	.L53
.L75:
	.loc 1 406 0 discriminator 1
	adrp	x1, .LC7
	add	x1, x1, :lo12:.LC7
.LVL76:
.L72:
	.loc 1 415 0 discriminator 1
	adrp	x2, .LANCHOR1
	mov	w3, w26
	add	x2, x2, :lo12:.LANCHOR1
	mov	w0, 32
	add	x2, x2, 72
	bl	dprint_linux_kernel
.LVL77:
	.loc 1 416 0
	mov	x0, x24
	bl	OSAL_UP
.LVL78:
	.loc 1 417 0
	mov	w0, -1
	b	.L53
.L56:
	.loc 1 415 0 discriminator 1
	adrp	x1, .LC8
	add	x1, x1, :lo12:.LC8
	b	.L72
	.cfi_endproc
.LFE2651:
	.size	TVP_VDEC_ReleaseStream, .-TVP_VDEC_ReleaseStream
	.align	2
	.global	TVP_VDEC_ReportEvent
	.type	TVP_VDEC_ReportEvent, %function
TVP_VDEC_ReportEvent:
.LFB2652:
	.loc 1 450 0
	.cfi_startproc
	stp	x29, x30, [sp, -48]!
	.cfi_def_cfa_offset 48
	.cfi_offset 29, -48
	.cfi_offset 30, -40
	add	x29, sp, 0
	.cfi_def_cfa_register 29
	stp	x19, x20, [sp,16]
	.cfi_offset 19, -32
	.cfi_offset 20, -24
	.loc 1 451 0
	adrp	x20, .LANCHOR0
	.loc 1 450 0
	str	x21, [sp,32]
	.cfi_offset 21, -16
	.loc 1 451 0
	add	x0, x20, :lo12:.LANCHOR0
	ldr	x19, [x0,160]
.LVL79:
	ldr	x4, [x0,888]
	.loc 1 453 0
	cbz	x19, .L78
	.loc 1 453 0 is_stmt 0 discriminator 1
	cbz	x4, .L78
	.loc 1 459 0 is_stmt 1
	ldr	w2, [x19,4]
	mov	w21, 76
	ldr	w3, [x19]
	cmp	w2, w3
	bne	.L88
	b	.L83
.L81:
	.loc 1 468 0
	add	w0, w2, 1
	asr	w2, w0, 31
	lsr	w2, w2, 23
	add	w0, w0, w2
	and	w0, w0, 511
	sub	w2, w0, w2
	str	w2, [x19,4]
	.loc 1 459 0
	cmp	w3, w2
	beq	.L83
.L88:
	smaddl	x1, w2, w21, x19
	.loc 1 461 0
	ldr	w0, [x1,8]
	cbz	w0, .L81
	.loc 1 465 0
	sxtw	x2, w2
	.loc 1 463 0
	add	x4, x20, :lo12:.LANCHOR0
	.loc 1 465 0
	lsl	x3, x2, 4
	.loc 1 463 0
	ldr	w0, [x1,12]
	.loc 1 465 0
	add	x3, x3, x2, lsl 2
	.loc 1 463 0
	ldr	w1, [x1,16]
	.loc 1 465 0
	sub	x2, x3, x2
	.loc 1 463 0
	ldr	x4, [x4,888]
	mov	w3, 64
	.loc 1 465 0
	add	x2, x19, x2, lsl 2
	.loc 1 463 0
	add	x2, x2, 20
	blr	x4
.LVL80:
	ldr	w2, [x19,4]
	ldr	w3, [x19]
	b	.L81
.L83:
	.loc 1 471 0
	mov	w0, 0
.L80:
	.loc 1 472 0
	ldp	x19, x20, [sp,16]
	.cfi_remember_state
	.cfi_restore 20
	.cfi_restore 19
.LVL81:
	ldr	x21, [sp,32]
	.cfi_restore 21
	ldp	x29, x30, [sp], 48
	.cfi_restore 30
	.cfi_restore 29
	.cfi_def_cfa 31, 0
	ret
.LVL82:
.L78:
	.cfi_restore_state
	.loc 1 455 0 discriminator 1
	adrp	x2, .LANCHOR1
	adrp	x1, .LC9
	add	x2, x2, :lo12:.LANCHOR1
	mov	w0, 32
	add	x1, x1, :lo12:.LC9
	add	x2, x2, 96
	mov	x3, x19
	bl	dprint_linux_kernel
.LVL83:
	.loc 1 456 0
	mov	w0, -1
	b	.L80
	.cfi_endproc
.LFE2652:
	.size	TVP_VDEC_ReportEvent, .-TVP_VDEC_ReportEvent
	.align	2
	.global	TVP_VDEC_MiddleWare
	.type	TVP_VDEC_MiddleWare, %function
TVP_VDEC_MiddleWare:
.LFB2653:
	.loc 1 479 0
	.cfi_startproc
.LVL84:
	stp	x29, x30, [sp, -208]!
	.cfi_def_cfa_offset 208
	.cfi_offset 29, -208
	.cfi_offset 30, -200
	add	x29, sp, 0
	.cfi_def_cfa_register 29
	stp	x19, x20, [sp,16]
	stp	x21, x22, [sp,32]
	.cfi_offset 19, -192
	.cfi_offset 20, -184
	.cfi_offset 21, -176
	.cfi_offset 22, -168
	adrp	x20, .LANCHOR0
	adrp	x21, __stack_chk_guard
	.loc 1 487 0
	add	x19, x20, :lo12:.LANCHOR0
	.loc 1 479 0
	str	x25, [sp,64]
	stp	x23, x24, [sp,48]
	.cfi_offset 25, -144
	.cfi_offset 23, -160
	.cfi_offset 24, -152
	.loc 1 479 0
	ldr	x0, [x21,#:lo12:__stack_chk_guard]
.LVL85:
	.loc 1 511 0
	mov	w24, 4099
	.loc 1 479 0
	str	x0, [x29,200]
	.loc 1 512 0
	mov	w23, 1
	.loc 1 487 0
	ldr	w0, [x19,72]
	.loc 1 517 0
	add	x22, x19, 296
	.loc 1 483 0
	str	xzr, [x29,192]
	stp	xzr, xzr, [x29,80]
	stp	xzr, xzr, [x29,96]
	stp	xzr, xzr, [x29,112]
	stp	xzr, xzr, [x29,128]
	stp	xzr, xzr, [x29,144]
	stp	xzr, xzr, [x29,160]
	stp	xzr, xzr, [x29,176]
	.loc 1 487 0
	cmp	w0, 1
	beq	.L94
	cmp	w0, 3
	beq	.L95
.LVL86:
.L115:
	.loc 1 503 0
	bl	TVP_VDEC_ReadStream
.LVL87:
	.loc 1 504 0
	cbnz	w0, .L111
	.loc 1 515 0
	mov	w2, 26140
	mov	w1, 26124
	movk	w2, 0x6728, lsl 16
	movk	w1, 0x5b9c, lsl 16
	.loc 1 517 0
	mov	x0, x22
	.loc 1 515 0
	str	w2, [x29,160]
	str	w1, [x29,164]
	.loc 1 511 0
	str	w24, [x29,84]
	.loc 1 512 0
	str	w23, [x29,80]
	.loc 1 513 0
	str	wzr, [x29,88]
	.loc 1 514 0
	str	wzr, [x29,92]
	.loc 1 517 0
	bl	OSAL_DOWN_INTERRUPTIBLE
.LVL88:
	.loc 1 518 0
	mov	x0, x19
	mov	w1, 6
	add	x2, x29, 80
	mov	x3, 0
	bl	TEEK_InvokeCommand
.LVL89:
	mov	w25, w0
	.loc 1 519 0
	mov	x0, x22
	bl	OSAL_UP
.LVL90:
	.loc 1 521 0
	cbnz	w25, .L112
	.loc 1 528 0
	bl	TVP_VDEC_ReportEvent
.LVL91:
	.loc 1 529 0
	cbnz	w0, .L113
	.loc 1 536 0
	bl	TVP_VDEC_ReleaseStream
.LVL92:
	.loc 1 537 0
	cbnz	w0, .L114
.L94:
	.loc 1 544 0
	mov	w0, 10
	bl	msleep
.LVL93:
	.loc 1 487 0
	ldr	w0, [x19,72]
	cmp	w0, 1
	beq	.L94
	cmp	w0, 3
	bne	.L115
.L95:
	.loc 1 548 0
	add	x20, x20, :lo12:.LANCHOR0
	.loc 1 550 0
	ldr	x2, [x29,200]
	ldr	x1, [x21,#:lo12:__stack_chk_guard]
	mov	w0, 0
	.loc 1 548 0
	str	wzr, [x20,72]
	.loc 1 550 0
	cmp	x2, x1
	bne	.L116
	ldp	x19, x20, [sp,16]
	.cfi_remember_state
	.cfi_restore 20
	.cfi_restore 19
	ldp	x21, x22, [sp,32]
	.cfi_restore 22
	.cfi_restore 21
	ldp	x23, x24, [sp,48]
	.cfi_restore 24
	.cfi_restore 23
	ldr	x25, [sp,64]
	.cfi_restore 25
.LVL94:
	ldp	x29, x30, [sp], 208
	.cfi_restore 30
	.cfi_restore 29
	.cfi_def_cfa 31, 0
	ret
.LVL95:
.L111:
	.cfi_restore_state
	.loc 1 506 0 discriminator 1
	adrp	x1, .LC10
	add	x1, x1, :lo12:.LC10
.L110:
	.loc 1 539 0 discriminator 1
	adrp	x2, .LANCHOR1
	mov	w0, 32
	add	x2, x2, :lo12:.LANCHOR1
	add	x2, x2, 120
	bl	dprint_linux_kernel
.LVL96:
	b	.L95
.L113:
	.loc 1 531 0 discriminator 1
	adrp	x1, .LC12
	add	x1, x1, :lo12:.LC12
	b	.L110
.L112:
	.loc 1 523 0 discriminator 1
	adrp	x1, .LC11
	mov	w0, 32
	add	x1, x1, :lo12:.LC11
	bl	dprint_linux_kernel
.LVL97:
	b	.L95
.L114:
	.loc 1 539 0 discriminator 1
	adrp	x1, .LC13
	add	x1, x1, :lo12:.LC13
	b	.L110
.L116:
	.loc 1 550 0
	bl	__stack_chk_fail
.LVL98:
	.cfi_endproc
.LFE2653:
	.size	TVP_VDEC_MiddleWare, .-TVP_VDEC_MiddleWare
	.align	2
	.global	TVP_VDEC_FindExtBuffer
	.type	TVP_VDEC_FindExtBuffer, %function
TVP_VDEC_FindExtBuffer:
.LFB2656:
	.loc 1 603 0
	.cfi_startproc
.LVL99:
	stp	x29, x30, [sp, -16]!
	.cfi_def_cfa_offset 16
	.cfi_offset 29, -16
	.cfi_offset 30, -8
	add	x29, sp, 0
	.cfi_def_cfa_register 29
	.loc 1 607 0
	cbz	x0, .L123
	add	x2, x0, 132
	mov	w0, 0
.LVL100:
	b	.L121
.L125:
	.loc 1 613 0 discriminator 2
	add	w0, w0, 1
	.loc 1 613 0 is_stmt 0 discriminator 1
	cmp	w0, 32
	beq	.L124
.L121:
	.loc 1 615 0 is_stmt 1
	ldr	w3, [x2]
	add	x2, x2, 4
	cmp	w3, w1
	bne	.L125
.L119:
.LVL101:
	.loc 1 623 0
	ldp	x29, x30, [sp], 16
	.cfi_remember_state
	.cfi_restore 30
	.cfi_restore 29
	.cfi_def_cfa 31, 0
	ret
.LVL102:
.L124:
	.cfi_restore_state
	.loc 1 605 0
	mov	w0, -1
.LVL103:
	.loc 1 623 0
	ldp	x29, x30, [sp], 16
	.cfi_remember_state
	.cfi_restore 29
	.cfi_restore 30
	.cfi_def_cfa 31, 0
	ret
.LVL104:
.L123:
	.cfi_restore_state
.LBB14:
.LBB15:
	.loc 1 609 0 discriminator 1
	adrp	x2, .LANCHOR1
	adrp	x1, .LC14
.LVL105:
	add	x2, x2, :lo12:.LANCHOR1
	mov	w0, 32
.LVL106:
	add	x1, x1, :lo12:.LC14
	add	x2, x2, 144
	mov	x3, 0
	bl	dprint_linux_kernel
.LVL107:
	mov	w0, -1
	b	.L119
.LBE15:
.LBE14:
	.cfi_endproc
.LFE2656:
	.size	TVP_VDEC_FindExtBuffer, .-TVP_VDEC_FindExtBuffer
	.align	2
	.global	TVP_VDEC_SyncExtBuffer
	.type	TVP_VDEC_SyncExtBuffer, %function
TVP_VDEC_SyncExtBuffer:
.LFB2657:
	.loc 1 627 0
	.cfi_startproc
.LVL108:
	stp	x29, x30, [sp, -64]!
	.cfi_def_cfa_offset 64
	.cfi_offset 29, -64
	.cfi_offset 30, -56
	add	x29, sp, 0
	.cfi_def_cfa_register 29
	stp	x19, x20, [sp,16]
	.cfi_offset 19, -48
	.cfi_offset 20, -40
	mov	w20, w0
	.loc 1 630 0
	adrp	x0, .LANCHOR0+208
.LVL109:
	.loc 1 627 0
	str	x21, [sp,32]
	.cfi_offset 21, -32
	.loc 1 627 0
	mov	x19, x1
	.loc 1 630 0
	ldr	x7, [x0,#:lo12:.LANCHOR0+208]
	.loc 1 632 0
	cbz	x1, .L140
	cbz	x7, .L140
	.loc 1 638 0
	cmp	w20, 1
	bhi	.L146
	.loc 1 647 0
	ldr	w5, [x1]
	.loc 1 644 0
	sxtw	x0, w20
.LVL110:
	lsl	x6, x0, 8
	.loc 1 647 0
	cmp	w5, 1
	.loc 1 644 0
	add	x6, x6, x0, lsl 2
	add	x1, x7, x6
	.loc 1 647 0
	beq	.L139
	.loc 1 647 0 is_stmt 0 discriminator 1
	ldr	w4, [x19,4]
.LVL111:
.L131:
.LBB20:
.LBB21:
	.loc 1 607 0 is_stmt 1
	cbz	x1, .L147
	add	x2, x1, 132
	mov	w0, 0
.LVL112:
	b	.L137
.L134:
	.loc 1 613 0 discriminator 2
	add	w0, w0, 1
	.loc 1 613 0 is_stmt 0 discriminator 1
	cmp	w0, 32
	beq	.L148
.L137:
	.loc 1 615 0 is_stmt 1
	ldr	w3, [x2]
	add	x2, x2, 4
	cmp	w4, w3
	bne	.L134
.LBE21:
.LBE20:
	.loc 1 657 0
	cmp	w5, 1
	beq	.L149
	sxtw	x0, w0
.LVL113:
	.loc 1 662 0
	cbz	w5, .L150
.L138:
	.loc 1 667 0
	add	x1, x1, x0, lsl 2
	.loc 1 673 0
	mov	w0, 0
.LVL114:
	.loc 1 667 0
	str	w5, [x1,4]
.LVL115:
.L143:
	.loc 1 674 0
	ldp	x19, x20, [sp,16]
	.cfi_remember_state
	.cfi_restore 20
	.cfi_restore 19
.LVL116:
	ldr	x21, [sp,32]
	.cfi_restore 21
	ldp	x29, x30, [sp], 64
	.cfi_restore 30
	.cfi_restore 29
	.cfi_def_cfa 31, 0
	ret
.LVL117:
.L150:
	.cfi_restore_state
	.loc 1 664 0
	add	x2, x1, x0, lsl 2
	str	wzr, [x2,132]
	.loc 1 665 0
	ldr	w2, [x7,x6]
	sub	w2, w2, #1
	str	w2, [x7,x6]
	ldr	w5, [x19]
	b	.L138
.LVL118:
.L148:
	adrp	x21, .LANCHOR1
.L133:
	.loc 1 653 0
	add	x2, x21, :lo12:.LANCHOR1
	adrp	x1, .LC17
.LVL119:
	mov	w3, w20
	add	x1, x1, :lo12:.LC17
	add	x2, x2, 168
	mov	w0, 1
.LVL120:
	bl	dprint_linux_kernel
.LVL121:
	.loc 1 674 0
	ldr	x21, [sp,32]
	.cfi_remember_state
	.cfi_restore 21
	ldp	x19, x20, [sp,16]
	.cfi_restore 19
	.cfi_restore 20
.LVL122:
	.loc 1 654 0
	mov	w0, -1
	.loc 1 674 0
	ldp	x29, x30, [sp], 64
	.cfi_restore 29
	.cfi_restore 30
	.cfi_def_cfa 31, 0
	ret
.LVL123:
.L140:
	.cfi_restore_state
	.loc 1 634 0 discriminator 1
	adrp	x2, .LANCHOR1
	adrp	x1, .LC15
.LVL124:
	add	x2, x2, :lo12:.LANCHOR1
	mov	x3, x19
	add	x1, x1, :lo12:.LC15
	add	x2, x2, 168
	mov	x4, x7
	mov	w0, 32
	bl	dprint_linux_kernel
.LVL125:
	.loc 1 674 0
	ldr	x21, [sp,32]
	.cfi_remember_state
	.cfi_restore 21
	ldp	x19, x20, [sp,16]
	.cfi_restore 19
	.cfi_restore 20
.LVL126:
	.loc 1 635 0
	mov	w0, -1
	.loc 1 674 0
	ldp	x29, x30, [sp], 64
	.cfi_restore 29
	.cfi_restore 30
	.cfi_def_cfa 31, 0
	ret
.LVL127:
.L139:
	.cfi_restore_state
	.loc 1 647 0 discriminator 2
	mov	w4, 0
.LVL128:
	b	.L131
.LVL129:
.L149:
	.loc 1 659 0
	sxtw	x0, w0
.LVL130:
	ldr	w3, [x19,4]
	add	x2, x1, x0, lsl 2
	str	w3, [x2,132]
	.loc 1 660 0
	ldr	w2, [x7,x6]
	add	w2, w2, 1
	str	w2, [x7,x6]
	ldr	w5, [x19]
	b	.L138
.LVL131:
.L146:
	.loc 1 640 0
	adrp	x2, .LANCHOR1
	adrp	x1, .LC16
.LVL132:
	add	x2, x2, :lo12:.LANCHOR1
	mov	w0, 1
	add	x1, x1, :lo12:.LC16
	add	x2, x2, 168
	mov	w3, w20
	bl	dprint_linux_kernel
.LVL133:
	.loc 1 641 0
	mov	w0, -1
	b	.L143
.LVL134:
.L147:
.LBB25:
.LBB24:
.LBB22:
.LBB23:
	.loc 1 609 0 discriminator 1
	adrp	x21, .LANCHOR1
	adrp	x1, .LC14
	add	x2, x21, :lo12:.LANCHOR1
	mov	w0, 32
.LVL135:
	add	x1, x1, :lo12:.LC14
	add	x2, x2, 144
	mov	x3, 0
	str	x4, [x29,56]
	bl	dprint_linux_kernel
.LVL136:
	ldr	w5, [x19]
	ldr	x4, [x29,56]
.LVL137:
	b	.L133
.LBE23:
.LBE22:
.LBE24:
.LBE25:
	.cfi_endproc
.LFE2657:
	.size	TVP_VDEC_SyncExtBuffer, .-TVP_VDEC_SyncExtBuffer
	.align	2
	.global	TVP_VDEC_ClearExtBuffer
	.type	TVP_VDEC_ClearExtBuffer, %function
TVP_VDEC_ClearExtBuffer:
.LFB2658:
	.loc 1 678 0
	.cfi_startproc
.LVL138:
	sxtw	x3, w0
	.loc 1 679 0
	adrp	x0, .LANCHOR0+208
.LVL139:
	.loc 1 678 0
	stp	x29, x30, [sp, -16]!
	.cfi_def_cfa_offset 16
	.cfi_offset 29, -16
	.cfi_offset 30, -8
	add	x29, sp, 0
	.cfi_def_cfa_register 29
	.loc 1 679 0
	ldr	x0, [x0,#:lo12:.LANCHOR0+208]
	.loc 1 681 0
	cbz	x0, .L155
.LVL140:
	.loc 1 687 0
	cmp	w3, 1
	bhi	.L156
	.loc 1 693 0
	lsl	x4, x3, 8
	.loc 1 695 0
	mov	w1, 0
	.loc 1 693 0
	add	x3, x4, x3, lsl 2
.LVL141:
	.loc 1 695 0
	mov	x2, 260
	add	x0, x0, x3
	bl	memset
.LVL142:
	.loc 1 697 0
	mov	w0, 0
.L153:
	.loc 1 698 0
	ldp	x29, x30, [sp], 16
	.cfi_remember_state
	.cfi_restore 30
	.cfi_restore 29
	.cfi_def_cfa 31, 0
	ret
.LVL143:
.L156:
	.cfi_restore_state
	.loc 1 689 0
	adrp	x2, .LANCHOR1
	adrp	x1, .LC16
	add	x2, x2, :lo12:.LANCHOR1
	mov	w0, 1
	add	x1, x1, :lo12:.LC16
	add	x2, x2, 192
	bl	dprint_linux_kernel
.LVL144:
	.loc 1 690 0
	mov	w0, -1
	b	.L153
.L155:
.LBB28:
.LBB29:
	.loc 1 683 0 discriminator 1
	adrp	x2, .LANCHOR1
	adrp	x1, .LC18
	add	x2, x2, :lo12:.LANCHOR1
	mov	w0, 32
	add	x1, x1, :lo12:.LC18
	add	x2, x2, 192
	bl	dprint_linux_kernel
.LVL145:
	mov	w0, -1
	b	.L153
.LBE29:
.LBE28:
	.cfi_endproc
.LFE2658:
	.size	TVP_VDEC_ClearExtBuffer, .-TVP_VDEC_ClearExtBuffer
	.align	2
	.global	TVP_VDEC_Thread_Init
	.type	TVP_VDEC_Thread_Init, %function
TVP_VDEC_Thread_Init:
.LFB2659:
	.loc 1 702 0
	.cfi_startproc
	stp	x29, x30, [sp, -48]!
	.cfi_def_cfa_offset 48
	.cfi_offset 29, -48
	.cfi_offset 30, -40
	.loc 1 705 0
	adrp	x1, .LC19
	adrp	x2, TVP_VDEC_MiddleWare
	.loc 1 702 0
	add	x29, sp, 0
	.cfi_def_cfa_register 29
	str	x19, [sp,16]
	.cfi_offset 19, -32
	.loc 1 702 0
	adrp	x19, __stack_chk_guard
	.loc 1 703 0
	add	x0, x29, 48
	.loc 1 705 0
	add	x1, x1, :lo12:.LC19
	add	x2, x2, :lo12:TVP_VDEC_MiddleWare
	.loc 1 702 0
	ldr	x3, [x19,#:lo12:__stack_chk_guard]
	.loc 1 703 0
	str	xzr, [x0,-16]!
.LVL146:
	.loc 1 702 0
	str	x3, [x29,40]
	.loc 1 705 0
	bl	OSAL_CreateTask
.LVL147:
	.loc 1 707 0
	ldr	x0, [x29,32]
	cbz	x0, .L161
	.loc 1 713 0
	adrp	x1, .LANCHOR0+72
	mov	w2, 1
	.loc 1 715 0
	mov	w0, 0
	.loc 1 713 0
	str	w2, [x1,#:lo12:.LANCHOR0+72]
.L159:
	.loc 1 716 0
	ldr	x2, [x29,40]
	ldr	x1, [x19,#:lo12:__stack_chk_guard]
	cmp	x2, x1
	bne	.L162
	ldr	x19, [sp,16]
	.cfi_remember_state
	.cfi_restore 19
	ldp	x29, x30, [sp], 48
	.cfi_restore 30
	.cfi_restore 29
	.cfi_def_cfa 31, 0
	ret
.LVL148:
.L161:
	.cfi_restore_state
.LBB32:
.LBB33:
	.loc 1 709 0 discriminator 1
	adrp	x1, .LC20
	mov	w0, 32
.LVL149:
	add	x1, x1, :lo12:.LC20
	bl	dprint_linux_kernel
.LVL150:
	mov	w0, -1
	b	.L159
.L162:
.LBE33:
.LBE32:
	.loc 1 716 0
	bl	__stack_chk_fail
.LVL151:
	.cfi_endproc
.LFE2659:
	.size	TVP_VDEC_Thread_Init, .-TVP_VDEC_Thread_Init
	.align	2
	.global	TVP_VDEC_ClearStream
	.type	TVP_VDEC_ClearStream, %function
TVP_VDEC_ClearStream:
.LFB2660:
	.loc 1 720 0
	.cfi_startproc
.LVL152:
	stp	x29, x30, [sp, -48]!
	.cfi_def_cfa_offset 48
	.cfi_offset 29, -48
	.cfi_offset 30, -40
	.loc 1 725 0
	adrp	x1, .LANCHOR0
	.loc 1 720 0
	add	x29, sp, 0
	.cfi_def_cfa_register 29
	stp	x19, x20, [sp,16]
	.cfi_offset 19, -32
	.cfi_offset 20, -24
	sxtw	x19, w0
	.loc 1 725 0
	add	x1, x1, :lo12:.LANCHOR0
	.loc 1 727 0
	lsl	x0, x19, 6
.LVL153:
	.loc 1 720 0
	str	x21, [sp,32]
	.cfi_offset 21, -16
	.loc 1 727 0
	add	x0, x0, x19, lsl 4
	add	x21, x1, 728
	add	x21, x21, x0
	.loc 1 720 0
	mov	x3, x19
.LVL154:
	.loc 1 725 0
	ldr	x4, [x1,192]
.LVL155:
	.loc 1 727 0
	ldr	x19, [x21,72]
.LVL156:
	.loc 1 728 0
	cbz	x19, .L170
	cbz	x4, .L170
	.loc 1 738 0
	mov	w0, 32784
	.loc 1 735 0
	ldr	w20, [x21,56]
	.loc 1 738 0
	movk	w0, 0x1, lsl 16
.LVL157:
	smull	x3, w3, w0
.LVL158:
	add	x21, x4, x3
	ldr	w0, [x4,x3]
	ldr	w1, [x21,12]
	cmp	w1, w0
	bne	.L171
.LVL159:
.L168:
	.loc 1 757 0
	mov	x2, 32784
	mov	x0, x21
	movk	x2, 0x1, lsl 16
	mov	w1, 0
	bl	memset
.LVL160:
	.loc 1 760 0
	ldr	x21, [sp,32]
	.cfi_remember_state
	.cfi_restore 21
	.loc 1 759 0
	mov	w0, 0
	.loc 1 760 0
	ldp	x19, x20, [sp,16]
	.cfi_restore 20
	.cfi_restore 19
.LVL161:
	ldp	x29, x30, [sp], 48
	.cfi_restore 30
	.cfi_restore 29
	.cfi_def_cfa 31, 0
	ret
.LVL162:
.L173:
	.cfi_restore_state
	.loc 1 745 0
	ldr	w0, [x21,12]
	.loc 1 738 0
	ldr	w2, [x21]
	.loc 1 745 0
	add	w0, w0, 1
	asr	w1, w0, 31
	lsr	w1, w1, 22
	add	w0, w0, w1
	and	w0, w0, 1023
	sub	w1, w0, w1
	str	w1, [x21,12]
	.loc 1 738 0
	cmp	w2, w1
	beq	.L168
.LVL163:
.L171:
	.loc 1 740 0
	sxtw	x1, w1
	.loc 1 742 0
	mov	w0, w20
	.loc 1 740 0
	lsl	x2, x1, 7
	sub	x1, x2, x1, lsl 5
	add	x1, x1, 16
	.loc 1 742 0
	add	x1, x21, x1
	blr	x19
.LVL164:
	.loc 1 743 0
	cbz	w0, .L173
	b	.L168
.LVL165:
.L170:
	.loc 1 730 0 discriminator 1
	adrp	x2, .LANCHOR1
	adrp	x1, .LC21
	add	x2, x2, :lo12:.LANCHOR1
	mov	x5, x19
	add	x1, x1, :lo12:.LC21
	add	x2, x2, 216
	mov	w0, 32
	bl	dprint_linux_kernel
.LVL166:
	.loc 1 760 0
	ldr	x21, [sp,32]
	.cfi_restore 21
	.loc 1 731 0
	mov	w0, -1
	.loc 1 760 0
	ldp	x19, x20, [sp,16]
	.cfi_restore 19
	.cfi_restore 20
.LVL167:
	ldp	x29, x30, [sp], 48
	.cfi_restore 29
	.cfi_restore 30
	.cfi_def_cfa 31, 0
	ret
	.cfi_endproc
.LFE2660:
	.size	TVP_VDEC_ClearStream, .-TVP_VDEC_ClearStream
	.align	2
	.global	TVP_VDEC_ClearEvent
	.type	TVP_VDEC_ClearEvent, %function
TVP_VDEC_ClearEvent:
.LFB2661:
	.loc 1 764 0
	.cfi_startproc
.LVL168:
	.loc 1 766 0
	adrp	x1, .LANCHOR0+160
	.loc 1 764 0
	stp	x29, x30, [sp, -16]!
	.cfi_def_cfa_offset 16
	.cfi_offset 29, -16
	.cfi_offset 30, -8
	add	x29, sp, 0
	.cfi_def_cfa_register 29
	.loc 1 766 0
	ldr	x6, [x1,#:lo12:.LANCHOR0+160]
.LVL169:
	.loc 1 767 0
	cbz	x6, .L185
	.loc 1 773 0
	ldr	w1, [x6,4]
	mov	w3, 76
	.loc 1 777 0
	ldr	w7, [x6]
.LVL170:
.L184:
	cmp	w7, w1
	beq	.L186
.L181:
	smaddl	x4, w1, w3, x6
	.loc 1 784 0
	add	w2, w1, 1
	asr	w1, w2, 31
.LVL171:
	.loc 1 779 0
	ldr	w5, [x4,12]
	.loc 1 784 0
	lsr	w1, w1, 23
	add	w2, w2, w1
	.loc 1 779 0
	cmp	w5, w0
	.loc 1 784 0
	and	w2, w2, 511
	sub	w1, w2, w1
.LVL172:
	.loc 1 779 0
	bne	.L184
	.loc 1 781 0
	str	wzr, [x4,8]
	.loc 1 777 0
	cmp	w7, w1
	bne	.L181
.L186:
	.loc 1 792 0
	mov	w0, 0
.LVL173:
.L176:
	.loc 1 793 0
	ldp	x29, x30, [sp], 16
	.cfi_remember_state
	.cfi_restore 30
	.cfi_restore 29
	.cfi_def_cfa 31, 0
	ret
.LVL174:
.L185:
	.cfi_restore_state
.LBB36:
.LBB37:
	.loc 1 769 0 discriminator 1
	adrp	x2, .LANCHOR1
	adrp	x1, .LC22
	add	x2, x2, :lo12:.LANCHOR1
	mov	w3, w0
	add	x1, x1, :lo12:.LC22
	mov	w0, 32
.LVL175:
	add	x2, x2, 240
	bl	dprint_linux_kernel
.LVL176:
	mov	w0, -1
	b	.L176
.LBE37:
.LBE36:
	.cfi_endproc
.LFE2661:
	.size	TVP_VDEC_ClearEvent, .-TVP_VDEC_ClearEvent
	.align	2
	.global	TVP_VDEC_Suspend
	.type	TVP_VDEC_Suspend, %function
TVP_VDEC_Suspend:
.LFB2662:
	.loc 1 796 0
	.cfi_startproc
.LVL177:
	stp	x29, x30, [sp, -192]!
	.cfi_def_cfa_offset 192
	.cfi_offset 29, -192
	.cfi_offset 30, -184
	uxtb	w0, w0
	add	x29, sp, 0
	.cfi_def_cfa_register 29
	stp	x19, x20, [sp,16]
	.cfi_offset 19, -176
	.cfi_offset 20, -168
	adrp	x19, __stack_chk_guard
	str	x23, [sp,48]
	stp	x21, x22, [sp,32]
	.cfi_offset 23, -144
	.cfi_offset 21, -160
	.cfi_offset 22, -152
	.loc 1 800 0
	stp	xzr, xzr, [x29,64]
	.loc 1 796 0
	ldr	x1, [x19,#:lo12:__stack_chk_guard]
	.loc 1 800 0
	stp	xzr, xzr, [x29,80]
	.loc 1 796 0
	str	x1, [x29,184]
	.loc 1 800 0
	stp	xzr, xzr, [x29,96]
	stp	xzr, xzr, [x29,112]
	stp	xzr, xzr, [x29,128]
	stp	xzr, xzr, [x29,144]
	stp	xzr, xzr, [x29,160]
	str	xzr, [x29,176]
	.loc 1 802 0
	cbnz	w0, .L188
	.loc 1 804 0
	bl	VDEC_Suspend
.LVL178:
	mov	w20, w0
.LVL179:
	.loc 1 805 0
	cbz	w0, .L189
	.loc 1 807 0 discriminator 1
	adrp	x2, .LANCHOR1
	adrp	x1, .LC23
	add	x2, x2, :lo12:.LANCHOR1
	add	x1, x1, :lo12:.LC23
	add	x2, x2, 264
	mov	w0, 32
	bl	dprint_linux_kernel
.LVL180:
.L189:
	.loc 1 839 0
	ldr	x2, [x29,184]
	mov	w0, w20
	ldr	x1, [x19,#:lo12:__stack_chk_guard]
	cmp	x2, x1
	bne	.L197
	ldp	x19, x20, [sp,16]
	.cfi_remember_state
	.cfi_restore 20
	.cfi_restore 19
.LVL181:
	ldp	x21, x22, [sp,32]
	.cfi_restore 22
	.cfi_restore 21
	ldr	x23, [sp,48]
	.cfi_restore 23
	ldp	x29, x30, [sp], 192
	.cfi_restore 30
	.cfi_restore 29
	.cfi_def_cfa 31, 0
	ret
.LVL182:
.L188:
	.cfi_restore_state
	.loc 1 812 0
	adrp	x21, .LANCHOR0
	.loc 1 797 0
	mov	w20, 0
.LVL183:
	.loc 1 812 0
	add	x22, x21, :lo12:.LANCHOR0
	add	x0, x22, 240
.LVL184:
	bl	OSAL_DOWN_INTERRUPTIBLE
.LVL185:
	.loc 1 814 0
	ldrb	w23, [x22,232]
	cmp	w23, 1
	beq	.L198
.L190:
	.loc 1 835 0
	add	x0, x21, :lo12:.LANCHOR0
	add	x0, x0, 240
	bl	OSAL_UP
.LVL186:
	b	.L189
.L198:
	.loc 1 820 0
	mov	w5, 26140
	mov	w4, 26124
	movk	w5, 0x6728, lsl 16
	movk	w4, 0x5b9c, lsl 16
	.loc 1 816 0
	mov	w6, 4098
	.loc 1 822 0
	mov	x0, x22
	mov	w1, 3
	add	x2, x29, 64
	mov	x3, 0
	.loc 1 819 0
	mov	w20, -1
.LVL187:
	.loc 1 816 0
	str	w6, [x29,68]
	.loc 1 817 0
	str	w23, [x29,64]
	.loc 1 818 0
	str	wzr, [x29,72]
	.loc 1 819 0
	str	w20, [x29,76]
	.loc 1 820 0
	str	w5, [x29,144]
	str	w4, [x29,148]
	.loc 1 822 0
	bl	TEEK_InvokeCommand
.LVL188:
	.loc 1 823 0
	cbz	w0, .L191
	.loc 1 825 0 discriminator 1
	adrp	x1, .LC24
	mov	w0, 32
	add	x1, x1, :lo12:.LC24
	bl	dprint_linux_kernel
.LVL189:
	b	.L190
.L191:
	.loc 1 831 0
	ldr	w20, [x29,72]
	.loc 1 830 0
	str	w23, [x22,72]
	b	.L190
.LVL190:
.L197:
	.loc 1 839 0
	bl	__stack_chk_fail
.LVL191:
	.cfi_endproc
.LFE2662:
	.size	TVP_VDEC_Suspend, .-TVP_VDEC_Suspend
	.align	2
	.global	TVP_VDEC_Resume
	.type	TVP_VDEC_Resume, %function
TVP_VDEC_Resume:
.LFB2663:
	.loc 1 842 0
	.cfi_startproc
.LVL192:
	stp	x29, x30, [sp, -176]!
	.cfi_def_cfa_offset 176
	.cfi_offset 29, -176
	.cfi_offset 30, -168
	uxtb	w0, w0
	add	x29, sp, 0
	.cfi_def_cfa_register 29
	stp	x19, x20, [sp,16]
	.cfi_offset 19, -160
	.cfi_offset 20, -152
	adrp	x19, __stack_chk_guard
	stp	x21, x22, [sp,32]
	.cfi_offset 21, -144
	.cfi_offset 22, -136
	.loc 1 846 0
	stp	xzr, xzr, [x29,48]
	.loc 1 842 0
	ldr	x1, [x19,#:lo12:__stack_chk_guard]
	.loc 1 846 0
	stp	xzr, xzr, [x29,64]
	.loc 1 842 0
	str	x1, [x29,168]
	.loc 1 846 0
	stp	xzr, xzr, [x29,80]
	stp	xzr, xzr, [x29,96]
	stp	xzr, xzr, [x29,112]
	stp	xzr, xzr, [x29,128]
	stp	xzr, xzr, [x29,144]
	str	xzr, [x29,160]
	.loc 1 847 0
	cbnz	w0, .L200
	.loc 1 849 0
	bl	VDEC_Resume
.LVL193:
	mov	w20, w0
.LVL194:
	.loc 1 850 0
	cbz	w0, .L201
	.loc 1 852 0 discriminator 1
	adrp	x2, .LANCHOR1
	adrp	x1, .LC25
	add	x2, x2, :lo12:.LANCHOR1
	add	x1, x1, :lo12:.LC25
	add	x2, x2, 288
	mov	w0, 32
	bl	dprint_linux_kernel
.LVL195:
.L201:
	.loc 1 884 0
	ldr	x2, [x29,168]
	mov	w0, w20
	ldr	x1, [x19,#:lo12:__stack_chk_guard]
	cmp	x2, x1
	bne	.L209
	ldp	x19, x20, [sp,16]
	.cfi_remember_state
	.cfi_restore 20
	.cfi_restore 19
.LVL196:
	ldp	x21, x22, [sp,32]
	.cfi_restore 22
	.cfi_restore 21
	ldp	x29, x30, [sp], 176
	.cfi_restore 30
	.cfi_restore 29
	.cfi_def_cfa 31, 0
	ret
.LVL197:
.L200:
	.cfi_restore_state
	.loc 1 857 0
	adrp	x21, .LANCHOR0
	.loc 1 843 0
	mov	w20, 0
.LVL198:
	.loc 1 857 0
	add	x22, x21, :lo12:.LANCHOR0
	add	x0, x22, 240
.LVL199:
	bl	OSAL_DOWN_INTERRUPTIBLE
.LVL200:
	.loc 1 859 0
	ldrb	w4, [x22,232]
	cmp	w4, 1
	beq	.L210
.L202:
	.loc 1 880 0
	add	x0, x21, :lo12:.LANCHOR0
	add	x0, x0, 240
	bl	OSAL_UP
.LVL201:
	b	.L201
.L210:
	.loc 1 865 0
	mov	w6, 26140
	mov	w5, 26124
	movk	w6, 0x6728, lsl 16
	movk	w5, 0x5b9c, lsl 16
	.loc 1 861 0
	mov	w7, 4098
	.loc 1 867 0
	mov	x0, x22
	mov	w1, 4
	add	x2, x29, 48
	mov	x3, 0
	.loc 1 864 0
	mov	w20, -1
.LVL202:
	.loc 1 861 0
	str	w7, [x29,52]
	.loc 1 862 0
	str	w4, [x29,48]
	.loc 1 863 0
	str	wzr, [x29,56]
	.loc 1 864 0
	str	w20, [x29,60]
	.loc 1 865 0
	str	w6, [x29,128]
	str	w5, [x29,132]
	.loc 1 867 0
	bl	TEEK_InvokeCommand
.LVL203:
	.loc 1 868 0
	cbz	w0, .L203
	.loc 1 870 0 discriminator 1
	adrp	x1, .LC26
	mov	w0, 32
	add	x1, x1, :lo12:.LC26
	bl	dprint_linux_kernel
.LVL204:
	b	.L202
.L203:
	.loc 1 875 0
	mov	w0, 2
	.loc 1 876 0
	ldr	w20, [x29,56]
	.loc 1 875 0
	str	w0, [x22,72]
	b	.L202
.LVL205:
.L209:
	.loc 1 884 0
	bl	__stack_chk_fail
.LVL206:
	.cfi_endproc
.LFE2663:
	.size	TVP_VDEC_Resume, .-TVP_VDEC_Resume
	.align	2
	.global	TVP_VDEC_NormalControl
	.type	TVP_VDEC_NormalControl, %function
TVP_VDEC_NormalControl:
.LFB2664:
	.loc 1 887 0
	.cfi_startproc
.LVL207:
	stp	x29, x30, [sp, -48]!
	.cfi_def_cfa_offset 48
	.cfi_offset 29, -48
	.cfi_offset 30, -40
	add	x29, sp, 0
	.cfi_def_cfa_register 29
	stp	x19, x20, [sp,16]
	str	x21, [sp,32]
	.cfi_offset 19, -32
	.cfi_offset 20, -24
	.cfi_offset 21, -16
	.loc 1 887 0
	sxtw	x19, w0
	mov	w20, w1
	mov	x21, x2
	.loc 1 892 0
	bl	VDEC_Control
.LVL208:
	.loc 1 894 0
	cbnz	w0, .L212
	.loc 1 896 0
	sub	w20, w20, #4
.LVL209:
	cmp	w20, 8
	bls	.L221
.L220:
	mov	w0, 0
.LVL210:
.L212:
	.loc 1 934 0
	ldp	x19, x20, [sp,16]
	.cfi_remember_state
	.cfi_restore 20
	.cfi_restore 19
.LVL211:
	ldr	x21, [sp,32]
	.cfi_restore 21
.LVL212:
	ldp	x29, x30, [sp], 48
	.cfi_restore 30
	.cfi_restore 29
	.cfi_def_cfa 31, 0
	ret
.LVL213:
.L221:
	.cfi_restore_state
	.loc 1 896 0
	adrp	x0, .L214
	add	x0, x0, :lo12:.L214
	ldrb	w0, [x0,w20,uxtw]
	adr	x1, .Lrtx214
	add	x0, x1, w0, sxtb #2
	br	x0
.Lrtx214:
	.section	.rodata
	.align	0
	.align	2
.L214:
	.byte	(.L213 - .Lrtx214) / 4
	.byte	(.L213 - .Lrtx214) / 4
	.byte	(.L215 - .Lrtx214) / 4
	.byte	(.L215 - .Lrtx214) / 4
	.byte	(.L220 - .Lrtx214) / 4
	.byte	(.L220 - .Lrtx214) / 4
	.byte	(.L220 - .Lrtx214) / 4
	.byte	(.L216 - .Lrtx214) / 4
	.byte	(.L217 - .Lrtx214) / 4
	.text
.L217:
.LVL214:
	.loc 1 920 0
	lsl	x1, x19, 4
	.loc 1 921 0
	mov	w0, 0
	.loc 1 920 0
	sub	x19, x1, x19, lsl 2
.LVL215:
	adrp	x1, .LANCHOR0
	add	x1, x1, :lo12:.LANCHOR0
	add	x19, x1, x19
	mov	w1, 3
	str	w1, [x19,352]
	.loc 1 934 0
	ldp	x19, x20, [sp,16]
	.cfi_remember_state
	.cfi_restore 19
	.cfi_restore 20
	ldr	x21, [sp,32]
	.cfi_restore 21
.LVL216:
	ldp	x29, x30, [sp], 48
	.cfi_restore 29
	.cfi_restore 30
	.cfi_def_cfa 31, 0
	ret
.LVL217:
.L216:
	.cfi_restore_state
	.loc 1 916 0
	lsl	x1, x19, 4
	.loc 1 917 0
	mov	w0, 0
	.loc 1 916 0
	sub	x19, x1, x19, lsl 2
.LVL218:
	adrp	x1, .LANCHOR0
	add	x1, x1, :lo12:.LANCHOR0
	add	x19, x1, x19
	mov	w1, 2
	str	w1, [x19,352]
	.loc 1 934 0
	ldp	x19, x20, [sp,16]
	.cfi_remember_state
	.cfi_restore 19
	.cfi_restore 20
	ldr	x21, [sp,32]
	.cfi_restore 21
.LVL219:
	ldp	x29, x30, [sp], 48
	.cfi_restore 29
	.cfi_restore 30
	.cfi_def_cfa 31, 0
	ret
.LVL220:
.L215:
	.cfi_restore_state
	.loc 1 925 0
	lsl	x1, x19, 4
	.loc 1 926 0
	mov	w0, 0
	.loc 1 925 0
	sub	x19, x1, x19, lsl 2
.LVL221:
	adrp	x1, .LANCHOR0
	add	x1, x1, :lo12:.LANCHOR0
	add	x19, x1, x19
	str	wzr, [x19,352]
	.loc 1 934 0
	ldp	x19, x20, [sp,16]
	.cfi_remember_state
	.cfi_restore 19
	.cfi_restore 20
	ldr	x21, [sp,32]
	.cfi_restore 21
.LVL222:
	ldp	x29, x30, [sp], 48
	.cfi_restore 29
	.cfi_restore 30
	.cfi_def_cfa 31, 0
	ret
.LVL223:
.L213:
	.cfi_restore_state
	.loc 1 901 0
	ldr	x3, [x21]
	.loc 1 903 0
	sub	w0, w3, #2
	cmp	w0, 29
	bls	.L218
	.loc 1 905 0 discriminator 1
	adrp	x2, .LANCHOR1
	adrp	x1, .LC27
	add	x2, x2, :lo12:.LANCHOR1
	mov	w0, 32
	add	x1, x1, :lo12:.LC27
	add	x2, x2, 304
	bl	dprint_linux_kernel
.LVL224:
	.loc 1 906 0
	mov	w0, -1
	b	.L212
.L218:
	.loc 1 909 0
	sxtw	x2, w3
.LVL225:
	adrp	x0, .LANCHOR0
	lsl	x4, x2, 4
	add	x0, x0, :lo12:.LANCHOR0
	add	x1, x0, 344
	sub	x2, x4, x2, lsl 2
.LVL226:
	add	x4, x1, x2
	.loc 1 913 0
	mov	w0, 0
	.loc 1 909 0
	str	xzr, [x1,x2]
	.loc 1 910 0
	str	w3, [x1,x2]
	.loc 1 912 0
	mov	w1, 1
	.loc 1 911 0
	strb	wzr, [x4,4]
	.loc 1 912 0
	str	w1, [x4,8]
	.loc 1 913 0
	b	.L212
	.cfi_endproc
.LFE2664:
	.size	TVP_VDEC_NormalControl, .-TVP_VDEC_NormalControl
	.align	2
	.global	TVP_VDEC_SecureControl
	.type	TVP_VDEC_SecureControl, %function
TVP_VDEC_SecureControl:
.LFB2669:
	.loc 1 1054 0
	.cfi_startproc
.LVL227:
	stp	x29, x30, [sp, -208]!
	.cfi_def_cfa_offset 208
	.cfi_offset 29, -208
	.cfi_offset 30, -200
	add	x29, sp, 0
	.cfi_def_cfa_register 29
	stp	x21, x22, [sp,32]
	.cfi_offset 21, -176
	.cfi_offset 22, -168
	adrp	x22, __stack_chk_guard
	mov	w21, w1
	stp	x19, x20, [sp,16]
	stp	x23, x24, [sp,48]
	ldr	x1, [x22,#:lo12:__stack_chk_guard]
.LVL228:
	.loc 1 1063 0
	cmp	w21, 33
	.loc 1 1054 0
	stp	x25, x26, [sp,64]
	.cfi_offset 19, -192
	.cfi_offset 20, -184
	.cfi_offset 23, -160
	.cfi_offset 24, -152
	.cfi_offset 25, -144
	.cfi_offset 26, -136
	.loc 1 1061 0
	stp	xzr, xzr, [x29,80]
	stp	xzr, xzr, [x29,96]
	.loc 1 1054 0
	str	x1, [x29,200]
	sxtw	x23, w0
	.loc 1 1061 0
	stp	xzr, xzr, [x29,112]
	stp	xzr, xzr, [x29,128]
	stp	xzr, xzr, [x29,144]
	stp	xzr, xzr, [x29,160]
	stp	xzr, xzr, [x29,176]
	str	xzr, [x29,192]
	.loc 1 1054 0
	mov	x20, x2
	uxtw	x25, w3
	.loc 1 1063 0
	beq	.L263
	.loc 1 1068 0
	adrp	x19, .LANCHOR0
	add	x24, x19, :lo12:.LANCHOR0
	add	x26, x24, 240
	mov	x0, x26
.LVL229:
	bl	OSAL_DOWN_INTERRUPTIBLE
.LVL230:
	.loc 1 1070 0
	ldrb	w0, [x24,232]
	cbz	w0, .L264
	.loc 1 1077 0
	sub	w24, w21, #5
	cmp	w24, 14
	bls	.L265
.L226:
	.loc 1 1119 0
	mov	w0, 1
	str	w0, [x29,80]
	.loc 1 1133 0
	mov	w5, 26140
	mov	w4, 26124
	.loc 1 1137 0
	add	x0, x19, :lo12:.LANCHOR0
	mov	w1, 5
	add	x2, x29, 80
	mov	x3, 0
	.loc 1 1133 0
	movk	w5, 0x6728, lsl 16
	movk	w4, 0x5b9c, lsl 16
	.loc 1 1120 0
	cbz	x20, .L234
.LVL231:
	cbz	w25, .L234
	mov	w6, 4211
	.loc 1 1123 0
	str	x20, [x29,112]
	.loc 1 1124 0
	str	x25, [x29,120]
	str	w6, [x29,84]
.LVL232:
	.loc 1 1131 0
	str	w23, [x29,88]
	.loc 1 1132 0
	str	w21, [x29,92]
	.loc 1 1133 0
	str	w5, [x29,160]
	str	w4, [x29,164]
	.loc 1 1137 0
	bl	TEEK_InvokeCommand
.LVL233:
	.loc 1 1138 0
	cbz	w0, .L235
.L248:
	.loc 1 1140 0 discriminator 1
	adrp	x1, .LC31
	mov	w0, 32
	add	x1, x1, :lo12:.LC31
	.loc 1 1058 0
	mov	w21, -1
.LVL234:
	.loc 1 1140 0 discriminator 1
	bl	dprint_linux_kernel
.LVL235:
.L232:
	.loc 1 1152 0
	add	x0, x19, :lo12:.LANCHOR0
	add	x0, x0, 240
	bl	OSAL_UP
.LVL236:
	.loc 1 1156 0
	mov	w0, w21
.LVL237:
.L224:
	.loc 1 1157 0
	ldr	x2, [x29,200]
	ldr	x1, [x22,#:lo12:__stack_chk_guard]
	cmp	x2, x1
	bne	.L266
	ldp	x19, x20, [sp,16]
	.cfi_remember_state
	.cfi_restore 20
	.cfi_restore 19
.LVL238:
	ldp	x21, x22, [sp,32]
	.cfi_restore 22
	.cfi_restore 21
.LVL239:
	ldp	x23, x24, [sp,48]
	.cfi_restore 24
	.cfi_restore 23
.LVL240:
	ldp	x25, x26, [sp,64]
	.cfi_restore 26
	.cfi_restore 25
.LVL241:
	ldp	x29, x30, [sp], 208
	.cfi_restore 30
	.cfi_restore 29
	.cfi_def_cfa 31, 0
	ret
.LVL242:
.L265:
	.cfi_restore_state
	.loc 1 1077 0
	adrp	x0, .L228
	add	x0, x0, :lo12:.L228
	ldrb	w0, [x0,w24,uxtw]
	adr	x1, .Lrtx228
	add	x0, x1, w0, sxtb #2
	br	x0
.Lrtx228:
	.section	.rodata
	.align	0
	.align	2
.L228:
	.byte	(.L227 - .Lrtx228) / 4
	.byte	(.L226 - .Lrtx228) / 4
	.byte	(.L226 - .Lrtx228) / 4
	.byte	(.L226 - .Lrtx228) / 4
	.byte	(.L226 - .Lrtx228) / 4
	.byte	(.L226 - .Lrtx228) / 4
	.byte	(.L226 - .Lrtx228) / 4
	.byte	(.L226 - .Lrtx228) / 4
	.byte	(.L226 - .Lrtx228) / 4
	.byte	(.L229 - .Lrtx228) / 4
	.byte	(.L230 - .Lrtx228) / 4
	.byte	(.L226 - .Lrtx228) / 4
	.byte	(.L226 - .Lrtx228) / 4
	.byte	(.L226 - .Lrtx228) / 4
	.byte	(.L227 - .Lrtx228) / 4
	.text
.LVL243:
.L234:
	mov	w6, 4099
.LVL244:
	.loc 1 1131 0
	str	w23, [x29,88]
	str	w6, [x29,84]
	.loc 1 1132 0
	str	w21, [x29,92]
	.loc 1 1133 0
	str	w5, [x29,160]
	str	w4, [x29,164]
	.loc 1 1137 0
	bl	TEEK_InvokeCommand
.LVL245:
	.loc 1 1138 0
	cbnz	w0, .L248
	.loc 1 1144 0
	ldr	w1, [x29,88]
	b	.L247
.L235:
	ldr	w1, [x29,88]
	.loc 1 1147 0
	ldr	x20, [x29,112]
.L247:
.LBB46:
.LBB47:
	.loc 1 998 0
	cmp	w24, 18
	bls	.L267
.L251:
	.loc 1 1050 0
	mov	w21, 0
.LVL246:
	b	.L232
.LVL247:
.L267:
	.loc 1 998 0
	adrp	x0, .L237
	add	x0, x0, :lo12:.L237
	ldrb	w0, [x0,w24,uxtw]
	adr	x2, .Lrtx237
	add	x0, x2, w0, sxtb #2
	br	x0
.Lrtx237:
	.section	.rodata
	.align	0
	.align	2
.L237:
	.byte	(.L236 - .Lrtx237) / 4
	.byte	(.L238 - .Lrtx237) / 4
	.byte	(.L238 - .Lrtx237) / 4
	.byte	(.L251 - .Lrtx237) / 4
	.byte	(.L251 - .Lrtx237) / 4
	.byte	(.L251 - .Lrtx237) / 4
	.byte	(.L239 - .Lrtx237) / 4
	.byte	(.L240 - .Lrtx237) / 4
	.byte	(.L241 - .Lrtx237) / 4
	.byte	(.L251 - .Lrtx237) / 4
	.byte	(.L251 - .Lrtx237) / 4
	.byte	(.L251 - .Lrtx237) / 4
	.byte	(.L251 - .Lrtx237) / 4
	.byte	(.L251 - .Lrtx237) / 4
	.byte	(.L251 - .Lrtx237) / 4
	.byte	(.L251 - .Lrtx237) / 4
	.byte	(.L251 - .Lrtx237) / 4
	.byte	(.L251 - .Lrtx237) / 4
	.byte	(.L242 - .Lrtx237) / 4
	.text
.LVL248:
.L230:
.LBE47:
.LBE46:
	.loc 1 1100 0
	cbz	x20, .L233
	.loc 1 1104 0
	adrp	x0, TVP_VDEC_GetChanImage
.LVL249:
	.loc 1 1103 0
	str	w23, [x20]
	.loc 1 1104 0
	add	x0, x0, :lo12:TVP_VDEC_GetChanImage
	str	x0, [x20,8]
	.loc 1 1105 0
	adrp	x0, TVP_VDEC_ReleaseChanImage
	.loc 1 1106 0
	mov	w21, 0
.LVL250:
	.loc 1 1105 0
	add	x0, x0, :lo12:TVP_VDEC_ReleaseChanImage
	str	x0, [x20,16]
	b	.L232
.LVL251:
.L229:
	.loc 1 1088 0
	cbz	x20, .L231
.LVL252:
	.loc 1 1090 0
	sxtw	x1, w23
.LVL253:
	add	x0, x19, :lo12:.LANCHOR0
	lsl	x4, x1, 6
	add	x1, x4, x1, lsl 4
.LVL254:
	add	x0, x0, x1
	add	x0, x0, 784
	ldp	x2, x3, [x20]
	stp	x2, x3, [x0]
	ldr	x1, [x20,16]
	str	x1, [x0,16]
	.loc 1 1097 0
	b	.L226
.L227:
	.loc 1 1083 0
	add	x0, x19, :lo12:.LANCHOR0
	.loc 1 1084 0
	ldr	x1, [x20,8]
	.loc 1 1083 0
	add	x0, x0, 128
	.loc 1 1084 0
	mov	x2, 160
	.loc 1 1083 0
	ldr	w3, [x0,40]
	str	x3, [x20,8]
	.loc 1 1084 0
	ldr	x0, [x0,48]
	bl	memcpy
.LVL255:
	.loc 1 1085 0
	b	.L226
.LVL256:
.L263:
	.loc 1 1065 0
	mov	x1, x2
	bl	TVP_VDEC_SyncExtBuffer
.LVL257:
	b	.L224
.LVL258:
.L241:
.LBB65:
.LBB62:
	.loc 1 1032 0
	sxtw	x0, w23
.LVL259:
	add	x20, x19, :lo12:.LANCHOR0
.LVL260:
	lsl	x1, x0, 6
	.loc 1 1050 0
	mov	w21, 0
.LVL261:
	.loc 1 1032 0
	add	x0, x1, x0, lsl 4
.LVL262:
	add	x20, x20, x0
	add	x20, x20, 736
	mov	x0, x20
	bl	OSAL_DOWN_INTERRUPTIBLE
.LVL263:
	.loc 1 1033 0
	mov	w0, w23
	bl	TVP_VDEC_ClearEvent
.LVL264:
	.loc 1 1034 0
	mov	w0, w23
	bl	TVP_VDEC_ClearStream
.LVL265:
	.loc 1 1035 0
	mov	x0, x20
	bl	OSAL_UP
.LVL266:
	b	.L232
.LVL267:
.L240:
.LBB48:
.LBB49:
	.loc 1 979 0
	lsl	x1, x23, 4
	add	x0, x19, :lo12:.LANCHOR0
	sub	x23, x1, x23, lsl 2
.LVL268:
.LBE49:
.LBE48:
	.loc 1 1050 0
	mov	w21, 0
.LVL269:
.LBB51:
.LBB50:
	.loc 1 979 0
	add	x23, x0, x23
	mov	w0, 3
	str	w0, [x23,352]
	b	.L232
.LVL270:
.L242:
.LBE50:
.LBE51:
.LBB52:
.LBB53:
	.loc 1 967 0
	sxtw	x0, w23
.LVL271:
	add	x21, x19, :lo12:.LANCHOR0
.LVL272:
	lsl	x1, x0, 6
	add	x0, x1, x0, lsl 4
.LVL273:
	add	x21, x21, x0
	add	x21, x21, 736
	mov	x0, x21
	bl	OSAL_DOWN_INTERRUPTIBLE
.LVL274:
	.loc 1 968 0
	mov	w0, w23
	bl	TVP_VDEC_ClearEvent
.LVL275:
	.loc 1 969 0
	ldr	w0, [x20]
	cbnz	w0, .L244
	.loc 1 971 0
	mov	w0, w23
	bl	TVP_VDEC_ClearStream
.LVL276:
.L244:
	.loc 1 973 0
	mov	x0, x21
.LBE53:
.LBE52:
	.loc 1 1050 0
	mov	w21, 0
.LVL277:
.LBB55:
.LBB54:
	.loc 1 973 0
	bl	OSAL_UP
.LVL278:
	b	.L232
.LVL279:
.L239:
.LBE54:
.LBE55:
	.loc 1 1023 0
	lsl	x2, x23, 4
	add	x0, x19, :lo12:.LANCHOR0
	sub	x23, x2, x23, lsl 2
.LVL280:
	mov	w1, 2
	add	x23, x0, x23
	.loc 1 1050 0
	mov	w21, 0
.LVL281:
	.loc 1 1024 0
	str	w1, [x0,72]
	.loc 1 1023 0
	str	w1, [x23,352]
	b	.L232
.LVL282:
.L238:
.LBB56:
.LBB57:
	.loc 1 938 0
	sxtw	x21, w23
.LVL283:
	add	x24, x19, :lo12:.LANCHOR0
	lsl	x20, x21, 6
.LVL284:
	add	x20, x20, x21, lsl 4
	add	x20, x24, x20
	add	x20, x20, 736
	mov	x0, x20
	bl	OSAL_DOWN_INTERRUPTIBLE
.LVL285:
	.loc 1 939 0
	mov	w0, w23
	bl	TVP_VDEC_ClearEvent
.LVL286:
	.loc 1 940 0
	mov	w0, w23
	bl	TVP_VDEC_ClearStream
.LVL287:
	.loc 1 941 0
	mov	w0, w23
	bl	TVP_VDEC_ClearExtBuffer
.LVL288:
	.loc 1 943 0
	ldr	w0, [x24,896]
	sub	w0, w0, #1
	.loc 1 945 0
	cmp	w0, wzr
	ble	.L245
	.loc 1 943 0
	str	w0, [x24,896]
.L246:
	.loc 1 959 0
	lsl	x0, x21, 4
	add	x1, x19, :lo12:.LANCHOR0
	sub	x21, x0, x21, lsl 2
.LVL289:
	.loc 1 960 0
	mov	x0, x20
	.loc 1 959 0
	add	x1, x1, x21
.LBE57:
.LBE56:
	.loc 1 1050 0
	mov	w21, 0
.LVL290:
.LBB60:
.LBB58:
	.loc 1 959 0
	str	wzr, [x1,352]
	.loc 1 960 0
	bl	OSAL_UP
.LVL291:
	b	.L232
.LVL292:
.L236:
.LBE58:
.LBE60:
	.loc 1 1050 0
	mov	w21, 0
.LVL293:
	.loc 1 1001 0
	cbnz	w1, .L232
	.loc 1 1003 0
	ldr	x3, [x20]
	.loc 1 1004 0
	cmp	w3, 1
	bls	.L243
	.loc 1 1006 0 discriminator 1
	adrp	x2, .LANCHOR2
	adrp	x1, .LC32
	add	x2, x2, :lo12:.LANCHOR2
	add	x1, x1, :lo12:.LC32
	add	x2, x2, 24
	mov	w0, 32
	.loc 1 1007 0
	mov	w21, -1
	.loc 1 1006 0 discriminator 1
	bl	dprint_linux_kernel
.LVL294:
	b	.L232
.LVL295:
.L264:
.LBE62:
.LBE65:
	.loc 1 1072 0 discriminator 1
	adrp	x1, .LC28
	adrp	x2, .LANCHOR2
	add	x1, x1, :lo12:.LC28
	add	x2, x2, :lo12:.LANCHOR2
	mov	w0, 32
	bl	dprint_linux_kernel
.LVL296:
	.loc 1 1073 0
	mov	x0, x26
	bl	OSAL_UP
.LVL297:
	.loc 1 1074 0
	mov	w0, -1
	b	.L224
.LVL298:
.L245:
.LBB66:
.LBB63:
.LBB61:
.LBB59:
	.loc 1 948 0
	mov	w0, 1
	.loc 1 947 0
	str	wzr, [x24,896]
	.loc 1 948 0
	str	w0, [x24,72]
	b	.L246
.LVL299:
.L233:
.LBE59:
.LBE61:
.LBE63:
.LBE66:
	.loc 1 1110 0 discriminator 1
	adrp	x1, .LC30
	mov	w0, 32
	add	x1, x1, :lo12:.LC30
	.loc 1 1058 0
	mov	w21, -1
.LVL300:
	.loc 1 1110 0 discriminator 1
	bl	dprint_linux_kernel
.LVL301:
	b	.L232
.LVL302:
.L231:
	.loc 1 1094 0 discriminator 1
	adrp	x1, .LC29
	mov	w0, 32
	add	x1, x1, :lo12:.LC29
	.loc 1 1058 0
	mov	w21, -1
.LVL303:
	.loc 1 1094 0 discriminator 1
	bl	dprint_linux_kernel
.LVL304:
	b	.L232
.LVL305:
.L243:
.LBB67:
.LBB64:
	.loc 1 1010 0
	sxtw	x0, w3
.LVL306:
	add	x20, x19, :lo12:.LANCHOR0
.LVL307:
	lsl	x1, x0, 4
	.loc 1 1015 0
	add	x7, x20, 728
	.loc 1 1010 0
	sub	x4, x1, x0, lsl 2
	.loc 1 1015 0
	add	x1, x1, x0, lsl 6
	add	x2, x7, x1
	.loc 1 1010 0
	add	x5, x20, 344
	add	x6, x5, x4
	.loc 1 1017 0
	add	x0, x2, 8
.LVL308:
	.loc 1 1010 0
	str	xzr, [x5,x4]
	.loc 1 1015 0
	stp	xzr, xzr, [x2]
	stp	xzr, xzr, [x2,16]
	stp	xzr, xzr, [x2,32]
	stp	xzr, xzr, [x2,48]
	stp	xzr, xzr, [x2,64]
	.loc 1 1016 0
	str	w3, [x7,x1]
	.loc 1 1012 0
	mov	w2, 1
	.loc 1 1013 0
	mov	w1, 1
	.loc 1 1011 0
	str	w3, [x5,x4]
	.loc 1 1012 0
	strb	w2, [x6,4]
	.loc 1 1013 0
	str	w1, [x6,8]
	.loc 1 1017 0
	bl	OSAL_SEMA_INTIT
.LVL309:
	.loc 1 1018 0
	ldr	w0, [x20,896]
	add	w0, w0, 1
	str	w0, [x20,896]
	b	.L232
.LVL310:
.L266:
.LBE64:
.LBE67:
	.loc 1 1157 0
	bl	__stack_chk_fail
.LVL311:
	.cfi_endproc
.LFE2669:
	.size	TVP_VDEC_SecureControl, .-TVP_VDEC_SecureControl
	.align	2
	.global	TVP_VDEC_Control
	.type	TVP_VDEC_Control, %function
TVP_VDEC_Control:
.LFB2670:
	.loc 1 1168 0
	.cfi_startproc
.LVL312:
	stp	x29, x30, [sp, -16]!
	.cfi_def_cfa_offset 16
	.cfi_offset 29, -16
	.cfi_offset 30, -8
	.loc 1 1172 0
	cmn	w0, #1
	.loc 1 1168 0
	add	x29, sp, 0
	.cfi_def_cfa_register 29
	.loc 1 1172 0
	beq	.L269
	.loc 1 1174 0
	sxtw	x4, w0
.LVL313:
	lsl	x5, x4, 4
	sub	x4, x5, x4, lsl 2
.LVL314:
	adrp	x5, .LANCHOR0
	add	x5, x5, :lo12:.LANCHOR0
	add	x4, x5, x4
	ldrb	w4, [x4,348]
.LVL315:
	.loc 1 1185 0
	cbnz	w4, .L281
.LVL316:
.L271:
	.loc 1 1191 0
	bl	TVP_VDEC_NormalControl
.LVL317:
	.loc 1 1195 0
	ldp	x29, x30, [sp], 16
	.cfi_remember_state
	.cfi_restore 30
	.cfi_restore 29
	.cfi_def_cfa 31, 0
	ret
.LVL318:
.L281:
	.cfi_restore_state
	.loc 1 1187 0
	bl	TVP_VDEC_SecureControl
.LVL319:
	.loc 1 1195 0
	ldp	x29, x30, [sp], 16
	.cfi_remember_state
	.cfi_restore 29
	.cfi_restore 30
	.cfi_def_cfa 31, 0
	ret
.LVL320:
.L269:
	.cfi_restore_state
	.loc 1 1179 0
	sub	w4, w1, #18
	cmp	w4, 1
	bls	.L274
	.loc 1 1178 0
	sub	w4, w1, #4
	.loc 1 1179 0
	cmp	w4, 1
	bhi	.L271
.L274:
	.loc 1 1181 0
	ldr	x4, [x2,8]
	ldrb	w4, [x4,84]
.LVL321:
	.loc 1 1185 0
	cbz	w4, .L271
	b	.L281
	.cfi_endproc
.LFE2670:
	.size	TVP_VDEC_Control, .-TVP_VDEC_Control
	.align	2
	.global	TVP_VDEC_ContextInit
	.type	TVP_VDEC_ContextInit, %function
TVP_VDEC_ContextInit:
.LFB2671:
	.loc 1 1553 0
	.cfi_startproc
	.loc 1 1555 0
	adrp	x1, .LANCHOR0
	add	x1, x1, :lo12:.LANCHOR0
	.loc 1 1565 0
	add	x0, x1, 728
	.loc 1 1564 0
	stp	xzr, xzr, [x1,128]
	stp	xzr, xzr, [x1,144]
	.loc 1 1555 0
	str	xzr, [x1,888]
	.loc 1 1564 0
	stp	xzr, xzr, [x1,160]
	.loc 1 1556 0
	str	xzr, [x1,288]
	.loc 1 1564 0
	stp	xzr, xzr, [x1,176]
	.loc 1 1559 0
	str	wzr, [x1,896]
	.loc 1 1564 0
	stp	xzr, xzr, [x1,192]
	.loc 1 1560 0
	strb	wzr, [x1,232]
	.loc 1 1564 0
	stp	xzr, xzr, [x1,208]
	.loc 1 1561 0
	str	wzr, [x1,72]
	.loc 1 1565 0
	stp	xzr, xzr, [x0]
	.loc 1 1564 0
	str	xzr, [x1,224]
	.loc 1 1565 0
	stp	xzr, xzr, [x0,16]
	stp	xzr, xzr, [x0,32]
	stp	xzr, xzr, [x0,48]
	stp	xzr, xzr, [x0,64]
	stp	xzr, xzr, [x0,80]
	stp	xzr, xzr, [x0,96]
	stp	xzr, xzr, [x0,112]
	stp	xzr, xzr, [x0,128]
	stp	xzr, xzr, [x0,144]
	.loc 1 1568 0
	ret
	.cfi_endproc
.LFE2671:
	.size	TVP_VDEC_ContextInit, .-TVP_VDEC_ContextInit
	.align	2
	.global	TVP_VDEC_SecureInit
	.type	TVP_VDEC_SecureInit, %function
TVP_VDEC_SecureInit:
.LFB2672:
	.loc 1 1571 0
	.cfi_startproc
.LVL322:
	sub	sp, sp, #416
	.cfi_def_cfa_offset 416
	.loc 1 1606 0 discriminator 1
	adrp	x1, .LC34
	add	x1, x1, :lo12:.LC34
	.loc 1 1571 0
	stp	x29, x30, [sp, -96]!
	.cfi_def_cfa_offset 512
	.cfi_offset 29, -512
	.cfi_offset 30, -504
	add	x29, sp, 0
	.cfi_def_cfa_register 29
	.loc 1 1592 0
	add	x3, x29, 480
	.loc 1 1571 0
	stp	x21, x22, [sp,32]
	stp	x23, x24, [sp,48]
	stp	x25, x26, [sp,64]
	stp	x19, x20, [sp,16]
	stp	x27, x28, [sp,80]
	.cfi_offset 21, -480
	.cfi_offset 22, -472
	.cfi_offset 23, -464
	.cfi_offset 24, -456
	.cfi_offset 25, -448
	.cfi_offset 26, -440
	.cfi_offset 19, -496
	.cfi_offset 20, -488
	.cfi_offset 27, -432
	.cfi_offset 28, -424
	.loc 1 1592 0
	stp	xzr, xzr, [x3]
	.loc 1 1576 0
	mov	w3, 8887
	.loc 1 1597 0 discriminator 1
	adrp	x19, .LC33
	.loc 1 1576 0
	movk	w3, 0x5288, lsl 16
	str	w3, [x29,120]
	mov	w3, -904
	strh	w3, [x29,124]
	mov	w3, 18027
	strh	w3, [x29,126]
	mov	w3, -75
	strb	w3, [x29,128]
	mov	w3, 126
	strb	w3, [x29,129]
	mov	w3, 98
	strb	w3, [x29,130]
	mov	w3, 9
	strb	w3, [x29,131]
	mov	w3, 61
	strb	w3, [x29,132]
	mov	w3, 96
	.loc 1 1571 0
	adrp	x24, __stack_chk_guard
	.loc 1 1576 0
	strb	w3, [x29,133]
	mov	w3, 52
	.loc 1 1597 0 discriminator 1
	add	x19, x19, :lo12:.LC33
	.loc 1 1576 0
	strb	w3, [x29,134]
	mov	w3, -89
	strb	w3, [x29,135]
	.loc 1 1597 0 discriminator 1
	add	x3, x29, 432
	.loc 1 1571 0
	ldr	x12, [x24,#:lo12:__stack_chk_guard]
	.loc 1 1597 0 discriminator 1
	ldp	x6, x7, [x19]
	.loc 1 1571 0
	str	x12, [x29,504]
	.loc 1 1606 0 discriminator 1
	adrp	x25, .LANCHOR2
	.loc 1 1592 0
	str	wzr, [x29,496]
	.loc 1 1606 0 discriminator 1
	add	x22, x25, :lo12:.LANCHOR2
	.loc 1 1597 0 discriminator 1
	ldr	w11, [x19,48]
	.loc 1 1606 0 discriminator 1
	add	x22, x22, 56
	.loc 1 1597 0 discriminator 1
	ldrb	w10, [x19,52]
	.loc 1 1571 0
	mov	x26, x0
	.loc 1 1597 0 discriminator 1
	ldp	x4, x5, [x19,16]
	ldp	x8, x9, [x19,32]
	.loc 1 1592 0
	strh	wzr, [x29,500]
	.loc 1 1606 0 discriminator 1
	mov	w0, 32
.LVL323:
	.loc 1 1597 0 discriminator 1
	stp	x6, x7, [x3]
	add	x3, x29, 448
	.loc 1 1606 0 discriminator 1
	mov	x2, x22
	.loc 1 1608 0
	adrp	x23, .LANCHOR0
	add	x21, x23, :lo12:.LANCHOR0
	.loc 1 1597 0 discriminator 1
	stp	x4, x5, [x3]
	add	x3, x29, 464
	.loc 1 1608 0
	add	x19, x21, 240
	.loc 1 1597 0 discriminator 1
	stp	x8, x9, [x3]
	.loc 1 1598 0
	mov	w3, 1046
	.loc 1 1597 0 discriminator 1
	str	w11, [x29,480]
	strb	w10, [x29,484]
	.loc 1 1598 0
	str	w3, [x29,116]
.LVL324:
	.loc 1 1606 0 discriminator 1
	bl	dprint_linux_kernel
.LVL325:
	.loc 1 1608 0
	mov	x0, x19
	bl	OSAL_DOWN_INTERRUPTIBLE
.LVL326:
	.loc 1 1610 0
	cbz	x26, .L284
	.loc 1 1611 0
	ldr	x0, [x26,32]
	cbz	x0, .L284
	.loc 1 1612 0
	ldr	x0, [x26,40]
	cbz	x0, .L284
	.loc 1 1619 0
	ldrb	w0, [x21,232]
	cmp	w0, 1
	beq	.L305
	.loc 1 1627 0
	add	x20, x21, 80
	mov	x0, 0
	mov	x1, x20
	bl	TEEK_InitializeContext
.LVL327:
	.loc 1 1628 0
	cbnz	w0, .L306
	.loc 1 1635 0
	add	x19, x29, 312
	.loc 1 1637 0
	mov	w1, 21760
	.loc 1 1645 0
	add	x0, x29, 432
	.loc 1 1636 0
	mov	w27, 1
	.loc 1 1635 0
	stp	xzr, xzr, [x19]
	stp	xzr, xzr, [x19,48]
	stp	xzr, xzr, [x19,16]
	stp	xzr, xzr, [x19,32]
	.loc 1 1637 0
	str	w1, [x29,316]
	.loc 1 1642 0
	add	x1, x29, 116
	.loc 1 1635 0
	stp	xzr, xzr, [x19,64]
	stp	xzr, xzr, [x19,80]
	stp	xzr, xzr, [x19,96]
	.loc 1 1642 0
	str	x1, [x29,368]
	.loc 1 1643 0
	mov	x1, 4
	.loc 1 1635 0
	str	xzr, [x29,424]
	.loc 1 1643 0
	str	x1, [x29,376]
	.loc 1 1636 0
	str	w27, [x29,312]
	.loc 1 1644 0
	str	x0, [x29,392]
	.loc 1 1645 0
	bl	strlen
.LVL328:
	.loc 1 1648 0
	mov	x1, x21
	.loc 1 1645 0
	add	x7, x0, 1
	.loc 1 1648 0
	add	x2, x29, 120
	mov	x0, x20
	mov	w3, 7
	mov	x4, 0
	mov	x5, x19
	mov	x6, 0
	.loc 1 1645 0
	str	x7, [x29,400]
	.loc 1 1648 0
	bl	TEEK_OpenSession
.LVL329:
	.loc 1 1649 0
	cbnz	w0, .L307
	.loc 1 1656 0
	bl	TVP_VDEC_ContextInit
.LVL330:
	.loc 1 1662 0
	add	x20, x21, 128
	.loc 1 1659 0
	add	x0, x26, 32
	bl	MEM_ManagerWithOperation
.LVL331:
	.loc 1 1662 0
	str	w27, [x20,4]
	.loc 1 1663 0
	mov	w1, 10960
	adrp	x0, .LC39
	movk	w1, 0x5, lsl 16
	add	x0, x0, :lo12:.LC39
	mov	x2, x20
	mov	w3, 0
	bl	MEM_AllocMemBlock_2
.LVL332:
	.loc 1 1664 0
	cbnz	w0, .L308
	.loc 1 1669 0
	ldr	x2, [x20,16]
	.loc 1 1696 0
	add	x4, x29, 216
	.loc 1 1684 0
	ldr	w0, [x20,8]
	.loc 1 1699 0
	add	x5, x26, 8
	.loc 1 1673 0
	add	x3, x2, 36864
	.loc 1 1675 0
	add	x1, x2, 233472
	.loc 1 1673 0
	add	x10, x3, 2056
	.loc 1 1675 0
	add	x11, x1, 2248
	.loc 1 1674 0
	add	x3, x3, 2216
	.loc 1 1677 0
	add	x1, x1, 2768
	.loc 1 1685 0
	add	x9, x10, x0
	.loc 1 1689 0
	add	x6, x1, x0
	.loc 1 1686 0
	add	x8, x3, x0
	.loc 1 1687 0
	add	x7, x11, x0
	.loc 1 1673 0
	str	x10, [x20,48]
	.loc 1 1685 0
	sub	x9, x9, x2
	.loc 1 1674 0
	str	x3, [x20,64]
	.loc 1 1686 0
	sub	x8, x8, x2
	.loc 1 1684 0
	str	w0, [x20,24]
	.loc 1 1687 0
	sub	x7, x7, x2
	.loc 1 1672 0
	str	x2, [x20,32]
	.loc 1 1689 0
	sub	x3, x6, x2
	.loc 1 1675 0
	str	x11, [x20,80]
	.loc 1 1699 0
	add	x10, x29, 224
	.loc 1 1677 0
	str	x1, [x20,96]
	.loc 1 1702 0
	add	x28, x29, 136
	.loc 1 1685 0
	str	w9, [x20,40]
	.loc 1 1703 0
	add	x0, x28, 16
	.loc 1 1686 0
	str	w8, [x20,56]
	.loc 1 1687 0
	str	w7, [x20,72]
	.loc 1 1689 0
	str	w3, [x20,88]
	.loc 1 1696 0
	stp	xzr, xzr, [x4]
	.loc 1 1698 0
	ldr	w6, [x26,4]
	.loc 1 1699 0
	ldp	x2, x3, [x5]
	ldr	x1, [x26,24]
	.loc 1 1696 0
	stp	xzr, xzr, [x4,32]
	stp	xzr, xzr, [x4,48]
	stp	xzr, xzr, [x4,64]
	stp	xzr, xzr, [x4,80]
	.loc 1 1699 0
	stp	x2, x3, [x10]
	.loc 1 1698 0
	str	x4, [x29,104]
	.loc 1 1697 0
	strb	w27, [x29,216]
	.loc 1 1702 0
	stp	xzr, xzr, [x28]
	.loc 1 1698 0
	str	w6, [x29,220]
	.loc 1 1702 0
	stp	xzr, xzr, [x28,16]
	.loc 1 1699 0
	str	x1, [x29,240]
	.loc 1 1702 0
	stp	xzr, xzr, [x28,32]
	stp	xzr, xzr, [x28,48]
	stp	xzr, xzr, [x28,64]
	.loc 1 1703 0
	bl	VFMW_GetDtsConfig
.LVL333:
	.loc 1 1704 0
	ldr	x4, [x29,104]
	cbnz	w0, .L309
	.loc 1 1714 0
	stp	xzr, xzr, [x19,80]
	.loc 1 1712 0
	ldr	w7, [x20,72]
	.loc 1 1721 0
	mov	w6, 26140
	.loc 1 1710 0
	ldr	w9, [x20,24]
	.loc 1 1721 0
	mov	w5, 26124
	.loc 1 1711 0
	ldr	w8, [x20,56]
	.loc 1 1721 0
	movk	w6, 0x6728, lsl 16
	.loc 1 1714 0
	stp	xzr, xzr, [x19,16]
	.loc 1 1717 0
	str	x4, [x19,8]
	.loc 1 1718 0
	mov	x4, 96
	.loc 1 1721 0
	movk	w5, 0x5b9c, lsl 16
	.loc 1 1709 0
	mov	w10, 3
	.loc 1 1712 0
	str	w7, [x28,12]
	.loc 1 1723 0
	mov	x0, x21
	.loc 1 1715 0
	mov	w7, 4693
	.loc 1 1718 0
	str	x4, [x19,16]
	.loc 1 1723 0
	mov	w1, w27
	.loc 1 1720 0
	mov	x4, 80
	.loc 1 1723 0
	mov	x2, x19
	mov	x3, 0
	.loc 1 1714 0
	stp	xzr, xzr, [x19,48]
	stp	xzr, xzr, [x19,64]
	stp	xzr, xzr, [x19,96]
	str	xzr, [x19,112]
	.loc 1 1719 0
	str	x28, [x19,32]
	.loc 1 1720 0
	str	x4, [x19,40]
	.loc 1 1721 0
	str	w6, [x19,80]
	str	w5, [x19,84]
	.loc 1 1709 0
	str	w10, [x28]
	.loc 1 1710 0
	str	w9, [x28,4]
	.loc 1 1711 0
	str	w8, [x28,8]
	.loc 1 1715 0
	str	w7, [x19,4]
	.loc 1 1716 0
	str	w27, [x19]
	.loc 1 1723 0
	bl	TEEK_InvokeCommand
.LVL334:
	.loc 1 1724 0
	cbnz	w0, .L295
	.loc 1 1724 0 is_stmt 0 discriminator 1
	ldr	w0, [x19,56]
	cbnz	w0, .L295
	.loc 1 1731 0 is_stmt 1
	add	x20, x23, :lo12:.LANCHOR0
	ldr	x1, [x26,32]
	.loc 1 1732 0
	ldr	x0, [x26,40]
	.loc 1 1731 0
	str	x1, [x20,888]
	.loc 1 1732 0
	str	x0, [x20,288]
	.loc 1 1735 0
	bl	TVP_VDEC_Thread_Init
.LVL335:
	.loc 1 1738 0 discriminator 1
	add	x2, x25, :lo12:.LANCHOR2
	.loc 1 1736 0
	cbnz	w0, .L310
	.loc 1 1745 0 discriminator 1
	adrp	x1, .LC2
	.loc 1 1743 0
	mov	w3, 1
	.loc 1 1745 0 discriminator 1
	add	x1, x1, :lo12:.LC2
	add	x2, x2, 56
	mov	w0, 32
	.loc 1 1743 0
	strb	w3, [x20,232]
	.loc 1 1745 0 discriminator 1
	bl	dprint_linux_kernel
.LVL336:
	.loc 1 1747 0
	add	x0, x20, 240
	bl	OSAL_UP
.LVL337:
	.loc 1 1749 0
	mov	w0, 0
.L286:
	.loc 1 1773 0
	ldr	x2, [x29,504]
	ldr	x1, [x24,#:lo12:__stack_chk_guard]
	cmp	x2, x1
	bne	.L311
	ldp	x19, x20, [sp,16]
	.cfi_remember_state
	.cfi_restore 20
	.cfi_restore 19
	ldp	x21, x22, [sp,32]
	.cfi_restore 22
	.cfi_restore 21
	ldp	x23, x24, [sp,48]
	.cfi_restore 24
	.cfi_restore 23
	ldp	x25, x26, [sp,64]
	.cfi_restore 26
	.cfi_restore 25
.LVL338:
	ldp	x27, x28, [sp,80]
	.cfi_restore 28
	.cfi_restore 27
	ldp	x29, x30, [sp], 96
	.cfi_restore 30
	.cfi_restore 29
	.cfi_def_cfa 31, 416
	add	sp, sp, 416
	.cfi_def_cfa_offset 320
	ret
.LVL339:
.L305:
	.cfi_restore_state
	.loc 1 1621 0 discriminator 1
	adrp	x1, .LC36
	mov	w0, 32
	add	x1, x1, :lo12:.LC36
	bl	dprint_linux_kernel
.LVL340:
	.loc 1 1622 0
	mov	x0, x19
	bl	OSAL_UP
.LVL341:
	.loc 1 1623 0
	mov	w0, 0
	b	.L286
.L306:
	.loc 1 1630 0 discriminator 1
	adrp	x1, .LC37
	mov	w0, 32
	add	x1, x1, :lo12:.LC37
	bl	dprint_linux_kernel
.LVL342:
	.loc 1 1631 0
	mov	x0, x19
	bl	OSAL_UP
.LVL343:
	.loc 1 1632 0
	mov	w0, -1
	b	.L286
.L284:
	.loc 1 1614 0 discriminator 1
	add	x2, x25, :lo12:.LANCHOR2
	adrp	x1, .LC35
	add	x1, x1, :lo12:.LC35
	add	x2, x2, 56
	mov	w0, 32
	bl	dprint_linux_kernel
.LVL344:
	.loc 1 1615 0
	add	x0, x23, :lo12:.LANCHOR0
	add	x0, x0, 240
	bl	OSAL_UP
.LVL345:
	.loc 1 1616 0
	mov	w0, -1
	b	.L286
.L295:
	.loc 1 1726 0 discriminator 1
	adrp	x1, .LC42
	ldr	w2, [x29,320]
	add	x1, x1, :lo12:.LC42
	mov	w0, 32
	bl	dprint_linux_kernel
.LVL346:
.L294:
	.loc 1 1761 0
	add	x0, x23, :lo12:.LANCHOR0
	add	x0, x0, 128
	bl	MEM_ReleaseMemBlock_2
.LVL347:
	.loc 1 1762 0
	bl	TVP_VDEC_ContextInit
.LVL348:
.L292:
	.loc 1 1766 0
	add	x0, x23, :lo12:.LANCHOR0
	bl	TEEK_CloseSession
.LVL349:
.L290:
	.loc 1 1769 0
	add	x23, x23, :lo12:.LANCHOR0
	add	x0, x23, 80
	bl	TEEK_FinalizeContext
.LVL350:
	.loc 1 1771 0
	add	x0, x23, 240
	bl	OSAL_UP
.LVL351:
	.loc 1 1772 0
	mov	w0, -1
	b	.L286
.L307:
	.loc 1 1651 0 discriminator 1
	adrp	x1, .LC38
	mov	w0, 32
	add	x1, x1, :lo12:.LC38
	bl	dprint_linux_kernel
.LVL352:
	b	.L290
.L310:
	.loc 1 1738 0 discriminator 1
	adrp	x1, .LC43
	add	x2, x2, 56
	add	x1, x1, :lo12:.LC43
	mov	w0, 32
	bl	dprint_linux_kernel
.LVL353:
	.loc 1 1754 0
	mov	w6, 1
	.loc 1 1757 0
	mov	w5, 26140
	mov	w4, 26124
	movk	w5, 0x6728, lsl 16
	movk	w4, 0x5b9c, lsl 16
	.loc 1 1753 0
	mov	w7, 4098
	.loc 1 1754 0
	str	w6, [x29,312]
	.loc 1 1758 0
	mov	x0, x20
	.loc 1 1755 0
	str	w6, [x29,320]
	.loc 1 1758 0
	mov	w1, 2
	.loc 1 1756 0
	mov	w6, -1
	.loc 1 1758 0
	mov	x2, x19
	mov	x3, 0
	.loc 1 1753 0
	str	w7, [x29,316]
	.loc 1 1756 0
	str	w6, [x29,324]
	.loc 1 1757 0
	str	w5, [x29,392]
	str	w4, [x29,396]
	.loc 1 1758 0
	bl	TEEK_InvokeCommand
.LVL354:
	b	.L294
.L308:
	.loc 1 1666 0 discriminator 1
	mov	x2, 10960
	adrp	x1, .LC40
	movk	x2, 0x5, lsl 16
	add	x1, x1, :lo12:.LC40
	mov	w0, 32
	bl	dprint_linux_kernel
.LVL355:
	b	.L292
.L309:
	.loc 1 1706 0 discriminator 1
	adrp	x1, .LC41
	mov	x2, x22
	add	x1, x1, :lo12:.LC41
	mov	w0, 32
	bl	dprint_linux_kernel
.LVL356:
	b	.L294
.L311:
	.loc 1 1773 0
	bl	__stack_chk_fail
.LVL357:
	.cfi_endproc
.LFE2672:
	.size	TVP_VDEC_SecureInit, .-TVP_VDEC_SecureInit
	.align	2
	.global	TVP_VDEC_SecureExit
	.type	TVP_VDEC_SecureExit, %function
TVP_VDEC_SecureExit:
.LFB2673:
	.loc 1 1776 0
	.cfi_startproc
	stp	x29, x30, [sp, -32]!
	.cfi_def_cfa_offset 32
	.cfi_offset 29, -32
	.cfi_offset 30, -24
	.loc 1 1782 0 discriminator 1
	adrp	x1, .LC34
	adrp	x2, .LANCHOR1
	.loc 1 1776 0
	add	x29, sp, 0
	.cfi_def_cfa_register 29
	stp	x19, x20, [sp,16]
	.cfi_offset 19, -16
	.cfi_offset 20, -8
	.loc 1 1782 0 discriminator 1
	add	x1, x1, :lo12:.LC34
	add	x2, x2, :lo12:.LANCHOR1
	mov	w0, 32
	.loc 1 1784 0
	adrp	x19, .LANCHOR0
	add	x19, x19, :lo12:.LANCHOR0
	.loc 1 1782 0 discriminator 1
	bl	dprint_linux_kernel
.LVL358:
	.loc 1 1784 0
	add	x20, x19, 240
	mov	x0, x20
	bl	OSAL_DOWN_INTERRUPTIBLE
.LVL359:
	.loc 1 1786 0
	ldrb	w0, [x19,232]
	cbnz	w0, .L313
	.loc 1 1788 0 discriminator 1
	adrp	x1, .LC44
	mov	w0, 32
	add	x1, x1, :lo12:.LC44
	bl	dprint_linux_kernel
.LVL360:
	.loc 1 1789 0
	mov	x0, x20
	bl	OSAL_UP
.LVL361:
	.loc 1 1790 0
	mov	w0, 0
	.loc 1 1842 0
	ldp	x19, x20, [sp,16]
	.cfi_remember_state
	.cfi_restore 20
	.cfi_restore 19
	ldp	x29, x30, [sp], 32
	.cfi_restore 30
	.cfi_restore 29
	.cfi_def_cfa 31, 0
	ret
.L313:
	.cfi_restore_state
	.loc 1 1793 0
	ldr	w2, [x19,896]
	cmp	w2, wzr
	ble	.L315
	.loc 1 1795 0 discriminator 1
	adrp	x1, .LC45
	mov	w0, 32
	add	x1, x1, :lo12:.LC45
	bl	dprint_linux_kernel
.LVL362:
	.loc 1 1796 0
	mov	x0, x20
	bl	OSAL_UP
.LVL363:
	.loc 1 1797 0
	mov	w0, 0
	.loc 1 1842 0
	ldp	x19, x20, [sp,16]
	.cfi_remember_state
	.cfi_restore 19
	.cfi_restore 20
	ldp	x29, x30, [sp], 32
	.cfi_restore 29
	.cfi_restore 30
	.cfi_def_cfa 31, 0
	ret
.L315:
	.cfi_restore_state
	bl	TVP_VDEC_SecureExit.part.6
.LVL364:
	ldp	x19, x20, [sp,16]
	.cfi_restore 19
	.cfi_restore 20
	ldp	x29, x30, [sp], 32
	.cfi_restore 29
	.cfi_restore 30
	.cfi_def_cfa 31, 0
	ret
	.cfi_endproc
.LFE2673:
	.size	TVP_VDEC_SecureExit, .-TVP_VDEC_SecureExit
	.align	2
	.global	TVP_VDEC_Init
	.type	TVP_VDEC_Init, %function
TVP_VDEC_Init:
.LFB2674:
	.loc 1 1845 0
	.cfi_startproc
.LVL365:
	stp	x29, x30, [sp, -16]!
	.cfi_def_cfa_offset 16
	.cfi_offset 29, -16
	.cfi_offset 30, -8
	add	x29, sp, 0
	.cfi_def_cfa_register 29
	.loc 1 1848 0
	cbz	x0, .L321
	.loc 1 1854 0
	ldrb	w1, [x0]
	cmp	w1, 1
	beq	.L322
	.loc 1 1860 0
	bl	VDEC_Init
.LVL366:
.L320:
	.loc 1 1863 0
	cmp	w0, wzr
	csetm	w0, ne
.LVL367:
.L318:
	.loc 1 1864 0
	ldp	x29, x30, [sp], 16
	.cfi_remember_state
	.cfi_restore 30
	.cfi_restore 29
	.cfi_def_cfa 31, 0
	ret
.LVL368:
.L322:
	.cfi_restore_state
	.loc 1 1856 0
	bl	TVP_VDEC_SecureInit
.LVL369:
	b	.L320
.LVL370:
.L321:
	.loc 1 1850 0 discriminator 1
	adrp	x2, .LANCHOR2
	adrp	x1, .LC46
	add	x2, x2, :lo12:.LANCHOR2
	mov	w0, 32
.LVL371:
	add	x1, x1, :lo12:.LC46
	add	x2, x2, 80
	bl	dprint_linux_kernel
.LVL372:
	.loc 1 1851 0
	mov	w0, -1
	b	.L318
	.cfi_endproc
.LFE2674:
	.size	TVP_VDEC_Init, .-TVP_VDEC_Init
	.align	2
	.global	TVP_VDEC_Exit
	.type	TVP_VDEC_Exit, %function
TVP_VDEC_Exit:
.LFB2675:
	.loc 1 1867 0
	.cfi_startproc
.LVL373:
	stp	x29, x30, [sp, -16]!
	.cfi_def_cfa_offset 16
	.cfi_offset 29, -16
	.cfi_offset 30, -8
	uxtb	w0, w0
	.loc 1 1870 0
	cmp	w0, 1
	.loc 1 1867 0
	add	x29, sp, 0
	.cfi_def_cfa_register 29
	.loc 1 1870 0
	beq	.L326
	.loc 1 1876 0
	mov	w0, 0
.LVL374:
	bl	VDEC_Exit
.LVL375:
	.loc 1 1879 0
	cmp	w0, wzr
	.loc 1 1880 0
	csetm	w0, ne
.LVL376:
	ldp	x29, x30, [sp], 16
	.cfi_remember_state
	.cfi_restore 30
	.cfi_restore 29
	.cfi_def_cfa 31, 0
	ret
.LVL377:
.L326:
	.cfi_restore_state
	.loc 1 1872 0
	bl	TVP_VDEC_SecureExit
.LVL378:
	.loc 1 1879 0
	cmp	w0, wzr
	.loc 1 1880 0
	csetm	w0, ne
.LVL379:
	ldp	x29, x30, [sp], 16
	.cfi_restore 29
	.cfi_restore 30
	.cfi_def_cfa 31, 0
	ret
	.cfi_endproc
.LFE2675:
	.size	TVP_VDEC_Exit, .-TVP_VDEC_Exit
	.align	2
	.global	TVP_VDEC_OpenModule
	.type	TVP_VDEC_OpenModule, %function
TVP_VDEC_OpenModule:
.LFB2676:
	.loc 1 1887 0
	.cfi_startproc
	stp	x29, x30, [sp, -32]!
	.cfi_def_cfa_offset 32
	.cfi_offset 29, -32
	.cfi_offset 30, -24
	add	x29, sp, 0
	.cfi_def_cfa_register 29
	str	x19, [sp,16]
	.cfi_offset 19, -16
	.loc 1 1890 0
	adrp	x19, .LANCHOR0
	add	x19, x19, :lo12:.LANCHOR0
	add	x0, x19, 240
	bl	OSAL_SEMA_INTIT
.LVL380:
	.loc 1 1891 0
	add	x0, x19, 296
	bl	OSAL_SEMA_INTIT
.LVL381:
	.loc 1 1893 0
	add	x0, x19, 344
	mov	w1, 0
	mov	x2, 384
	bl	memset
.LVL382:
	.loc 1 1905 0
	ldr	x19, [sp,16]
	.cfi_restore 19
	ldp	x29, x30, [sp], 32
	.cfi_restore 30
	.cfi_restore 29
	.cfi_def_cfa 31, 0
	ret
	.cfi_endproc
.LFE2676:
	.size	TVP_VDEC_OpenModule, .-TVP_VDEC_OpenModule
	.align	2
	.global	TVP_VDEC_ExitModule
	.type	TVP_VDEC_ExitModule, %function
TVP_VDEC_ExitModule:
.LFB2677:
	.loc 1 1908 0
	.cfi_startproc
	.loc 1 1914 0
	ret
	.cfi_endproc
.LFE2677:
	.size	TVP_VDEC_ExitModule, .-TVP_VDEC_ExitModule
	.global	g_pBufferHandler
	.global	g_pEventHandler
	.section	.rodata
	.align	3
.LANCHOR1 = . + 0
	.type	__func__.38228, %object
	.size	__func__.38228, 20
__func__.38228:
	.string	"TVP_VDEC_SecureExit"
	.zero	4
	.type	__func__.37968, %object
	.size	__func__.37968, 23
__func__.37968:
	.string	"TVP_VDEC_ExtBufHandler"
	.zero	1
	.type	__func__.37996, %object
	.size	__func__.37996, 20
__func__.37996:
	.string	"TVP_VDEC_ReadStream"
	.zero	4
	.type	__func__.38010, %object
	.size	__func__.38010, 23
__func__.38010:
	.string	"TVP_VDEC_ReleaseStream"
	.zero	1
	.type	__func__.38020, %object
	.size	__func__.38020, 21
__func__.38020:
	.string	"TVP_VDEC_ReportEvent"
	.zero	3
	.type	__func__.38037, %object
	.size	__func__.38037, 20
__func__.38037:
	.string	"TVP_VDEC_MiddleWare"
	.zero	4
	.type	__func__.38063, %object
	.size	__func__.38063, 23
__func__.38063:
	.string	"TVP_VDEC_FindExtBuffer"
	.zero	1
	.type	__func__.38074, %object
	.size	__func__.38074, 23
__func__.38074:
	.string	"TVP_VDEC_SyncExtBuffer"
	.zero	1
	.type	__func__.38079, %object
	.size	__func__.38079, 24
__func__.38079:
	.string	"TVP_VDEC_ClearExtBuffer"
	.type	__func__.38092, %object
	.size	__func__.38092, 21
__func__.38092:
	.string	"TVP_VDEC_ClearStream"
	.zero	3
	.type	__func__.38100, %object
	.size	__func__.38100, 20
__func__.38100:
	.string	"TVP_VDEC_ClearEvent"
	.zero	4
	.type	__func__.38110, %object
	.size	__func__.38110, 17
__func__.38110:
	.string	"TVP_VDEC_Suspend"
	.zero	7
	.type	__func__.38117, %object
	.size	__func__.38117, 16
__func__.38117:
	.string	"TVP_VDEC_Resume"
	.type	__func__.38129, %object
	.size	__func__.38129, 23
__func__.38129:
	.string	"TVP_VDEC_NormalControl"
	.align	3
.LANCHOR2 = . + 0
	.type	__func__.38181, %object
	.size	__func__.38181, 23
__func__.38181:
	.string	"TVP_VDEC_SecureControl"
	.zero	1
	.type	__func__.38160, %object
	.size	__func__.38160, 28
__func__.38160:
	.string	"TVP_VDEC_SecCtrlInvokeAfter"
	.zero	4
	.type	__func__.38216, %object
	.size	__func__.38216, 20
__func__.38216:
	.string	"TVP_VDEC_SecureInit"
	.zero	4
	.type	__func__.38236, %object
	.size	__func__.38236, 14
__func__.38236:
	.string	"TVP_VDEC_Init"
	.section	.rodata.str1.8,"aMS",%progbits,1
	.align	3
.LC0:
	.string	"InvokeCommand HIVCODEC_CMD_ID_RELEASE_IMAGE Failed!\n"
	.zero	3
.LC1:
	.string	"InvokeCommand HIVCODEC_CMD_ID_EXIT Failed!\n"
	.zero	4
.LC2:
	.string	"%s Success\n"
	.zero	4
.LC3:
	.string	"%s: BufferHandler func null\n"
	.zero	3
.LC4:
	.string	"InvokeCommand HIVCODEC_CMD_ID_GET_IMAGE Failed!\n"
	.zero	7
.LC5:
	.string	"%s FATAL: pStreamBuf = NULL\n"
	.zero	3
.LC6:
	.string	"%s FATAL: Chan %d read_stream = NULL\n"
	.zero	2
.LC7:
	.string	"%s FATAL: Chan %d release_stream failed, ChanState = INVALID\n"
	.zero	2
.LC8:
	.string	"%s FATAL: Chan %d release_stream = NULL\n"
	.zero	7
.LC9:
	.string	"%s FATAL: pEventBuf(%pK)/g_pEventHandler(%pK) = NULL\n"
	.zero	2
.LC10:
	.string	"%s ReadStream FATAL occur!\n"
	.zero	4
.LC11:
	.string	"InvokeCommand HIVCODEC_CMD_ID_RUN_PROCESS Failed!\n"
	.zero	5
.LC12:
	.string	"%s ReportEvent FATAL occur!\n"
	.zero	3
.LC13:
	.string	"%s ReleaseStream FATAL occur!\n"
	.zero	1
.LC14:
	.string	"%s pArray(%pK) = null!\n"
.LC15:
	.string	"%s pParam(%pK)/pArray(%pK) = null!\n"
	.zero	4
.LC16:
	.string	"%s ChanID %d invalid!\n"
	.zero	1
.LC17:
	.string	"%s ChanID %d can not find the position for target 0x%x in setting state %d.\n"
	.zero	3
.LC18:
	.string	"%s pArray = null!\n"
	.zero	5
.LC19:
	.string	"SecVideoDec"
	.zero	4
.LC20:
	.string	"Create thread SecVideoDec Failed!\n"
	.zero	5
.LC21:
	.string	"%s FATAL: Chan %d pStreamBuf(%pK)/pfnReleaseStream(%pK) = NULL\n"
.LC22:
	.string	"%s FATAL: Chan %d pEventBuf = NULL\n"
	.zero	4
.LC23:
	.string	"%s Call VDEC_Suspend Failed!\n"
	.zero	2
.LC24:
	.string	"InvokeCommand HIVCODEC_CMD_ID_SUSPEND Failed!\n"
	.zero	1
.LC25:
	.string	"%s Call VDEC_Resume Failed!\n"
	.zero	3
.LC26:
	.string	"InvokeCommand HIVCODEC_CMD_ID_RESUME Failed!\n"
	.zero	2
.LC27:
	.string	"%s FATAL: return chan_id(%d) invalid\n"
	.zero	2
.LC28:
	.string	"%s: SecureDecoder not init yet!\n"
	.zero	7
.LC29:
	.string	"VDEC_CID_SET_STREAM_INTF Invalid Param\n"
.LC30:
	.string	"VDEC_CID_GET_IMAGE_INTF Invalid Param\n"
	.zero	1
.LC31:
	.string	"TEEC_InvokeCommand HIVCODEC_CMD_ID_CONTROL Failed!\n"
	.zero	4
.LC32:
	.string	"%s FATAL: return chan_id(%d) invalid!\n"
	.zero	1
.LC33:
	.string	"/vendor/bin/hw/android.hardware.media.omx@1.0-service"
	.zero	2
.LC34:
	.string	"%s Enter\n"
	.zero	6
.LC35:
	.string	"%s: Param Invalid!\n"
	.zero	4
.LC36:
	.string	"SecureDecoder already init, return OK.\n"
.LC37:
	.string	"TEEC_InitializeContext Failed!\n"
.LC38:
	.string	"TEEK_OpenSession Failed!\n"
	.zero	6
.LC39:
	.string	"SEC_Share"
	.zero	6
.LC40:
	.string	"Alloc share memory failed! size = %d\n"
	.zero	2
.LC41:
	.string	"%s call VFMW_GetDtsConfig failed\n"
	.zero	6
.LC42:
	.string	"InvokeCommand HIVCODEC_CMD_ID_INIT failed, result_val=%d\n"
	.zero	6
.LC43:
	.string	"%s call TVP_VDEC_Thread_Init failed\n"
	.zero	3
.LC44:
	.string	"SecureDecoder not init, return OK.\n"
	.zero	4
.LC45:
	.string	"SecureInstNum(%d) > 0, return OK.\n"
	.zero	5
.LC46:
	.string	"%s pArgs = NULL\n"
	.bss
	.align	3
.LANCHOR0 = . + 0
	.type	g_TeeSession, %object
	.size	g_TeeSession, 72
g_TeeSession:
	.zero	72
	.type	g_ThreadState, %object
	.size	g_ThreadState, 4
g_ThreadState:
	.zero	4
	.zero	4
	.type	g_TeeContext, %object
	.size	g_TeeContext, 48
g_TeeContext:
	.zero	48
	.type	g_ShareMem, %object
	.size	g_ShareMem, 104
g_ShareMem:
	.zero	104
	.type	g_bSecEnvSetUp, %object
	.size	g_bSecEnvSetUp, 1
g_bSecEnvSetUp:
	.zero	1
	.zero	7
	.type	g_TvpSem, %object
	.size	g_TvpSem, 48
g_TvpSem:
	.zero	48
	.type	g_pBufferHandler, %object
	.size	g_pBufferHandler, 8
g_pBufferHandler:
	.zero	8
	.type	g_ExtBufSem, %object
	.size	g_ExtBufSem, 48
g_ExtBufSem:
	.zero	48
	.type	g_ChanRecord, %object
	.size	g_ChanRecord, 384
g_ChanRecord:
	.zero	384
	.type	g_SecureChan, %object
	.size	g_SecureChan, 160
g_SecureChan:
	.zero	160
	.type	g_pEventHandler, %object
	.size	g_pEventHandler, 8
g_pEventHandler:
	.zero	8
	.type	g_SecureInstNum, %object
	.size	g_SecureInstNum, 4
g_SecureInstNum:
	.zero	4
	.text
.Letext0:
	.file 2 "/mnt/disk/jenkins/ci/workspace/chipset_release_960_xloader/opensource/component_code/vendor/huawei/extra/build/build_script/kirin_kernel_release/kernel/drivers/vcodec/hi_vcodec/vdec/include/hi_type.h"
	.file 3 "/mnt/disk/jenkins/ci/workspace/chipset_release_960_xloader/opensource/component_code/vendor/huawei/extra/build/build_script/kirin_kernel_release/kernel/drivers/vcodec/hi_vcodec/vdec/vfmw/vfmw_v4.0/vfmw.h"
	.file 4 "/mnt/disk/jenkins/ci/workspace/chipset_release_960_xloader/opensource/component_code/vendor/huawei/extra/build/build_script/kirin_kernel_release/kernel/include/uapi/asm-generic/int-ll64.h"
	.file 5 "/mnt/disk/jenkins/ci/workspace/chipset_release_960_xloader/opensource/component_code/vendor/huawei/extra/build/build_script/kirin_kernel_release/kernel/include/asm-generic/int-ll64.h"
	.file 6 "/mnt/disk/jenkins/ci/workspace/chipset_release_960_xloader/opensource/component_code/vendor/huawei/extra/build/build_script/kirin_kernel_release/kernel/include/uapi/asm-generic/posix_types.h"
	.file 7 "/mnt/disk/jenkins/ci/workspace/chipset_release_960_xloader/opensource/component_code/vendor/huawei/extra/build/build_script/kirin_kernel_release/kernel/include/linux/export.h"
	.file 8 "/mnt/disk/jenkins/ci/workspace/chipset_release_960_xloader/opensource/component_code/vendor/huawei/extra/build/build_script/kirin_kernel_release/kernel/include/linux/types.h"
	.file 9 "/mnt/disk/jenkins/ci/workspace/chipset_release_960_xloader/opensource/component_code/vendor/huawei/extra/build/build_script/kirin_kernel_release/kernel/include/asm-generic/bug.h"
	.file 10 "/mnt/disk/jenkins/ci/workspace/chipset_release_960_xloader/opensource/component_code/vendor/huawei/extra/build/build_script/kirin_kernel_release/kernel/include/linux/restart_block.h"
	.file 11 "/mnt/disk/jenkins/ci/workspace/chipset_release_960_xloader/opensource/component_code/vendor/huawei/extra/build/build_script/kirin_kernel_release/kernel/include/uapi/linux/time.h"
	.file 12 "/mnt/disk/jenkins/ci/workspace/chipset_release_960_xloader/opensource/component_code/vendor/huawei/extra/build/build_script/kirin_kernel_release/kernel/arch/arm64/include/asm/compat.h"
	.file 13 "/mnt/disk/jenkins/ci/workspace/chipset_release_960_xloader/opensource/component_code/vendor/huawei/extra/build/build_script/kirin_kernel_release/kernel/include/uapi/asm-generic/poll.h"
	.file 14 "/mnt/disk/jenkins/ci/workspace/chipset_release_960_xloader/opensource/component_code/vendor/huawei/extra/build/build_script/kirin_kernel_release/kernel/arch/arm64/include/asm/thread_info.h"
	.file 15 "/mnt/disk/jenkins/ci/workspace/chipset_release_960_xloader/opensource/component_code/vendor/huawei/extra/build/build_script/kirin_kernel_release/kernel/arch/arm64/include/uapi/asm/ptrace.h"
	.file 16 "/mnt/disk/jenkins/ci/workspace/chipset_release_960_xloader/opensource/component_code/vendor/huawei/extra/build/build_script/kirin_kernel_release/kernel/arch/arm64/include/asm/ptrace.h"
	.file 17 "/mnt/disk/jenkins/ci/workspace/chipset_release_960_xloader/opensource/component_code/vendor/huawei/extra/build/build_script/kirin_kernel_release/kernel/arch/arm64/include/asm/spinlock_types.h"
	.file 18 "/mnt/disk/jenkins/ci/workspace/chipset_release_960_xloader/opensource/component_code/vendor/huawei/extra/build/build_script/kirin_kernel_release/kernel/include/linux/spinlock_types.h"
	.file 19 "/mnt/disk/jenkins/ci/workspace/chipset_release_960_xloader/opensource/component_code/vendor/huawei/extra/build/build_script/kirin_kernel_release/kernel/include/linux/rwlock_types.h"
	.file 20 "/mnt/disk/jenkins/ci/workspace/chipset_release_960_xloader/opensource/component_code/vendor/huawei/extra/build/build_script/kirin_kernel_release/kernel/arch/arm64/include/asm/fpsimd.h"
	.file 21 "/mnt/disk/jenkins/ci/workspace/chipset_release_960_xloader/opensource/component_code/vendor/huawei/extra/build/build_script/kirin_kernel_release/kernel/include/linux/jump_label.h"
	.file 22 "/mnt/disk/jenkins/ci/workspace/chipset_release_960_xloader/opensource/component_code/vendor/huawei/extra/build/build_script/kirin_kernel_release/kernel/include/asm-generic/atomic-long.h"
	.file 23 "/mnt/disk/jenkins/ci/workspace/chipset_release_960_xloader/opensource/component_code/vendor/huawei/extra/build/build_script/kirin_kernel_release/kernel/arch/arm64/include/asm/hw_breakpoint.h"
	.file 24 "/mnt/disk/jenkins/ci/workspace/chipset_release_960_xloader/opensource/component_code/vendor/huawei/extra/build/build_script/kirin_kernel_release/kernel/arch/arm64/include/asm/processor.h"
	.file 25 "/mnt/disk/jenkins/ci/workspace/chipset_release_960_xloader/opensource/component_code/vendor/huawei/extra/build/build_script/kirin_kernel_release/kernel/include/linux/perf_event.h"
	.file 26 "/mnt/disk/jenkins/ci/workspace/chipset_release_960_xloader/opensource/component_code/vendor/huawei/extra/build/build_script/kirin_kernel_release/kernel/include/linux/wait.h"
	.file 27 "/mnt/disk/jenkins/ci/workspace/chipset_release_960_xloader/opensource/component_code/vendor/huawei/extra/build/build_script/kirin_kernel_release/kernel/include/linux/seqlock.h"
	.file 28 "/mnt/disk/jenkins/ci/workspace/chipset_release_960_xloader/opensource/component_code/vendor/huawei/extra/build/build_script/kirin_kernel_release/kernel/include/linux/nodemask.h"
	.file 29 "/mnt/disk/jenkins/ci/workspace/chipset_release_960_xloader/opensource/component_code/vendor/huawei/extra/build/build_script/kirin_kernel_release/kernel/include/linux/cpumask.h"
	.file 30 "/mnt/disk/jenkins/ci/workspace/chipset_release_960_xloader/opensource/component_code/vendor/huawei/extra/build/build_script/kirin_kernel_release/kernel/include/linux/completion.h"
	.file 31 "/mnt/disk/jenkins/ci/workspace/chipset_release_960_xloader/opensource/component_code/vendor/huawei/extra/build/build_script/kirin_kernel_release/kernel/include/linux/time64.h"
	.file 32 "/mnt/disk/jenkins/ci/workspace/chipset_release_960_xloader/opensource/component_code/vendor/huawei/extra/build/build_script/kirin_kernel_release/kernel/include/linux/ktime.h"
	.file 33 "/mnt/disk/jenkins/ci/workspace/chipset_release_960_xloader/opensource/component_code/vendor/huawei/extra/build/build_script/kirin_kernel_release/kernel/include/linux/rbtree.h"
	.file 34 "/mnt/disk/jenkins/ci/workspace/chipset_release_960_xloader/opensource/component_code/vendor/huawei/extra/build/build_script/kirin_kernel_release/kernel/include/linux/osq_lock.h"
	.file 35 "/mnt/disk/jenkins/ci/workspace/chipset_release_960_xloader/opensource/component_code/vendor/huawei/extra/build/build_script/kirin_kernel_release/kernel/include/linux/rwsem.h"
	.file 36 "/mnt/disk/jenkins/ci/workspace/chipset_release_960_xloader/opensource/component_code/vendor/huawei/extra/build/build_script/kirin_kernel_release/kernel/include/linux/sched.h"
	.file 37 "/mnt/disk/jenkins/ci/workspace/chipset_release_960_xloader/opensource/component_code/vendor/huawei/extra/build/build_script/kirin_kernel_release/kernel/include/linux/mm_types.h"
	.file 38 "/mnt/disk/jenkins/ci/workspace/chipset_release_960_xloader/opensource/component_code/vendor/huawei/extra/build/build_script/kirin_kernel_release/kernel/include/linux/lockdep.h"
	.file 39 "/mnt/disk/jenkins/ci/workspace/chipset_release_960_xloader/opensource/component_code/vendor/huawei/extra/build/build_script/kirin_kernel_release/kernel/include/linux/uprobes.h"
	.file 40 "/mnt/disk/jenkins/ci/workspace/chipset_release_960_xloader/opensource/component_code/vendor/huawei/extra/build/build_script/kirin_kernel_release/kernel/include/linux/timer.h"
	.file 41 "/mnt/disk/jenkins/ci/workspace/chipset_release_960_xloader/opensource/component_code/vendor/huawei/extra/build/build_script/kirin_kernel_release/kernel/include/linux/uidgid.h"
	.file 42 "/mnt/disk/jenkins/ci/workspace/chipset_release_960_xloader/opensource/component_code/vendor/huawei/extra/build/build_script/kirin_kernel_release/kernel/include/linux/sysctl.h"
	.file 43 "/mnt/disk/jenkins/ci/workspace/chipset_release_960_xloader/opensource/component_code/vendor/huawei/extra/build/build_script/kirin_kernel_release/kernel/include/linux/workqueue.h"
	.file 44 "/mnt/disk/jenkins/ci/workspace/chipset_release_960_xloader/opensource/component_code/vendor/huawei/extra/build/build_script/kirin_kernel_release/kernel/arch/arm64/include/asm/pgtable-types.h"
	.file 45 "/mnt/disk/jenkins/ci/workspace/chipset_release_960_xloader/opensource/component_code/vendor/huawei/extra/build/build_script/kirin_kernel_release/kernel/arch/arm64/include/asm/page.h"
	.file 46 "/mnt/disk/jenkins/ci/workspace/chipset_release_960_xloader/opensource/component_code/vendor/huawei/extra/build/build_script/kirin_kernel_release/kernel/include/linux/llist.h"
	.file 47 "/mnt/disk/jenkins/ci/workspace/chipset_release_960_xloader/opensource/component_code/vendor/huawei/extra/build/build_script/kirin_kernel_release/kernel/arch/arm64/include/asm/smp.h"
	.file 48 "/mnt/disk/jenkins/ci/workspace/chipset_release_960_xloader/opensource/component_code/vendor/huawei/extra/build/build_script/kirin_kernel_release/kernel/arch/arm64/include/asm/mmu.h"
	.file 49 "/mnt/disk/jenkins/ci/workspace/chipset_release_960_xloader/opensource/component_code/vendor/huawei/extra/build/build_script/kirin_kernel_release/kernel/include/linux/fs.h"
	.file 50 "/mnt/disk/jenkins/ci/workspace/chipset_release_960_xloader/opensource/component_code/vendor/huawei/extra/build/build_script/kirin_kernel_release/kernel/include/linux/mm.h"
	.file 51 "/mnt/disk/jenkins/ci/workspace/chipset_release_960_xloader/opensource/component_code/vendor/huawei/extra/build/build_script/kirin_kernel_release/kernel/include/linux/user_namespace.h"
	.file 52 "/mnt/disk/jenkins/ci/workspace/chipset_release_960_xloader/opensource/component_code/vendor/huawei/extra/build/build_script/kirin_kernel_release/kernel/include/linux/mmzone.h"
	.file 53 "/mnt/disk/jenkins/ci/workspace/chipset_release_960_xloader/opensource/component_code/vendor/huawei/extra/build/build_script/kirin_kernel_release/kernel/include/linux/mutex.h"
	.file 54 "/mnt/disk/jenkins/ci/workspace/chipset_release_960_xloader/opensource/component_code/vendor/huawei/extra/build/build_script/kirin_kernel_release/kernel/include/linux/percpu-refcount.h"
	.file 55 "/mnt/disk/jenkins/ci/workspace/chipset_release_960_xloader/opensource/component_code/vendor/huawei/extra/build/build_script/kirin_kernel_release/kernel/include/linux/shrinker.h"
	.file 56 "/mnt/disk/jenkins/ci/workspace/chipset_release_960_xloader/opensource/component_code/vendor/huawei/extra/build/build_script/kirin_kernel_release/kernel/include/uapi/linux/resource.h"
	.file 57 "/mnt/disk/jenkins/ci/workspace/chipset_release_960_xloader/opensource/component_code/vendor/huawei/extra/build/build_script/kirin_kernel_release/kernel/include/linux/tracepoint-defs.h"
	.file 58 "/mnt/disk/jenkins/ci/workspace/chipset_release_960_xloader/opensource/component_code/vendor/huawei/extra/build/build_script/kirin_kernel_release/kernel/include/linux/vmstat.h"
	.file 59 "/mnt/disk/jenkins/ci/workspace/chipset_release_960_xloader/opensource/component_code/vendor/huawei/extra/build/build_script/kirin_kernel_release/kernel/include/linux/capability.h"
	.file 60 "/mnt/disk/jenkins/ci/workspace/chipset_release_960_xloader/opensource/component_code/vendor/huawei/extra/build/build_script/kirin_kernel_release/kernel/include/linux/plist.h"
	.file 61 "/mnt/disk/jenkins/ci/workspace/chipset_release_960_xloader/opensource/component_code/vendor/huawei/extra/build/build_script/kirin_kernel_release/kernel/include/asm-generic/cputime_jiffies.h"
	.file 62 "/mnt/disk/jenkins/ci/workspace/chipset_release_960_xloader/opensource/component_code/vendor/huawei/extra/build/build_script/kirin_kernel_release/kernel/include/uapi/asm-generic/signal.h"
	.file 63 "/mnt/disk/jenkins/ci/workspace/chipset_release_960_xloader/opensource/component_code/vendor/huawei/extra/build/build_script/kirin_kernel_release/kernel/include/uapi/asm-generic/signal-defs.h"
	.file 64 "/mnt/disk/jenkins/ci/workspace/chipset_release_960_xloader/opensource/component_code/vendor/huawei/extra/build/build_script/kirin_kernel_release/kernel/include/uapi/asm-generic/siginfo.h"
	.file 65 "/mnt/disk/jenkins/ci/workspace/chipset_release_960_xloader/opensource/component_code/vendor/huawei/extra/build/build_script/kirin_kernel_release/kernel/include/linux/signal.h"
	.file 66 "/mnt/disk/jenkins/ci/workspace/chipset_release_960_xloader/opensource/component_code/vendor/huawei/extra/build/build_script/kirin_kernel_release/kernel/include/linux/pid.h"
	.file 67 "/mnt/disk/jenkins/ci/workspace/chipset_release_960_xloader/opensource/component_code/vendor/huawei/extra/build/build_script/kirin_kernel_release/kernel/include/linux/pid_namespace.h"
	.file 68 "/mnt/disk/jenkins/ci/workspace/chipset_release_960_xloader/opensource/component_code/vendor/huawei/extra/build/build_script/kirin_kernel_release/kernel/include/linux/seccomp.h"
	.file 69 "/mnt/disk/jenkins/ci/workspace/chipset_release_960_xloader/opensource/component_code/vendor/huawei/extra/build/build_script/kirin_kernel_release/kernel/include/linux/timerqueue.h"
	.file 70 "/mnt/disk/jenkins/ci/workspace/chipset_release_960_xloader/opensource/component_code/vendor/huawei/extra/build/build_script/kirin_kernel_release/kernel/include/linux/hrtimer.h"
	.file 71 "/mnt/disk/jenkins/ci/workspace/chipset_release_960_xloader/opensource/component_code/vendor/huawei/extra/build/build_script/kirin_kernel_release/kernel/include/linux/task_io_accounting.h"
	.file 72 "/mnt/disk/jenkins/ci/workspace/chipset_release_960_xloader/opensource/component_code/vendor/huawei/extra/build/build_script/kirin_kernel_release/kernel/include/linux/assoc_array.h"
	.file 73 "/mnt/disk/jenkins/ci/workspace/chipset_release_960_xloader/opensource/component_code/vendor/huawei/extra/build/build_script/kirin_kernel_release/kernel/include/linux/key.h"
	.file 74 "/mnt/disk/jenkins/ci/workspace/chipset_release_960_xloader/opensource/component_code/vendor/huawei/extra/build/build_script/kirin_kernel_release/kernel/include/linux/cred.h"
	.file 75 "/mnt/disk/jenkins/ci/workspace/chipset_release_960_xloader/opensource/component_code/vendor/huawei/extra/build/build_script/kirin_kernel_release/kernel/include/linux/idr.h"
	.file 76 "/mnt/disk/jenkins/ci/workspace/chipset_release_960_xloader/opensource/component_code/vendor/huawei/extra/build/build_script/kirin_kernel_release/kernel/include/linux/rcu_sync.h"
	.file 77 "/mnt/disk/jenkins/ci/workspace/chipset_release_960_xloader/opensource/component_code/vendor/huawei/extra/build/build_script/kirin_kernel_release/kernel/include/linux/percpu-rwsem.h"
	.file 78 "/mnt/disk/jenkins/ci/workspace/chipset_release_960_xloader/opensource/component_code/vendor/huawei/extra/build/build_script/kirin_kernel_release/kernel/include/linux/bpf-cgroup.h"
	.file 79 "/mnt/disk/jenkins/ci/workspace/chipset_release_960_xloader/opensource/component_code/vendor/huawei/extra/build/build_script/kirin_kernel_release/kernel/include/linux/cgroup-defs.h"
	.file 80 "/mnt/disk/jenkins/ci/workspace/chipset_release_960_xloader/opensource/component_code/vendor/huawei/extra/build/build_script/kirin_kernel_release/kernel/include/linux/kernfs.h"
	.file 81 "/mnt/disk/jenkins/ci/workspace/chipset_release_960_xloader/opensource/component_code/vendor/huawei/extra/build/build_script/kirin_kernel_release/kernel/include/linux/seq_file.h"
	.file 82 "/mnt/disk/jenkins/ci/workspace/chipset_release_960_xloader/opensource/component_code/vendor/huawei/extra/build/build_script/kirin_kernel_release/kernel/include/uapi/linux/taskstats.h"
	.file 83 "/mnt/disk/jenkins/ci/workspace/chipset_release_960_xloader/opensource/component_code/vendor/huawei/extra/build/build_script/kirin_kernel_release/kernel/include/linux/nsproxy.h"
	.file 84 "/mnt/disk/jenkins/ci/workspace/chipset_release_960_xloader/opensource/component_code/vendor/huawei/extra/build/build_script/kirin_kernel_release/kernel/include/linux/compat.h"
	.file 85 "/mnt/disk/jenkins/ci/workspace/chipset_release_960_xloader/opensource/component_code/vendor/huawei/extra/build/build_script/kirin_kernel_release/kernel/include/linux/stat.h"
	.file 86 "/mnt/disk/jenkins/ci/workspace/chipset_release_960_xloader/opensource/component_code/vendor/huawei/extra/build/build_script/kirin_kernel_release/kernel/include/uapi/linux/elf.h"
	.file 87 "/mnt/disk/jenkins/ci/workspace/chipset_release_960_xloader/opensource/component_code/vendor/huawei/extra/build/build_script/kirin_kernel_release/kernel/include/linux/kobject_ns.h"
	.file 88 "/mnt/disk/jenkins/ci/workspace/chipset_release_960_xloader/opensource/component_code/vendor/huawei/extra/build/build_script/kirin_kernel_release/kernel/include/linux/sysfs.h"
	.file 89 "/mnt/disk/jenkins/ci/workspace/chipset_release_960_xloader/opensource/component_code/vendor/huawei/extra/build/build_script/kirin_kernel_release/kernel/include/linux/kobject.h"
	.file 90 "/mnt/disk/jenkins/ci/workspace/chipset_release_960_xloader/opensource/component_code/vendor/huawei/extra/build/build_script/kirin_kernel_release/kernel/include/linux/kref.h"
	.file 91 "/mnt/disk/jenkins/ci/workspace/chipset_release_960_xloader/opensource/component_code/vendor/huawei/extra/build/build_script/kirin_kernel_release/kernel/include/linux/moduleparam.h"
	.file 92 "/mnt/disk/jenkins/ci/workspace/chipset_release_960_xloader/opensource/component_code/vendor/huawei/extra/build/build_script/kirin_kernel_release/kernel/include/linux/module.h"
	.file 93 "/mnt/disk/jenkins/ci/workspace/chipset_release_960_xloader/opensource/component_code/vendor/huawei/extra/build/build_script/kirin_kernel_release/kernel/include/linux/rbtree_latch.h"
	.file 94 "/mnt/disk/jenkins/ci/workspace/chipset_release_960_xloader/opensource/component_code/vendor/huawei/extra/build/build_script/kirin_kernel_release/kernel/arch/arm64/include/asm/module.h"
	.file 95 "/mnt/disk/jenkins/ci/workspace/chipset_release_960_xloader/opensource/component_code/vendor/huawei/extra/build/build_script/kirin_kernel_release/kernel/arch/arm64/include/asm/uaccess.h"
	.file 96 "/mnt/disk/jenkins/ci/workspace/chipset_release_960_xloader/opensource/component_code/vendor/huawei/extra/build/build_script/kirin_kernel_release/kernel/include/linux/trace_events.h"
	.file 97 "/mnt/disk/jenkins/ci/workspace/chipset_release_960_xloader/opensource/component_code/vendor/huawei/extra/build/build_script/kirin_kernel_release/kernel/include/linux/tracepoint.h"
	.file 98 "/mnt/disk/jenkins/ci/workspace/chipset_release_960_xloader/opensource/component_code/vendor/huawei/extra/build/build_script/kirin_kernel_release/kernel/include/linux/percpu_counter.h"
	.file 99 "/mnt/disk/jenkins/ci/workspace/chipset_release_960_xloader/opensource/component_code/vendor/huawei/extra/build/build_script/kirin_kernel_release/kernel/include/linux/quota.h"
	.file 100 "/mnt/disk/jenkins/ci/workspace/chipset_release_960_xloader/opensource/component_code/vendor/huawei/extra/build/build_script/kirin_kernel_release/kernel/include/linux/projid.h"
	.file 101 "/mnt/disk/jenkins/ci/workspace/chipset_release_960_xloader/opensource/component_code/vendor/huawei/extra/build/build_script/kirin_kernel_release/kernel/include/linux/path.h"
	.file 102 "/mnt/disk/jenkins/ci/workspace/chipset_release_960_xloader/opensource/component_code/vendor/huawei/extra/build/build_script/kirin_kernel_release/kernel/include/linux/list_bl.h"
	.file 103 "/mnt/disk/jenkins/ci/workspace/chipset_release_960_xloader/opensource/component_code/vendor/huawei/extra/build/build_script/kirin_kernel_release/kernel/include/linux/lockref.h"
	.file 104 "/mnt/disk/jenkins/ci/workspace/chipset_release_960_xloader/opensource/component_code/vendor/huawei/extra/build/build_script/kirin_kernel_release/kernel/include/linux/dcache.h"
	.file 105 "/mnt/disk/jenkins/ci/workspace/chipset_release_960_xloader/opensource/component_code/vendor/huawei/extra/build/build_script/kirin_kernel_release/kernel/include/linux/list_lru.h"
	.file 106 "/mnt/disk/jenkins/ci/workspace/chipset_release_960_xloader/opensource/component_code/vendor/huawei/extra/build/build_script/kirin_kernel_release/kernel/include/linux/radix-tree.h"
	.file 107 "/mnt/disk/jenkins/ci/workspace/chipset_release_960_xloader/opensource/component_code/vendor/huawei/extra/build/build_script/kirin_kernel_release/kernel/include/linux/semaphore.h"
	.file 108 "/mnt/disk/jenkins/ci/workspace/chipset_release_960_xloader/opensource/component_code/vendor/huawei/extra/build/build_script/kirin_kernel_release/kernel/include/uapi/linux/fiemap.h"
	.file 109 "/mnt/disk/jenkins/ci/workspace/chipset_release_960_xloader/opensource/component_code/vendor/huawei/extra/build/build_script/kirin_kernel_release/kernel/include/linux/migrate_mode.h"
	.file 110 "/mnt/disk/jenkins/ci/workspace/chipset_release_960_xloader/opensource/component_code/vendor/huawei/extra/build/build_script/kirin_kernel_release/kernel/include/linux/bvec.h"
	.file 111 "/mnt/disk/jenkins/ci/workspace/chipset_release_960_xloader/opensource/component_code/vendor/huawei/extra/build/build_script/kirin_kernel_release/kernel/include/linux/delayed_call.h"
	.file 112 "/mnt/disk/jenkins/ci/workspace/chipset_release_960_xloader/opensource/component_code/vendor/huawei/extra/build/build_script/kirin_kernel_release/kernel/include/linux/uio.h"
	.file 113 "/mnt/disk/jenkins/ci/workspace/chipset_release_960_xloader/opensource/component_code/vendor/huawei/extra/build/build_script/kirin_kernel_release/kernel/include/linux/nfs_fs_i.h"
	.file 114 "/mnt/disk/jenkins/ci/workspace/chipset_release_960_xloader/opensource/component_code/vendor/huawei/extra/build/build_script/kirin_kernel_release/kernel/include/linux/poll.h"
	.file 115 "/mnt/disk/jenkins/ci/workspace/chipset_release_960_xloader/opensource/component_code/vendor/huawei/extra/build/build_script/kirin_kernel_release/kernel/include/linux/seq_buf.h"
	.file 116 "/mnt/disk/jenkins/ci/workspace/chipset_release_960_xloader/opensource/component_code/vendor/huawei/extra/build/build_script/kirin_kernel_release/kernel/include/linux/trace_seq.h"
	.file 117 "/mnt/disk/jenkins/ci/workspace/chipset_release_960_xloader/opensource/component_code/vendor/huawei/extra/build/build_script/kirin_kernel_release/kernel/include/uapi/linux/perf_event.h"
	.file 118 "/mnt/disk/jenkins/ci/workspace/chipset_release_960_xloader/opensource/component_code/vendor/huawei/extra/build/build_script/kirin_kernel_release/kernel/include/asm-generic/local.h"
	.file 119 "/mnt/disk/jenkins/ci/workspace/chipset_release_960_xloader/opensource/component_code/vendor/huawei/extra/build/build_script/kirin_kernel_release/kernel/include/asm-generic/local64.h"
	.file 120 "/mnt/disk/jenkins/ci/workspace/chipset_release_960_xloader/opensource/component_code/vendor/huawei/extra/build/build_script/kirin_kernel_release/kernel/include/linux/cgroup.h"
	.file 121 "/mnt/disk/jenkins/ci/workspace/chipset_release_960_xloader/opensource/component_code/vendor/huawei/extra/build/build_script/kirin_kernel_release/kernel/include/linux/ns_common.h"
	.file 122 "/mnt/disk/jenkins/ci/workspace/chipset_release_960_xloader/opensource/component_code/vendor/huawei/extra/build/build_script/kirin_kernel_release/kernel/include/uapi/linux/uio.h"
	.file 123 "/mnt/disk/jenkins/ci/workspace/chipset_release_960_xloader/opensource/component_code/vendor/huawei/extra/build/build_script/kirin_kernel_release/kernel/include/linux/klist.h"
	.file 124 "/mnt/disk/jenkins/ci/workspace/chipset_release_960_xloader/opensource/component_code/vendor/huawei/extra/build/build_script/kirin_kernel_release/kernel/include/linux/pinctrl/devinfo.h"
	.file 125 "/mnt/disk/jenkins/ci/workspace/chipset_release_960_xloader/opensource/component_code/vendor/huawei/extra/build/build_script/kirin_kernel_release/kernel/include/linux/pm.h"
	.file 126 "/mnt/disk/jenkins/ci/workspace/chipset_release_960_xloader/opensource/component_code/vendor/huawei/extra/build/build_script/kirin_kernel_release/kernel/include/linux/device.h"
	.file 127 "/mnt/disk/jenkins/ci/workspace/chipset_release_960_xloader/opensource/component_code/vendor/huawei/extra/build/build_script/kirin_kernel_release/kernel/include/linux/pm_wakeup.h"
	.file 128 "/mnt/disk/jenkins/ci/workspace/chipset_release_960_xloader/opensource/component_code/vendor/huawei/extra/build/build_script/kirin_kernel_release/kernel/arch/arm64/include/asm/device.h"
	.file 129 "/mnt/disk/jenkins/ci/workspace/chipset_release_960_xloader/opensource/component_code/vendor/huawei/extra/build/build_script/kirin_kernel_release/kernel/include/linux/irq_work.h"
	.file 130 "/mnt/disk/jenkins/ci/workspace/chipset_release_960_xloader/opensource/component_code/vendor/huawei/extra/build/build_script/kirin_kernel_release/kernel/include/linux/perf_regs.h"
	.file 131 "/mnt/disk/jenkins/ci/workspace/chipset_release_960_xloader/opensource/component_code/vendor/huawei/extra/build/build_script/kirin_kernel_release/kernel/drivers/vcodec/hi_vcodec/vdec/vfmw/vfmw_v4.0/firmware/osal/linux_kernel/linux_kernel_osal.h"
	.file 132 "/mnt/disk/jenkins/ci/workspace/chipset_release_960_xloader/opensource/component_code/vendor/huawei/extra/build/build_script/kirin_kernel_release/kernel/drivers/vcodec/hi_vcodec/vdec/vfmw/vfmw_v4.0/firmware/common/public.h"
	.file 133 "/mnt/disk/jenkins/ci/workspace/chipset_release_960_xloader/opensource/component_code/vendor/huawei/extra/build/build_script/kirin_kernel_release/kernel/drivers/vcodec/hi_vcodec/vdec/vfmw/vfmw_v4.0/scene/tvp/normal/tvp_adapter.h"
	.file 134 "/mnt/disk/jenkins/ci/workspace/chipset_release_960_xloader/opensource/component_code/vendor/huawei/extra/build/build_script/kirin_kernel_release/kernel/drivers/hisi/tzdriver/teek_client_list.h"
	.file 135 "/mnt/disk/jenkins/ci/workspace/chipset_release_960_xloader/opensource/component_code/vendor/huawei/extra/build/build_script/kirin_kernel_release/kernel/drivers/hisi/tzdriver/teek_client_constants.h"
	.file 136 "/mnt/disk/jenkins/ci/workspace/chipset_release_960_xloader/opensource/component_code/vendor/huawei/extra/build/build_script/kirin_kernel_release/kernel/drivers/hisi/tzdriver/teek_client_type.h"
	.file 137 "/mnt/disk/jenkins/ci/workspace/chipset_release_960_xloader/opensource/component_code/vendor/huawei/extra/build/build_script/kirin_kernel_release/kernel/drivers/vcodec/hi_vcodec/vdec/vfmw/vfmw_v4.0/firmware/osal/linux_kernel/linux_kernel_proc.h"
	.file 138 "/mnt/disk/jenkins/ci/workspace/chipset_release_960_xloader/opensource/component_code/vendor/huawei/extra/build/build_script/kirin_kernel_release/kernel/arch/arm64/include/asm/cachetype.h"
	.file 139 "/mnt/disk/jenkins/ci/workspace/chipset_release_960_xloader/opensource/component_code/vendor/huawei/extra/build/build_script/kirin_kernel_release/kernel/include/linux/printk.h"
	.file 140 "/mnt/disk/jenkins/ci/workspace/chipset_release_960_xloader/opensource/component_code/vendor/huawei/extra/build/build_script/kirin_kernel_release/kernel/include/linux/kernel.h"
	.file 141 "/mnt/disk/jenkins/ci/workspace/chipset_release_960_xloader/opensource/component_code/vendor/huawei/extra/build/build_script/kirin_kernel_release/kernel/arch/arm64/include/asm/stack_pointer.h"
	.file 142 "/mnt/disk/jenkins/ci/workspace/chipset_release_960_xloader/opensource/component_code/vendor/huawei/extra/build/build_script/kirin_kernel_release/kernel/arch/arm64/include/asm/hwcap.h"
	.file 143 "/mnt/disk/jenkins/ci/workspace/chipset_release_960_xloader/opensource/component_code/vendor/huawei/extra/build/build_script/kirin_kernel_release/kernel/arch/arm64/include/asm/cpufeature.h"
	.file 144 "/mnt/disk/jenkins/ci/workspace/chipset_release_960_xloader/opensource/component_code/vendor/huawei/extra/build/build_script/kirin_kernel_release/kernel/arch/arm64/include/asm/virt.h"
	.file 145 "/mnt/disk/jenkins/ci/workspace/chipset_release_960_xloader/opensource/component_code/vendor/huawei/extra/build/build_script/kirin_kernel_release/kernel/include/linux/jiffies.h"
	.file 146 "/mnt/disk/jenkins/ci/workspace/chipset_release_960_xloader/opensource/component_code/vendor/huawei/extra/build/build_script/kirin_kernel_release/kernel/include/linux/highuid.h"
	.file 147 "/mnt/disk/jenkins/ci/workspace/chipset_release_960_xloader/opensource/component_code/vendor/huawei/extra/build/build_script/kirin_kernel_release/kernel/arch/arm64/include/asm/memory.h"
	.file 148 "/mnt/disk/jenkins/ci/workspace/chipset_release_960_xloader/opensource/component_code/vendor/huawei/extra/build/build_script/kirin_kernel_release/kernel/include/asm-generic/percpu.h"
	.file 149 "/mnt/disk/jenkins/ci/workspace/chipset_release_960_xloader/opensource/component_code/vendor/huawei/extra/build/build_script/kirin_kernel_release/kernel/include/linux/debug_locks.h"
	.file 150 "/mnt/disk/jenkins/ci/workspace/chipset_release_960_xloader/opensource/component_code/vendor/huawei/extra/build/build_script/kirin_kernel_release/kernel/include/asm-generic/pgtable.h"
	.file 151 "/mnt/disk/jenkins/ci/workspace/chipset_release_960_xloader/opensource/component_code/vendor/huawei/extra/build/build_script/kirin_kernel_release/kernel/arch/arm64/include/asm/irq.h"
	.file 152 "/mnt/disk/jenkins/ci/workspace/chipset_release_960_xloader/opensource/component_code/vendor/huawei/extra/build/build_script/kirin_kernel_release/kernel/arch/arm64/include/asm/hardirq.h"
	.file 153 "/mnt/disk/jenkins/ci/workspace/chipset_release_960_xloader/opensource/component_code/vendor/huawei/extra/build/build_script/kirin_kernel_release/kernel/include/linux/slab.h"
	.file 154 "/mnt/disk/jenkins/ci/workspace/chipset_release_960_xloader/opensource/component_code/vendor/huawei/extra/build/build_script/kirin_kernel_release/kernel/include/linux/interrupt.h"
	.file 155 "/mnt/disk/jenkins/ci/workspace/chipset_release_960_xloader/opensource/component_code/vendor/huawei/extra/build/build_script/kirin_kernel_release/kernel/drivers/hisi/tzdriver/teek_client_api.h"
	.file 156 "/mnt/disk/jenkins/ci/workspace/chipset_release_960_xloader/opensource/component_code/vendor/huawei/extra/build/build_script/kirin_kernel_release/kernel/include/linux/delay.h"
	.file 157 "/mnt/disk/jenkins/ci/workspace/chipset_release_960_xloader/opensource/component_code/vendor/huawei/extra/build/build_script/kirin_kernel_release/kernel/drivers/vcodec/hi_vcodec/vdec/vfmw/vfmw_v4.0/firmware/common/mem_manage.h"
	.file 158 "/mnt/disk/jenkins/ci/workspace/chipset_release_960_xloader/opensource/component_code/vendor/huawei/extra/build/build_script/kirin_kernel_release/kernel/arch/arm64/include/asm/string.h"
	.file 159 "/mnt/disk/jenkins/ci/workspace/chipset_release_960_xloader/opensource/component_code/vendor/huawei/extra/build/build_script/kirin_kernel_release/kernel/drivers/vcodec/hi_vcodec/vdec/vfmw/vfmw_v4.0/scene/kirin/vfmw_dts.h"
	.section	.note.GNU-stack,"",%progbits
