	.cpu generic+fp+simd
	.file	"vdm_hal.c"
	.text
.Ltext0:
	.cfi_sections	.debug_frame
	.align	2
	.global	VDMHAL_MaskInt
	.type	VDMHAL_MaskInt, %function
VDMHAL_MaskInt:
.LFB2641:
	.file 1 "/mnt/disk/jenkins/ci/workspace/chipset_release_960_xloader/opensource/component_code/vendor/huawei/extra/build/build_script/kirin_kernel_release/kernel/drivers/vcodec/hi_vcodec/vdec/vfmw/vfmw_v4.0/firmware/driver/HiVDHV400R004/vdm_hal.c"
	.loc 1 241 0
	.cfi_startproc
.LVL0:
	stp	x29, x30, [sp, -32]!
	.cfi_def_cfa_offset 32
	.cfi_offset 29, -32
	.cfi_offset 30, -24
	.loc 1 244 0
	cmp	w0, wzr
	.loc 1 241 0
	add	x29, sp, 0
	.cfi_def_cfa_register 29
	stp	x19, x20, [sp,16]
	.cfi_offset 19, -16
	.cfi_offset 20, -8
	.loc 1 244 0
	bgt	.L7
	.loc 1 250 0
	sxtw	x0, w0
	adrp	x20, g_HwMem
	lsl	x19, x0, 4
	add	x20, x20, :lo12:g_HwMem
	add	x19, x19, x0, lsl 2
	sub	x19, x19, x0
	lsl	x19, x19, 6
	ldr	x0, [x20,x19]
.LVL1:
	cbz	x0, .L8
.LVL2:
.L4:
	.loc 1 263 0 discriminator 1
	mov	w1, -1
	str	w1, [x0,36]
.LVL3:
.L1:
	.loc 1 266 0
	ldp	x19, x20, [sp,16]
	.cfi_remember_state
	.cfi_restore 20
	.cfi_restore 19
	ldp	x29, x30, [sp], 32
	.cfi_restore 30
	.cfi_restore 29
	.cfi_def_cfa 31, 0
	ret
.LVL4:
.L7:
	.cfi_restore_state
	.loc 1 246 0
	adrp	x1, .LC0
	adrp	x2, .LANCHOR0
	mov	w3, w0
	add	x1, x1, :lo12:.LC0
	add	x2, x2, :lo12:.LANCHOR0
	mov	w4, 0
	mov	w0, 0
.LVL5:
	bl	dprint_linux_kernel
.LVL6:
	.loc 1 266 0
	ldp	x19, x20, [sp,16]
	.cfi_remember_state
	.cfi_restore 19
	.cfi_restore 20
	ldp	x29, x30, [sp], 32
	.cfi_restore 29
	.cfi_restore 30
	.cfi_def_cfa 31, 0
	ret
.L8:
	.cfi_restore_state
	.loc 1 252 0
	adrp	x0, gVdhRegBaseAddr
	ldr	w0, [x0,#:lo12:gVdhRegBaseAddr]
	bl	MEM_Phy2Vir
.LVL7:
	cbz	x0, .L5
	.loc 1 254 0
	str	x0, [x20,x19]
	b	.L4
.L5:
	.loc 1 258 0
	adrp	x1, .LC1
	adrp	x2, .LANCHOR0
	add	x1, x1, :lo12:.LC1
	add	x2, x2, :lo12:.LANCHOR0
	mov	w3, 258
	mov	w0, 0
.LVL8:
	bl	dprint_linux_kernel
.LVL9:
	.loc 1 259 0
	b	.L1
	.cfi_endproc
.LFE2641:
	.size	VDMHAL_MaskInt, .-VDMHAL_MaskInt
	.align	2
	.global	VDMHAL_GetIntMaskCfg
	.type	VDMHAL_GetIntMaskCfg, %function
VDMHAL_GetIntMaskCfg:
.LFB2642:
	.loc 1 269 0
	.cfi_startproc
.LVL10:
	.loc 1 283 0
	cmp	w0, 1
	.loc 1 288 0
	mov	w1, -6
	mov	w0, -2
.LVL11:
	csel	w0, w1, w0, eq
	ret
	.cfi_endproc
.LFE2642:
	.size	VDMHAL_GetIntMaskCfg, .-VDMHAL_GetIntMaskCfg
	.align	2
	.global	VDMHAL_EnableInt
	.type	VDMHAL_EnableInt, %function
VDMHAL_EnableInt:
.LFB2643:
	.loc 1 291 0
	.cfi_startproc
.LVL12:
	stp	x29, x30, [sp, -32]!
	.cfi_def_cfa_offset 32
	.cfi_offset 29, -32
	.cfi_offset 30, -24
	add	x29, sp, 0
	.cfi_def_cfa_register 29
	str	x19, [sp,16]
	.cfi_offset 19, -16
	.loc 1 311 0
	cbnz	w0, .L19
	.loc 1 328 0
	adrp	x19, g_HwMem
	.loc 1 314 0
	adrp	x0, gVdhRegBaseAddr
.LVL13:
	.loc 1 328 0
	ldr	x1, [x19,#:lo12:g_HwMem]
	.loc 1 314 0
	ldr	w0, [x0,#:lo12:gVdhRegBaseAddr]
	.loc 1 328 0
	cbz	x1, .L21
.LVL14:
.L16:
	.loc 1 343 0 discriminator 1
	mov	w0, -2
.LVL15:
	str	w0, [x1,36]
.L12:
	.loc 1 346 0
	ldr	x19, [sp,16]
	.cfi_remember_state
	.cfi_restore 19
	ldp	x29, x30, [sp], 32
	.cfi_restore 30
	.cfi_restore 29
	.cfi_def_cfa 31, 0
	ret
.LVL16:
.L19:
	.cfi_restore_state
	.loc 1 318 0
	adrp	x1, .LC2
	mov	w0, 0
.LVL17:
	add	x1, x1, :lo12:.LC2
	bl	dprint_linux_kernel
.LVL18:
	.loc 1 346 0
	ldr	x19, [sp,16]
	.cfi_remember_state
	.cfi_restore 19
	ldp	x29, x30, [sp], 32
	.cfi_restore 29
	.cfi_restore 30
	.cfi_def_cfa 31, 0
	ret
.L21:
	.cfi_restore_state
	.loc 1 330 0
	bl	MEM_Phy2Vir
.LVL19:
	cbz	x0, .L18
	.loc 1 332 0
	str	x0, [x19,#:lo12:g_HwMem]
	mov	x1, x0
	b	.L16
.L18:
.LBB22:
.LBB23:
	.loc 1 336 0
	adrp	x1, .LC3
	mov	w0, 0
.LVL20:
	add	x1, x1, :lo12:.LC3
	bl	dprint_linux_kernel
.LVL21:
	b	.L12
.LBE23:
.LBE22:
	.cfi_endproc
.LFE2643:
	.size	VDMHAL_EnableInt, .-VDMHAL_EnableInt
	.align	2
	.global	VDMHAL_ReadMsgSlot
	.type	VDMHAL_ReadMsgSlot, %function
VDMHAL_ReadMsgSlot:
.LFB2644:
	.loc 1 349 0
	.cfi_startproc
.LVL22:
	stp	x29, x30, [sp, -16]!
	.cfi_def_cfa_offset 16
	.cfi_offset 29, -16
	.cfi_offset 30, -8
	mov	x5, x0
	mov	x3, x1
	add	x29, sp, 0
	.cfi_def_cfa_register 29
	.loc 1 349 0
	mov	w4, w2
	.loc 1 350 0
	cbz	x0, .L27
	cbz	x1, .L27
	.loc 1 356 0
	cmp	w2, 800
	bhi	.L28
.LVL23:
	.loc 1 362 0
	ubfiz	x2, x4, 2, 30
	bl	memcpy
.LVL24:
	.loc 1 364 0
	mov	w0, 0
.L25:
	.loc 1 365 0
	ldp	x29, x30, [sp], 16
	.cfi_remember_state
	.cfi_restore 30
	.cfi_restore 29
	.cfi_def_cfa 31, 0
	ret
.LVL25:
.L28:
	.cfi_restore_state
	.loc 1 358 0
	adrp	x1, .LC5
.LVL26:
	mov	w0, 0
.LVL27:
	add	x1, x1, :lo12:.LC5
	bl	dprint_linux_kernel
.LVL28:
	.loc 1 359 0
	mov	w0, -1
	b	.L25
.LVL29:
.L27:
.LBB26:
.LBB27:
	.loc 1 352 0
	adrp	x1, .LC4
.LVL30:
	mov	w0, 0
.LVL31:
	add	x1, x1, :lo12:.LC4
	mov	x2, x5
	bl	dprint_linux_kernel
.LVL32:
	mov	w0, -1
	b	.L25
.LBE27:
.LBE26:
	.cfi_endproc
.LFE2644:
	.size	VDMHAL_ReadMsgSlot, .-VDMHAL_ReadMsgSlot
	.align	2
	.global	VDMHAL_CfgRpMsg
	.type	VDMHAL_CfgRpMsg, %function
VDMHAL_CfgRpMsg:
.LFB2645:
	.loc 1 368 0
	.cfi_startproc
.LVL33:
	stp	x29, x30, [sp, -144]!
	.cfi_def_cfa_offset 144
	.cfi_offset 29, -144
	.cfi_offset 30, -136
	add	x29, sp, 0
	.cfi_def_cfa_register 29
	stp	x19, x20, [sp,16]
	stp	x27, x28, [sp,80]
	stp	x21, x22, [sp,32]
	stp	x23, x24, [sp,48]
	stp	x25, x26, [sp,64]
	.cfi_offset 19, -128
	.cfi_offset 20, -120
	.cfi_offset 27, -64
	.cfi_offset 28, -56
	.cfi_offset 21, -112
	.cfi_offset 22, -104
	.cfi_offset 23, -96
	.cfi_offset 24, -88
	.cfi_offset 25, -80
	.cfi_offset 26, -72
	.loc 1 368 0
	mov	x28, x0
	.loc 1 381 0
	ldr	w0, [x1,44]
.LVL34:
	.loc 1 368 0
	adrp	x1, __stack_chk_guard
.LVL35:
	ldr	x1, [x1,#:lo12:__stack_chk_guard]
	str	x1, [x29,136]
	.loc 1 381 0
	bl	MEM_Phy2Vir
.LVL36:
	mov	x19, x0
.LVL37:
	.loc 1 382 0
	cbz	x0, .L60
	.loc 1 384 0
	ldr	w2, [x28,840]
	sub	w0, w2, #1
	cmp	w0, 199
	bhi	.L61
	.loc 1 390 0
	ldr	w21, [x28,864]
	.loc 1 406 0
	adrp	x1, .LC9
	.loc 1 391 0
	ldr	w20, [x28,28]
	.loc 1 406 0
	add	x1, x1, :lo12:.LC9
	.loc 1 390 0
	ldr	w2, [x28,24]
	.loc 1 406 0
	mov	w0, 3
	.loc 1 391 0
	lsl	w20, w20, w21
.LVL38:
	.loc 1 404 0
	ldr	w3, [x28,16]
	.loc 1 393 0
	add	w20, w20, 15
.LVL39:
	.loc 1 390 0
	lsl	w21, w2, w21
.LVL40:
	.loc 1 393 0
	asr	w20, w20, 4
.LVL41:
	.loc 1 406 0
	mov	w2, w3
	.loc 1 394 0
	add	w20, w20, 1
.LVL42:
	.loc 1 405 0
	str	w3, [x19]
	.loc 1 396 0
	add	w21, w21, 127
.LVL43:
	.loc 1 394 0
	add	w20, w20, w20, lsr 31
	.loc 1 396 0
	and	w21, w21, -128
.LVL44:
	.loc 1 394 0
	asr	w20, w20, 1
	.loc 1 406 0
	bl	dprint_linux_kernel
.LVL45:
	.loc 1 394 0
	lsl	w20, w20, 5
.LVL46:
	.loc 1 409 0
	ldr	w3, [x28,16]
	.loc 1 411 0
	adrp	x1, .LC10
	mov	w0, 3
	.loc 1 400 0
	mul	w20, w21, w20
.LVL47:
	.loc 1 411 0
	add	x1, x1, :lo12:.LC10
	.loc 1 409 0
	add	w3, w20, w3
	.loc 1 410 0
	str	w3, [x19,4]
	.loc 1 411 0
	mov	w2, w3
	bl	dprint_linux_kernel
.LVL48:
	.loc 1 414 0
	ldr	w2, [x28,4]
	.loc 1 416 0
	adrp	x1, .LC11
	.loc 1 415 0
	str	w2, [x19,8]
	.loc 1 416 0
	add	x1, x1, :lo12:.LC11
	mov	w0, 3
	bl	dprint_linux_kernel
.LVL49:
	.loc 1 419 0
	ldr	w1, [x28,4]
	.loc 1 421 0
	mov	w0, 3
	.loc 1 419 0
	add	w20, w20, w1
.LVL50:
	.loc 1 421 0
	adrp	x1, .LC12
	add	x1, x1, :lo12:.LC12
	mov	w2, w20
	.loc 1 420 0
	str	w20, [x19,12]
	.loc 1 421 0
	bl	dprint_linux_kernel
.LVL51:
	.loc 1 425 0
	str	w21, [x19,16]
	.loc 1 426 0
	adrp	x1, .LC13
	mov	w2, w21
	add	x1, x1, :lo12:.LC13
	mov	w0, 3
	bl	dprint_linux_kernel
.LVL52:
	.loc 1 430 0
	str	wzr, [x19,20]
	.loc 1 431 0
	adrp	x1, .LC14
	mov	w2, 0
	add	x1, x1, :lo12:.LC14
	mov	w0, 3
	.loc 1 428 0
	str	wzr, [x29,132]
.LVL53:
	.loc 1 431 0
	bl	dprint_linux_kernel
.LVL54:
	.loc 1 434 0
	ldr	w1, [x28,24]
	.loc 1 435 0
	ldr	w0, [x28,28]
	.loc 1 434 0
	ldrh	w3, [x29,132]
	sub	w1, w1, #1
	.loc 1 435 0
	ldrh	w2, [x29,134]
	sub	w0, w0, #1
	.loc 1 434 0
	bfi	w3, w1, 0, 9
	strh	w3, [x29,132]
	.loc 1 435 0
	bfi	w2, w0, 0, 9
	strh	w2, [x29,134]
	.loc 1 437 0
	adrp	x1, .LC15
	mov	w0, 3
	.loc 1 436 0
	ldr	w2, [x29,132]
	.loc 1 437 0
	add	x1, x1, :lo12:.LC15
	.loc 1 436 0
	str	w2, [x19,24]
	.loc 1 437 0
	ldr	w2, [x28,24]
	sub	w2, w2, #1
	bl	dprint_linux_kernel
.LVL55:
	.loc 1 438 0
	ldr	w2, [x28,28]
	adrp	x1, .LC16
	mov	w0, 3
	add	x1, x1, :lo12:.LC16
	sub	w2, w2, #1
	bl	dprint_linux_kernel
.LVL56:
	.loc 1 440 0
	ldr	w25, [x28,24]
	.loc 1 441 0
	ldr	w0, [x28,852]
	sub	w0, w0, #1
	cmp	w0, 1
	.loc 1 441 0 is_stmt 0 discriminator 1
	ldr	w0, [x28,28]
	.loc 1 441 0
	bls	.L62
.LVL57:
	.loc 1 441 0 discriminator 2
	str	w0, [x29,120]
.L34:
	.loc 1 446 0 is_stmt 1
	ldr	w3, [x28,864]
	cmp	w3, 6
	beq	.L49
	.loc 1 450 0
	cmp	w3, 5
	beq	.L50
	.loc 1 454 0
	cmp	w3, 4
	.loc 1 456 0
	mov	w27, 8
.LVL58:
	.loc 1 454 0
	beq	.L35
	.loc 1 461 0
	adrp	x2, .LANCHOR0
	adrp	x1, .LC17
	add	x2, x2, :lo12:.LANCHOR0
	mov	w0, 1
.LVL59:
	add	x1, x1, :lo12:.LC17
	add	x2, x2, 16
	.loc 1 460 0
	mov	w27, w0
	.loc 1 461 0
	bl	dprint_linux_kernel
.LVL60:
.L35:
	.loc 1 464 0
	ldr	w0, [x28,856]
.LVL61:
	cbnz	w0, .L52
.L65:
	.loc 1 466 0 discriminator 1
	ldr	w7, [x28,840]
	cmp	w7, wzr
	ble	.L53
	.loc 1 499 0
	ldr	w0, [x29,120]
	.loc 1 522 0
	adrp	x22, .LC18
	.loc 1 523 0
	adrp	x21, .LC19
.LVL62:
	.loc 1 529 0
	adrp	x20, .LC20
	.loc 1 501 0
	mov	x9, 0
	mov	w26, 0
.LVL63:
	.loc 1 499 0
	mul	w23, w0, w25
	.loc 1 501 0
	sub	w0, w23, #1
.LVL64:
	str	w0, [x29,124]
	.loc 1 522 0
	add	x0, x22, :lo12:.LC18
	str	x0, [x29,112]
	.loc 1 523 0
	add	x0, x21, :lo12:.LC19
	str	x0, [x29,104]
	.loc 1 529 0
	add	x0, x20, :lo12:.LC20
	str	x0, [x29,96]
.L46:
	sxtw	x3, w26
	add	x0, x28, x3, lsl 2
	.loc 1 470 0
	ldrsh	w2, [x0,42]
	.loc 1 469 0
	ldrsh	w8, [x0,40]
	sub	w2, w2, #1
	.loc 1 470 0
	add	w2, w2, w27
	udiv	w2, w2, w27
	mul	w2, w2, w27
	.loc 1 472 0
	cbz	w26, .L38
	.loc 1 475 0
	ldrsh	w0, [x0,38]
	sub	w0, w0, #1
	add	w0, w0, w27
	udiv	w0, w0, w27
	mul	w0, w0, w27
	.loc 1 478 0
	cmp	w2, w0
	ble	.L39
	add	w1, w26, 1
.LVL65:
	sxtw	x6, w1
	add	x6, x6, 10
	add	x6, x28, x6, lsl 2
	b	.L40
.L41:
	.loc 1 489 0 discriminator 1
	ldrsh	w2, [x3,42]
	ldrsh	w0, [x6]
	sub	w2, w2, #1
	add	w2, w2, w27
	udiv	w0, w0, w27
	udiv	w2, w2, w27
	mul	w0, w0, w27
	mul	w2, w2, w27
	cmp	w2, w0
	bhi	.L42
	.loc 1 490 0
	add	w0, w0, 1
	cmp	w2, w0
	beq	.L42
	sub	w0, w26, #1
	.loc 1 491 0
	add	x0, x28, x0, sxtw 2
	ldrsh	w0, [x0,42]
	sub	w0, w0, #1
	add	w0, w0, w27
	udiv	w0, w0, w27
	mul	w0, w0, w27
	cmp	w2, w0
	bhi	.L38
.L42:
	mov	w26, w1
	sxtw	x3, w1
	add	x6, x6, 4
	add	w1, w1, 1
.L40:
	.loc 1 489 0
	cmp	w1, w7
	.loc 1 489 0 is_stmt 0 discriminator 1
	add	x3, x28, x3, lsl 2
	.loc 1 489 0
	blt	.L41
	ldrsh	w2, [x3,42]
	sub	w2, w2, #1
	add	w2, w2, w27
	udiv	w2, w2, w27
	mul	w2, w2, w27
.LVL66:
.L38:
	.loc 1 469 0 is_stmt 1
	udiv	w8, w8, w27
	.loc 1 501 0
	ldr	w0, [x29,124]
	cmp	w23, w2
	.loc 1 509 0
	add	w20, w9, 1
	.loc 1 501 0
	csel	w22, w2, w0, hi
	.loc 1 469 0
	mul	w8, w8, w27
	cmp	w22, w8
	csel	w2, w22, w8, le
	.loc 1 512 0
	cmp	w20, 252
	bgt	.L63
	.loc 1 519 0
	udiv	w21, w2, w25
	.loc 1 521 0
	add	x9, x9, 4
	.loc 1 519 0
	mov	w7, 0
	.loc 1 520 0
	mov	w0, 0
	.loc 1 521 0
	lsl	x24, x9, 3
	.loc 1 520 0
	bfi	w0, w21, 0, 9
	strh	w0, [x29,134]
	.loc 1 522 0
	mov	w0, 3
	ldr	x1, [x29,112]
.LVL67:
	.loc 1 519 0
	msub	w2, w21, w25, w2
	bfi	w7, w2, 0, 9
	strh	w7, [x29,132]
	.loc 1 521 0
	ldr	w7, [x29,132]
	str	w7, [x19,x24]
	.loc 1 522 0
	bl	dprint_linux_kernel
.LVL68:
	.loc 1 523 0
	ldr	x1, [x29,104]
	mov	w2, w21
	mov	w0, 3
	bl	dprint_linux_kernel
.LVL69:
	.loc 1 526 0
	udiv	w21, w22, w25
	mov	w7, 0
	.loc 1 527 0
	mov	w0, 0
	.loc 1 528 0
	add	x9, x24, 4
	.loc 1 527 0
	bfi	w0, w21, 0, 9
	strh	w0, [x29,134]
	.loc 1 529 0
	ldr	x1, [x29,96]
	mov	w0, 3
	.loc 1 526 0
	msub	w2, w21, w25, w22
	bfi	w7, w2, 0, 9
	strh	w7, [x29,132]
	.loc 1 528 0
	ldr	w3, [x29,132]
	str	w3, [x19,x9]
	.loc 1 529 0
	bl	dprint_linux_kernel
.LVL70:
	.loc 1 530 0
	adrp	x1, .LC21
	mov	w0, 3
	add	x1, x1, :lo12:.LC21
	mov	w2, w21
	bl	dprint_linux_kernel
.LVL71:
	ldr	w7, [x28,840]
	sxtw	x9, w20
.LVL72:
.L39:
	.loc 1 466 0 discriminator 2
	add	w26, w26, 1
	.loc 1 466 0 is_stmt 0 discriminator 1
	cmp	w7, w26
	bgt	.L46
	ldr	w0, [x28,856]
	b	.L36
.LVL73:
.L52:
	.loc 1 376 0 is_stmt 1
	mov	w9, 0
.L36:
	.loc 1 534 0
	cmp	w0, 1
	beq	.L45
.L37:
	sub	w9, w9, #1
	mov	w2, w9
	uxth	w9, w9
.L47:
	.loc 1 555 0
	ldr	w4, [x28,848]
	.loc 1 560 0
	adrp	x1, .LC22
.LVL74:
	.loc 1 555 0
	ldrb	w0, [x29,134]
	.loc 1 560 0
	add	x1, x1, :lo12:.LC22
	.loc 1 556 0
	ldr	w3, [x28,852]
	.loc 1 555 0
	bfi	w0, w4, 0, 1
	.loc 1 558 0
	ldr	w4, [x28,864]
	.loc 1 556 0
	and	w3, w3, 3
	.loc 1 558 0
	ldrb	w5, [x29,135]
	sub	w4, w4, #4
	.loc 1 556 0
	bfi	w0, w3, 4, 2
	.loc 1 554 0
	strh	w9, [x29,132]
	.loc 1 558 0
	bfi	w5, w4, 0, 2
	.loc 1 557 0
	bfi	w0, w3, 6, 2
	.loc 1 558 0
	strb	w5, [x29,135]
	.loc 1 557 0
	strb	w0, [x29,134]
	.loc 1 560 0
	mov	w0, 3
	.loc 1 559 0
	ldr	w3, [x29,132]
	str	w3, [x19,28]
	.loc 1 560 0
	bl	dprint_linux_kernel
.LVL75:
	.loc 1 561 0
	ldr	w2, [x28,848]
	adrp	x1, .LC23
	add	x1, x1, :lo12:.LC23
	mov	w0, 3
	bl	dprint_linux_kernel
.LVL76:
	.loc 1 562 0
	ldr	w2, [x28,852]
	adrp	x1, .LC24
	add	x1, x1, :lo12:.LC24
	mov	w0, 3
	bl	dprint_linux_kernel
.LVL77:
	.loc 1 563 0
	ldr	w2, [x28,852]
	adrp	x1, .LC25
	add	x1, x1, :lo12:.LC25
	mov	w0, 3
	bl	dprint_linux_kernel
.LVL78:
	.loc 1 564 0
	ldr	w2, [x28,864]
	adrp	x1, .LC26
	mov	w0, 3
	add	x1, x1, :lo12:.LC26
	sub	w2, w2, #4
	bl	dprint_linux_kernel
.LVL79:
	.loc 1 566 0
	mov	w0, 0
.L31:
	.loc 1 567 0
	adrp	x1, __stack_chk_guard
	ldr	x2, [x29,136]
	ldr	x1, [x1,#:lo12:__stack_chk_guard]
	cmp	x2, x1
	bne	.L64
	ldp	x19, x20, [sp,16]
	.cfi_remember_state
	.cfi_restore 20
	.cfi_restore 19
.LVL80:
	ldp	x21, x22, [sp,32]
	.cfi_restore 22
	.cfi_restore 21
.LVL81:
	ldp	x23, x24, [sp,48]
	.cfi_restore 24
	.cfi_restore 23
	ldp	x25, x26, [sp,64]
	.cfi_restore 26
	.cfi_restore 25
	ldp	x27, x28, [sp,80]
	.cfi_restore 28
	.cfi_restore 27
.LVL82:
	ldp	x29, x30, [sp], 144
	.cfi_restore 30
	.cfi_restore 29
	.cfi_def_cfa 31, 0
	ret
.LVL83:
.L49:
	.cfi_restore_state
	.loc 1 464 0
	ldr	w0, [x28,856]
.LVL84:
	.loc 1 448 0
	mov	w27, 2
.LVL85:
	.loc 1 464 0
	cbnz	w0, .L52
	b	.L65
.LVL86:
.L62:
	.loc 1 441 0 discriminator 1
	add	w0, w0, w0, lsr 31
	asr	w1, w0, 1
.LVL87:
	str	w1, [x29,120]
	b	.L34
.LVL88:
.L50:
	.loc 1 464 0
	ldr	w0, [x28,856]
.LVL89:
	.loc 1 452 0
	mov	w27, 4
.LVL90:
	.loc 1 464 0
	cbnz	w0, .L52
	b	.L65
.LVL91:
.L63:
	.loc 1 514 0
	mov	w0, 1
	str	w0, [x28,856]
.LVL92:
.L45:
	.loc 1 540 0
	strh	wzr, [x29,132]
	.loc 1 536 0
	mov	w0, 1
	.loc 1 541 0
	strh	wzr, [x29,134]
	.loc 1 543 0
	adrp	x1, .LC18
.LVL93:
	.loc 1 548 0
	ldr	w3, [x29,120]
	.loc 1 543 0
	add	x1, x1, :lo12:.LC18
	.loc 1 536 0
	str	w0, [x28,840]
	.loc 1 543 0
	mov	w2, 0
	.loc 1 542 0
	ldr	w0, [x29,132]
.LVL94:
	.loc 1 548 0
	sub	w20, w3, #1
	.loc 1 542 0
	str	w0, [x19,32]
	.loc 1 543 0
	mov	w0, 3
	bl	dprint_linux_kernel
.LVL95:
	.loc 1 544 0
	adrp	x1, .LC19
	mov	w2, 0
	add	x1, x1, :lo12:.LC19
	mov	w0, 3
	bl	dprint_linux_kernel
.LVL96:
	.loc 1 547 0
	sub	w2, w25, #1
	mov	w1, 0
	.loc 1 548 0
	mov	w0, 0
	.loc 1 547 0
	bfi	w1, w2, 0, 9
	.loc 1 548 0
	bfi	w0, w20, 0, 9
	.loc 1 547 0
	strh	w1, [x29,132]
	.loc 1 548 0
	strh	w0, [x29,134]
	.loc 1 550 0
	adrp	x1, .LC20
	add	x1, x1, :lo12:.LC20
	mov	w0, 3
	.loc 1 549 0
	ldr	w3, [x29,132]
	str	w3, [x19,36]
	.loc 1 550 0
	bl	dprint_linux_kernel
.LVL97:
	.loc 1 551 0
	adrp	x1, .LC21
	mov	w2, w20
	mov	w0, 3
	add	x1, x1, :lo12:.LC21
	bl	dprint_linux_kernel
.LVL98:
	mov	w2, 0
	mov	w9, 0
	b	.L47
.LVL99:
.L61:
	.loc 1 386 0
	adrp	x1, .LC8
	mov	w0, 0
	add	x1, x1, :lo12:.LC8
	bl	dprint_linux_kernel
.LVL100:
	.loc 1 387 0
	mov	w0, -1
	b	.L31
.LVL101:
.L53:
	.loc 1 466 0 discriminator 1
	mov	w9, 0
	b	.L37
.LVL102:
.L60:
	.loc 1 382 0 discriminator 1
	adrp	x2, .LANCHOR0
	adrp	x1, .LC6
	add	x2, x2, :lo12:.LANCHOR0
	adrp	x4, .LC7
	mov	w0, 0
.LVL103:
	add	x1, x1, :lo12:.LC6
	add	x2, x2, 16
	mov	w3, 382
	add	x4, x4, :lo12:.LC7
	bl	dprint_linux_kernel
.LVL104:
	mov	w0, -1
	.loc 1 382 0 is_stmt 0
	b	.L31
.LVL105:
.L64:
	.loc 1 567 0 is_stmt 1
	bl	__stack_chk_fail
.LVL106:
	.cfi_endproc
.LFE2645:
	.size	VDMHAL_CfgRpMsg, .-VDMHAL_CfgRpMsg
	.align	2
	.global	VDMHAL_ReduceCoreFrequency
	.type	VDMHAL_ReduceCoreFrequency, %function
VDMHAL_ReduceCoreFrequency:
.LFB2646:
	.loc 1 570 0
	.cfi_startproc
	.loc 1 574 0
	adrp	x1, g_HwMem+8
	mov	w4, 31
	.loc 1 570 0
	stp	x29, x30, [sp, -32]!
	.cfi_def_cfa_offset 32
	.cfi_offset 29, -32
	.cfi_offset 30, -24
	.loc 1 585 0
	mov	x0, 1
	.loc 1 570 0
	add	x29, sp, 0
	.cfi_def_cfa_register 29
	.loc 1 574 0
	ldr	x2, [x1,#:lo12:g_HwMem+8]
	.loc 1 585 0
	adrp	x1, g_vfmw_osal_fun_ptr+80
	.loc 1 570 0
	str	x19, [sp,16]
	.cfi_offset 19, -16
	.loc 1 574 0
	ldr	w19, [x2,204]
	.loc 1 585 0
	ldr	x3, [x1,#:lo12:g_vfmw_osal_fun_ptr+80]
	.loc 1 575 0
	and	w19, w19, 31
.LVL107:
	.loc 1 577 0
	lsl	w1, w19, 1
	add	w1, w1, 1
	cmp	w1, 31
	csel	w1, w1, w4, ls
	.loc 1 584 0
	orr	w1, w1, 2031616
	str	w1, [x2,204]
	.loc 1 585 0
	blr	x3
.LVL108:
	.loc 1 588 0
	mov	w0, w19
	ldr	x19, [sp,16]
	.cfi_restore 19
.LVL109:
	ldp	x29, x30, [sp], 32
	.cfi_restore 30
	.cfi_restore 29
	.cfi_def_cfa 31, 0
	ret
	.cfi_endproc
.LFE2646:
	.size	VDMHAL_ReduceCoreFrequency, .-VDMHAL_ReduceCoreFrequency
	.align	2
	.global	VDMHAL_RestoreCoreFrequency
	.type	VDMHAL_RestoreCoreFrequency, %function
VDMHAL_RestoreCoreFrequency:
.LFB2647:
	.loc 1 591 0
	.cfi_startproc
.LVL110:
	.loc 1 592 0
	adrp	x1, g_HwMem+8
	orr	w3, w0, 2031616
	.loc 1 591 0
	stp	x29, x30, [sp, -16]!
	.cfi_def_cfa_offset 16
	.cfi_offset 29, -16
	.cfi_offset 30, -8
	.loc 1 593 0
	mov	x0, 1
.LVL111:
	.loc 1 591 0
	add	x29, sp, 0
	.cfi_def_cfa_register 29
	.loc 1 592 0
	ldr	x2, [x1,#:lo12:g_HwMem+8]
	.loc 1 593 0
	adrp	x1, g_vfmw_osal_fun_ptr+80
	ldr	x1, [x1,#:lo12:g_vfmw_osal_fun_ptr+80]
	.loc 1 592 0
	str	w3, [x2,204]
	.loc 1 593 0
	blr	x1
.LVL112:
	.loc 1 596 0
	ldp	x29, x30, [sp], 16
	.cfi_restore 30
	.cfi_restore 29
	.cfi_def_cfa 31, 0
	ret
	.cfi_endproc
.LFE2647:
	.size	VDMHAL_RestoreCoreFrequency, .-VDMHAL_RestoreCoreFrequency
	.align	2
	.global	VDMHAL_ReduceAXIFrequency
	.type	VDMHAL_ReduceAXIFrequency, %function
VDMHAL_ReduceAXIFrequency:
.LFB2648:
	.loc 1 599 0
	.cfi_startproc
	.loc 1 603 0
	adrp	x1, g_HwMem+8
	mov	w4, 31
	.loc 1 599 0
	stp	x29, x30, [sp, -32]!
	.cfi_def_cfa_offset 32
	.cfi_offset 29, -32
	.cfi_offset 30, -24
	.loc 1 613 0
	mov	x0, 1
	.loc 1 599 0
	add	x29, sp, 0
	.cfi_def_cfa_register 29
	.loc 1 603 0
	ldr	x2, [x1,#:lo12:g_HwMem+8]
	.loc 1 613 0
	adrp	x1, g_vfmw_osal_fun_ptr+80
	.loc 1 599 0
	str	x19, [sp,16]
	.cfi_offset 19, -16
	.loc 1 603 0
	ldr	w19, [x2,208]
	.loc 1 613 0
	ldr	x3, [x1,#:lo12:g_vfmw_osal_fun_ptr+80]
	.loc 1 604 0
	and	w19, w19, 31
.LVL113:
	.loc 1 606 0
	lsl	w1, w19, 1
	add	w1, w1, 1
	cmp	w1, 31
	csel	w1, w1, w4, ls
	.loc 1 612 0
	orr	w1, w1, 2031616
	str	w1, [x2,208]
	.loc 1 613 0
	blr	x3
.LVL114:
	.loc 1 616 0
	mov	w0, w19
	ldr	x19, [sp,16]
	.cfi_restore 19
.LVL115:
	ldp	x29, x30, [sp], 32
	.cfi_restore 30
	.cfi_restore 29
	.cfi_def_cfa 31, 0
	ret
	.cfi_endproc
.LFE2648:
	.size	VDMHAL_ReduceAXIFrequency, .-VDMHAL_ReduceAXIFrequency
	.align	2
	.global	VDMHAL_RestoreAXIFrequency
	.type	VDMHAL_RestoreAXIFrequency, %function
VDMHAL_RestoreAXIFrequency:
.LFB2649:
	.loc 1 619 0
	.cfi_startproc
.LVL116:
	.loc 1 620 0
	adrp	x1, g_HwMem+8
	orr	w3, w0, 2031616
	.loc 1 619 0
	stp	x29, x30, [sp, -16]!
	.cfi_def_cfa_offset 16
	.cfi_offset 29, -16
	.cfi_offset 30, -8
	.loc 1 621 0
	mov	x0, 1
.LVL117:
	.loc 1 619 0
	add	x29, sp, 0
	.cfi_def_cfa_register 29
	.loc 1 620 0
	ldr	x2, [x1,#:lo12:g_HwMem+8]
	.loc 1 621 0
	adrp	x1, g_vfmw_osal_fun_ptr+80
	ldr	x1, [x1,#:lo12:g_vfmw_osal_fun_ptr+80]
	.loc 1 620 0
	str	w3, [x2,208]
	.loc 1 621 0
	blr	x1
.LVL118:
	.loc 1 624 0
	ldp	x29, x30, [sp], 16
	.cfi_restore 30
	.cfi_restore 29
	.cfi_def_cfa 31, 0
	ret
	.cfi_endproc
.LFE2649:
	.size	VDMHAL_RestoreAXIFrequency, .-VDMHAL_RestoreAXIFrequency
	.align	2
	.global	VDMHAL_CfgRpReg
	.type	VDMHAL_CfgRpReg, %function
VDMHAL_CfgRpReg:
.LFB2650:
	.loc 1 627 0
	.cfi_startproc
.LVL119:
	stp	x29, x30, [sp, -48]!
	.cfi_def_cfa_offset 48
	.cfi_offset 29, -48
	.cfi_offset 30, -40
	.loc 1 631 0
	cmp	w3, wzr
	.loc 1 627 0
	add	x29, sp, 0
	.cfi_def_cfa_register 29
	str	x19, [sp,16]
	.cfi_offset 19, -32
	.loc 1 627 0
	mov	w19, w3
	.loc 1 631 0
	bgt	.L75
	.loc 1 637 0
	ldr	x0, [x1]
.LVL120:
	cbz	x0, .L76
.LVL121:
.L73:
	.loc 1 652 0 discriminator 1
	sxtw	x3, w19
	.loc 1 651 0
	ldr	w4, [x1,44]
	.loc 1 652 0 discriminator 1
	lsl	x0, x3, 4
.LVL122:
	adrp	x2, g_HwMem
.LVL123:
	add	x0, x0, x3, lsl 2
	add	x2, x2, :lo12:g_HwMem
	sub	x1, x0, x3
.LVL124:
	.loc 1 651 0
	and	w4, w4, -16
	.loc 1 652 0 discriminator 1
	lsl	x1, x1, 6
	.loc 1 655 0 discriminator 1
	mov	w10, 49667
	movk	w10, 0x2000, lsl 16
	.loc 1 658 0 discriminator 1
	mov	w9, 3075
	movk	w9, 0x30, lsl 16
	.loc 1 659 0 discriminator 1
	mov	w8, 3075
	.loc 1 652 0 discriminator 1
	ldr	x0, [x2,x1]
	.loc 1 659 0 discriminator 1
	movk	w8, 0x30, lsl 16
	.loc 1 660 0 discriminator 1
	mov	w7, 3075
	.loc 1 662 0 discriminator 1
	mov	w5, 3075
	.loc 1 661 0 discriminator 1
	mov	w6, w7
	.loc 1 660 0 discriminator 1
	movk	w7, 0x30, lsl 16
	.loc 1 652 0 discriminator 1
	str	w4, [x0,16]
	.loc 1 661 0 discriminator 1
	movk	w6, 0x30, lsl 16
	.loc 1 662 0 discriminator 1
	movk	w5, 0x30, lsl 16
	.loc 1 663 0 discriminator 1
	mov	w4, 3075
	.loc 1 655 0 discriminator 1
	ldr	x11, [x2,x1]
	.loc 1 663 0 discriminator 1
	movk	w4, 0x30, lsl 16
	.loc 1 664 0 discriminator 1
	mov	w3, 3075
.LVL125:
	.loc 1 666 0
	mov	w0, 0
	.loc 1 664 0 discriminator 1
	movk	w3, 0x30, lsl 16
	.loc 1 655 0 discriminator 1
	str	w10, [x11,12]
	.loc 1 658 0 discriminator 1
	ldr	x10, [x2,x1]
	str	w9, [x10,60]
	.loc 1 659 0 discriminator 1
	ldr	x9, [x2,x1]
	str	w8, [x9,64]
	.loc 1 660 0 discriminator 1
	ldr	x8, [x2,x1]
	str	w7, [x8,68]
	.loc 1 661 0 discriminator 1
	ldr	x7, [x2,x1]
	str	w6, [x7,72]
	.loc 1 662 0 discriminator 1
	ldr	x6, [x2,x1]
	str	w5, [x6,76]
	.loc 1 663 0 discriminator 1
	ldr	x5, [x2,x1]
	str	w4, [x5,80]
	.loc 1 664 0 discriminator 1
	ldr	x1, [x2,x1]
	str	w3, [x1,84]
.LVL126:
.L72:
	.loc 1 667 0
	ldr	x19, [sp,16]
	.cfi_remember_state
	.cfi_restore 19
.LVL127:
	ldp	x29, x30, [sp], 48
	.cfi_restore 30
	.cfi_restore 29
	.cfi_def_cfa 31, 0
	ret
.LVL128:
.L76:
	.cfi_restore_state
	.loc 1 639 0
	adrp	x0, gVdhRegBaseAddr
	str	x1, [x29,40]
	ldr	w0, [x0,#:lo12:gVdhRegBaseAddr]
	bl	MEM_Phy2Vir
.LVL129:
	cbz	x0, .L74
	.loc 1 641 0
	ldr	x1, [x29,40]
.LVL130:
	str	x0, [x1]
	b	.L73
.LVL131:
.L75:
	.loc 1 633 0
	adrp	x2, .LANCHOR0
.LVL132:
	adrp	x1, .LC0
.LVL133:
	add	x2, x2, :lo12:.LANCHOR0
	mov	w0, 0
.LVL134:
	add	x1, x1, :lo12:.LC0
	add	x2, x2, 32
	mov	w4, 0
	bl	dprint_linux_kernel
.LVL135:
	.loc 1 634 0
	mov	w0, -1
	b	.L72
.LVL136:
.L74:
	.loc 1 645 0
	adrp	x2, .LANCHOR0
	adrp	x1, .LC1
	add	x2, x2, :lo12:.LANCHOR0
	mov	w0, 0
.LVL137:
	add	x1, x1, :lo12:.LC1
	add	x2, x2, 32
	mov	w3, 645
	bl	dprint_linux_kernel
.LVL138:
	.loc 1 646 0
	mov	w0, -1
	b	.L72
	.cfi_endproc
.LFE2650:
	.size	VDMHAL_CfgRpReg, .-VDMHAL_CfgRpReg
	.align	2
	.global	VDMHAL_IMP_GetHalMemSize
	.type	VDMHAL_IMP_GetHalMemSize, %function
VDMHAL_IMP_GetHalMemSize:
.LFB2651:
	.loc 1 674 0
	.cfi_startproc
	.loc 1 706 0
	mov	w0, 2097152
	ret
	.cfi_endproc
.LFE2651:
	.size	VDMHAL_IMP_GetHalMemSize, .-VDMHAL_IMP_GetHalMemSize
	.align	2
	.global	VDMHAL_IMP_OpenHAL
	.type	VDMHAL_IMP_OpenHAL, %function
VDMHAL_IMP_OpenHAL:
.LFB2652:
	.loc 1 709 0
	.cfi_startproc
.LVL139:
	stp	x29, x30, [sp, -96]!
	.cfi_def_cfa_offset 96
	.cfi_offset 29, -96
	.cfi_offset 30, -88
	add	x29, sp, 0
	.cfi_def_cfa_register 29
	stp	x19, x20, [sp,16]
	stp	x21, x22, [sp,32]
	stp	x23, x24, [sp,48]
	stp	x25, x26, [sp,64]
	stp	x27, x28, [sp,80]
	.cfi_offset 19, -80
	.cfi_offset 20, -72
	.cfi_offset 21, -64
	.cfi_offset 22, -56
	.cfi_offset 23, -48
	.cfi_offset 24, -40
	.cfi_offset 25, -32
	.cfi_offset 26, -24
	.cfi_offset 27, -16
	.cfi_offset 28, -8
	.loc 1 717 0
	cbz	x0, .L108
	.loc 1 720 0
	ldr	w22, [x0,8]
	.loc 1 718 0
	ldr	w26, [x0]
.LVL140:
	.loc 1 722 0
	cmp	w22, wzr
	.loc 1 719 0
	ldr	w25, [x0,4]
	.loc 1 722 0
	bgt	.L109
.LVL141:
	.loc 1 728 0
	cbz	w26, .L110
	.loc 1 730 0
	mov	w0, 2097151
.LVL142:
	cmp	w25, w0
	ble	.L111
	.loc 1 736 0
	sxtw	x21, w22
.LVL143:
	adrp	x23, g_HwMem
	lsl	x20, x21, 4
	add	x19, x23, :lo12:g_HwMem
	add	x20, x20, x21, lsl 2
	mov	x27, 1216
	sub	x20, x20, x21
	mov	w1, 0
	lsl	x20, x20, 6
	mov	x2, x27
	add	x24, x20, x19
	mov	x0, x24
	bl	memset
.LVL144:
	.loc 1 739 0
	adrp	x0, gVdhRegBaseAddr
	ldr	w0, [x0,#:lo12:gVdhRegBaseAddr]
	bl	MEM_Phy2Vir
.LVL145:
	str	x0, [x19,x20]
	.loc 1 740 0
	adrp	x0, gPERICRG_RegBaseAddr
	ldr	w0, [x0,#:lo12:gPERICRG_RegBaseAddr]
	bl	MEM_Phy2Vir
.LVL146:
	str	x0, [x24,8]
	.loc 1 741 0
	adrp	x0, gBpdRegBaseAddr
	ldr	w0, [x0,#:lo12:gBpdRegBaseAddr]
	bl	MEM_Phy2Vir
.LVL147:
	mov	x5, x24
	.loc 1 744 0
	add	w1, w26, 1023
	mov	x2, 36
	and	w1, w1, -1024
	add	w4, w25, w26
	add	w3, w1, 262144
	.loc 1 741 0
	str	x0, [x5,16]!
	.loc 1 745 0
	sub	w0, w4, w1
	smaddl	x2, w22, w27, x2
	str	w0, [x5,12]
	.loc 1 746 0
	mov	w0, 1024
	.loc 1 744 0
	str	w1, [x5,8]
	add	x2, x2, x19
	.loc 1 746 0
	str	w0, [x24,32]
	add	w4, w3, 256
	mov	w0, w1
.L84:
	.loc 1 754 0
	str	w0, [x2],4
	add	w0, w0, 1280
	.loc 1 752 0 discriminator 1
	cmp	w0, w4
	bne	.L84
	.loc 1 772 0
	add	w3, w3, 1024
	.loc 1 758 0
	lsl	x2, x21, 4
	.loc 1 777 0
	add	w5, w3, 4096
	.loc 1 758 0
	add	x2, x2, x21, lsl 2
	.loc 1 777 0
	add	w5, w5, 1024
	.loc 1 758 0
	sub	x2, x2, x21
	.loc 1 783 0
	add	w1, w5, 32768
	.loc 1 758 0
	add	x0, x23, :lo12:g_HwMem
	.loc 1 783 0
	add	w1, w1, 1024
	.loc 1 758 0
	add	x0, x0, x2, lsl 6
	.loc 1 783 0
	and	w1, w1, -32769
	.loc 1 758 0
	mov	w28, 205
	.loc 1 817 0
	add	w2, w1, 348160
	.loc 1 854 0
	add	w19, w1, 1769472
	add	w19, w19, 2048
	.loc 1 817 0
	add	w4, w2, 2048
	.loc 1 866 0
	cmp	w19, w4
	.loc 1 833 0
	add	w8, w1, 589824
	.loc 1 866 0
	csel	w2, w19, w4, cs
	.loc 1 845 0
	add	w27, w1, 1179648
	.loc 1 869 0
	sub	w2, w2, w26
	.loc 1 787 0
	add	w20, w1, 32768
	.loc 1 790 0
	add	w4, w1, 77824
	.loc 1 796 0
	add	w16, w1, 122880
	.loc 1 799 0
	add	w15, w1, 188416
	.loc 1 803 0
	add	w14, w1, 290816
	.loc 1 806 0
	add	w12, w1, 294912
	.loc 1 810 0
	add	w11, w1, 311296
	.loc 1 814 0
	add	w10, w1, 344064
	.loc 1 845 0
	add	w26, w27, 2048
.LVL148:
	.loc 1 790 0
	add	w4, w4, 1024
	.loc 1 787 0
	add	w20, w20, 1024
	.loc 1 796 0
	add	w16, w16, 1024
	.loc 1 799 0
	add	w15, w15, 3072
	.loc 1 803 0
	add	w14, w14, 3072
	.loc 1 806 0
	add	w12, w12, 2048
	.loc 1 810 0
	add	w11, w11, 2048
	.loc 1 814 0
	add	w10, w10, 2048
	.loc 1 842 0
	add	w27, w8, 2048
	.loc 1 773 0
	str	w3, [x0,1084]
	.loc 1 758 0
	str	w28, [x0,1060]
	.loc 1 802 0
	mov	w3, 799
	.loc 1 869 0
	cmp	w25, w2
	.loc 1 778 0
	str	w5, [x0,1104]
	.loc 1 786 0
	str	w1, [x0,1136]
	.loc 1 789 0
	str	w20, [x0,1140]
	.loc 1 792 0
	str	w4, [x0,1144]
	.loc 1 795 0
	str	w4, [x0,1148]
	.loc 1 798 0
	str	w16, [x0,1152]
	.loc 1 801 0
	str	w15, [x0,1156]
	.loc 1 802 0
	str	w3, [x0,1160]
	.loc 1 805 0
	str	w14, [x0,1164]
	.loc 1 808 0
	str	w12, [x0,1168]
	.loc 1 813 0
	str	w11, [x0,1176]
	.loc 1 816 0
	str	w10, [x0,1172]
	.loc 1 820 0
	str	w1, [x0,1088]
	.loc 1 826 0
	str	w1, [x0,1092]
	.loc 1 832 0
	str	w1, [x0,1096]
	.loc 1 835 0
	str	w8, [x0,1100]
	.loc 1 841 0
	str	w8, [x0,1108]
	.loc 1 844 0
	str	w27, [x0,1112]
	.loc 1 847 0
	str	w26, [x0,1116]
	.loc 1 853 0
	str	w26, [x0,1120]
	.loc 1 856 0
	str	w19, [x0,1124]
	.loc 1 862 0
	str	w19, [x0,1128]
	.loc 1 863 0
	str	wzr, [x0,1132]
	.loc 1 869 0
	bcc	.L85
	.loc 1 873 0
	mov	x0, x24
	.loc 1 881 0
	mov	w19, -1
.LVL149:
	.loc 1 873 0
	bl	H264HAL_InitHal
.LVL150:
	mov	w20, w0
	.loc 1 879 0
	mov	x0, x24
	bl	HEVCHAL_InitHal
.LVL151:
	cbz	w0, .L112
.L86:
	.loc 1 885 0
	lsl	x0, x21, 4
	add	x23, x23, :lo12:g_HwMem
	add	x0, x0, x21, lsl 2
.LVL152:
	mov	w1, w22
	sub	x0, x0, x21
	add	x20, x23, x0, lsl 6
	ldr	w0, [x20,1068]
	bl	MP2HAL_InitHal
.LVL153:
	.loc 1 887 0
	cmp	w0, wzr
	.loc 1 891 0
	ldr	w0, [x20,1072]
	.loc 1 887 0
	csinv	w19, w19, wzr, eq
	.loc 1 891 0
	bl	MP4HAL_InitHal
.LVL154:
	.loc 1 893 0
	cmp	w0, wzr
	csinv	w19, w19, wzr, eq
	.loc 1 903 0
	bl	RV8HAL_InitHal
.LVL155:
	.loc 1 905 0
	cmp	w0, wzr
	csinv	w19, w19, wzr, eq
	.loc 1 909 0
	bl	RV9HAL_InitHal
.LVL156:
	.loc 1 911 0
	cmp	w0, wzr
	.loc 1 915 0
	ldr	w0, [x20,1080]
	.loc 1 911 0
	csinv	w19, w19, wzr, eq
	.loc 1 915 0
	bl	VC1HAL_InitHal
.LVL157:
	.loc 1 917 0
	cmp	w0, wzr
	.loc 1 921 0
	ldr	w0, [x20,1172]
	.loc 1 917 0
	csinv	w19, w19, wzr, eq
	.loc 1 921 0
	bl	VP6HAL_InitHal
.LVL158:
	.loc 1 923 0
	cmp	w0, wzr
	.loc 1 927 0
	ldr	w0, [x20,1176]
	.loc 1 923 0
	csinv	w19, w19, wzr, eq
	.loc 1 927 0
	bl	VP8HAL_InitHal
.LVL159:
	.loc 1 929 0
	cmp	w0, wzr
	csinv	w0, w19, wzr, eq
.LVL160:
.L80:
	.loc 1 941 0
	ldp	x19, x20, [sp,16]
	.cfi_remember_state
	.cfi_restore 20
	.cfi_restore 19
.LVL161:
	ldp	x21, x22, [sp,32]
	.cfi_restore 22
	.cfi_restore 21
.LVL162:
	ldp	x23, x24, [sp,48]
	.cfi_restore 24
	.cfi_restore 23
	ldp	x25, x26, [sp,64]
	.cfi_restore 26
	.cfi_restore 25
.LVL163:
	ldp	x27, x28, [sp,80]
	.cfi_restore 28
	.cfi_restore 27
	ldp	x29, x30, [sp], 96
	.cfi_restore 30
	.cfi_restore 29
	.cfi_def_cfa 31, 0
	ret
.LVL164:
.L112:
	.cfi_restore_state
	.loc 1 873 0
	cmp	w20, wzr
	csetm	w19, ne
	b	.L86
.LVL165:
.L109:
	.loc 1 724 0
	adrp	x2, .LANCHOR0
	adrp	x1, .LC0
	add	x2, x2, :lo12:.LANCHOR0
	mov	w0, 0
.LVL166:
	add	x1, x1, :lo12:.LC0
	add	x2, x2, 48
	mov	w3, w22
	mov	w4, 0
	bl	dprint_linux_kernel
.LVL167:
	.loc 1 725 0
	mov	w0, -1
	b	.L80
.LVL168:
.L111:
	.loc 1 730 0 discriminator 1
	adrp	x2, .LANCHOR0
	adrp	x1, .LC6
	add	x2, x2, :lo12:.LANCHOR0
	adrp	x4, .LC29
	mov	w0, 0
	add	x1, x1, :lo12:.LC6
	add	x2, x2, 48
	mov	w3, 730
	add	x4, x4, :lo12:.LC29
	bl	dprint_linux_kernel
.LVL169:
	mov	w0, -1
	.loc 1 730 0 is_stmt 0
	b	.L80
.LVL170:
.L85:
	.loc 1 936 0 is_stmt 1
	adrp	x1, .LC30
	mov	w0, 0
	add	x1, x1, :lo12:.LC30
	mov	w3, w25
	bl	dprint_linux_kernel
.LVL171:
	.loc 1 937 0
	mov	w0, -1
	b	.L80
.LVL172:
.L110:
	.loc 1 728 0 discriminator 1
	adrp	x2, .LANCHOR0
	adrp	x1, .LC6
	add	x2, x2, :lo12:.LANCHOR0
	adrp	x4, .LC28
	mov	w0, 0
.LVL173:
	add	x1, x1, :lo12:.LC6
	add	x2, x2, 48
	mov	w3, 728
	add	x4, x4, :lo12:.LC28
	bl	dprint_linux_kernel
.LVL174:
	mov	w0, -1
	.loc 1 728 0 is_stmt 0
	b	.L80
.LVL175:
.L108:
	.loc 1 717 0 is_stmt 1 discriminator 1
	adrp	x2, .LANCHOR0
	adrp	x1, .LC6
	add	x2, x2, :lo12:.LANCHOR0
	adrp	x4, .LC27
	add	x1, x1, :lo12:.LC6
	add	x2, x2, 48
	mov	w3, 717
	add	x4, x4, :lo12:.LC27
	bl	dprint_linux_kernel
.LVL176:
	mov	w0, -1
	.loc 1 717 0 is_stmt 0
	b	.L80
	.cfi_endproc
.LFE2652:
	.size	VDMHAL_IMP_OpenHAL, .-VDMHAL_IMP_OpenHAL
	.align	2
	.global	VDMHAL_IMP_CloseHAL
	.type	VDMHAL_IMP_CloseHAL, %function
VDMHAL_IMP_CloseHAL:
.LFB2653:
	.loc 1 944 0 is_stmt 1
	.cfi_startproc
.LVL177:
	.loc 1 946 0
	ret
	.cfi_endproc
.LFE2653:
	.size	VDMHAL_IMP_CloseHAL, .-VDMHAL_IMP_CloseHAL
	.align	2
	.global	VDMHAL_IMP_ArrangeMem
	.type	VDMHAL_IMP_ArrangeMem, %function
VDMHAL_IMP_ArrangeMem:
.LFB2654:
	.loc 1 958 0
	.cfi_startproc
.LVL178:
	stp	x29, x30, [sp, -176]!
	.cfi_def_cfa_offset 176
	.cfi_offset 29, -176
	.cfi_offset 30, -168
	.loc 1 985 0
	cmn	w6, #2
	.loc 1 958 0
	add	x29, sp, 0
	.cfi_def_cfa_register 29
	stp	x21, x22, [sp,32]
	.cfi_offset 21, -144
	.cfi_offset 22, -136
	adrp	x21, __stack_chk_guard
	mov	w22, w2
	stp	x19, x20, [sp,16]
	.cfi_offset 19, -160
	.cfi_offset 20, -152
	mov	w19, w0
	mov	w20, w3
	ldr	x0, [x21,#:lo12:__stack_chk_guard]
.LVL179:
	stp	x23, x24, [sp,48]
	stp	x25, x26, [sp,64]
	stp	x27, x28, [sp,80]
	.cfi_offset 23, -128
	.cfi_offset 24, -120
	.cfi_offset 25, -112
	.cfi_offset 26, -104
	.cfi_offset 27, -96
	.cfi_offset 28, -88
	.loc 1 958 0
	str	x0, [x29,168]
	mov	w27, w6
	mov	w26, w1
	mov	w24, w5
	mov	x23, x7
	.loc 1 985 0
	beq	.L165
	.loc 1 989 0
	tbnz	w6, #31, .L166
	.loc 1 991 0
	mov	w0, w6
	str	x4, [x29,120]
	.loc 1 996 0 discriminator 1
	adrp	x25, s_pstVfmwChan
	.loc 1 991 0
	bl	VCTRL_GetVidStd
.LVL180:
	mov	w3, w0
.LVL181:
	.loc 1 996 0 discriminator 1
	add	x0, x25, :lo12:s_pstVfmwChan
	ldr	x4, [x29,120]
.LVL182:
	ldr	x5, [x0,w27,sxtw 3]
	ldr	w0, [x5,1104]
	cmp	w0, 1
	beq	.L204
.LVL183:
.L115:
	.loc 1 1047 0
	cbz	w19, .L205
	.loc 1 1049 0
	sub	w1, w22, #32
	mov	w0, 8160
	cmp	w1, w0
	bhi	.L144
	.loc 1 1049 0 is_stmt 0 discriminator 2
	sub	w1, w20, #32
	cmp	w1, w0
	bhi	.L144
	.loc 1 1051 0 is_stmt 1
	cbz	x23, .L206
	.loc 1 1052 0
	cmp	w4, 20
	.loc 1 1055 0
	mov	w1, 0
	mov	x0, x23
	mov	x2, 272
	.loc 1 1052 0
	mov	w28, 20
	str	x3, [x29,120]
	csel	w28, w4, w28, le
.LVL184:
	.loc 1 1055 0
	bl	memset
.LVL185:
	.loc 1 1058 0
	add	w1, w22, 15
	.loc 1 1059 0
	add	w20, w20, 15
.LVL186:
	.loc 1 1058 0
	asr	w1, w1, 4
.LVL187:
	.loc 1 1059 0
	asr	w20, w20, 4
.LVL188:
	.loc 1 1060 0
	add	w25, w20, 1
	.loc 1 1062 0
	cmp	w1, 45
	.loc 1 1060 0
	asr	w25, w25, 1
	.loc 1 1062 0
	ldr	x3, [x29,120]
.LVL189:
	.loc 1 1060 0
	lsl	w25, w25, 5
.LVL190:
	.loc 1 1062 0
	bgt	.L179
	cmp	w20, 36
	.loc 1 1064 0
	mov	w0, 64
.LVL191:
	.loc 1 1062 0
	bgt	.L179
.L147:
	.loc 1 1071 0
	adrp	x2, g_not_direct_8x8_inference_flag
	.loc 1 1078 0
	mov	w4, 16
	.loc 1 1073 0
	mov	w5, 64
	.loc 1 1071 0
	ldrb	w2, [x2,#:lo12:g_not_direct_8x8_inference_flag]
	.loc 1 1073 0
	cmp	w2, 1
	csel	w0, w0, w5, ne
	.loc 1 1078 0
	cmp	w3, w4
	csel	w0, w0, w4, ne
	.loc 1 1081 0
	mul	w0, w0, w1
.LVL192:
	mul	w20, w0, w20
.LVL193:
	add	w20, w20, 127
	and	w20, w20, -128
.LVL194:
	.loc 1 1083 0
	mul	w3, w20, w28
.LVL195:
	.loc 1 1084 0
	cmp	w3, w26
	bge	.L207
	.loc 1 1092 0
	add	w0, w22, 127
	.loc 1 1085 0
	asr	w1, w20, 1
.LVL196:
	.loc 1 1092 0
	and	w0, w0, -128
.LVL197:
	.loc 1 1085 0
	str	w1, [x23,264]
	str	x4, [x29,112]
	.loc 1 1094 0
	lsl	w1, w0, 4
	.loc 1 1097 0
	mul	w25, w0, w25
.LVL198:
	str	x5, [x29,120]
	.loc 1 1086 0
	str	w28, [x23,268]
	.loc 1 1094 0
	str	w1, [x23]
	.loc 1 1097 0
	add	w22, w25, w25, lsl 1
.LVL199:
	asr	w22, w22, 1
.LVL200:
	.loc 1 1101 0
	tbnz	w27, #31, .L152
.LVL201:
	.loc 1 1104 0
	mov	w0, w27
	add	x1, x29, 128
	add	x2, x29, 132
	str	x3, [x29,104]
	bl	VCTRL_GetChanResolution
.LVL202:
	cmn	w0, #1
	mov	w28, w0
.LVL203:
	ldr	x3, [x29,104]
.LVL204:
	ldr	x5, [x29,120]
	ldr	x4, [x29,112]
	beq	.L208
.LVL205:
	.loc 1 1110 0
	ldr	w2, [x29,128]
	.loc 1 1117 0
	mov	w6, w4
.LVL206:
	.loc 1 1111 0
	ldr	w0, [x29,132]
	.loc 1 1110 0
	add	w2, w2, 15
	and	w2, w2, -16
.LVL207:
	.loc 1 1111 0
	add	w0, w0, 15
	.loc 1 1115 0
	sub	w7, w2, #1
	.loc 1 1113 0
	add	w1, w2, 511
	.loc 1 1115 0
	cmp	w7, 2047
	.loc 1 1111 0
	and	w0, w0, -16
.LVL208:
	.loc 1 1113 0
	and	w1, w1, -512
.LVL209:
	.loc 1 1115 0
	bls	.L154
	.loc 1 1119 0
	sub	w7, w2, #2049
	.loc 1 1121 0
	mov	w6, 32
	.loc 1 1119 0
	cmp	w7, 2047
	bls	.L154
	.loc 1 1123 0
	sub	w2, w2, #4096
.LVL210:
	.loc 1 1125 0
	mov	w6, 48
	.loc 1 1123 0
	sub	w7, w2, #1
	cmp	w7, 2047
	bls	.L154
	.loc 1 1127 0
	sub	w2, w2, #2049
	.loc 1 1129 0
	cmp	w2, 2047
	csel	w6, w4, w5, hi
.LVL211:
.L154:
	.loc 1 1132 0
	adds	w2, w0, 31
.LVL212:
	add	w0, w0, 62
.LVL213:
	csel	w0, w0, w2, mi
	asr	w0, w0, 5
	lsl	w2, w0, 7
	mul	w1, w0, w1
.LVL214:
	sub	w0, w2, w0, lsl 5
	lsl	w2, w1, 7
	mul	w0, w0, w6
	sub	w1, w2, w1, lsl 5
	asr	w1, w1, 1
	add	w0, w1, w0, lsr 1
	.loc 1 1134 0
	cmp	w22, w0
	bgt	.L209
.LVL215:
.L152:
	.loc 1 1137 0
	str	w25, [x23,136]
	.loc 1 1139 0
	cbz	w24, .L155
	.loc 1 1089 0
	add	w0, w19, 1023
	.loc 1 1090 0
	sub	w3, w26, w3
.LVL216:
	.loc 1 1089 0
	and	w0, w0, -1024
	cmp	w24, 32
	sub	w4, w0, w19
	mov	w5, 32
	.loc 1 1090 0
	sub	w3, w3, w4
.LVL217:
	csel	w24, w24, w5, le
.LVL218:
	.loc 1 1146 0
	sdiv	w3, w3, w22
.LVL219:
	cmp	w24, w3
	csel	w24, w24, w3, le
	str	w24, [x23,140]
	.loc 1 1149 0
	cmp	w24, wzr
	beq	.L156
	.loc 1 1151 0 discriminator 1
	ble	.L161
	sub	w2, w24, #1
	add	x1, x23, 8
	add	x2, x2, 3
	add	x2, x23, x2, lsl 2
.L160:
	.loc 1 1153 0
	str	w0, [x1],4
	add	w0, w0, w22
	.loc 1 1151 0 discriminator 1
	cmp	x1, x2
	bne	.L160
.L161:
	.loc 1 1171 0 discriminator 1
	ldr	w3, [x23,268]
	.loc 1 1156 0
	madd	w22, w22, w24, w4
.LVL220:
	.loc 1 1171 0 discriminator 1
	cmp	w3, wzr
	.loc 1 1169 0
	add	w1, w22, w19
.LVL221:
	.loc 1 1171 0 discriminator 1
	ble	.L159
	sub	w2, w3, #1
	add	x0, x23, 144
	add	x2, x2, 37
	add	x2, x23, x2, lsl 2
.L162:
	.loc 1 1173 0
	str	w1, [x0],4
.LVL222:
	add	w1, w1, w20
	.loc 1 1171 0 discriminator 1
	cmp	x0, x2
	bne	.L162
.LVL223:
.L159:
	.loc 1 1176 0
	madd	w3, w20, w3, w22
	str	w3, [x23,4]
	.loc 1 1178 0
	mov	w28, 0
.LVL224:
.L124:
	.loc 1 1180 0
	ldr	x2, [x29,168]
	mov	w0, w28
	ldr	x1, [x21,#:lo12:__stack_chk_guard]
	cmp	x2, x1
	bne	.L210
	ldp	x19, x20, [sp,16]
	.cfi_remember_state
	.cfi_restore 20
	.cfi_restore 19
.LVL225:
	ldp	x21, x22, [sp,32]
	.cfi_restore 22
	.cfi_restore 21
.LVL226:
	ldp	x23, x24, [sp,48]
	.cfi_restore 24
	.cfi_restore 23
.LVL227:
	ldp	x25, x26, [sp,64]
	.cfi_restore 26
	.cfi_restore 25
.LVL228:
	ldp	x27, x28, [sp,80]
	.cfi_restore 28
	.cfi_restore 27
.LVL229:
	ldp	x29, x30, [sp], 176
	.cfi_restore 30
	.cfi_restore 29
	.cfi_def_cfa 31, 0
	ret
.LVL230:
.L155:
	.cfi_restore_state
	str	wzr, [x23,140]
.L156:
	.loc 1 1149 0 discriminator 1
	adrp	x2, .LANCHOR0
	adrp	x1, .LC6
	add	x2, x2, :lo12:.LANCHOR0
	adrp	x4, .LC46
	add	x1, x1, :lo12:.LC6
	add	x2, x2, 128
	mov	w3, 1149
.LVL231:
	add	x4, x4, :lo12:.LC46
	mov	w0, 0
	mov	w28, -1
.LVL232:
	bl	dprint_linux_kernel
.LVL233:
	.loc 1 1149 0 is_stmt 0
	b	.L124
.LVL234:
.L166:
	.loc 1 982 0 is_stmt 1
	mov	w3, 19
.LVL235:
	b	.L115
.LVL236:
.L179:
	.loc 1 1068 0
	mov	w0, 32
	b	.L147
.LVL237:
.L165:
	.loc 1 987 0
	mov	w3, 16
.LVL238:
	b	.L115
.L204:
.LBB35:
.LBB36:
	.loc 1 103 0
	sub	w1, w22, #32
	mov	w0, 8160
	cmp	w1, w0
	bhi	.L116
	.loc 1 103 0 is_stmt 0 discriminator 2
	sub	w1, w20, #32
	cmp	w1, w0
	bls	.L117
.L116:
	.loc 1 103 0 discriminator 3
	adrp	x2, .LANCHOR0
	adrp	x1, .LC6
	add	x2, x2, :lo12:.LANCHOR0
	adrp	x4, .LC31
.LVL239:
	add	x2, x2, 72
	mov	w0, 0
	add	x1, x1, :lo12:.LC6
	mov	w3, 105
.LVL240:
	add	x4, x4, :lo12:.LC31
	bl	dprint_linux_kernel
.LVL241:
.LBE36:
.LBE35:
	.loc 1 1000 0 is_stmt 1
	mov	w2, -1
.LVL242:
.L118:
	.loc 1 1003 0
	adrp	x1, .LC32
	mov	w0, 31
	add	x1, x1, :lo12:.LC32
	.loc 1 1004 0
	mov	w28, -1
.LVL243:
	.loc 1 1003 0
	bl	dprint_linux_kernel
.LVL244:
	.loc 1 1004 0
	b	.L124
.LVL245:
.L144:
	.loc 1 1049 0 discriminator 3
	adrp	x2, .LANCHOR0
	adrp	x1, .LC6
	add	x2, x2, :lo12:.LANCHOR0
	adrp	x4, .LC31
.LVL246:
	add	x1, x1, :lo12:.LC6
	add	x2, x2, 128
	mov	w3, 1049
.LVL247:
	add	x4, x4, :lo12:.LC31
	mov	w0, 0
	mov	w28, -1
	bl	dprint_linux_kernel
.LVL248:
	.loc 1 1049 0 is_stmt 0
	b	.L124
.LVL249:
.L117:
.LBB39:
.LBB37:
	.loc 1 108 0 is_stmt 1
	add	w28, w22, 15
	.loc 1 109 0
	add	w19, w20, 15
.LVL250:
	.loc 1 108 0
	asr	w28, w28, 4
.LVL251:
	.loc 1 109 0
	asr	w19, w19, 4
.LVL252:
	.loc 1 110 0
	add	w4, w19, 1
.LVL253:
	.loc 1 112 0
	cmp	w28, 45
	.loc 1 110 0
	asr	w4, w4, 1
	lsl	w4, w4, 5
.LVL254:
	.loc 1 112 0
	bgt	.L177
	cmp	w19, 36
	.loc 1 114 0
	mov	w6, 64
.LVL255:
	.loc 1 112 0
	bgt	.L177
.L119:
	.loc 1 121 0
	adrp	x0, g_not_direct_8x8_inference_flag
	.loc 1 135 0
	add	w26, w22, 127
.LVL256:
	and	w26, w26, -128
.LVL257:
	.loc 1 123 0
	mov	w2, 64
	.loc 1 139 0
	add	x7, x5, 221184
	str	x5, [x29,104]
	.loc 1 121 0
	ldrb	w1, [x0,#:lo12:g_not_direct_8x8_inference_flag]
	.loc 1 139 0
	add	x0, x7, 1544
	.loc 1 136 0
	mul	w4, w4, w26
.LVL258:
	.loc 1 123 0
	cmp	w1, 1
	.loc 1 139 0
	mov	w1, 0
	.loc 1 123 0
	csel	w6, w6, w2, ne
	.loc 1 128 0
	cmp	w3, 16
	mov	w2, 16
	.loc 1 136 0
	add	w3, w4, w4, lsl 1
.LVL259:
	.loc 1 128 0
	csel	w6, w6, w2, ne
	.loc 1 139 0
	mov	x2, 280
	str	x7, [x29,112]
	.loc 1 132 0
	mul	w6, w28, w6
.LVL260:
	.loc 1 136 0
	str	x4, [x29,120]
	asr	w28, w3, 1
.LVL261:
	.loc 1 132 0
	mul	w19, w19, w6
.LVL262:
	.loc 1 139 0
	bl	memset
.LVL263:
	.loc 1 150 0
	ldr	x5, [x29,104]
	.loc 1 132 0
	add	w19, w19, 255
	.loc 1 140 0
	ldr	x7, [x29,112]
	.loc 1 132 0
	and	w19, w19, -256
.LVL264:
	.loc 1 150 0
	add	x5, x5, 217088
	.loc 1 142 0
	ldr	x4, [x29,120]
	.loc 1 140 0
	asr	w1, w19, 1
	.loc 1 141 0
	lsl	w0, w26, 4
	.loc 1 140 0
	str	w1, [x7,1808]
	.loc 1 141 0
	str	w0, [x7,1544]
	.loc 1 142 0
	str	w4, [x7,1680]
	.loc 1 148 0
	str	w28, [x7,1816]
	.loc 1 149 0
	str	w19, [x7,1820]
	.loc 1 150 0
	str	w19, [x5,3584]
.LBE37:
.LBE39:
	.loc 1 1001 0
	cbz	w28, .L211
	.loc 1 1012 0
	ldr	w3, [x5,3572]
	.loc 1 1008 0
	ldr	w6, [x5,3576]
.LVL265:
	.loc 1 1014 0
	cmp	w3, w20
	.loc 1 1011 0
	ldr	w2, [x5,3568]
	.loc 1 1014 0
	cset	w1, ne
.LVL266:
	.loc 1 1014 0 is_stmt 0 discriminator 1
	cmp	w6, w24
	cset	w0, ne
	orr	w0, w1, w0
	cbnz	w0, .L178
.LVL267:
	cmp	w2, w22
	beq	.L125
.L178:
	.loc 1 1016 0 is_stmt 1
	adrp	x1, .LC33
	mov	w4, w22
	mov	w5, w20
	mov	w7, w24
	.loc 1 1018 0
	add	x23, x25, :lo12:s_pstVfmwChan
.LVL268:
	.loc 1 1016 0
	add	x1, x1, :lo12:.LC33
	mov	w0, 1
	bl	dprint_linux_kernel
.LVL269:
	.loc 1 1018 0
	ldr	x1, [x23,w27,sxtw 3]
	add	x0, x1, 217088
	add	x1, x1, 221184
	add	x0, x0, 3592
	add	x1, x1, 520
	bl	VCTRL_ReleaseDynamicNode
.LVL270:
	.loc 1 1020 0
	ldr	x3, [x23,w27,sxtw 3]
	.loc 1 1026 0
	mov	w0, w27
	add	x1, x29, 128
	add	x2, x29, 132
	.loc 1 1020 0
	add	x3, x3, 217088
	str	w24, [x3,3576]
	.loc 1 1021 0
	str	w28, [x3,3580]
	.loc 1 1023 0
	str	w22, [x3,3568]
	.loc 1 1024 0
	str	w20, [x3,3572]
	.loc 1 1026 0
	bl	VCTRL_GetImageResolution
.LVL271:
.LBB40:
.LBB41:
	.loc 1 75 0
	adrp	x0, g_u32Csd_Enable
	ldr	w0, [x0,#:lo12:g_u32Csd_Enable]
	cmp	w0, 1
	beq	.L127
.L129:
	.loc 1 82 0
	mov	w0, 0
.LVL272:
.L128:
.LBE41:
.LBE40:
	.loc 1 1029 0
	adrp	x1, g_event_report
	ldr	x4, [x1,#:lo12:g_event_report]
	cbz	x4, .L130
.LVL273:
.LBB43:
	.loc 1 1029 0 is_stmt 0 discriminator 1
	ldr	w5, [x29,128]
	add	w24, w24, w0
.LVL274:
	str	w5, [x29,160]
	mov	w0, w27
.LVL275:
	ldr	w5, [x29,132]
	mov	w1, 118
	str	w24, [x29,136]
	add	x2, x29, 136
	str	w28, [x29,140]
	mov	w3, 32
	str	w19, [x29,144]
	str	w22, [x29,148]
	str	w20, [x29,152]
	str	w26, [x29,156]
	str	w5, [x29,164]
	blr	x4
.LVL276:
.L130:
.LBE43:
	.loc 1 1033 0 is_stmt 1
	adrp	x0, g_vfmw_osal_fun_ptr
.LVL277:
	add	x25, x25, :lo12:s_pstVfmwChan
	.loc 1 1035 0
	mov	w28, 2
.LVL278:
	.loc 1 1033 0
	ldr	x0, [x0,#:lo12:g_vfmw_osal_fun_ptr]
	ldr	x23, [x25,w27,sxtw 3]
	blr	x0
.LVL279:
	.loc 1 1034 0
	ldr	x27, [x25,w27,sxtw 3]
.LVL280:
	.loc 1 1033 0
	add	x1, x23, 221184
	.loc 1 1034 0
	add	x27, x27, 217088
	.loc 1 1033 0
	str	w0, [x1,1824]
	.loc 1 1034 0
	mov	w0, 1
	str	w0, [x27,3564]
	.loc 1 1035 0
	b	.L124
.LVL281:
.L127:
.LBB44:
.LBB42:
	.loc 1 76 0
	mov	w0, w27
	bl	VCTRL_CheckCSDCondition
.LVL282:
	cbnz	w0, .L129
	.loc 1 78 0
	adrp	x0, g_csdAddBufNum
	ldr	w0, [x0,#:lo12:g_csdAddBufNum]
	b	.L128
.LVL283:
.L209:
.LBE42:
.LBE44:
	.loc 1 1134 0 discriminator 1
	adrp	x2, .LANCHOR0
	adrp	x1, .LC6
	add	x2, x2, :lo12:.LANCHOR0
	adrp	x4, .LC45
	add	x1, x1, :lo12:.LC6
	add	x2, x2, 128
	mov	w3, 1134
.LVL284:
	add	x4, x4, :lo12:.LC45
	mov	w0, 0
	mov	w28, -1
	bl	dprint_linux_kernel
.LVL285:
	.loc 1 1134 0 is_stmt 0
	b	.L124
.LVL286:
.L205:
	.loc 1 1047 0 is_stmt 1 discriminator 1
	adrp	x2, .LANCHOR0
	adrp	x1, .LC6
	add	x2, x2, :lo12:.LANCHOR0
	adrp	x4, .LC41
.LVL287:
	add	x1, x1, :lo12:.LC6
	add	x2, x2, 128
	mov	w3, 1047
.LVL288:
	add	x4, x4, :lo12:.LC41
	mov	w0, 0
	mov	w28, -1
	bl	dprint_linux_kernel
.LVL289:
	.loc 1 1047 0 is_stmt 0
	b	.L124
.LVL290:
.L207:
	.loc 1 1084 0 is_stmt 1 discriminator 1
	adrp	x2, .LANCHOR0
	adrp	x1, .LC6
.LVL291:
	add	x2, x2, :lo12:.LANCHOR0
	adrp	x4, .LC43
	add	x1, x1, :lo12:.LC6
	add	x2, x2, 128
	mov	w3, 1084
.LVL292:
	add	x4, x4, :lo12:.LC43
	mov	w0, 0
	mov	w28, -1
.LVL293:
	bl	dprint_linux_kernel
.LVL294:
	.loc 1 1084 0 is_stmt 0
	b	.L124
.LVL295:
.L177:
.LBB45:
.LBB38:
	.loc 1 118 0 is_stmt 1
	mov	w6, 32
	b	.L119
.LVL296:
.L125:
.LBE38:
.LBE45:
	.loc 1 1039 0
	adrp	x1, .LC34
	mov	w0, 1
	add	x1, x1, :lo12:.LC34
	mov	w2, w22
.LVL297:
	mov	w3, w20
.LVL298:
	mov	w4, w24
	bl	dprint_linux_kernel
.LVL299:
.LBB46:
.LBB47:
	.loc 1 175 0
	cbz	x23, .L212
	.loc 1 177 0
	add	x20, x25, :lo12:s_pstVfmwChan
.LVL300:
	ldr	x0, [x20,w27,sxtw 3]
	.loc 1 181 0
	add	x1, x0, 217088
	.loc 1 178 0
	add	x19, x0, 221184
.LVL301:
	.loc 1 181 0
	ldr	w1, [x1,3576]
	.loc 1 178 0
	ldr	w28, [x19,1816]
.LVL302:
	.loc 1 179 0
	ldr	w5, [x19,1820]
	.loc 1 181 0
	cbz	w1, .L213
.LVL303:
.L132:
	.loc 1 186 0
	add	x1, x0, 217088
	ldr	w22, [x1,3588]
.LVL304:
	cmp	w22, 30
	bgt	.L214
.L133:
	.loc 1 194 0 discriminator 1
	cmp	w22, wzr
	.loc 1 193 0
	str	w22, [x19,1684]
	.loc 1 194 0 discriminator 1
	ble	.L134
	.loc 1 199 0
	add	x2, x0, 221184
	.loc 1 196 0
	add	x0, x0, 217088
	.loc 1 199 0
	ldr	w25, [x2,520]
	.loc 1 196 0
	ldr	w24, [x0,3592]
.LVL305:
	.loc 1 197 0
	ldr	w6, [x0,3596]
	.loc 1 200 0
	ldr	w4, [x2,524]
.LVL306:
	.loc 1 201 0
	cbz	w25, .L169
.LVL307:
	cbz	w24, .L169
.LVL308:
	.loc 1 206 0
	cmp	w28, w6
	bgt	.L170
	.loc 1 212 0
	str	w24, [x19,1552]
.LVL309:
	.loc 1 214 0
	cmp	w5, w4
	bgt	.L215
	add	x1, x19, 1556
	add	x0, x0, 3624
	mov	w20, 0
.LVL310:
	b	.L141
.L142:
	.loc 1 199 0
	ldr	w25, [x0,1024]
.LVL311:
	.loc 1 196 0
	ldr	w24, [x0]
.LVL312:
	.loc 1 197 0
	ldr	w6, [x0,4]
.LVL313:
	.loc 1 200 0
	ldr	w4, [x0,1028]
.LVL314:
	.loc 1 201 0
	cbz	w25, .L201
.LVL315:
	cbz	w24, .L201
.LVL316:
	.loc 1 206 0
	cmp	w28, w6
	bgt	.L136
	.loc 1 212 0
	str	w24, [x1],4
.LVL317:
	.loc 1 214 0
	cmp	w5, w4
	add	x0, x0, 32
	bgt	.L137
.L141:
	.loc 1 194 0 discriminator 2
	add	w20, w20, 1
	.loc 1 221 0
	str	w25, [x1,132]
	.loc 1 194 0 discriminator 1
	cmp	w20, w22
	bne	.L142
.LVL318:
.L134:
	.loc 1 232 0
	add	x1, x19, 1544
	add	w5, w28, w5
.LVL319:
	.loc 1 233 0
	str	w22, [x1,268]
	.loc 1 234 0
	mov	x0, x23
	.loc 1 232 0
	mul	w25, w22, w5
.LVL320:
	str	w25, [x1,4]
	.loc 1 234 0
	mov	x2, 272
	.loc 1 164 0
	mov	w28, 0
.LVL321:
	.loc 1 234 0
	bl	memcpy
.LVL322:
	b	.L124
.LVL323:
.L206:
.LBE47:
.LBE46:
	.loc 1 1051 0 discriminator 1
	adrp	x2, .LANCHOR0
	adrp	x1, .LC6
	add	x2, x2, :lo12:.LANCHOR0
	adrp	x4, .LC42
.LVL324:
	add	x1, x1, :lo12:.LC6
	add	x2, x2, 128
	mov	w3, 1051
.LVL325:
	add	x4, x4, :lo12:.LC42
	mov	w0, 0
	mov	w28, -1
	bl	dprint_linux_kernel
.LVL326:
	.loc 1 1051 0 is_stmt 0
	b	.L124
.LVL327:
.L213:
.LBB51:
.LBB48:
	.loc 1 183 0 is_stmt 1
	adrp	x1, .LC36
	mov	w0, 31
	add	x1, x1, :lo12:.LC36
.LVL328:
	str	x5, [x29,120]
	bl	dprint_linux_kernel
.LVL329:
	ldr	x0, [x20,w27,sxtw 3]
	ldr	x5, [x29,120]
.LVL330:
	b	.L132
.LVL331:
.L215:
	.loc 1 194 0
	mov	w20, 0
.LVL332:
.L137:
	.loc 1 216 0
	adrp	x26, .LANCHOR0
.LVL333:
	adrp	x1, .LC39
	add	x2, x26, :lo12:.LANCHOR0
	mov	w3, w5
	add	x1, x1, :lo12:.LC39
	add	x2, x2, 96
	mov	w0, 1
	str	x5, [x29,120]
	bl	dprint_linux_kernel
.LVL334:
	ldr	x5, [x29,120]
.LVL335:
.L140:
	.loc 1 224 0
	cmp	w20, w22
	bge	.L134
.L163:
	.loc 1 226 0
	add	x2, x26, :lo12:.LANCHOR0
	adrp	x1, .LC40
	mov	w4, w28
	add	x1, x1, :lo12:.LC40
	add	x2, x2, 96
	mov	w3, w20
	mov	w6, w24
	mov	w7, w25
	mov	w0, 1
	.loc 1 228 0
	mov	w28, -1
.LVL336:
	.loc 1 226 0
	bl	dprint_linux_kernel
.LVL337:
	b	.L124
.LVL338:
.L170:
	.loc 1 194 0
	mov	w20, 0
.LVL339:
.L136:
	.loc 1 208 0
	adrp	x26, .LANCHOR0
.LVL340:
	adrp	x1, .LC38
	add	x2, x26, :lo12:.LANCHOR0
	add	x1, x1, :lo12:.LC38
	add	x2, x2, 96
	mov	w3, w28
	mov	w4, w6
	mov	w0, 1
	str	x5, [x29,120]
	bl	dprint_linux_kernel
.LVL341:
	ldr	x5, [x29,120]
.LVL342:
	b	.L140
.LVL343:
.L214:
	.loc 1 188 0
	adrp	x1, .LC37
	mov	w2, w22
	add	x1, x1, :lo12:.LC37
	mov	w0, 31
	.loc 1 189 0
	add	x25, x25, :lo12:s_pstVfmwChan
	str	x5, [x29,120]
	.loc 1 188 0
	bl	dprint_linux_kernel
.LVL344:
	.loc 1 189 0
	mov	w1, 30
	ldr	x5, [x29,120]
.LVL345:
	ldr	x0, [x25,w27,sxtw 3]
	mov	w22, w1
	add	x2, x0, 217088
	str	w1, [x2,3588]
	b	.L133
.LVL346:
.L208:
.LBE48:
.LBE51:
	.loc 1 1106 0
	adrp	x1, .LC44
	mov	w0, 0
	add	x1, x1, :lo12:.LC44
	bl	dprint_linux_kernel
.LVL347:
	.loc 1 1107 0
	b	.L124
.LVL348:
.L210:
	.loc 1 1180 0
	bl	__stack_chk_fail
.LVL349:
.L212:
.LBB52:
.LBB49:
	.loc 1 175 0 discriminator 1
	adrp	x2, .LANCHOR0
	adrp	x1, .LC6
	add	x2, x2, :lo12:.LANCHOR0
	adrp	x4, .LC35
	add	x1, x1, :lo12:.LC6
	add	x2, x2, 96
	mov	w3, 175
	add	x4, x4, :lo12:.LC35
	mov	w0, 0
	mov	w28, -1
.LVL350:
	bl	dprint_linux_kernel
.LVL351:
	b	.L124
.LVL352:
.L211:
.LBE49:
.LBE52:
	mov	w2, 0
.LVL353:
	b	.L118
.LVL354:
.L169:
.LBB53:
.LBB50:
	.loc 1 194 0
	mov	w20, 0
.LVL355:
.L201:
	adrp	x26, .LANCHOR0
.LVL356:
	b	.L163
.LBE50:
.LBE53:
	.cfi_endproc
.LFE2654:
	.size	VDMHAL_IMP_ArrangeMem, .-VDMHAL_IMP_ArrangeMem
	.align	2
	.global	VDMHAL_IMP_ClearIntState
	.type	VDMHAL_IMP_ClearIntState, %function
VDMHAL_IMP_ClearIntState:
.LFB2657:
	.loc 1 1307 0
	.cfi_startproc
.LVL357:
	stp	x29, x30, [sp, -32]!
	.cfi_def_cfa_offset 32
	.cfi_offset 29, -32
	.cfi_offset 30, -24
	.loc 1 1315 0
	cmp	w0, wzr
	.loc 1 1307 0
	add	x29, sp, 0
	.cfi_def_cfa_register 29
	stp	x19, x20, [sp,16]
	.cfi_offset 19, -16
	.cfi_offset 20, -8
	.loc 1 1315 0
	bgt	.L221
	.loc 1 1321 0
	sxtw	x0, w0
	adrp	x20, g_HwMem
	lsl	x19, x0, 4
	add	x20, x20, :lo12:g_HwMem
	add	x19, x19, x0, lsl 2
	sub	x19, x19, x0
	lsl	x19, x19, 6
	ldr	x0, [x20,x19]
.LVL358:
	cbz	x0, .L222
.LVL359:
.L219:
	.loc 1 1367 0 discriminator 1
	mov	w1, -1
	str	w1, [x0,32]
.LVL360:
.L216:
	.loc 1 1370 0
	ldp	x19, x20, [sp,16]
	.cfi_remember_state
	.cfi_restore 20
	.cfi_restore 19
	ldp	x29, x30, [sp], 32
	.cfi_restore 30
	.cfi_restore 29
	.cfi_def_cfa 31, 0
	ret
.LVL361:
.L221:
	.cfi_restore_state
	.loc 1 1317 0
	adrp	x2, .LANCHOR0
	adrp	x1, .LC0
	add	x2, x2, :lo12:.LANCHOR0
	mov	w3, w0
	add	x1, x1, :lo12:.LC0
	add	x2, x2, 152
	mov	w4, 0
	mov	w0, 0
.LVL362:
	bl	dprint_linux_kernel
.LVL363:
	.loc 1 1370 0
	ldp	x19, x20, [sp,16]
	.cfi_remember_state
	.cfi_restore 19
	.cfi_restore 20
	ldp	x29, x30, [sp], 32
	.cfi_restore 29
	.cfi_restore 30
	.cfi_def_cfa 31, 0
	ret
.L222:
	.cfi_restore_state
	.loc 1 1323 0
	adrp	x0, gVdhRegBaseAddr
	ldr	w0, [x0,#:lo12:gVdhRegBaseAddr]
	bl	MEM_Phy2Vir
.LVL364:
	cbz	x0, .L220
	.loc 1 1325 0
	str	x0, [x20,x19]
	b	.L219
.L220:
.LBB56:
.LBB57:
	.loc 1 1329 0
	adrp	x2, .LANCHOR0
	adrp	x1, .LC1
	add	x2, x2, :lo12:.LANCHOR0
	add	x1, x1, :lo12:.LC1
	add	x2, x2, 152
	mov	w3, 1329
	mov	w0, 0
.LVL365:
	bl	dprint_linux_kernel
.LVL366:
	b	.L216
.LBE57:
.LBE56:
	.cfi_endproc
.LFE2657:
	.size	VDMHAL_IMP_ClearIntState, .-VDMHAL_IMP_ClearIntState
	.align	2
	.global	VDMHAL_IMP_CheckReg
	.type	VDMHAL_IMP_CheckReg, %function
VDMHAL_IMP_CheckReg:
.LFB2658:
	.loc 1 1373 0
	.cfi_startproc
.LVL367:
	stp	x29, x30, [sp, -64]!
	.cfi_def_cfa_offset 64
	.cfi_offset 29, -64
	.cfi_offset 30, -56
	mov	w3, w0
	add	x29, sp, 0
	.cfi_def_cfa_register 29
	stp	x19, x20, [sp,16]
	.cfi_offset 19, -48
	.cfi_offset 20, -40
	sxtw	x19, w1
	stp	x21, x22, [sp,32]
	.cfi_offset 21, -32
	.cfi_offset 22, -24
	.loc 1 1378 0
	cmp	w19, wzr
	bgt	.L236
	.loc 1 1384 0
	lsl	x20, x19, 4
	adrp	x21, g_HwMem
	add	x20, x20, x19, lsl 2
	add	x22, x21, :lo12:g_HwMem
	sub	x20, x20, x19
	lsl	x20, x20, 6
	ldr	x0, [x22,x20]
	cbz	x0, .L237
.LVL368:
.L226:
	.loc 1 1397 0
	sub	w0, w3, #1
.LVL369:
	cmp	w0, 3
	bls	.L238
	.loc 1 1416 0
	adrp	x2, .LANCHOR0
	adrp	x1, .LC48
	add	x2, x2, :lo12:.LANCHOR0
	add	x1, x1, :lo12:.LC48
	add	x2, x2, 184
	mov	w0, 0
	bl	dprint_linux_kernel
.LVL370:
	.loc 1 1417 0
	mov	w0, 0
	.loc 1 1423 0
	ldp	x19, x20, [sp,16]
	.cfi_remember_state
	.cfi_restore 19
	.cfi_restore 20
.LVL371:
	ldp	x21, x22, [sp,32]
	.cfi_restore 21
	.cfi_restore 22
	ldp	x29, x30, [sp], 64
	.cfi_restore 29
	.cfi_restore 30
	.cfi_def_cfa 31, 0
	ret
.LVL372:
.L238:
	.cfi_restore_state
	.loc 1 1397 0
	adrp	x1, .L232
	add	x1, x1, :lo12:.L232
	ldrb	w0, [x1,w0,uxtw]
	adr	x1, .Lrtx232
	add	x0, x1, w0, sxtb #2
	br	x0
.Lrtx232:
	.section	.rodata
	.align	0
	.align	2
.L232:
	.byte	(.L231 - .Lrtx232) / 4
	.byte	(.L229 - .Lrtx232) / 4
	.byte	(.L233 - .Lrtx232) / 4
	.byte	(.L234 - .Lrtx232) / 4
	.text
.L234:
	mov	x0, 40
.L230:
	.loc 1 1420 0 discriminator 1
	lsl	x20, x19, 4
	add	x21, x21, :lo12:g_HwMem
	add	x20, x20, x19, lsl 2
	sub	x20, x20, x19
	lsl	x20, x20, 6
	ldr	x1, [x21,x20]
	ldr	w0, [x1,x0]
.L235:
	.loc 1 1423 0
	ldp	x19, x20, [sp,16]
	.cfi_remember_state
	.cfi_restore 20
	.cfi_restore 19
.LVL373:
	ldp	x21, x22, [sp,32]
	.cfi_restore 22
	.cfi_restore 21
	ldp	x29, x30, [sp], 64
	.cfi_restore 30
	.cfi_restore 29
	.cfi_def_cfa 31, 0
	ret
.LVL374:
.L233:
	.cfi_restore_state
	.loc 1 1397 0
	mov	x0, 36
	b	.L230
.L229:
	mov	x0, 32
	b	.L230
.L231:
	mov	x0, 28
	b	.L230
.L237:
	.loc 1 1386 0
	adrp	x0, gVdhRegBaseAddr
	str	x3, [x29,56]
	ldr	w0, [x0,#:lo12:gVdhRegBaseAddr]
	bl	MEM_Phy2Vir
.LVL375:
	cbz	x0, .L227
	.loc 1 1388 0
	str	x0, [x22,x20]
	ldr	x3, [x29,56]
.LVL376:
	b	.L226
.LVL377:
.L236:
	.loc 1 1380 0
	adrp	x2, .LANCHOR0
	adrp	x1, .LC47
	add	x2, x2, :lo12:.LANCHOR0
	mov	w0, 0
	add	x1, x1, :lo12:.LC47
	add	x2, x2, 184
	mov	w3, w19
.LVL378:
	bl	dprint_linux_kernel
.LVL379:
	.loc 1 1381 0
	mov	w0, -1
	b	.L235
.LVL380:
.L227:
	.loc 1 1392 0
	adrp	x2, .LANCHOR0
	adrp	x1, .LC1
	add	x2, x2, :lo12:.LANCHOR0
	mov	w0, 0
.LVL381:
	add	x1, x1, :lo12:.LC1
	add	x2, x2, 184
	mov	w3, 1392
	bl	dprint_linux_kernel
.LVL382:
	.loc 1 1393 0
	mov	w0, 0
	b	.L235
	.cfi_endproc
.LFE2658:
	.size	VDMHAL_IMP_CheckReg, .-VDMHAL_IMP_CheckReg
	.align	2
	.global	VDMHAL_IMP_PrepareDec
	.type	VDMHAL_IMP_PrepareDec, %function
VDMHAL_IMP_PrepareDec:
.LFB2659:
	.loc 1 1437 0
	.cfi_startproc
.LVL383:
	stp	x29, x30, [sp, -48]!
	.cfi_def_cfa_offset 48
	.cfi_offset 29, -48
	.cfi_offset 30, -40
	add	x29, sp, 0
	.cfi_def_cfa_register 29
	stp	x19, x20, [sp,16]
	stp	x21, x22, [sp,32]
	.cfi_offset 19, -32
	.cfi_offset 20, -24
	.cfi_offset 21, -16
	.cfi_offset 22, -8
	.loc 1 1439 0
	cbz	x1, .L255
	.loc 1 1444 0
	cmp	w2, wzr
	mov	w20, w2
	mov	w19, w0
	mov	x21, x1
	bgt	.L256
	.loc 1 1450 0
	cmp	w0, 6
	beq	.L257
	.loc 1 1456 0
	adrp	x22, gScdRegBaseAddr
	mov	w1, 0
	ldr	w0, [x22,#:lo12:gScdRegBaseAddr]
	bl	MEM_WritePhyWord
.LVL384:
	.loc 1 1460 0
	ldr	w0, [x22,#:lo12:gScdRegBaseAddr]
	mov	w1, 1
	add	w0, w0, 8
	bl	MEM_WritePhyWord
.LVL385:
	.loc 1 1462 0
	cmp	w19, 16
	bls	.L258
.LVL386:
.L255:
	.loc 1 1543 0
	mov	w0, -1
	b	.L240
.L258:
	.loc 1 1462 0
	adrp	x0, .L244
	add	x0, x0, :lo12:.L244
	ldrb	w0, [x0,w19,uxtw]
	adr	x1, .Lrtx244
	add	x0, x1, w0, sxtb #2
	br	x0
.Lrtx244:
	.section	.rodata
	.align	0
	.align	2
.L244:
	.byte	(.L243 - .Lrtx244) / 4
	.byte	(.L245 - .Lrtx244) / 4
	.byte	(.L246 - .Lrtx244) / 4
	.byte	(.L247 - .Lrtx244) / 4
	.byte	(.L255 - .Lrtx244) / 4
	.byte	(.L248 - .Lrtx244) / 4
	.byte	(.L255 - .Lrtx244) / 4
	.byte	(.L255 - .Lrtx244) / 4
	.byte	(.L249 - .Lrtx244) / 4
	.byte	(.L250 - .Lrtx244) / 4
	.byte	(.L251 - .Lrtx244) / 4
	.byte	(.L251 - .Lrtx244) / 4
	.byte	(.L251 - .Lrtx244) / 4
	.byte	(.L252 - .Lrtx244) / 4
	.byte	(.L255 - .Lrtx244) / 4
	.byte	(.L255 - .Lrtx244) / 4
	.byte	(.L253 - .Lrtx244) / 4
	.text
.LVL387:
.L257:
	.loc 1 1452 0
	adrp	x19, gScdRegBaseAddr
	mov	w1, 1
	ldr	w0, [x19,#:lo12:gScdRegBaseAddr]
.LVL388:
	bl	MEM_WritePhyWord
.LVL389:
	.loc 1 1460 0
	ldr	w0, [x19,#:lo12:gScdRegBaseAddr]
	mov	w1, 1
	add	w0, w0, 8
	bl	MEM_WritePhyWord
.LVL390:
	.loc 1 1543 0
	mov	w0, -1
.LVL391:
.L240:
	.loc 1 1544 0
	ldp	x19, x20, [sp,16]
	.cfi_remember_state
	.cfi_restore 20
	.cfi_restore 19
.LVL392:
	ldp	x21, x22, [sp,32]
	.cfi_restore 22
	.cfi_restore 21
.LVL393:
	ldp	x29, x30, [sp], 48
	.cfi_restore 30
	.cfi_restore 29
	.cfi_def_cfa 31, 0
	ret
.LVL394:
.L253:
	.cfi_restore_state
	.loc 1 1473 0
	mov	x0, x21
	mov	w1, w20
	bl	HEVCHAL_StartDec
.LVL395:
	b	.L240
.L252:
	.loc 1 1529 0
	mov	x0, x21
	mov	w1, w20
	bl	VP8HAL_StartDec
.LVL396:
	b	.L240
.L251:
	.loc 1 1523 0
	mov	x0, x21
	mov	w1, w20
	bl	VP6HAL_StartDec
.LVL397:
	b	.L240
.L250:
	.loc 1 1503 0
	mov	x0, x21
	mov	w1, w20
	bl	RV9HAL_StartDec
.LVL398:
	b	.L240
.L249:
	.loc 1 1497 0
	mov	x0, x21
	mov	w1, w20
	bl	RV8HAL_StartDec
.LVL399:
	b	.L240
.L248:
	.loc 1 1509 0
	mov	x0, x21
	mov	w1, w20
	bl	DIVX3HAL_StartDec
.LVL400:
	b	.L240
.L247:
	.loc 1 1479 0
	mov	x0, x21
	mov	w1, w20
	bl	MP2HAL_StartDec
.LVL401:
	b	.L240
.L246:
	.loc 1 1485 0
	mov	x0, x21
	mov	w1, w20
	bl	MP4HAL_StartDec
.LVL402:
	b	.L240
.L245:
	.loc 1 1515 0
	mov	x0, x21
	mov	w1, w20
	bl	VC1HAL_StartDec
.LVL403:
	b	.L240
.L243:
	.loc 1 1467 0
	mov	x0, x21
	mov	w1, w20
	bl	H264HAL_StartDec
.LVL404:
	b	.L240
.L256:
	.loc 1 1446 0
	adrp	x1, .LC0
	adrp	x2, .LANCHOR1
	mov	w0, 0
	add	x1, x1, :lo12:.LC0
	add	x2, x2, :lo12:.LANCHOR1
	mov	w3, w20
	mov	w4, 0
	bl	dprint_linux_kernel
.LVL405:
	.loc 1 1447 0
	mov	w0, -1
	b	.L240
	.cfi_endproc
.LFE2659:
	.size	VDMHAL_IMP_PrepareDec, .-VDMHAL_IMP_PrepareDec
	.align	2
	.global	VDMHAL_IMP_IsVdmReady
	.type	VDMHAL_IMP_IsVdmReady, %function
VDMHAL_IMP_IsVdmReady:
.LFB2660:
	.loc 1 1554 0
	.cfi_startproc
.LVL406:
	sxtw	x1, w0
	.loc 1 1557 0
	lsl	x0, x1, 4
.LVL407:
	.loc 1 1554 0
	mov	x3, x1
.LVL408:
	.loc 1 1557 0
	add	x0, x0, x1, lsl 2
	sub	x0, x0, x1
	adrp	x1, g_HwMem
.LVL409:
	lsl	x0, x0, 6
	add	x1, x1, :lo12:g_HwMem
	.loc 1 1554 0
	stp	x29, x30, [sp, -16]!
	.cfi_def_cfa_offset 16
	.cfi_offset 29, -16
	.cfi_offset 30, -8
	add	x29, sp, 0
	.cfi_def_cfa_register 29
	.loc 1 1557 0
	ldr	x0, [x1,x0]
	cbz	x0, .L264
.LVL410:
	.loc 1 1559 0
	cmp	w3, wzr
	ble	.L265
	.loc 1 1559 0 is_stmt 0 discriminator 2
	adrp	x2, .LANCHOR1
	adrp	x1, .LC50
	add	x2, x2, :lo12:.LANCHOR1
	mov	w0, 32
	add	x1, x1, :lo12:.LC50
	add	x2, x2, 24
	mov	w4, 1
	bl	dprint_linux_kernel
.LVL411:
	mov	w0, 0
.L261:
	.loc 1 1565 0 is_stmt 1
	ldp	x29, x30, [sp], 16
	.cfi_remember_state
	.cfi_restore 30
	.cfi_restore 29
	.cfi_def_cfa 31, 0
	ret
.LVL412:
.L265:
	.cfi_restore_state
	.loc 1 1559 0 discriminator 1
	ldr	w0, [x0,28]
	.loc 1 1565 0
	ldp	x29, x30, [sp], 16
	.cfi_remember_state
	.cfi_restore 29
	.cfi_restore 30
	.cfi_def_cfa 31, 0
.LVL413:
	ubfx	x0, x0, 17, 1
.LVL414:
	ret
.LVL415:
.L264:
	.cfi_restore_state
	.loc 1 1557 0 discriminator 1
	adrp	x2, .LANCHOR1
	adrp	x1, .LC6
	add	x2, x2, :lo12:.LANCHOR1
	adrp	x4, .LC49
	add	x1, x1, :lo12:.LC6
	add	x2, x2, 24
	mov	w3, 1557
	add	x4, x4, :lo12:.LC49
	bl	dprint_linux_kernel
.LVL416:
	mov	w0, -1
	.loc 1 1557 0 is_stmt 0
	b	.L261
	.cfi_endproc
.LFE2660:
	.size	VDMHAL_IMP_IsVdmReady, .-VDMHAL_IMP_IsVdmReady
	.align	2
	.global	VDMHAL_IMP_IsVdmRun
	.type	VDMHAL_IMP_IsVdmRun, %function
VDMHAL_IMP_IsVdmRun:
.LFB2661:
	.loc 1 1568 0 is_stmt 1
	.cfi_startproc
.LVL417:
	sxtw	x1, w0
	.loc 1 1571 0
	lsl	x0, x1, 4
.LVL418:
	.loc 1 1568 0
	mov	x3, x1
.LVL419:
	.loc 1 1571 0
	add	x0, x0, x1, lsl 2
	sub	x0, x0, x1
	adrp	x1, g_HwMem
.LVL420:
	lsl	x0, x0, 6
	add	x1, x1, :lo12:g_HwMem
	.loc 1 1568 0
	stp	x29, x30, [sp, -16]!
	.cfi_def_cfa_offset 16
	.cfi_offset 29, -16
	.cfi_offset 30, -8
	add	x29, sp, 0
	.cfi_def_cfa_register 29
	.loc 1 1571 0
	ldr	x0, [x1,x0]
	cbz	x0, .L270
.LVL421:
	.loc 1 1577 0
	cmp	w3, wzr
	ble	.L271
	.loc 1 1577 0 is_stmt 0 discriminator 2
	adrp	x2, .LANCHOR1
	adrp	x1, .LC50
	add	x2, x2, :lo12:.LANCHOR1
	mov	w0, 32
	add	x1, x1, :lo12:.LC50
	add	x2, x2, 48
	mov	w4, 1
	bl	dprint_linux_kernel
.LVL422:
	.loc 1 1585 0 is_stmt 1
	mov	w0, 1
.L268:
	.loc 1 1587 0
	ldp	x29, x30, [sp], 16
	.cfi_remember_state
	.cfi_restore 30
	.cfi_restore 29
	.cfi_def_cfa 31, 0
	ret
.LVL423:
.L271:
	.cfi_restore_state
	.loc 1 1577 0 discriminator 1
	ldr	w0, [x0,40]
	.loc 1 1587 0
	ldp	x29, x30, [sp], 16
	.cfi_remember_state
	.cfi_restore 29
	.cfi_restore 30
	.cfi_def_cfa 31, 0
.LVL424:
	.loc 1 1579 0
	cmp	w0, 1
	cset	w0, ne
.LVL425:
	.loc 1 1587 0
	ret
.LVL426:
.L270:
	.cfi_restore_state
	.loc 1 1573 0
	adrp	x1, .LC51
	add	x1, x1, :lo12:.LC51
	bl	dprint_linux_kernel
.LVL427:
	.loc 1 1574 0
	mov	w0, 0
	b	.L268
	.cfi_endproc
.LFE2661:
	.size	VDMHAL_IMP_IsVdmRun, .-VDMHAL_IMP_IsVdmRun
	.align	2
	.global	VDMHAL_IMP_BackupInfo
	.type	VDMHAL_IMP_BackupInfo, %function
VDMHAL_IMP_BackupInfo:
.LFB2662:
	.loc 1 1590 0
	.cfi_startproc
.LVL428:
	stp	x29, x30, [sp, -48]!
	.cfi_def_cfa_offset 48
	.cfi_offset 29, -48
	.cfi_offset 30, -40
	add	x29, sp, 0
	.cfi_def_cfa_register 29
	stp	x19, x20, [sp,16]
	stp	x21, x22, [sp,32]
	.cfi_offset 19, -32
	.cfi_offset 20, -24
	.cfi_offset 21, -16
	.cfi_offset 22, -8
	.loc 1 1600 0
	cbz	x0, .L304
	.loc 1 1602 0
	ldr	w3, [x0,8]
	.loc 1 1601 0
	ldr	x20, [x0]
.LVL429:
	.loc 1 1605 0
	cbnz	w3, .L305
	adrp	x0, g_DSPState
.LVL430:
	adrp	x2, g_DSPState+128
	add	x0, x0, :lo12:g_DSPState
	add	x2, x2, :lo12:g_DSPState+128
	b	.L277
.L307:
	.loc 1 1613 0 discriminator 1
	cmp	x0, x2
	beq	.L306
.L277:
	.loc 1 1615 0
	ldr	w1, [x0]
	add	x0, x0, 4
	cmp	w1, 1
	bne	.L307
	.loc 1 1622 0
	adrp	x21, g_HwMem
	ldr	x0, [x21,#:lo12:g_HwMem]
	cbz	x0, .L308
	.loc 1 1636 0 discriminator 1
	adrp	x19, g_BackUp
	ldr	w2, [x0,12]
	add	x1, x19, :lo12:g_BackUp
	.loc 1 1637 0 discriminator 1
	ldr	w22, [x0,28]
	.loc 1 1636 0 discriminator 1
	str	w2, [x19,#:lo12:g_BackUp]
	.loc 1 1637 0 discriminator 1
	str	w22, [x1,4]
.L288:
	.loc 1 1643 0
	add	x0, x21, :lo12:g_HwMem
	.loc 1 1642 0
	and	w22, w22, 131071
.LVL431:
	.loc 1 1644 0
	ldr	w0, [x0,36]
	bl	MEM_Phy2Vir
.LVL432:
	.loc 1 1645 0
	cbz	x0, .L309
	.loc 1 1648 0
	sub	w1, w22, #1
	cmp	w1, 199
	bhi	.L294
	lsl	w1, w22, 2
	sub	w1, w1, #4
	lsl	x1, x1, 2
	add	x3, x1, 8
.L280:
	.loc 1 1658 0
	add	x2, x19, :lo12:g_BackUp
	ldr	w1, [x0,x1]
	.loc 1 1670 0 discriminator 1
	ldr	x4, [x21,#:lo12:g_HwMem]
	.loc 1 1671 0 discriminator 1
	mov	w8, 1
.LVL433:
	ldr	w7, [x19,#:lo12:g_BackUp]
	.loc 1 1658 0
	str	w1, [x2,16]
	.loc 1 1670 0 discriminator 1
	ldr	w5, [x4,208]
	.loc 1 1662 0
	ldr	w0, [x0,x3]
.LVL434:
	.loc 1 1671 0 discriminator 1
	ldr	w6, [x4,212]
	.loc 1 1662 0
	str	w0, [x2,20]
	.loc 1 1670 0 discriminator 1
	str	w5, [x2,8]
	.loc 1 1671 0 discriminator 1
	str	w6, [x2,12]
	b	.L281
.LVL435:
.L306:
	.loc 1 1622 0
	adrp	x21, g_HwMem
	ldr	x4, [x21,#:lo12:g_HwMem]
	cbz	x4, .L310
	.loc 1 1636 0 discriminator 1
	adrp	x19, g_BackUp
	ldr	w7, [x4,12]
	add	x0, x19, :lo12:g_BackUp
	.loc 1 1637 0 discriminator 1
	ldr	w1, [x4,28]
	.loc 1 1636 0 discriminator 1
	str	w7, [x19,#:lo12:g_BackUp]
	.loc 1 1637 0 discriminator 1
	str	w1, [x0,4]
.L285:
	.loc 1 1666 0 discriminator 1
	add	x0, x19, :lo12:g_BackUp
	ldr	w12, [x4,4096]
	.loc 1 1667 0 discriminator 1
	ldr	w11, [x4,4116]
	mov	w8, 0
.LVL436:
	.loc 1 1670 0 discriminator 1
	ldr	w5, [x4,208]
	.loc 1 1671 0 discriminator 1
	ldr	w6, [x4,212]
	.loc 1 1676 0 discriminator 1
	ldr	w10, [x4,176]
	.loc 1 1677 0 discriminator 1
	ldr	w9, [x4,180]
	.loc 1 1678 0 discriminator 1
	ldr	w3, [x4,184]
.LVL437:
	.loc 1 1679 0 discriminator 1
	ldr	w2, [x4,188]
	.loc 1 1680 0 discriminator 1
	ldr	w1, [x4,192]
	.loc 1 1666 0 discriminator 1
	str	w12, [x0,16]
	.loc 1 1667 0 discriminator 1
	str	w11, [x0,20]
	.loc 1 1670 0 discriminator 1
	str	w5, [x0,8]
	.loc 1 1671 0 discriminator 1
	str	w6, [x0,12]
	.loc 1 1676 0 discriminator 1
	str	w10, [x0,24]
	.loc 1 1677 0 discriminator 1
	str	w9, [x0,28]
	.loc 1 1678 0 discriminator 1
	str	w3, [x0,32]
	.loc 1 1679 0 discriminator 1
	str	w2, [x0,36]
	.loc 1 1680 0 discriminator 1
	str	w1, [x0,40]
.LVL438:
.L281:
	add	x4, x4, 32768
	adrp	x0, g_BackUp+52
	adrp	x3, g_BackUp+180
	add	x1, x4, 256
	add	x0, x0, :lo12:g_BackUp+52
	add	x3, x3, :lo12:g_BackUp+180
.L282:
	.loc 1 1685 0 discriminator 1
	ldr	w2, [x1],4
	str	w2, [x0],4
	.loc 1 1683 0 discriminator 1
	cmp	x0, x3
	bne	.L282
	.loc 1 1689 0
	cbnz	w8, .L283
	.loc 1 1691 0 discriminator 1
	add	x19, x19, :lo12:g_BackUp
	ldr	w1, [x4,384]
	.loc 1 1692 0 discriminator 1
	ldr	w0, [x4,388]
	.loc 1 1691 0 discriminator 1
	str	w1, [x19,48]
	.loc 1 1692 0 discriminator 1
	str	w0, [x19,44]
.L283:
	.loc 1 1695 0
	and	w7, w7, 15
	cmp	w7, 5
	beq	.L311
	.loc 1 1701 0
	and	w5, w5, 31
	.loc 1 1704 0
	mov	w0, 0
	.loc 1 1701 0
	str	w5, [x20]
.L297:
	.loc 1 1705 0
	ldp	x19, x20, [sp,16]
	.cfi_remember_state
	.cfi_restore 20
	.cfi_restore 19
.LVL439:
	ldp	x21, x22, [sp,32]
	.cfi_restore 22
	.cfi_restore 21
.LVL440:
	ldp	x29, x30, [sp], 48
	.cfi_restore 30
	.cfi_restore 29
	.cfi_def_cfa 31, 0
	ret
.LVL441:
.L311:
	.cfi_restore_state
	.loc 1 1697 0
	and	w6, w6, 1
	str	w6, [x20]
	.loc 1 1704 0
	mov	w0, 0
	.loc 1 1705 0
	ldp	x19, x20, [sp,16]
	.cfi_remember_state
	.cfi_restore 19
	.cfi_restore 20
.LVL442:
	ldp	x21, x22, [sp,32]
	.cfi_restore 21
	.cfi_restore 22
.LVL443:
	ldp	x29, x30, [sp], 48
	.cfi_restore 29
	.cfi_restore 30
	.cfi_def_cfa 31, 0
	ret
.LVL444:
.L294:
	.cfi_restore_state
	mov	x3, 8
	mov	x1, 0
	b	.L280
.LVL445:
.L308:
	.loc 1 1624 0
	adrp	x0, gVdhRegBaseAddr
	ldr	w0, [x0,#:lo12:gVdhRegBaseAddr]
	bl	MEM_Phy2Vir
.LVL446:
	cbz	x0, .L292
	.loc 1 1636 0 discriminator 1
	adrp	x19, g_BackUp
	ldr	w2, [x0,12]
	add	x1, x19, :lo12:g_BackUp
	.loc 1 1637 0 discriminator 1
	ldr	w22, [x0,28]
	.loc 1 1626 0
	str	x0, [x21,#:lo12:g_HwMem]
	.loc 1 1636 0 discriminator 1
	str	w2, [x19,#:lo12:g_BackUp]
	.loc 1 1637 0 discriminator 1
	str	w22, [x1,4]
	b	.L288
.LVL447:
.L310:
	.loc 1 1624 0
	adrp	x0, gVdhRegBaseAddr
	ldr	w0, [x0,#:lo12:gVdhRegBaseAddr]
	bl	MEM_Phy2Vir
.LVL448:
	cbz	x0, .L292
	.loc 1 1636 0 discriminator 1
	adrp	x19, g_BackUp
	ldr	w7, [x0,12]
	add	x1, x19, :lo12:g_BackUp
	.loc 1 1637 0 discriminator 1
	ldr	w2, [x0,28]
	.loc 1 1626 0
	str	x0, [x21,#:lo12:g_HwMem]
	.loc 1 1637 0 discriminator 1
	mov	x4, x0
	.loc 1 1636 0 discriminator 1
	str	w7, [x19,#:lo12:g_BackUp]
	.loc 1 1637 0 discriminator 1
	str	w2, [x1,4]
	b	.L285
.LVL449:
.L305:
	.loc 1 1607 0
	adrp	x2, .LANCHOR1
	adrp	x1, .LC0
	add	x2, x2, :lo12:.LANCHOR1
	mov	w0, 0
.LVL450:
	add	x1, x1, :lo12:.LC0
	add	x2, x2, 72
	mov	w4, 0
	bl	dprint_linux_kernel
.LVL451:
	.loc 1 1608 0
	mov	w0, -1
	b	.L297
.LVL452:
.L304:
	.loc 1 1600 0 discriminator 1
	adrp	x2, .LANCHOR1
	adrp	x1, .LC6
	add	x2, x2, :lo12:.LANCHOR1
	adrp	x4, .LC52
	add	x1, x1, :lo12:.LC6
	add	x2, x2, 72
	mov	w3, 1600
	add	x4, x4, :lo12:.LC52
	bl	dprint_linux_kernel
.LVL453:
	mov	w0, -1
	.loc 1 1600 0 is_stmt 0
	b	.L297
.LVL454:
.L292:
	.loc 1 1630 0 is_stmt 1
	adrp	x2, .LANCHOR1
	adrp	x1, .LC1
	add	x2, x2, :lo12:.LANCHOR1
	mov	w0, 0
	add	x1, x1, :lo12:.LC1
	add	x2, x2, 72
	mov	w3, 1630
	bl	dprint_linux_kernel
.LVL455:
	.loc 1 1631 0
	mov	w0, -1
	b	.L297
.LVL456:
.L309:
	.loc 1 1645 0 discriminator 1
	adrp	x2, .LANCHOR1
	adrp	x1, .LC6
	add	x2, x2, :lo12:.LANCHOR1
	adrp	x4, .LC53
	add	x1, x1, :lo12:.LC6
	add	x2, x2, 72
	mov	w3, 1645
	add	x4, x4, :lo12:.LC53
	bl	dprint_linux_kernel
.LVL457:
	mov	w0, -1
	.loc 1 1645 0 is_stmt 0
	b	.L297
	.cfi_endproc
.LFE2662:
	.size	VDMHAL_IMP_BackupInfo, .-VDMHAL_IMP_BackupInfo
	.align	2
	.global	VDMHAL_IMP_MakeDecReport
	.type	VDMHAL_IMP_MakeDecReport, %function
VDMHAL_IMP_MakeDecReport:
.LFB2663:
	.loc 1 1708 0 is_stmt 1
	.cfi_startproc
.LVL458:
	stp	x29, x30, [sp, -80]!
	.cfi_def_cfa_offset 80
	.cfi_offset 29, -80
	.cfi_offset 30, -72
	add	x29, sp, 0
	.cfi_def_cfa_register 29
	stp	x19, x20, [sp,16]
	stp	x21, x22, [sp,32]
	stp	x23, x24, [sp,48]
	str	x25, [sp,64]
	.cfi_offset 19, -64
	.cfi_offset 20, -56
	.cfi_offset 21, -48
	.cfi_offset 22, -40
	.cfi_offset 23, -32
	.cfi_offset 24, -24
	.cfi_offset 25, -16
	.loc 1 1718 0
	cbz	x0, .L340
	.loc 1 1720 0
	ldr	x23, [x0,8]
.LVL459:
	.loc 1 1719 0
	ldr	w25, [x0]
	.loc 1 1721 0
	ldr	w19, [x0,16]
	.loc 1 1724 0
	cbz	x23, .L341
.LVL460:
	.loc 1 1725 0
	sxtw	x24, w19
.LVL461:
	adrp	x22, g_HwMem
	lsl	x0, x24, 4
.LVL462:
	add	x1, x22, :lo12:g_HwMem
	add	x0, x0, x24, lsl 2
	sub	x0, x0, x24
	lsl	x0, x0, 6
	ldr	x0, [x1,x0]
	cbz	x0, .L342
	adrp	x21, g_DSPState
	adrp	x1, g_DSPState+128
	add	x21, x21, :lo12:g_DSPState
	add	x1, x1, :lo12:g_DSPState+128
	b	.L318
.L344:
	.loc 1 1730 0 discriminator 1
	cmp	x21, x1
	beq	.L343
.L318:
	.loc 1 1732 0
	ldr	w0, [x21]
	add	x21, x21, 4
	cmp	w0, 1
	bne	.L344
	.loc 1 1734 0
	mov	w20, w0
.LVL463:
.L317:
	.loc 1 1740 0
	mov	w1, 0
	mov	x2, 816
	mov	x0, x23
	bl	memset
.LVL464:
	.loc 1 1741 0
	lsl	x1, x24, 2
	lsl	x0, x24, 4
	add	x3, x1, x0
	add	x2, x22, :lo12:g_HwMem
	sub	x3, x3, x24
	.loc 1 1744 0
	sub	x0, x0, x1
	adrp	x4, g_BackUp
	.loc 1 1741 0
	add	x2, x2, x3, lsl 6
	.loc 1 1744 0
	add	x1, x4, :lo12:g_BackUp
	add	x1, x1, x0, lsl 4
	sub	x0, x1, x0
	.loc 1 1741 0
	ldr	w1, [x2,32]
	str	w1, [x23,4]
	.loc 1 1744 0
	ldr	w0, [x0,4]
	lsr	w0, w0, 17
	and	w1, w0, 3
	cmp	w1, 1
	beq	.L331
	.loc 1 1744 0 is_stmt 0 discriminator 1
	eor	w0, w0, 1
.LVL465:
	.loc 1 1745 0 is_stmt 1
	cmp	w25, 3
	.loc 1 1744 0 discriminator 1
	and	w0, w0, 1
	.loc 1 1745 0
	cset	w1, ne
	orr	w0, w1, w0
.L319:
	.loc 1 1746 0
	lsl	x2, x24, 4
	add	x1, x4, :lo12:g_BackUp
	sub	x2, x2, x24, lsl 2
	.loc 1 1744 0 discriminator 5
	str	w0, [x23]
	.loc 1 1749 0
	cmp	w25, 15
	.loc 1 1746 0
	add	x0, x1, x2, lsl 4
	sub	x0, x0, x2
	ldr	w0, [x0,4]
	and	w2, w0, 131071
	str	w2, [x23,8]
	.loc 1 1749 0
	beq	.L332
	cbz	w25, .L332
.L320:
	.loc 1 1779 0
	cmp	w2, 200
	bhi	.L345
.L323:
	.loc 1 1786 0
	lsl	x21, x24, 4
	add	x22, x22, :lo12:g_HwMem
	add	x21, x21, x24, lsl 2
	sub	x1, x21, x24
	add	x0, x22, x1, lsl 6
	ldr	w22, [x0,36]
.LVL466:
	.loc 1 1787 0
	mov	w0, w22
	bl	MEM_Phy2Vir
.LVL467:
	.loc 1 1788 0
	cbz	x0, .L346
	.loc 1 1790 0
	lsl	x1, x24, 9
	ldr	w2, [x23,8]
	add	x24, x1, x24, lsl 7
.LVL468:
	adrp	x21, g_UpMsg
	mov	x1, x0
	add	x20, x21, :lo12:g_UpMsg
.LVL469:
	add	x0, x24, x24, lsl 2
.LVL470:
	lsl	w2, w2, 2
	add	x0, x20, x0
	bl	VDMHAL_ReadMsgSlot
.LVL471:
	.loc 1 1794 0 discriminator 1
	ldr	w3, [x23,8]
	cbz	w3, .L328
	mov	w0, 200
	sub	w3, w3, #1
	add	x1, x23, 12
.LVL472:
	smaddl	x3, w19, w0, x3
	mov	w0, 3200
	smaddl	x0, w19, w0, x20
	add	x3, x20, x3, lsl 4
	add	x0, x0, 4
	add	x3, x3, 20
.L327:
	.loc 1 1796 0
	ldr	w2, [x0]
	add	x0, x0, 16
	strh	w2, [x1]
	add	x1, x1, 4
	.loc 1 1794 0 discriminator 1
	cmp	x0, x3
	.loc 1 1797 0
	ldr	w2, [x0,-12]
	strh	w2, [x1,-2]
	.loc 1 1794 0 discriminator 1
	bne	.L327
.L328:
	.loc 1 1801 0
	mov	w0, 6
	bl	IsDprintTypeEnable
.LVL473:
	cbnz	w0, .L347
.LVL474:
.L314:
	.loc 1 1817 0
	ldp	x19, x20, [sp,16]
	.cfi_remember_state
	.cfi_restore 20
	.cfi_restore 19
.LVL475:
	ldp	x21, x22, [sp,32]
	.cfi_restore 22
	.cfi_restore 21
.LVL476:
	ldp	x23, x24, [sp,48]
	.cfi_restore 24
	.cfi_restore 23
.LVL477:
	ldr	x25, [sp,64]
	.cfi_restore 25
.LVL478:
	ldp	x29, x30, [sp], 80
	.cfi_restore 30
	.cfi_restore 29
	.cfi_def_cfa 31, 0
	ret
.LVL479:
.L332:
	.cfi_restore_state
	.loc 1 1752 0
	cmp	w20, 1
	beq	.L348
	.loc 1 1765 0
	adrp	x0, g_not_allow_H264FullPictureRepair_flag
	ldrb	w0, [x0,#:lo12:g_not_allow_H264FullPictureRepair_flag]
	cbnz	w0, .L320
	.loc 1 1767 0
	lsl	x1, x24, 4
	add	x4, x4, :lo12:g_BackUp
	sub	x1, x1, x24, lsl 2
	add	x4, x4, x1, lsl 4
	sub	x1, x4, x1
	ldrb	w0, [x1,19]
	and	w0, w0, 3
	cmp	w0, 2
	bne	.L320
	.loc 1 1769 0
	mov	w0, 1
	.loc 1 1770 0
	strh	wzr, [x23,12]
	.loc 1 1769 0
	str	w0, [x23,8]
	.loc 1 1773 0
	mov	w0, 0
	.loc 1 1771 0
	strh	wzr, [x23,14]
	.loc 1 1773 0
	b	.L314
.LVL480:
.L343:
	.loc 1 1713 0
	mov	w20, 0
.LVL481:
	b	.L317
.LVL482:
.L347:
.LBB58:
	.loc 1 1804 0
	ldr	w2, [x23,8]
	adrp	x1, .LC57
	add	x1, x1, :lo12:.LC57
	mov	w0, 6
	add	x21, x21, :lo12:g_UpMsg
	.loc 1 1805 0
	mov	w20, 0
.LVL483:
	.loc 1 1804 0
	bl	dprint_linux_kernel
.LVL484:
	.loc 1 1805 0
	adrp	x1, .LC58
	mov	w2, w22
	mov	w0, 6
	add	x1, x1, :lo12:.LC58
	bl	dprint_linux_kernel
.LVL485:
	mov	w0, 3200
	adrp	x2, .LC59
	.loc 1 1809 0
	add	x22, x2, :lo12:.LC59
.LVL486:
	smaddl	x19, w19, w0, x21
.LVL487:
.L329:
	ldr	w3, [x19]
	mov	w2, w20
	ldr	w4, [x19,4]
	mov	w0, 6
	ldr	w5, [x19,8]
	mov	x1, x22
	ldr	w6, [x19,12]
	.loc 1 1807 0 discriminator 3
	add	w20, w20, 4
	add	x19, x19, 16
	.loc 1 1809 0
	bl	dprint_linux_kernel
.LVL488:
	.loc 1 1807 0 discriminator 1
	ldr	w0, [x23,8]
	lsl	w0, w0, 2
	sub	w0, w0, #3
	cmp	w0, w20
	bhi	.L329
	.loc 1 1813 0
	adrp	x1, .LC60
	mov	w0, 6
	add	x1, x1, :lo12:.LC60
	bl	dprint_linux_kernel
.LVL489:
.LBE58:
	.loc 1 1817 0
	ldr	x25, [sp,64]
	.cfi_remember_state
	.cfi_restore 25
.LVL490:
	.loc 1 1816 0
	mov	w0, 0
	.loc 1 1817 0
	ldp	x19, x20, [sp,16]
	.cfi_restore 19
	.cfi_restore 20
.LVL491:
	ldp	x21, x22, [sp,32]
	.cfi_restore 21
	.cfi_restore 22
	ldp	x23, x24, [sp,48]
	.cfi_restore 23
	.cfi_restore 24
.LVL492:
	ldp	x29, x30, [sp], 80
	.cfi_restore 29
	.cfi_restore 30
	.cfi_def_cfa 31, 0
	ret
.LVL493:
.L331:
	.cfi_restore_state
	mov	w0, 0
	b	.L319
.LVL494:
.L345:
	.loc 1 1781 0
	adrp	x1, .LC56
	mov	w0, 1
	add	x1, x1, :lo12:.LC56
	mov	w3, 200
	bl	dprint_linux_kernel
.LVL495:
	.loc 1 1782 0
	str	wzr, [x23,8]
	b	.L323
.L348:
	.loc 1 1754 0
	lsl	x1, x24, 4
	add	x4, x4, :lo12:g_BackUp
	sub	x0, x1, x24, lsl 2
	add	x4, x4, x0, lsl 4
	sub	x0, x4, x0
	ldr	w0, [x0,16]
	ubfx	x0, x0, 21, 2
	cmp	w0, 2
	bne	.L320
	.loc 1 1756 0
	str	w20, [x23,8]
	.loc 1 1760 0
	mov	w0, 0
	.loc 1 1757 0
	strh	wzr, [x23,12]
	.loc 1 1758 0
	strh	wzr, [x23,14]
	.loc 1 1760 0
	b	.L314
.LVL496:
.L346:
	.loc 1 1788 0 discriminator 1
	adrp	x2, .LANCHOR1
	adrp	x1, .LC6
	add	x2, x2, :lo12:.LANCHOR1
	adrp	x4, .LC53
	add	x1, x1, :lo12:.LC6
	add	x2, x2, 96
	mov	w3, 1788
	add	x4, x4, :lo12:.LC53
	bl	dprint_linux_kernel
.LVL497:
	mov	w0, -1
	.loc 1 1788 0 is_stmt 0
	b	.L314
.LVL498:
.L342:
	.loc 1 1725 0 is_stmt 1 discriminator 1
	adrp	x2, .LANCHOR1
	adrp	x1, .LC6
	add	x2, x2, :lo12:.LANCHOR1
	adrp	x4, .LC49
	add	x1, x1, :lo12:.LC6
	add	x2, x2, 96
	mov	w3, 1725
	add	x4, x4, :lo12:.LC49
	bl	dprint_linux_kernel
.LVL499:
	mov	w0, -1
	.loc 1 1725 0 is_stmt 0
	b	.L314
.LVL500:
.L341:
	.loc 1 1724 0 is_stmt 1 discriminator 1
	adrp	x2, .LANCHOR1
	adrp	x1, .LC6
	add	x2, x2, :lo12:.LANCHOR1
	adrp	x4, .LC55
	mov	w0, 0
.LVL501:
	add	x1, x1, :lo12:.LC6
	add	x2, x2, 96
	mov	w3, 1724
	add	x4, x4, :lo12:.LC55
	bl	dprint_linux_kernel
.LVL502:
	mov	w0, -1
	.loc 1 1724 0 is_stmt 0
	b	.L314
.LVL503:
.L340:
	.loc 1 1718 0 is_stmt 1 discriminator 1
	adrp	x2, .LANCHOR1
	adrp	x1, .LC6
	add	x2, x2, :lo12:.LANCHOR1
	adrp	x4, .LC54
	add	x1, x1, :lo12:.LC6
	add	x2, x2, 96
	mov	w3, 1718
	add	x4, x4, :lo12:.LC54
	bl	dprint_linux_kernel
.LVL504:
	mov	w0, -1
	.loc 1 1718 0 is_stmt 0
	b	.L314
	.cfi_endproc
.LFE2663:
	.size	VDMHAL_IMP_MakeDecReport, .-VDMHAL_IMP_MakeDecReport
	.align	2
	.global	VDMHAL_IMP_PrepareRepair
	.type	VDMHAL_IMP_PrepareRepair, %function
VDMHAL_IMP_PrepareRepair:
.LFB2664:
	.loc 1 1827 0 is_stmt 1
	.cfi_startproc
.LVL505:
	stp	x29, x30, [sp, -80]!
	.cfi_def_cfa_offset 80
	.cfi_offset 29, -80
	.cfi_offset 30, -72
	.loc 1 1832 0
	cmp	w3, wzr
	.loc 1 1827 0
	add	x29, sp, 0
	.cfi_def_cfa_register 29
	stp	x21, x22, [sp,32]
	stp	x23, x24, [sp,48]
	stp	x19, x20, [sp,16]
	.cfi_offset 21, -48
	.cfi_offset 22, -40
	.cfi_offset 23, -32
	.cfi_offset 24, -24
	.cfi_offset 19, -64
	.cfi_offset 20, -56
	.loc 1 1827 0
	mov	w21, w3
	mov	w24, w0
	.loc 1 1832 0
	bgt	.L357
	.loc 1 1838 0
	sxtw	x20, w3
.LVL506:
	adrp	x22, g_HwMem
	lsl	x19, x20, 4
	add	x23, x22, :lo12:g_HwMem
	add	x19, x19, x20, lsl 2
	sub	x19, x19, x20
	lsl	x19, x19, 6
	ldr	x0, [x23,x19]
	cbz	x0, .L358
	.loc 1 1851 0
	cbnz	w2, .L354
.LVL507:
.L360:
	.loc 1 1853 0
	adrp	x23, g_RepairParam
	mov	x19, 1744
	add	x23, x23, :lo12:g_RepairParam
	madd	x23, x20, x19, x23
	ldr	w0, [x23,840]
.LVL508:
	cmp	w0, wzr
	ble	.L355
	.loc 1 1829 0
	lsl	x19, x20, 4
	add	x22, x22, :lo12:g_HwMem
	add	x19, x19, x20, lsl 2
.LVL509:
	.loc 1 1872 0
	mov	w3, w21
	.loc 1 1829 0
	sub	x19, x19, x20
	.loc 1 1872 0
	mov	x2, x1
.LVL510:
	mov	w0, w24
	.loc 1 1829 0
	add	x20, x22, x19, lsl 6
.LVL511:
	.loc 1 1872 0
	mov	x1, x20
.LVL512:
	bl	VDMHAL_CfgRpReg
.LVL513:
	.loc 1 1873 0
	mov	x1, x20
	mov	w2, w21
	mov	x0, x23
	bl	VDMHAL_CfgRpMsg
.LVL514:
	.loc 1 1910 0
	mov	w0, 0
	.loc 1 1911 0
	ldp	x19, x20, [sp,16]
	.cfi_remember_state
	.cfi_restore 19
	.cfi_restore 20
.LVL515:
	ldp	x21, x22, [sp,32]
	.cfi_restore 21
	.cfi_restore 22
.LVL516:
	ldp	x23, x24, [sp,48]
	.cfi_restore 23
	.cfi_restore 24
.LVL517:
	ldp	x29, x30, [sp], 80
	.cfi_restore 29
	.cfi_restore 30
	.cfi_def_cfa 31, 0
	ret
.LVL518:
.L354:
	.cfi_restore_state
	.loc 1 1882 0
	cmp	w2, 1
	.loc 1 1910 0
	mov	w0, 0
.LVL519:
	.loc 1 1882 0
	beq	.L359
.L351:
	.loc 1 1911 0
	ldp	x19, x20, [sp,16]
	.cfi_remember_state
	.cfi_restore 20
	.cfi_restore 19
.LVL520:
	ldp	x21, x22, [sp,32]
	.cfi_restore 22
	.cfi_restore 21
.LVL521:
	ldp	x23, x24, [sp,48]
	.cfi_restore 24
	.cfi_restore 23
.LVL522:
	ldp	x29, x30, [sp], 80
	.cfi_restore 30
	.cfi_restore 29
	.cfi_def_cfa 31, 0
	ret
.LVL523:
.L358:
	.cfi_restore_state
	.loc 1 1840 0
	adrp	x0, gVdhRegBaseAddr
	str	x2, [x29,64]
	str	x1, [x29,72]
	ldr	w0, [x0,#:lo12:gVdhRegBaseAddr]
	bl	MEM_Phy2Vir
.LVL524:
	cbz	x0, .L353
	ldr	x2, [x29,64]
.LVL525:
	.loc 1 1842 0
	str	x0, [x23,x19]
	ldr	x1, [x29,72]
.LVL526:
	.loc 1 1851 0
	cbnz	w2, .L354
	b	.L360
.LVL527:
.L357:
	.loc 1 1834 0
	adrp	x2, .LANCHOR1
.LVL528:
	adrp	x1, .LC0
.LVL529:
	add	x2, x2, :lo12:.LANCHOR1
	mov	w0, 0
	add	x1, x1, :lo12:.LC0
	add	x2, x2, 128
	mov	w4, 0
	bl	dprint_linux_kernel
.LVL530:
	.loc 1 1835 0
	mov	w0, -1
	b	.L351
.LVL531:
.L355:
	.loc 1 1878 0
	adrp	x1, .LC62
.LVL532:
	mov	w0, 0
	add	x1, x1, :lo12:.LC62
	bl	dprint_linux_kernel
.LVL533:
	.loc 1 1879 0
	mov	w0, -1
	b	.L351
.LVL534:
.L359:
	.loc 1 1905 0
	adrp	x1, .LC63
.LVL535:
	add	x1, x1, :lo12:.LC63
	bl	dprint_linux_kernel
.LVL536:
	.loc 1 1906 0
	mov	w0, -1
	b	.L351
.LVL537:
.L353:
	.loc 1 1846 0
	adrp	x1, .LC61
	mov	w0, 0
.LVL538:
	add	x1, x1, :lo12:.LC61
	bl	dprint_linux_kernel
.LVL539:
	.loc 1 1847 0
	mov	w0, -1
	b	.L351
	.cfi_endproc
.LFE2664:
	.size	VDMHAL_IMP_PrepareRepair, .-VDMHAL_IMP_PrepareRepair
	.align	2
	.global	VDMHAL_IMP_StartHwRepair
	.type	VDMHAL_IMP_StartHwRepair, %function
VDMHAL_IMP_StartHwRepair:
.LFB2665:
	.loc 1 1914 0
	.cfi_startproc
.LVL540:
	stp	x29, x30, [sp, -48]!
	.cfi_def_cfa_offset 48
	.cfi_offset 29, -48
	.cfi_offset 30, -40
	.loc 1 1918 0
	cmp	w0, wzr
	.loc 1 1914 0
	add	x29, sp, 0
	.cfi_def_cfa_register 29
	stp	x19, x20, [sp,16]
	str	x21, [sp,32]
	.cfi_offset 19, -32
	.cfi_offset 20, -24
	.cfi_offset 21, -16
	.loc 1 1914 0
	mov	w19, w0
	.loc 1 1918 0
	ble	.L364
	.loc 1 1918 0 is_stmt 0 discriminator 2
	adrp	x20, .LANCHOR1
	adrp	x1, .LC50
	add	x20, x20, :lo12:.LANCHOR1
	mov	w3, w0
	add	x20, x20, 160
	add	x1, x1, :lo12:.LC50
	mov	x2, x20
	mov	w4, 1
	mov	w0, 32
.LVL541:
	.loc 1 1924 0 is_stmt 1 discriminator 2
	adrp	x21, .LC64
	add	x21, x21, :lo12:.LC64
	.loc 1 1918 0 discriminator 2
	bl	dprint_linux_kernel
.LVL542:
	.loc 1 1924 0 discriminator 2
	mov	w3, w19
	mov	w4, 1
	mov	x1, x21
	mov	x2, x20
	mov	w0, 32
	bl	dprint_linux_kernel
.LVL543:
	.loc 1 1930 0
	mov	w1, 0
	mov	w2, 1
	mov	w0, 0
	bl	SMMU_SetMasterReg
.LVL544:
	.loc 1 1934 0
	mov	w0, w19
	bl	VDMHAL_IMP_ClearIntState
.LVL545:
	.loc 1 1935 0
	mov	w0, w19
	bl	VDMHAL_EnableInt
.LVL546:
	.loc 1 1938 0
	adrp	x0, g_vfmw_osal_fun_ptr+72
	ldr	x0, [x0,#:lo12:g_vfmw_osal_fun_ptr+72]
	blr	x0
.LVL547:
	.loc 1 1939 0 discriminator 2
	mov	x1, x21
	mov	x2, x20
	mov	w3, w19
	mov	w4, 1
	mov	w0, 32
	bl	dprint_linux_kernel
.LVL548:
	.loc 1 1940 0 discriminator 2
	mov	x1, x21
	mov	x2, x20
	mov	w3, w19
	mov	w4, 1
	mov	w0, 32
	bl	dprint_linux_kernel
.LVL549:
	.loc 1 1941 0 discriminator 2
	mov	x1, x21
	mov	x2, x20
	mov	w3, w19
	mov	w4, 1
	mov	w0, 32
	bl	dprint_linux_kernel
.LVL550:
	.loc 1 1944 0
	ldr	x21, [sp,32]
	.cfi_remember_state
	.cfi_restore 21
	ldp	x19, x20, [sp,16]
	.cfi_restore 20
	.cfi_restore 19
.LVL551:
	ldp	x29, x30, [sp], 48
	.cfi_restore 30
	.cfi_restore 29
	.cfi_def_cfa 31, 0
	ret
.LVL552:
.L364:
	.cfi_restore_state
	.loc 1 1918 0 discriminator 1
	sxtw	x0, w0
.LVL553:
	adrp	x21, g_HwMem
	lsl	x20, x0, 4
	add	x21, x21, :lo12:g_HwMem
	add	x20, x20, x0, lsl 2
	.loc 1 1930 0
	mov	w1, 0
	.loc 1 1918 0 discriminator 1
	sub	x20, x20, x0
	.loc 1 1930 0
	mov	w2, 1
	.loc 1 1918 0 discriminator 1
	lsl	x20, x20, 6
	.loc 1 1930 0
	mov	w0, 0
.LVL554:
	.loc 1 1918 0 discriminator 1
	ldr	x3, [x21,x20]
	ldr	w4, [x3,8]
	.loc 1 1924 0 discriminator 1
	mov	w4, 67108864
	str	w4, [x3,8]
	.loc 1 1930 0
	bl	SMMU_SetMasterReg
.LVL555:
	.loc 1 1934 0
	mov	w0, w19
	bl	VDMHAL_IMP_ClearIntState
.LVL556:
	.loc 1 1935 0
	mov	w0, w19
	bl	VDMHAL_EnableInt
.LVL557:
	.loc 1 1938 0
	adrp	x0, g_vfmw_osal_fun_ptr+72
	ldr	x0, [x0,#:lo12:g_vfmw_osal_fun_ptr+72]
	blr	x0
.LVL558:
	.loc 1 1939 0 discriminator 1
	ldr	x0, [x21,x20]
	.loc 1 1940 0 discriminator 1
	mov	w1, 1
	.loc 1 1939 0 discriminator 1
	str	wzr, [x0]
	.loc 1 1940 0 discriminator 1
	ldr	x0, [x21,x20]
	str	w1, [x0]
	.loc 1 1941 0 discriminator 1
	ldr	x0, [x21,x20]
	str	wzr, [x0]
	.loc 1 1944 0
	ldp	x19, x20, [sp,16]
	.cfi_restore 19
	.cfi_restore 20
.LVL559:
	ldr	x21, [sp,32]
	.cfi_restore 21
	ldp	x29, x30, [sp], 48
	.cfi_restore 29
	.cfi_restore 30
	.cfi_def_cfa 31, 0
	ret
	.cfi_endproc
.LFE2665:
	.size	VDMHAL_IMP_StartHwRepair, .-VDMHAL_IMP_StartHwRepair
	.align	2
	.global	VDMHAL_IMP_StartHwDecode
	.type	VDMHAL_IMP_StartHwDecode, %function
VDMHAL_IMP_StartHwDecode:
.LFB2666:
	.loc 1 1947 0
	.cfi_startproc
.LVL560:
	stp	x29, x30, [sp, -64]!
	.cfi_def_cfa_offset 64
	.cfi_offset 29, -64
	.cfi_offset 30, -56
	.loc 1 1950 0
	cmp	w0, wzr
	.loc 1 1947 0
	add	x29, sp, 0
	.cfi_def_cfa_register 29
	stp	x19, x20, [sp,16]
	stp	x21, x22, [sp,32]
	str	x23, [sp,48]
	.cfi_offset 19, -48
	.cfi_offset 20, -40
	.cfi_offset 21, -32
	.cfi_offset 22, -24
	.cfi_offset 23, -16
	.loc 1 1947 0
	mov	w19, w0
	.loc 1 1950 0
	ble	.L366
	.loc 1 1952 0
	adrp	x2, .LANCHOR1
	adrp	x1, .LC0
	add	x2, x2, :lo12:.LANCHOR1
	mov	w3, w0
	add	x1, x1, :lo12:.LC0
	add	x2, x2, 192
	mov	w4, 0
	mov	w0, 0
.LVL561:
	bl	dprint_linux_kernel
.LVL562:
	.loc 1 1979 0
	ldr	x23, [sp,48]
	.cfi_remember_state
	.cfi_restore 23
	ldp	x19, x20, [sp,16]
	.cfi_restore 20
	.cfi_restore 19
.LVL563:
	ldp	x21, x22, [sp,32]
	.cfi_restore 22
	.cfi_restore 21
	ldp	x29, x30, [sp], 64
	.cfi_restore 30
	.cfi_restore 29
	.cfi_def_cfa 31, 0
	ret
.LVL564:
.L366:
	.cfi_restore_state
.LBB63:
.LBB64:
	.loc 1 1321 0
	sxtw	x22, w19
.LVL565:
	adrp	x21, g_HwMem
	lsl	x20, x22, 4
.LBE64:
.LBE63:
	.loc 1 1966 0
	mov	w0, 0
.LBB72:
.LBB67:
	.loc 1 1321 0
	add	x20, x20, x22, lsl 2
.LBE67:
.LBE72:
	.loc 1 1966 0
	mov	w1, 0
.LBB73:
.LBB68:
	.loc 1 1321 0
	sub	x20, x20, x22
.LBE68:
.LBE73:
	.loc 1 1966 0
	mov	w2, 1
.LBB74:
.LBB69:
	.loc 1 1321 0
	add	x23, x21, :lo12:g_HwMem
	lsl	x20, x20, 6
.LBE69:
.LBE74:
	.loc 1 1966 0
	bl	SMMU_SetMasterReg
.LVL566:
.LBB75:
.LBB70:
	.loc 1 1321 0
	ldr	x0, [x23,x20]
	cbz	x0, .L371
.LVL567:
.L368:
	.loc 1 1367 0 discriminator 1
	mov	w1, -1
	str	w1, [x0,32]
.LVL568:
.L370:
.LBE70:
.LBE75:
	.loc 1 1971 0
	mov	w0, w19
	bl	VDMHAL_EnableInt
.LVL569:
	.loc 1 1973 0
	adrp	x0, g_vfmw_osal_fun_ptr+72
	ldr	x0, [x0,#:lo12:g_vfmw_osal_fun_ptr+72]
	blr	x0
.LVL570:
	.loc 1 1974 0 discriminator 1
	lsl	x0, x22, 4
	add	x1, x21, :lo12:g_HwMem
	add	x0, x0, x22, lsl 2
	.loc 1 1975 0 discriminator 1
	mov	w3, 1
	.loc 1 1974 0 discriminator 1
	sub	x0, x0, x22
	lsl	x0, x0, 6
	ldr	x2, [x1,x0]
	str	wzr, [x2]
	.loc 1 1975 0 discriminator 1
	ldr	x2, [x1,x0]
	str	w3, [x2]
	.loc 1 1976 0 discriminator 1
	ldr	x0, [x1,x0]
	str	wzr, [x0]
	.loc 1 1979 0
	ldp	x19, x20, [sp,16]
	.cfi_remember_state
	.cfi_restore 19
	.cfi_restore 20
.LVL571:
	ldp	x21, x22, [sp,32]
	.cfi_restore 21
	.cfi_restore 22
.LVL572:
	ldr	x23, [sp,48]
	.cfi_restore 23
	ldp	x29, x30, [sp], 64
	.cfi_restore 29
	.cfi_restore 30
	.cfi_def_cfa 31, 0
	ret
.LVL573:
.L371:
	.cfi_restore_state
.LBB76:
.LBB71:
	.loc 1 1323 0
	adrp	x0, gVdhRegBaseAddr
	ldr	w0, [x0,#:lo12:gVdhRegBaseAddr]
	bl	MEM_Phy2Vir
.LVL574:
	cbz	x0, .L369
	.loc 1 1325 0
	str	x0, [x23,x20]
	b	.L368
.L369:
.LBB65:
.LBB66:
	.loc 1 1329 0
	adrp	x2, .LANCHOR0
	adrp	x1, .LC1
	add	x2, x2, :lo12:.LANCHOR0
	add	x1, x1, :lo12:.LC1
	add	x2, x2, 152
	mov	w3, 1329
	mov	w0, 0
.LVL575:
	bl	dprint_linux_kernel
.LVL576:
	b	.L370
.LBE66:
.LBE65:
.LBE71:
.LBE76:
	.cfi_endproc
.LFE2666:
	.size	VDMHAL_IMP_StartHwDecode, .-VDMHAL_IMP_StartHwDecode
	.align	2
	.global	VDMHAL_IMP_GetCharacter
	.type	VDMHAL_IMP_GetCharacter, %function
VDMHAL_IMP_GetCharacter:
.LFB2667:
	.loc 1 1982 0
	.cfi_startproc
	.loc 1 1983 0
	adrp	x0, g_VdmCharacter
	mov	w1, 15
	str	w1, [x0,#:lo12:g_VdmCharacter]
	.loc 1 1984 0
	adrp	x0, g_eVdmVersion
	mov	w1, 1
	str	w1, [x0,#:lo12:g_eVdmVersion]
	.loc 1 1986 0
	ret
	.cfi_endproc
.LFE2667:
	.size	VDMHAL_IMP_GetCharacter, .-VDMHAL_IMP_GetCharacter
	.align	2
	.global	VDMHAL_IMP_WriteScdEMARID
	.type	VDMHAL_IMP_WriteScdEMARID, %function
VDMHAL_IMP_WriteScdEMARID:
.LFB2668:
	.loc 1 1989 0
	.cfi_startproc
	.loc 1 1990 0
	adrp	x0, gScdRegBaseAddr
	mov	w1, 25079
	.loc 1 1989 0
	stp	x29, x30, [sp, -16]!
	.cfi_def_cfa_offset 16
	.cfi_offset 29, -16
	.cfi_offset 30, -8
	.loc 1 1990 0
	movk	w1, 0x1, lsl 16
	.loc 1 1989 0
	add	x29, sp, 0
	.cfi_def_cfa_register 29
	.loc 1 1990 0
	ldr	w0, [x0,#:lo12:gScdRegBaseAddr]
	add	w0, w0, 4
	bl	MEM_WritePhyWord
.LVL577:
	.loc 1 1991 0
	ldp	x29, x30, [sp], 16
	.cfi_restore 30
	.cfi_restore 29
	.cfi_def_cfa 31, 0
	ret
	.cfi_endproc
.LFE2668:
	.size	VDMHAL_IMP_WriteScdEMARID, .-VDMHAL_IMP_WriteScdEMARID
	.align	2
	.global	VDMHAL_EXT_ReduceFrequency
	.type	VDMHAL_EXT_ReduceFrequency, %function
VDMHAL_EXT_ReduceFrequency:
.LFB2669:
	.loc 1 1994 0
	.cfi_startproc
.LVL578:
	.loc 1 1997 0
	adrp	x2, g_FreqControlDisable
	.loc 1 1994 0
	mov	w1, w0
	stp	x29, x30, [sp, -32]!
	.cfi_def_cfa_offset 32
	.cfi_offset 29, -32
	.cfi_offset 30, -24
	.loc 1 1999 0
	mov	w0, 0
.LVL579:
	.loc 1 1994 0
	add	x29, sp, 0
	.cfi_def_cfa_register 29
	.loc 1 1997 0
	ldrb	w2, [x2,#:lo12:g_FreqControlDisable]
	.loc 1 1994 0
	str	x19, [sp,16]
	.cfi_offset 19, -16
	.loc 1 1997 0
	cbnz	w2, .L375
.LBB81:
.LBB82:
	.loc 1 2002 0
	sub	w1, w1, #2
.LVL580:
	cmp	w1, 1
	bls	.L378
.LBB83:
.LBB84:
	.loc 1 603 0
	adrp	x1, g_HwMem+8
	mov	w4, 31
	.loc 1 613 0
	mov	x0, 1
	.loc 1 603 0
	ldr	x2, [x1,#:lo12:g_HwMem+8]
	.loc 1 613 0
	adrp	x1, g_vfmw_osal_fun_ptr+80
	.loc 1 603 0
	ldr	w19, [x2,208]
	.loc 1 613 0
	ldr	x3, [x1,#:lo12:g_vfmw_osal_fun_ptr+80]
	.loc 1 604 0
	and	w19, w19, 31
	.loc 1 606 0
	lsl	w1, w19, 1
	add	w1, w1, 1
	cmp	w1, 31
	csel	w1, w1, w4, ls
	.loc 1 612 0
	orr	w1, w1, 2031616
	str	w1, [x2,208]
	.loc 1 613 0
	blr	x3
.LVL581:
.LBE84:
.LBE83:
	.loc 1 2008 0
	mov	w0, w19
.LVL582:
.L375:
.LBE82:
.LBE81:
	.loc 1 2012 0
	ldr	x19, [sp,16]
	.cfi_remember_state
	.cfi_restore 19
	ldp	x29, x30, [sp], 32
	.cfi_restore 30
	.cfi_restore 29
	.cfi_def_cfa 31, 0
	ret
.LVL583:
.L378:
	.cfi_restore_state
.LBB86:
.LBB85:
	.loc 1 2004 0
	bl	VDMHAL_ReduceCoreFrequency
.LVL584:
.LBE85:
.LBE86:
	.loc 1 2012 0
	ldr	x19, [sp,16]
	.cfi_restore 19
	ldp	x29, x30, [sp], 32
	.cfi_restore 29
	.cfi_restore 30
	.cfi_def_cfa 31, 0
	ret
	.cfi_endproc
.LFE2669:
	.size	VDMHAL_EXT_ReduceFrequency, .-VDMHAL_EXT_ReduceFrequency
	.align	2
	.global	VDMHAL_EXT_RestoreFrequency
	.type	VDMHAL_EXT_RestoreFrequency, %function
VDMHAL_EXT_RestoreFrequency:
.LFB2670:
	.loc 1 2015 0
	.cfi_startproc
.LVL585:
	.loc 1 2016 0
	adrp	x2, g_FreqControlDisable
	.loc 1 2015 0
	stp	x29, x30, [sp, -16]!
	.cfi_def_cfa_offset 16
	.cfi_offset 29, -16
	.cfi_offset 30, -8
	add	x29, sp, 0
	.cfi_def_cfa_register 29
	.loc 1 2016 0
	ldrb	w2, [x2,#:lo12:g_FreqControlDisable]
	cbnz	w2, .L379
.LBB95:
.LBB96:
.LBB97:
	.loc 1 592 0
	adrp	x2, g_HwMem+8
.LBE97:
.LBE96:
.LBE95:
	.loc 1 2021 0
	sub	w0, w0, #2
.LVL586:
	cmp	w0, 1
.LBB102:
.LBB100:
.LBB98:
	.loc 1 592 0
	orr	w1, w1, 2031616
.LVL587:
	.loc 1 593 0
	mov	x0, 1
	.loc 1 592 0
	ldr	x3, [x2,#:lo12:g_HwMem+8]
	.loc 1 593 0
	adrp	x2, g_vfmw_osal_fun_ptr+80
	ldr	x2, [x2,#:lo12:g_vfmw_osal_fun_ptr+80]
.LBE98:
.LBE100:
.LBE102:
	.loc 1 2021 0
	bls	.L382
.LBB103:
.LBB104:
	.loc 1 620 0
	str	w1, [x3,208]
	.loc 1 621 0
	blr	x2
.LVL588:
.L379:
.LBE104:
.LBE103:
	.loc 1 2031 0
	ldp	x29, x30, [sp], 16
	.cfi_remember_state
	.cfi_restore 30
	.cfi_restore 29
	.cfi_def_cfa 31, 0
	ret
.LVL589:
.L382:
	.cfi_restore_state
.LBB105:
.LBB101:
.LBB99:
	.loc 1 592 0
	str	w1, [x3,204]
	.loc 1 593 0
	blr	x2
.LVL590:
.LBE99:
.LBE101:
.LBE105:
	.loc 1 2031 0
	ldp	x29, x30, [sp], 16
	.cfi_restore 29
	.cfi_restore 30
	.cfi_def_cfa 31, 0
	ret
	.cfi_endproc
.LFE2670:
	.size	VDMHAL_EXT_RestoreFrequency, .-VDMHAL_EXT_RestoreFrequency
	.align	2
	.global	VDMHAL_IMP_ResetVdm
	.type	VDMHAL_IMP_ResetVdm, %function
VDMHAL_IMP_ResetVdm:
.LFB2655:
	.loc 1 1191 0
	.cfi_startproc
.LVL591:
	stp	x29, x30, [sp, -80]!
	.cfi_def_cfa_offset 80
	.cfi_offset 29, -80
	.cfi_offset 30, -72
	add	x29, sp, 0
	.cfi_def_cfa_register 29
	stp	x21, x22, [sp,32]
	.cfi_offset 21, -48
	.cfi_offset 22, -40
	mov	w22, w0
	.loc 1 1199 0
	adrp	x0, gSOFTRST_REQ_Addr
.LVL592:
	.loc 1 1191 0
	stp	x19, x20, [sp,16]
	stp	x23, x24, [sp,48]
	.loc 1 1199 0
	ldr	w0, [x0,#:lo12:gSOFTRST_REQ_Addr]
	.loc 1 1191 0
	stp	x25, x26, [sp,64]
	.cfi_offset 19, -64
	.cfi_offset 20, -56
	.cfi_offset 23, -32
	.cfi_offset 24, -24
	.cfi_offset 25, -16
	.cfi_offset 26, -8
	.loc 1 1199 0
	bl	MEM_Phy2Vir
.LVL593:
	mov	x23, x0
.LVL594:
	.loc 1 1200 0
	adrp	x0, gSOFTRST_OK_ADDR
	ldr	w0, [x0,#:lo12:gSOFTRST_OK_ADDR]
	bl	MEM_Phy2Vir
.LVL595:
	mov	x20, x0
.LVL596:
	.loc 1 1202 0
	cbz	x0, .L395
	cbz	x23, .L395
	.loc 1 1209 0
	cmp	w22, wzr
	ble	.L399
	.loc 1 1209 0 is_stmt 0 discriminator 2
	adrp	x2, .LANCHOR1
	adrp	x1, .LC50
	add	x2, x2, :lo12:.LANCHOR1
	mov	w0, 32
	add	x1, x1, :lo12:.LC50
	add	x2, x2, 224
	mov	w3, w22
	mov	w4, 1
	.loc 1 1193 0 is_stmt 1
	mov	w26, 0
.LVL597:
.LBB110:
.LBB111:
	.loc 1 1999 0
	mov	w25, 0
.LBE111:
.LBE110:
	.loc 1 1209 0 discriminator 2
	bl	dprint_linux_kernel
.LVL598:
.LBB117:
.LBB114:
	.loc 1 1997 0
	adrp	x0, g_FreqControlDisable
	ldrb	w0, [x0,#:lo12:g_FreqControlDisable]
	cbz	w0, .L400
.L389:
.LBE114:
.LBE117:
	.loc 1 1214 0
	ldr	w24, [x23]
	.loc 1 1215 0
	mov	w19, 100
	.loc 1 1225 0
	adrp	x21, g_vfmw_osal_fun_ptr
.LVL599:
	.loc 1 1215 0
	orr	w0, w24, 2
	str	w0, [x23]
	b	.L391
.L402:
	.loc 1 1225 0
	add	x1, x21, :lo12:g_vfmw_osal_fun_ptr
	ldr	x1, [x1,80]
	blr	x1
.LVL600:
	.loc 1 1218 0 discriminator 1
	subs	w19, w19, #1
	beq	.L401
.L391:
	.loc 1 1220 0
	ldr	w1, [x20]
	.loc 1 1225 0
	mov	x0, 10
.LVL601:
	.loc 1 1221 0
	tbz	x1, 1, .L402
.LVL602:
.L390:
	.loc 1 1238 0
	and	w24, w24, -3
.LVL603:
	.loc 1 1240 0
	mov	w0, 3
	.loc 1 1238 0
	str	w24, [x23]
	.loc 1 1240 0
	mov	w1, w25
	bl	VDMHAL_EXT_RestoreFrequency
.LVL604:
	.loc 1 1243 0
	cmp	w22, wzr
	ble	.L403
	.loc 1 1243 0 is_stmt 0 discriminator 2
	adrp	x2, .LANCHOR1
	adrp	x1, .LC64
	add	x2, x2, :lo12:.LANCHOR1
	mov	w3, w22
	add	x1, x1, :lo12:.LC64
	add	x2, x2, 224
	mov	w4, 1
	mov	w0, 32
	bl	dprint_linux_kernel
.LVL605:
	.loc 1 1246 0 is_stmt 1
	ldp	x19, x20, [sp,16]
	.cfi_remember_state
	.cfi_restore 20
	.cfi_restore 19
.LVL606:
	ldp	x21, x22, [sp,32]
	.cfi_restore 22
	.cfi_restore 21
.LVL607:
	ldp	x23, x24, [sp,48]
	.cfi_restore 24
	.cfi_restore 23
.LVL608:
	ldp	x25, x26, [sp,64]
	.cfi_restore 26
	.cfi_restore 25
.LVL609:
	ldp	x29, x30, [sp], 80
	.cfi_restore 30
	.cfi_restore 29
	.cfi_def_cfa 31, 0
	ret
.LVL610:
.L399:
	.cfi_restore_state
	.loc 1 1209 0 discriminator 1
	sxtw	x1, w22
.LVL611:
.LBB118:
.LBB115:
	.loc 1 1999 0
	mov	w25, 0
.LBE115:
.LBE118:
	.loc 1 1209 0 discriminator 1
	lsl	x0, x1, 4
.LVL612:
	add	x0, x0, x1, lsl 2
	sub	x0, x0, x1
	adrp	x1, g_HwMem
.LVL613:
	lsl	x0, x0, 6
	add	x1, x1, :lo12:g_HwMem
	ldr	x0, [x1,x0]
	ldr	w26, [x0,36]
.LBB119:
.LBB116:
	.loc 1 1997 0
	adrp	x0, g_FreqControlDisable
	ldrb	w0, [x0,#:lo12:g_FreqControlDisable]
	cbnz	w0, .L389
.LVL614:
.L400:
.LBB112:
.LBB113:
	.loc 1 2004 0
	bl	VDMHAL_ReduceCoreFrequency
.LVL615:
	mov	w25, w0
	b	.L389
.L403:
.LBE113:
.LBE112:
.LBE116:
.LBE119:
	.loc 1 1243 0 discriminator 1
	sxtw	x0, w22
.LVL616:
	lsl	x1, x0, 4
	add	x1, x1, x0, lsl 2
	sub	x0, x1, x0
.LVL617:
	adrp	x1, g_HwMem
	add	x1, x1, :lo12:g_HwMem
	lsl	x0, x0, 6
	ldr	x0, [x1,x0]
	str	w26, [x0,36]
	.loc 1 1246 0
	ldp	x19, x20, [sp,16]
	.cfi_remember_state
	.cfi_restore 19
	.cfi_restore 20
.LVL618:
	ldp	x21, x22, [sp,32]
	.cfi_restore 21
	.cfi_restore 22
	ldp	x23, x24, [sp,48]
	.cfi_restore 23
	.cfi_restore 24
.LVL619:
	ldp	x25, x26, [sp,64]
	.cfi_restore 25
	.cfi_restore 26
.LVL620:
	ldp	x29, x30, [sp], 80
	.cfi_restore 29
	.cfi_restore 30
	.cfi_def_cfa 31, 0
	ret
.LVL621:
.L395:
	.cfi_restore_state
	.loc 1 1204 0
	adrp	x1, .LC65
	mov	x2, x23
	mov	x3, x20
	add	x1, x1, :lo12:.LC65
	mov	w0, 0
.LVL622:
	bl	dprint_linux_kernel
.LVL623:
	.loc 1 1246 0
	ldp	x19, x20, [sp,16]
	.cfi_remember_state
	.cfi_restore 19
	.cfi_restore 20
.LVL624:
	ldp	x21, x22, [sp,32]
	.cfi_restore 21
	.cfi_restore 22
.LVL625:
	ldp	x23, x24, [sp,48]
	.cfi_restore 23
	.cfi_restore 24
.LVL626:
	ldp	x25, x26, [sp,64]
	.cfi_restore 25
	.cfi_restore 26
	ldp	x29, x30, [sp], 80
	.cfi_restore 29
	.cfi_restore 30
	.cfi_def_cfa 31, 0
	ret
.LVL627:
.L401:
	.cfi_restore_state
	.loc 1 1230 0
	adrp	x2, .LANCHOR1
	adrp	x1, .LC66
	add	x2, x2, :lo12:.LANCHOR1
	add	x1, x1, :lo12:.LC66
	add	x2, x2, 224
	mov	w0, 0
	bl	dprint_linux_kernel
.LVL628:
	b	.L390
	.cfi_endproc
.LFE2655:
	.size	VDMHAL_IMP_ResetVdm, .-VDMHAL_IMP_ResetVdm
	.align	2
	.global	VDMHAL_IMP_GlbReset
	.type	VDMHAL_IMP_GlbReset, %function
VDMHAL_IMP_GlbReset:
.LFB2656:
	.loc 1 1250 0
	.cfi_startproc
	.loc 1 1257 0
	adrp	x0, gSOFTRST_REQ_Addr
	.loc 1 1250 0
	stp	x29, x30, [sp, -64]!
	.cfi_def_cfa_offset 64
	.cfi_offset 29, -64
	.cfi_offset 30, -56
	add	x29, sp, 0
	.cfi_def_cfa_register 29
	.loc 1 1257 0
	ldr	w0, [x0,#:lo12:gSOFTRST_REQ_Addr]
	.loc 1 1250 0
	stp	x19, x20, [sp,16]
	stp	x21, x22, [sp,32]
	stp	x23, x24, [sp,48]
	.cfi_offset 19, -48
	.cfi_offset 20, -40
	.cfi_offset 21, -32
	.cfi_offset 22, -24
	.cfi_offset 23, -16
	.cfi_offset 24, -8
	.loc 1 1257 0
	bl	MEM_Phy2Vir
.LVL629:
	mov	x22, x0
.LVL630:
	.loc 1 1258 0
	adrp	x0, gSOFTRST_OK_ADDR
	ldr	w0, [x0,#:lo12:gSOFTRST_OK_ADDR]
	bl	MEM_Phy2Vir
.LVL631:
	mov	x20, x0
.LVL632:
	.loc 1 1260 0
	cbz	x0, .L413
	cbz	x22, .L413
.LBB124:
.LBB125:
	.loc 1 1997 0
	adrp	x0, g_FreqControlDisable
	.loc 1 1999 0
	mov	w24, 0
	.loc 1 1997 0
	ldrb	w0, [x0,#:lo12:g_FreqControlDisable]
	cbz	w0, .L417
.L408:
.LBE125:
.LBE124:
	.loc 1 1270 0
	ldr	w23, [x22]
	.loc 1 1271 0
	mov	w19, 100
	.loc 1 1281 0
	adrp	x21, g_vfmw_osal_fun_ptr
.LVL633:
	.loc 1 1271 0
	orr	w0, w23, 1
	str	w0, [x22]
	b	.L410
.L419:
	.loc 1 1281 0
	add	x1, x21, :lo12:g_vfmw_osal_fun_ptr
	ldr	x1, [x1,80]
	blr	x1
.LVL634:
	.loc 1 1274 0 discriminator 1
	subs	w19, w19, #1
	beq	.L418
.L410:
	.loc 1 1276 0
	ldr	w1, [x20]
	.loc 1 1281 0
	mov	x0, 10
.LVL635:
	.loc 1 1277 0
	tbz	x1, 0, .L419
.LVL636:
.L409:
	.loc 1 1296 0
	mov	w1, w24
	.loc 1 1294 0
	and	w23, w23, -2
.LVL637:
	.loc 1 1296 0
	mov	w0, 0
	.loc 1 1294 0
	str	w23, [x22]
	.loc 1 1296 0
	bl	VDMHAL_EXT_RestoreFrequency
.LVL638:
	.loc 1 1304 0
	ldp	x19, x20, [sp,16]
	.cfi_remember_state
	.cfi_restore 20
	.cfi_restore 19
.LVL639:
	ldp	x21, x22, [sp,32]
	.cfi_restore 22
	.cfi_restore 21
.LVL640:
	ldp	x23, x24, [sp,48]
	.cfi_restore 24
	.cfi_restore 23
	ldp	x29, x30, [sp], 64
	.cfi_restore 30
	.cfi_restore 29
	.cfi_def_cfa 31, 0
	ret
.LVL641:
.L417:
	.cfi_restore_state
.LBB129:
.LBB128:
.LBB126:
.LBB127:
	.loc 1 2008 0
	bl	VDMHAL_ReduceAXIFrequency
.LVL642:
	mov	w24, w0
	b	.L408
.LVL643:
.L413:
.LBE127:
.LBE126:
.LBE128:
.LBE129:
	.loc 1 1262 0
	adrp	x1, .LC67
	mov	x2, x22
	mov	x3, x20
	add	x1, x1, :lo12:.LC67
	mov	w0, 0
.LVL644:
	bl	dprint_linux_kernel
.LVL645:
	.loc 1 1304 0
	ldp	x19, x20, [sp,16]
	.cfi_remember_state
	.cfi_restore 19
	.cfi_restore 20
.LVL646:
	ldp	x21, x22, [sp,32]
	.cfi_restore 21
	.cfi_restore 22
.LVL647:
	ldp	x23, x24, [sp,48]
	.cfi_restore 23
	.cfi_restore 24
	ldp	x29, x30, [sp], 64
	.cfi_restore 29
	.cfi_restore 30
	.cfi_def_cfa 31, 0
	ret
.LVL648:
.L418:
	.cfi_restore_state
	.loc 1 1286 0
	adrp	x1, .LC68
	mov	w0, 0
	add	x1, x1, :lo12:.LC68
	bl	dprint_linux_kernel
.LVL649:
	b	.L409
	.cfi_endproc
.LFE2656:
	.size	VDMHAL_IMP_GlbReset, .-VDMHAL_IMP_GlbReset
	.section	.rodata
	.align	3
.LANCHOR0 = . + 0
	.type	__func__.44287, %object
	.size	__func__.44287, 15
__func__.44287:
	.string	"VDMHAL_MaskInt"
	.zero	1
	.type	__func__.44335, %object
	.size	__func__.44335, 16
__func__.44335:
	.string	"VDMHAL_CfgRpMsg"
	.type	__func__.44367, %object
	.size	__func__.44367, 16
__func__.44367:
	.string	"VDMHAL_CfgRpReg"
	.type	__func__.44382, %object
	.size	__func__.44382, 19
__func__.44382:
	.string	"VDMHAL_IMP_OpenHAL"
	.zero	5
	.type	__func__.44264, %object
	.size	__func__.44264, 18
__func__.44264:
	.string	"VDMHAL_CalcFsSize"
	.zero	6
	.type	__func__.44279, %object
	.size	__func__.44279, 25
__func__.44279:
	.string	"VDMHAL_FillVdmMemElement"
	.zero	7
	.type	__func__.44433, %object
	.size	__func__.44433, 22
__func__.44433:
	.string	"VDMHAL_IMP_ArrangeMem"
	.zero	2
	.type	__func__.44471, %object
	.size	__func__.44471, 25
__func__.44471:
	.string	"VDMHAL_IMP_ClearIntState"
	.zero	7
	.type	__func__.44479, %object
	.size	__func__.44479, 20
__func__.44479:
	.string	"VDMHAL_IMP_CheckReg"
	.align	3
.LANCHOR1 = . + 0
	.type	__func__.44491, %object
	.size	__func__.44491, 22
__func__.44491:
	.string	"VDMHAL_IMP_PrepareDec"
	.zero	2
	.type	__func__.44510, %object
	.size	__func__.44510, 22
__func__.44510:
	.string	"VDMHAL_IMP_IsVdmReady"
	.zero	2
	.type	__func__.44515, %object
	.size	__func__.44515, 20
__func__.44515:
	.string	"VDMHAL_IMP_IsVdmRun"
	.zero	4
	.type	__func__.44528, %object
	.size	__func__.44528, 22
__func__.44528:
	.string	"VDMHAL_IMP_BackupInfo"
	.zero	2
	.type	__func__.44547, %object
	.size	__func__.44547, 25
__func__.44547:
	.string	"VDMHAL_IMP_MakeDecReport"
	.zero	7
	.type	__func__.44567, %object
	.size	__func__.44567, 25
__func__.44567:
	.string	"VDMHAL_IMP_PrepareRepair"
	.zero	7
	.type	__func__.44572, %object
	.size	__func__.44572, 25
__func__.44572:
	.string	"VDMHAL_IMP_StartHwRepair"
	.zero	7
	.type	__func__.44577, %object
	.size	__func__.44577, 25
__func__.44577:
	.string	"VDMHAL_IMP_StartHwDecode"
	.zero	7
	.type	__func__.44450, %object
	.size	__func__.44450, 20
__func__.44450:
	.string	"VDMHAL_IMP_ResetVdm"
	.section	.rodata.str1.8,"aMS",%progbits,1
	.align	3
.LC0:
	.string	"%s: VdhId(%d) > %d\n"
	.zero	4
.LC1:
	.string	" %s %d vdm register virtual address not mapped, reset failed!\n"
	.zero	1
.LC2:
	.string	"VdhId is wrong! VDMHAL_EnableInt\n"
	.zero	6
.LC3:
	.string	"vdm register virtual address not mapped, reset failed!\n"
.LC4:
	.string	"ReadUpMsgSlot error! pDst=%pK, pSrc=%pK\n"
	.zero	7
.LC5:
	.string	"ReadUpMsgSlot error! upmsg_size(%d) > 512\n"
	.zero	5
.LC6:
	.string	"%s %d: %s\n"
	.zero	5
.LC7:
	.string	"can not map repair msg virtual address!"
.LC8:
	.string	"ValidGroupNum=%d out of range!\n"
.LC9:
	.string	"repair: src_luma_addr = 0x%x\n"
	.zero	2
.LC10:
	.string	"repair: src_chroma_addr = 0x%x\n"
.LC11:
	.string	"repair: dst_luma_addr = 0x%x\n"
	.zero	2
.LC12:
	.string	"repair: dst_chroma_addr = 0x%x\n"
.LC13:
	.string	"repair: stride_1d = 0x%x\n"
	.zero	6
.LC14:
	.string	"repair: headInfOffset = 0x%x\n"
	.zero	2
.LC15:
	.string	"repair: pic_width_in_mb = 0x%x\n"
.LC16:
	.string	"repair: pic_height_in_mb = 0x%x\n"
	.zero	7
.LC17:
	.string	"%s CtbSize %d align_mb error\n"
	.zero	2
.LC18:
	.string	"repair: start_mbx = 0x%x\n"
	.zero	6
.LC19:
	.string	"repair: start_mby = 0x%x\n"
	.zero	6
.LC20:
	.string	"repair: end_mbx = 0x%x\n"
.LC21:
	.string	"repair: end_mby = 0x%x\n"
.LC22:
	.string	"repair: total_grp_num_minus1 = 0x%x\n"
	.zero	3
.LC23:
	.string	"repair: compress_flag = 0x%x\n"
	.zero	2
.LC24:
	.string	"repair: dst_store_mode = 0x%x\n"
	.zero	1
.LC25:
	.string	"repair: src_load_mode = 0x%x\n"
	.zero	2
.LC26:
	.string	"repair: ctb_size = 0x%x\n"
	.zero	7
.LC27:
	.string	"pOpenParam = NULL error!"
	.zero	7
.LC28:
	.string	"MemBaseAddr = 0 error!"
	.zero	1
.LC29:
	.string	"VDMHAL_OpenHAL: Size error!"
	.zero	4
.LC30:
	.string	"!!!!!! HAL memory not enouph! need %d, have %d\n"
.LC31:
	.string	"image size out of range"
.LC32:
	.string	"DFS ERROR: NewFrameSize %d <= 0\n"
	.zero	7
.LC33:
	.string	"DFS report event. Resolution: %dx%d -> %dx%d, RefNum: %d -> %d.\n"
	.zero	7
.LC34:
	.string	"DFS fill element. Resolution: %dx%d, RefNum: %d.\n"
	.zero	6
.LC35:
	.string	"pVdmMemArrange is NULL"
	.zero	1
.LC36:
	.string	"DFS, no ref frame!\n"
	.zero	4
.LC37:
	.string	"DFS, Frame number = %d > 30, Then, Frame num = 30, \n"
	.zero	3
.LC38:
	.string	"%s dec buffer overflow %d > %d\n"
.LC39:
	.string	"%s pmv buffer overflow %d > %d\n"
.LC40:
	.string	"%s FrameStore %d over bountry, ImgSlotLen: 0x%x, PmvSlotLen: 0x%x, FrmPhyAddr: 0x%x, PmvPhyAddr: 0x%x\n"
	.zero	1
.LC41:
	.string	"VDMHAL_ArrangeMem Mem addr is NULL"
	.zero	5
.LC42:
	.string	"'pVdmMemArrange' is NULL"
	.zero	7
.LC43:
	.string	"MemSize not enough for pmv slot"
.LC44:
	.string	"VDMHAL_ArrangeMem VCTRL_GetChanResolution failed!\n"
	.zero	5
.LC45:
	.string	"ImgSlotLen > ChanSlotLen"
	.zero	7
.LC46:
	.string	"cann't allocate img slot"
	.zero	7
.LC47:
	.string	"%s: VdhId(%d) Invalid!\n"
.LC48:
	.string	"%s: unkown reg_id = %d\n"
.LC49:
	.string	"VDM register not mapped yet!"
	.zero	3
.LC50:
	.string	"%s: RD_VREG but VdhId(%d) > MAX_VDH_NUM(%d)\n"
	.zero	3
.LC51:
	.string	"VDM register not mapped yet!\n"
	.zero	2
.LC52:
	.string	"pBackUpInfo = NULL!"
	.zero	4
.LC53:
	.string	"can NOT map vir addr for up-msg"
.LC54:
	.string	"'pMakeDecReport' is NULL"
	.zero	7
.LC55:
	.string	"'pDecReport' is NULL"
	.zero	3
.LC56:
	.string	"pDecReport->DecSliceNum(%d) > %d, set to 0 for full repair.\n"
	.zero	3
.LC57:
	.string	"\n***** UpMsg DecSliceNum=%d\n"
	.zero	3
.LC58:
	.string	"\n***** Up Msg (phy addr: %#8x) *****\n"
	.zero	2
.LC59:
	.string	"\n0x%02x 0x%08x 0x%08x 0x%08x 0x%08x\n"
	.zero	3
.LC60:
	.string	"\n***** Up Msg print finished *****\n"
	.zero	4
.LC61:
	.string	"vdm register virtual address not mapped, VDMHAL_PrepareRepair failed!\n"
	.zero	1
.LC62:
	.string	"FIRST_REPAIR Parameter Error!\n"
	.zero	1
.LC63:
	.string	"SECOND_REPAIR Parameter Error!\n"
.LC64:
	.string	"%s: WR_VREG but VdhId(%d) > MAX_VDH_NUM(%d)\n"
	.zero	3
.LC65:
	.string	"VDMHAL_ResetVdm: map vdm register fail, vir(pVdmResetVirAddr) = (%pK), vir(pVdmResetOkVirAddr) = (%pK)\n"
.LC66:
	.string	"%s reset failed!\n"
	.zero	6
.LC67:
	.string	"VDMHAL_GlbReset: map vdm register fail, vir(pResetVirAddr) = (%pK), vir(pResetOKVirAddr) = (%pK)\n"
	.zero	6
.LC68:
	.string	"Glb Reset Failed!!!\n"
	.text
.Letext0:
	.file 2 "/mnt/disk/jenkins/ci/workspace/chipset_release_960_xloader/opensource/component_code/vendor/huawei/extra/build/build_script/kirin_kernel_release/kernel/drivers/vcodec/hi_vcodec/vdec/include/hi_type.h"
	.file 3 "/mnt/disk/jenkins/ci/workspace/chipset_release_960_xloader/opensource/component_code/vendor/huawei/extra/build/build_script/kirin_kernel_release/kernel/drivers/vcodec/hi_vcodec/vdec/vfmw/vfmw_v4.0/vfmw.h"
	.file 4 "/mnt/disk/jenkins/ci/workspace/chipset_release_960_xloader/opensource/component_code/vendor/huawei/extra/build/build_script/kirin_kernel_release/kernel/drivers/vcodec/hi_vcodec/vdec/vfmw/vfmw_v4.0/firmware/product/HiVCodecV100/sysconfig.h"
	.file 5 "/mnt/disk/jenkins/ci/workspace/chipset_release_960_xloader/opensource/component_code/vendor/huawei/extra/build/build_script/kirin_kernel_release/kernel/include/uapi/asm-generic/int-ll64.h"
	.file 6 "/mnt/disk/jenkins/ci/workspace/chipset_release_960_xloader/opensource/component_code/vendor/huawei/extra/build/build_script/kirin_kernel_release/kernel/include/asm-generic/int-ll64.h"
	.file 7 "/mnt/disk/jenkins/ci/workspace/chipset_release_960_xloader/opensource/component_code/vendor/huawei/extra/build/build_script/kirin_kernel_release/kernel/include/uapi/asm-generic/posix_types.h"
	.file 8 "/mnt/disk/jenkins/ci/workspace/chipset_release_960_xloader/opensource/component_code/vendor/huawei/extra/build/build_script/kirin_kernel_release/kernel/include/linux/export.h"
	.file 9 "/mnt/disk/jenkins/ci/workspace/chipset_release_960_xloader/opensource/component_code/vendor/huawei/extra/build/build_script/kirin_kernel_release/kernel/include/linux/types.h"
	.file 10 "/mnt/disk/jenkins/ci/workspace/chipset_release_960_xloader/opensource/component_code/vendor/huawei/extra/build/build_script/kirin_kernel_release/kernel/include/asm-generic/bug.h"
	.file 11 "/mnt/disk/jenkins/ci/workspace/chipset_release_960_xloader/opensource/component_code/vendor/huawei/extra/build/build_script/kirin_kernel_release/kernel/include/linux/restart_block.h"
	.file 12 "/mnt/disk/jenkins/ci/workspace/chipset_release_960_xloader/opensource/component_code/vendor/huawei/extra/build/build_script/kirin_kernel_release/kernel/include/uapi/linux/time.h"
	.file 13 "/mnt/disk/jenkins/ci/workspace/chipset_release_960_xloader/opensource/component_code/vendor/huawei/extra/build/build_script/kirin_kernel_release/kernel/arch/arm64/include/asm/compat.h"
	.file 14 "/mnt/disk/jenkins/ci/workspace/chipset_release_960_xloader/opensource/component_code/vendor/huawei/extra/build/build_script/kirin_kernel_release/kernel/include/uapi/asm-generic/poll.h"
	.file 15 "/mnt/disk/jenkins/ci/workspace/chipset_release_960_xloader/opensource/component_code/vendor/huawei/extra/build/build_script/kirin_kernel_release/kernel/arch/arm64/include/asm/thread_info.h"
	.file 16 "/mnt/disk/jenkins/ci/workspace/chipset_release_960_xloader/opensource/component_code/vendor/huawei/extra/build/build_script/kirin_kernel_release/kernel/arch/arm64/include/uapi/asm/ptrace.h"
	.file 17 "/mnt/disk/jenkins/ci/workspace/chipset_release_960_xloader/opensource/component_code/vendor/huawei/extra/build/build_script/kirin_kernel_release/kernel/arch/arm64/include/asm/ptrace.h"
	.file 18 "/mnt/disk/jenkins/ci/workspace/chipset_release_960_xloader/opensource/component_code/vendor/huawei/extra/build/build_script/kirin_kernel_release/kernel/arch/arm64/include/asm/spinlock_types.h"
	.file 19 "/mnt/disk/jenkins/ci/workspace/chipset_release_960_xloader/opensource/component_code/vendor/huawei/extra/build/build_script/kirin_kernel_release/kernel/include/linux/spinlock_types.h"
	.file 20 "/mnt/disk/jenkins/ci/workspace/chipset_release_960_xloader/opensource/component_code/vendor/huawei/extra/build/build_script/kirin_kernel_release/kernel/include/linux/rwlock_types.h"
	.file 21 "/mnt/disk/jenkins/ci/workspace/chipset_release_960_xloader/opensource/component_code/vendor/huawei/extra/build/build_script/kirin_kernel_release/kernel/arch/arm64/include/asm/fpsimd.h"
	.file 22 "/mnt/disk/jenkins/ci/workspace/chipset_release_960_xloader/opensource/component_code/vendor/huawei/extra/build/build_script/kirin_kernel_release/kernel/include/linux/jump_label.h"
	.file 23 "/mnt/disk/jenkins/ci/workspace/chipset_release_960_xloader/opensource/component_code/vendor/huawei/extra/build/build_script/kirin_kernel_release/kernel/include/asm-generic/atomic-long.h"
	.file 24 "/mnt/disk/jenkins/ci/workspace/chipset_release_960_xloader/opensource/component_code/vendor/huawei/extra/build/build_script/kirin_kernel_release/kernel/arch/arm64/include/asm/hw_breakpoint.h"
	.file 25 "/mnt/disk/jenkins/ci/workspace/chipset_release_960_xloader/opensource/component_code/vendor/huawei/extra/build/build_script/kirin_kernel_release/kernel/arch/arm64/include/asm/processor.h"
	.file 26 "/mnt/disk/jenkins/ci/workspace/chipset_release_960_xloader/opensource/component_code/vendor/huawei/extra/build/build_script/kirin_kernel_release/kernel/include/linux/perf_event.h"
	.file 27 "/mnt/disk/jenkins/ci/workspace/chipset_release_960_xloader/opensource/component_code/vendor/huawei/extra/build/build_script/kirin_kernel_release/kernel/include/linux/wait.h"
	.file 28 "/mnt/disk/jenkins/ci/workspace/chipset_release_960_xloader/opensource/component_code/vendor/huawei/extra/build/build_script/kirin_kernel_release/kernel/include/linux/seqlock.h"
	.file 29 "/mnt/disk/jenkins/ci/workspace/chipset_release_960_xloader/opensource/component_code/vendor/huawei/extra/build/build_script/kirin_kernel_release/kernel/include/linux/nodemask.h"
	.file 30 "/mnt/disk/jenkins/ci/workspace/chipset_release_960_xloader/opensource/component_code/vendor/huawei/extra/build/build_script/kirin_kernel_release/kernel/include/linux/cpumask.h"
	.file 31 "/mnt/disk/jenkins/ci/workspace/chipset_release_960_xloader/opensource/component_code/vendor/huawei/extra/build/build_script/kirin_kernel_release/kernel/include/linux/completion.h"
	.file 32 "/mnt/disk/jenkins/ci/workspace/chipset_release_960_xloader/opensource/component_code/vendor/huawei/extra/build/build_script/kirin_kernel_release/kernel/include/linux/time64.h"
	.file 33 "/mnt/disk/jenkins/ci/workspace/chipset_release_960_xloader/opensource/component_code/vendor/huawei/extra/build/build_script/kirin_kernel_release/kernel/include/linux/ktime.h"
	.file 34 "/mnt/disk/jenkins/ci/workspace/chipset_release_960_xloader/opensource/component_code/vendor/huawei/extra/build/build_script/kirin_kernel_release/kernel/include/linux/rbtree.h"
	.file 35 "/mnt/disk/jenkins/ci/workspace/chipset_release_960_xloader/opensource/component_code/vendor/huawei/extra/build/build_script/kirin_kernel_release/kernel/include/linux/osq_lock.h"
	.file 36 "/mnt/disk/jenkins/ci/workspace/chipset_release_960_xloader/opensource/component_code/vendor/huawei/extra/build/build_script/kirin_kernel_release/kernel/include/linux/rwsem.h"
	.file 37 "/mnt/disk/jenkins/ci/workspace/chipset_release_960_xloader/opensource/component_code/vendor/huawei/extra/build/build_script/kirin_kernel_release/kernel/include/linux/sched.h"
	.file 38 "/mnt/disk/jenkins/ci/workspace/chipset_release_960_xloader/opensource/component_code/vendor/huawei/extra/build/build_script/kirin_kernel_release/kernel/include/linux/mm_types.h"
	.file 39 "/mnt/disk/jenkins/ci/workspace/chipset_release_960_xloader/opensource/component_code/vendor/huawei/extra/build/build_script/kirin_kernel_release/kernel/include/linux/lockdep.h"
	.file 40 "/mnt/disk/jenkins/ci/workspace/chipset_release_960_xloader/opensource/component_code/vendor/huawei/extra/build/build_script/kirin_kernel_release/kernel/include/linux/uprobes.h"
	.file 41 "/mnt/disk/jenkins/ci/workspace/chipset_release_960_xloader/opensource/component_code/vendor/huawei/extra/build/build_script/kirin_kernel_release/kernel/include/linux/timer.h"
	.file 42 "/mnt/disk/jenkins/ci/workspace/chipset_release_960_xloader/opensource/component_code/vendor/huawei/extra/build/build_script/kirin_kernel_release/kernel/include/linux/uidgid.h"
	.file 43 "/mnt/disk/jenkins/ci/workspace/chipset_release_960_xloader/opensource/component_code/vendor/huawei/extra/build/build_script/kirin_kernel_release/kernel/include/linux/sysctl.h"
	.file 44 "/mnt/disk/jenkins/ci/workspace/chipset_release_960_xloader/opensource/component_code/vendor/huawei/extra/build/build_script/kirin_kernel_release/kernel/include/linux/workqueue.h"
	.file 45 "/mnt/disk/jenkins/ci/workspace/chipset_release_960_xloader/opensource/component_code/vendor/huawei/extra/build/build_script/kirin_kernel_release/kernel/arch/arm64/include/asm/pgtable-types.h"
	.file 46 "/mnt/disk/jenkins/ci/workspace/chipset_release_960_xloader/opensource/component_code/vendor/huawei/extra/build/build_script/kirin_kernel_release/kernel/arch/arm64/include/asm/page.h"
	.file 47 "/mnt/disk/jenkins/ci/workspace/chipset_release_960_xloader/opensource/component_code/vendor/huawei/extra/build/build_script/kirin_kernel_release/kernel/include/linux/llist.h"
	.file 48 "/mnt/disk/jenkins/ci/workspace/chipset_release_960_xloader/opensource/component_code/vendor/huawei/extra/build/build_script/kirin_kernel_release/kernel/arch/arm64/include/asm/smp.h"
	.file 49 "/mnt/disk/jenkins/ci/workspace/chipset_release_960_xloader/opensource/component_code/vendor/huawei/extra/build/build_script/kirin_kernel_release/kernel/arch/arm64/include/asm/mmu.h"
	.file 50 "/mnt/disk/jenkins/ci/workspace/chipset_release_960_xloader/opensource/component_code/vendor/huawei/extra/build/build_script/kirin_kernel_release/kernel/include/linux/fs.h"
	.file 51 "/mnt/disk/jenkins/ci/workspace/chipset_release_960_xloader/opensource/component_code/vendor/huawei/extra/build/build_script/kirin_kernel_release/kernel/include/linux/mm.h"
	.file 52 "/mnt/disk/jenkins/ci/workspace/chipset_release_960_xloader/opensource/component_code/vendor/huawei/extra/build/build_script/kirin_kernel_release/kernel/include/linux/user_namespace.h"
	.file 53 "/mnt/disk/jenkins/ci/workspace/chipset_release_960_xloader/opensource/component_code/vendor/huawei/extra/build/build_script/kirin_kernel_release/kernel/include/linux/mmzone.h"
	.file 54 "/mnt/disk/jenkins/ci/workspace/chipset_release_960_xloader/opensource/component_code/vendor/huawei/extra/build/build_script/kirin_kernel_release/kernel/include/linux/mutex.h"
	.file 55 "/mnt/disk/jenkins/ci/workspace/chipset_release_960_xloader/opensource/component_code/vendor/huawei/extra/build/build_script/kirin_kernel_release/kernel/include/linux/percpu-refcount.h"
	.file 56 "/mnt/disk/jenkins/ci/workspace/chipset_release_960_xloader/opensource/component_code/vendor/huawei/extra/build/build_script/kirin_kernel_release/kernel/include/linux/shrinker.h"
	.file 57 "/mnt/disk/jenkins/ci/workspace/chipset_release_960_xloader/opensource/component_code/vendor/huawei/extra/build/build_script/kirin_kernel_release/kernel/include/uapi/linux/resource.h"
	.file 58 "/mnt/disk/jenkins/ci/workspace/chipset_release_960_xloader/opensource/component_code/vendor/huawei/extra/build/build_script/kirin_kernel_release/kernel/include/linux/tracepoint-defs.h"
	.file 59 "/mnt/disk/jenkins/ci/workspace/chipset_release_960_xloader/opensource/component_code/vendor/huawei/extra/build/build_script/kirin_kernel_release/kernel/include/linux/vmstat.h"
	.file 60 "/mnt/disk/jenkins/ci/workspace/chipset_release_960_xloader/opensource/component_code/vendor/huawei/extra/build/build_script/kirin_kernel_release/kernel/include/linux/capability.h"
	.file 61 "/mnt/disk/jenkins/ci/workspace/chipset_release_960_xloader/opensource/component_code/vendor/huawei/extra/build/build_script/kirin_kernel_release/kernel/include/linux/plist.h"
	.file 62 "/mnt/disk/jenkins/ci/workspace/chipset_release_960_xloader/opensource/component_code/vendor/huawei/extra/build/build_script/kirin_kernel_release/kernel/include/asm-generic/cputime_jiffies.h"
	.file 63 "/mnt/disk/jenkins/ci/workspace/chipset_release_960_xloader/opensource/component_code/vendor/huawei/extra/build/build_script/kirin_kernel_release/kernel/include/uapi/asm-generic/signal.h"
	.file 64 "/mnt/disk/jenkins/ci/workspace/chipset_release_960_xloader/opensource/component_code/vendor/huawei/extra/build/build_script/kirin_kernel_release/kernel/include/uapi/asm-generic/signal-defs.h"
	.file 65 "/mnt/disk/jenkins/ci/workspace/chipset_release_960_xloader/opensource/component_code/vendor/huawei/extra/build/build_script/kirin_kernel_release/kernel/include/uapi/asm-generic/siginfo.h"
	.file 66 "/mnt/disk/jenkins/ci/workspace/chipset_release_960_xloader/opensource/component_code/vendor/huawei/extra/build/build_script/kirin_kernel_release/kernel/include/linux/signal.h"
	.file 67 "/mnt/disk/jenkins/ci/workspace/chipset_release_960_xloader/opensource/component_code/vendor/huawei/extra/build/build_script/kirin_kernel_release/kernel/include/linux/pid.h"
	.file 68 "/mnt/disk/jenkins/ci/workspace/chipset_release_960_xloader/opensource/component_code/vendor/huawei/extra/build/build_script/kirin_kernel_release/kernel/include/linux/pid_namespace.h"
	.file 69 "/mnt/disk/jenkins/ci/workspace/chipset_release_960_xloader/opensource/component_code/vendor/huawei/extra/build/build_script/kirin_kernel_release/kernel/include/linux/seccomp.h"
	.file 70 "/mnt/disk/jenkins/ci/workspace/chipset_release_960_xloader/opensource/component_code/vendor/huawei/extra/build/build_script/kirin_kernel_release/kernel/include/linux/timerqueue.h"
	.file 71 "/mnt/disk/jenkins/ci/workspace/chipset_release_960_xloader/opensource/component_code/vendor/huawei/extra/build/build_script/kirin_kernel_release/kernel/include/linux/hrtimer.h"
	.file 72 "/mnt/disk/jenkins/ci/workspace/chipset_release_960_xloader/opensource/component_code/vendor/huawei/extra/build/build_script/kirin_kernel_release/kernel/include/linux/task_io_accounting.h"
	.file 73 "/mnt/disk/jenkins/ci/workspace/chipset_release_960_xloader/opensource/component_code/vendor/huawei/extra/build/build_script/kirin_kernel_release/kernel/include/linux/assoc_array.h"
	.file 74 "/mnt/disk/jenkins/ci/workspace/chipset_release_960_xloader/opensource/component_code/vendor/huawei/extra/build/build_script/kirin_kernel_release/kernel/include/linux/key.h"
	.file 75 "/mnt/disk/jenkins/ci/workspace/chipset_release_960_xloader/opensource/component_code/vendor/huawei/extra/build/build_script/kirin_kernel_release/kernel/include/linux/cred.h"
	.file 76 "/mnt/disk/jenkins/ci/workspace/chipset_release_960_xloader/opensource/component_code/vendor/huawei/extra/build/build_script/kirin_kernel_release/kernel/include/linux/idr.h"
	.file 77 "/mnt/disk/jenkins/ci/workspace/chipset_release_960_xloader/opensource/component_code/vendor/huawei/extra/build/build_script/kirin_kernel_release/kernel/include/linux/rcu_sync.h"
	.file 78 "/mnt/disk/jenkins/ci/workspace/chipset_release_960_xloader/opensource/component_code/vendor/huawei/extra/build/build_script/kirin_kernel_release/kernel/include/linux/percpu-rwsem.h"
	.file 79 "/mnt/disk/jenkins/ci/workspace/chipset_release_960_xloader/opensource/component_code/vendor/huawei/extra/build/build_script/kirin_kernel_release/kernel/include/linux/bpf-cgroup.h"
	.file 80 "/mnt/disk/jenkins/ci/workspace/chipset_release_960_xloader/opensource/component_code/vendor/huawei/extra/build/build_script/kirin_kernel_release/kernel/include/linux/cgroup-defs.h"
	.file 81 "/mnt/disk/jenkins/ci/workspace/chipset_release_960_xloader/opensource/component_code/vendor/huawei/extra/build/build_script/kirin_kernel_release/kernel/include/linux/kernfs.h"
	.file 82 "/mnt/disk/jenkins/ci/workspace/chipset_release_960_xloader/opensource/component_code/vendor/huawei/extra/build/build_script/kirin_kernel_release/kernel/include/linux/seq_file.h"
	.file 83 "/mnt/disk/jenkins/ci/workspace/chipset_release_960_xloader/opensource/component_code/vendor/huawei/extra/build/build_script/kirin_kernel_release/kernel/include/uapi/linux/taskstats.h"
	.file 84 "/mnt/disk/jenkins/ci/workspace/chipset_release_960_xloader/opensource/component_code/vendor/huawei/extra/build/build_script/kirin_kernel_release/kernel/include/linux/nsproxy.h"
	.file 85 "/mnt/disk/jenkins/ci/workspace/chipset_release_960_xloader/opensource/component_code/vendor/huawei/extra/build/build_script/kirin_kernel_release/kernel/include/linux/compat.h"
	.file 86 "/mnt/disk/jenkins/ci/workspace/chipset_release_960_xloader/opensource/component_code/vendor/huawei/extra/build/build_script/kirin_kernel_release/kernel/include/linux/stat.h"
	.file 87 "/mnt/disk/jenkins/ci/workspace/chipset_release_960_xloader/opensource/component_code/vendor/huawei/extra/build/build_script/kirin_kernel_release/kernel/include/uapi/linux/elf.h"
	.file 88 "/mnt/disk/jenkins/ci/workspace/chipset_release_960_xloader/opensource/component_code/vendor/huawei/extra/build/build_script/kirin_kernel_release/kernel/include/linux/kobject_ns.h"
	.file 89 "/mnt/disk/jenkins/ci/workspace/chipset_release_960_xloader/opensource/component_code/vendor/huawei/extra/build/build_script/kirin_kernel_release/kernel/include/linux/sysfs.h"
	.file 90 "/mnt/disk/jenkins/ci/workspace/chipset_release_960_xloader/opensource/component_code/vendor/huawei/extra/build/build_script/kirin_kernel_release/kernel/include/linux/kobject.h"
	.file 91 "/mnt/disk/jenkins/ci/workspace/chipset_release_960_xloader/opensource/component_code/vendor/huawei/extra/build/build_script/kirin_kernel_release/kernel/include/linux/kref.h"
	.file 92 "/mnt/disk/jenkins/ci/workspace/chipset_release_960_xloader/opensource/component_code/vendor/huawei/extra/build/build_script/kirin_kernel_release/kernel/include/linux/moduleparam.h"
	.file 93 "/mnt/disk/jenkins/ci/workspace/chipset_release_960_xloader/opensource/component_code/vendor/huawei/extra/build/build_script/kirin_kernel_release/kernel/include/linux/module.h"
	.file 94 "/mnt/disk/jenkins/ci/workspace/chipset_release_960_xloader/opensource/component_code/vendor/huawei/extra/build/build_script/kirin_kernel_release/kernel/include/linux/rbtree_latch.h"
	.file 95 "/mnt/disk/jenkins/ci/workspace/chipset_release_960_xloader/opensource/component_code/vendor/huawei/extra/build/build_script/kirin_kernel_release/kernel/arch/arm64/include/asm/module.h"
	.file 96 "/mnt/disk/jenkins/ci/workspace/chipset_release_960_xloader/opensource/component_code/vendor/huawei/extra/build/build_script/kirin_kernel_release/kernel/arch/arm64/include/asm/uaccess.h"
	.file 97 "/mnt/disk/jenkins/ci/workspace/chipset_release_960_xloader/opensource/component_code/vendor/huawei/extra/build/build_script/kirin_kernel_release/kernel/include/linux/trace_events.h"
	.file 98 "/mnt/disk/jenkins/ci/workspace/chipset_release_960_xloader/opensource/component_code/vendor/huawei/extra/build/build_script/kirin_kernel_release/kernel/include/linux/tracepoint.h"
	.file 99 "/mnt/disk/jenkins/ci/workspace/chipset_release_960_xloader/opensource/component_code/vendor/huawei/extra/build/build_script/kirin_kernel_release/kernel/include/linux/percpu_counter.h"
	.file 100 "/mnt/disk/jenkins/ci/workspace/chipset_release_960_xloader/opensource/component_code/vendor/huawei/extra/build/build_script/kirin_kernel_release/kernel/include/linux/quota.h"
	.file 101 "/mnt/disk/jenkins/ci/workspace/chipset_release_960_xloader/opensource/component_code/vendor/huawei/extra/build/build_script/kirin_kernel_release/kernel/include/linux/projid.h"
	.file 102 "/mnt/disk/jenkins/ci/workspace/chipset_release_960_xloader/opensource/component_code/vendor/huawei/extra/build/build_script/kirin_kernel_release/kernel/include/linux/path.h"
	.file 103 "/mnt/disk/jenkins/ci/workspace/chipset_release_960_xloader/opensource/component_code/vendor/huawei/extra/build/build_script/kirin_kernel_release/kernel/include/linux/list_bl.h"
	.file 104 "/mnt/disk/jenkins/ci/workspace/chipset_release_960_xloader/opensource/component_code/vendor/huawei/extra/build/build_script/kirin_kernel_release/kernel/include/linux/lockref.h"
	.file 105 "/mnt/disk/jenkins/ci/workspace/chipset_release_960_xloader/opensource/component_code/vendor/huawei/extra/build/build_script/kirin_kernel_release/kernel/include/linux/dcache.h"
	.file 106 "/mnt/disk/jenkins/ci/workspace/chipset_release_960_xloader/opensource/component_code/vendor/huawei/extra/build/build_script/kirin_kernel_release/kernel/include/linux/list_lru.h"
	.file 107 "/mnt/disk/jenkins/ci/workspace/chipset_release_960_xloader/opensource/component_code/vendor/huawei/extra/build/build_script/kirin_kernel_release/kernel/include/linux/radix-tree.h"
	.file 108 "/mnt/disk/jenkins/ci/workspace/chipset_release_960_xloader/opensource/component_code/vendor/huawei/extra/build/build_script/kirin_kernel_release/kernel/include/uapi/linux/fiemap.h"
	.file 109 "/mnt/disk/jenkins/ci/workspace/chipset_release_960_xloader/opensource/component_code/vendor/huawei/extra/build/build_script/kirin_kernel_release/kernel/include/linux/migrate_mode.h"
	.file 110 "/mnt/disk/jenkins/ci/workspace/chipset_release_960_xloader/opensource/component_code/vendor/huawei/extra/build/build_script/kirin_kernel_release/kernel/include/linux/bvec.h"
	.file 111 "/mnt/disk/jenkins/ci/workspace/chipset_release_960_xloader/opensource/component_code/vendor/huawei/extra/build/build_script/kirin_kernel_release/kernel/include/linux/delayed_call.h"
	.file 112 "/mnt/disk/jenkins/ci/workspace/chipset_release_960_xloader/opensource/component_code/vendor/huawei/extra/build/build_script/kirin_kernel_release/kernel/include/linux/uio.h"
	.file 113 "/mnt/disk/jenkins/ci/workspace/chipset_release_960_xloader/opensource/component_code/vendor/huawei/extra/build/build_script/kirin_kernel_release/kernel/include/linux/nfs_fs_i.h"
	.file 114 "/mnt/disk/jenkins/ci/workspace/chipset_release_960_xloader/opensource/component_code/vendor/huawei/extra/build/build_script/kirin_kernel_release/kernel/include/linux/poll.h"
	.file 115 "/mnt/disk/jenkins/ci/workspace/chipset_release_960_xloader/opensource/component_code/vendor/huawei/extra/build/build_script/kirin_kernel_release/kernel/include/linux/seq_buf.h"
	.file 116 "/mnt/disk/jenkins/ci/workspace/chipset_release_960_xloader/opensource/component_code/vendor/huawei/extra/build/build_script/kirin_kernel_release/kernel/include/linux/trace_seq.h"
	.file 117 "/mnt/disk/jenkins/ci/workspace/chipset_release_960_xloader/opensource/component_code/vendor/huawei/extra/build/build_script/kirin_kernel_release/kernel/include/uapi/linux/perf_event.h"
	.file 118 "/mnt/disk/jenkins/ci/workspace/chipset_release_960_xloader/opensource/component_code/vendor/huawei/extra/build/build_script/kirin_kernel_release/kernel/include/asm-generic/local.h"
	.file 119 "/mnt/disk/jenkins/ci/workspace/chipset_release_960_xloader/opensource/component_code/vendor/huawei/extra/build/build_script/kirin_kernel_release/kernel/include/asm-generic/local64.h"
	.file 120 "/mnt/disk/jenkins/ci/workspace/chipset_release_960_xloader/opensource/component_code/vendor/huawei/extra/build/build_script/kirin_kernel_release/kernel/include/linux/cgroup.h"
	.file 121 "/mnt/disk/jenkins/ci/workspace/chipset_release_960_xloader/opensource/component_code/vendor/huawei/extra/build/build_script/kirin_kernel_release/kernel/include/linux/ns_common.h"
	.file 122 "/mnt/disk/jenkins/ci/workspace/chipset_release_960_xloader/opensource/component_code/vendor/huawei/extra/build/build_script/kirin_kernel_release/kernel/include/uapi/linux/uio.h"
	.file 123 "/mnt/disk/jenkins/ci/workspace/chipset_release_960_xloader/opensource/component_code/vendor/huawei/extra/build/build_script/kirin_kernel_release/kernel/include/linux/klist.h"
	.file 124 "/mnt/disk/jenkins/ci/workspace/chipset_release_960_xloader/opensource/component_code/vendor/huawei/extra/build/build_script/kirin_kernel_release/kernel/include/linux/pinctrl/devinfo.h"
	.file 125 "/mnt/disk/jenkins/ci/workspace/chipset_release_960_xloader/opensource/component_code/vendor/huawei/extra/build/build_script/kirin_kernel_release/kernel/include/linux/pm.h"
	.file 126 "/mnt/disk/jenkins/ci/workspace/chipset_release_960_xloader/opensource/component_code/vendor/huawei/extra/build/build_script/kirin_kernel_release/kernel/include/linux/device.h"
	.file 127 "/mnt/disk/jenkins/ci/workspace/chipset_release_960_xloader/opensource/component_code/vendor/huawei/extra/build/build_script/kirin_kernel_release/kernel/include/linux/pm_wakeup.h"
	.file 128 "/mnt/disk/jenkins/ci/workspace/chipset_release_960_xloader/opensource/component_code/vendor/huawei/extra/build/build_script/kirin_kernel_release/kernel/arch/arm64/include/asm/device.h"
	.file 129 "/mnt/disk/jenkins/ci/workspace/chipset_release_960_xloader/opensource/component_code/vendor/huawei/extra/build/build_script/kirin_kernel_release/kernel/include/linux/irq_work.h"
	.file 130 "/mnt/disk/jenkins/ci/workspace/chipset_release_960_xloader/opensource/component_code/vendor/huawei/extra/build/build_script/kirin_kernel_release/kernel/include/linux/perf_regs.h"
	.file 131 "/mnt/disk/jenkins/ci/workspace/chipset_release_960_xloader/opensource/component_code/vendor/huawei/extra/build/build_script/kirin_kernel_release/kernel/drivers/vcodec/hi_vcodec/vdec/vfmw/vfmw_v4.0/firmware/common/mem_manage.h"
	.file 132 "/mnt/disk/jenkins/ci/workspace/chipset_release_960_xloader/opensource/component_code/vendor/huawei/extra/build/build_script/kirin_kernel_release/kernel/drivers/vcodec/hi_vcodec/vdec/vfmw/vfmw_v4.0/firmware/osal/vfmw_osal_ext.h"
	.file 133 "/mnt/disk/jenkins/ci/workspace/chipset_release_960_xloader/opensource/component_code/vendor/huawei/extra/build/build_script/kirin_kernel_release/kernel/drivers/vcodec/hi_vcodec/vdec/vfmw/vfmw_v4.0/firmware/driver/HiSCDV200/scd_drv.h"
	.file 134 "/mnt/disk/jenkins/ci/workspace/chipset_release_960_xloader/opensource/component_code/vendor/huawei/extra/build/build_script/kirin_kernel_release/kernel/drivers/vcodec/hi_vcodec/vdec/vfmw/vfmw_v4.0/firmware/common/decparam.h"
	.file 135 "/mnt/disk/jenkins/ci/workspace/chipset_release_960_xloader/opensource/component_code/vendor/huawei/extra/build/build_script/kirin_kernel_release/kernel/drivers/vcodec/hi_vcodec/vdec/vfmw/vfmw_v4.0/firmware/common/vdm_drv.h"
	.file 136 "/mnt/disk/jenkins/ci/workspace/chipset_release_960_xloader/opensource/component_code/vendor/huawei/extra/build/build_script/kirin_kernel_release/kernel/drivers/vcodec/hi_vcodec/vdec/vfmw/vfmw_v4.0/firmware/common/vdm_hal.h"
	.file 137 "/mnt/disk/jenkins/ci/workspace/chipset_release_960_xloader/opensource/component_code/vendor/huawei/extra/build/build_script/kirin_kernel_release/kernel/drivers/vcodec/hi_vcodec/vdec/vfmw/vfmw_v4.0/firmware/common/public.h"
	.file 138 "/mnt/disk/jenkins/ci/workspace/chipset_release_960_xloader/opensource/component_code/vendor/huawei/extra/build/build_script/kirin_kernel_release/kernel/drivers/vcodec/hi_vcodec/vdec/vfmw/vfmw_v4.0/firmware/driver/HiVDHV400R004/vdm_hal_local.h"
	.file 139 "/mnt/disk/jenkins/ci/workspace/chipset_release_960_xloader/opensource/component_code/vendor/huawei/extra/build/build_script/kirin_kernel_release/kernel/drivers/vcodec/hi_vcodec/vdec/vfmw/vfmw_v4.0/firmware/common/syn_cmn.h"
	.file 140 "/mnt/disk/jenkins/ci/workspace/chipset_release_960_xloader/opensource/component_code/vendor/huawei/extra/build/build_script/kirin_kernel_release/kernel/drivers/vcodec/hi_vcodec/vdec/vfmw/vfmw_v4.0/firmware/common/fsp.h"
	.file 141 "/mnt/disk/jenkins/ci/workspace/chipset_release_960_xloader/opensource/component_code/vendor/huawei/extra/build/build_script/kirin_kernel_release/kernel/drivers/vcodec/hi_vcodec/vdec/vfmw/vfmw_v4.0/firmware/common/bitstream.h"
	.file 142 "/mnt/disk/jenkins/ci/workspace/chipset_release_960_xloader/opensource/component_code/vendor/huawei/extra/build/build_script/kirin_kernel_release/kernel/drivers/vcodec/hi_vcodec/vdec/vfmw/vfmw_v4.0/firmware/common/syntax/mpeg2.h"
	.file 143 "/mnt/disk/jenkins/ci/workspace/chipset_release_960_xloader/opensource/component_code/vendor/huawei/extra/build/build_script/kirin_kernel_release/kernel/drivers/vcodec/hi_vcodec/vdec/vfmw/vfmw_v4.0/firmware/common/syntax/mpeg4.h"
	.file 144 "/mnt/disk/jenkins/ci/workspace/chipset_release_960_xloader/opensource/component_code/vendor/huawei/extra/build/build_script/kirin_kernel_release/kernel/drivers/vcodec/hi_vcodec/vdec/vfmw/vfmw_v4.0/firmware/common/syntax/h264.h"
	.file 145 "/mnt/disk/jenkins/ci/workspace/chipset_release_960_xloader/opensource/component_code/vendor/huawei/extra/build/build_script/kirin_kernel_release/kernel/drivers/vcodec/hi_vcodec/vdec/vfmw/vfmw_v4.0/firmware/common/syntax/hevc.h"
	.file 146 "/mnt/disk/jenkins/ci/workspace/chipset_release_960_xloader/opensource/component_code/vendor/huawei/extra/build/build_script/kirin_kernel_release/kernel/drivers/vcodec/hi_vcodec/vdec/vfmw/vfmw_v4.0/firmware/common/syntax/vc1.h"
	.file 147 "/mnt/disk/jenkins/ci/workspace/chipset_release_960_xloader/opensource/component_code/vendor/huawei/extra/build/build_script/kirin_kernel_release/kernel/drivers/vcodec/hi_vcodec/vdec/vfmw/vfmw_v4.0/firmware/common/syntax/real8.h"
	.file 148 "/mnt/disk/jenkins/ci/workspace/chipset_release_960_xloader/opensource/component_code/vendor/huawei/extra/build/build_script/kirin_kernel_release/kernel/drivers/vcodec/hi_vcodec/vdec/vfmw/vfmw_v4.0/firmware/common/syntax/real9.h"
	.file 149 "/mnt/disk/jenkins/ci/workspace/chipset_release_960_xloader/opensource/component_code/vendor/huawei/extra/build/build_script/kirin_kernel_release/kernel/drivers/vcodec/hi_vcodec/vdec/vfmw/vfmw_v4.0/firmware/common/syntax/divx3.h"
	.file 150 "/mnt/disk/jenkins/ci/workspace/chipset_release_960_xloader/opensource/component_code/vendor/huawei/extra/build/build_script/kirin_kernel_release/kernel/drivers/vcodec/hi_vcodec/vdec/vfmw/vfmw_v4.0/firmware/common/syntax/vp6.h"
	.file 151 "/mnt/disk/jenkins/ci/workspace/chipset_release_960_xloader/opensource/component_code/vendor/huawei/extra/build/build_script/kirin_kernel_release/kernel/drivers/vcodec/hi_vcodec/vdec/vfmw/vfmw_v4.0/firmware/common/syntax/vp8.h"
	.file 152 "/mnt/disk/jenkins/ci/workspace/chipset_release_960_xloader/opensource/component_code/vendor/huawei/extra/build/build_script/kirin_kernel_release/kernel/drivers/vcodec/hi_vcodec/vdec/vfmw/vfmw_v4.0/firmware/common/syntax/syntax.h"
	.file 153 "/mnt/disk/jenkins/ci/workspace/chipset_release_960_xloader/opensource/component_code/vendor/huawei/extra/build/build_script/kirin_kernel_release/kernel/drivers/vcodec/hi_vcodec/vdec/vfmw/vfmw_v4.0/firmware/common/vfmw_ctrl.h"
	.file 154 "/mnt/disk/jenkins/ci/workspace/chipset_release_960_xloader/opensource/component_code/vendor/huawei/extra/build/build_script/kirin_kernel_release/kernel/drivers/vcodec/hi_vcodec/vdec/vfmw/vfmw_v4.0/firmware/driver/HiSMMUV100/smmu.h"
	.file 155 "/mnt/disk/jenkins/ci/workspace/chipset_release_960_xloader/opensource/component_code/vendor/huawei/extra/build/build_script/kirin_kernel_release/kernel/arch/arm64/include/asm/cachetype.h"
	.file 156 "/mnt/disk/jenkins/ci/workspace/chipset_release_960_xloader/opensource/component_code/vendor/huawei/extra/build/build_script/kirin_kernel_release/kernel/include/linux/printk.h"
	.file 157 "/mnt/disk/jenkins/ci/workspace/chipset_release_960_xloader/opensource/component_code/vendor/huawei/extra/build/build_script/kirin_kernel_release/kernel/include/linux/kernel.h"
	.file 158 "/mnt/disk/jenkins/ci/workspace/chipset_release_960_xloader/opensource/component_code/vendor/huawei/extra/build/build_script/kirin_kernel_release/kernel/arch/arm64/include/asm/stack_pointer.h"
	.file 159 "/mnt/disk/jenkins/ci/workspace/chipset_release_960_xloader/opensource/component_code/vendor/huawei/extra/build/build_script/kirin_kernel_release/kernel/arch/arm64/include/asm/hwcap.h"
	.file 160 "/mnt/disk/jenkins/ci/workspace/chipset_release_960_xloader/opensource/component_code/vendor/huawei/extra/build/build_script/kirin_kernel_release/kernel/arch/arm64/include/asm/cpufeature.h"
	.file 161 "/mnt/disk/jenkins/ci/workspace/chipset_release_960_xloader/opensource/component_code/vendor/huawei/extra/build/build_script/kirin_kernel_release/kernel/arch/arm64/include/asm/virt.h"
	.file 162 "/mnt/disk/jenkins/ci/workspace/chipset_release_960_xloader/opensource/component_code/vendor/huawei/extra/build/build_script/kirin_kernel_release/kernel/include/linux/jiffies.h"
	.file 163 "/mnt/disk/jenkins/ci/workspace/chipset_release_960_xloader/opensource/component_code/vendor/huawei/extra/build/build_script/kirin_kernel_release/kernel/include/linux/highuid.h"
	.file 164 "/mnt/disk/jenkins/ci/workspace/chipset_release_960_xloader/opensource/component_code/vendor/huawei/extra/build/build_script/kirin_kernel_release/kernel/arch/arm64/include/asm/memory.h"
	.file 165 "/mnt/disk/jenkins/ci/workspace/chipset_release_960_xloader/opensource/component_code/vendor/huawei/extra/build/build_script/kirin_kernel_release/kernel/include/asm-generic/percpu.h"
	.file 166 "/mnt/disk/jenkins/ci/workspace/chipset_release_960_xloader/opensource/component_code/vendor/huawei/extra/build/build_script/kirin_kernel_release/kernel/include/linux/debug_locks.h"
	.file 167 "/mnt/disk/jenkins/ci/workspace/chipset_release_960_xloader/opensource/component_code/vendor/huawei/extra/build/build_script/kirin_kernel_release/kernel/include/asm-generic/pgtable.h"
	.file 168 "/mnt/disk/jenkins/ci/workspace/chipset_release_960_xloader/opensource/component_code/vendor/huawei/extra/build/build_script/kirin_kernel_release/kernel/arch/arm64/include/asm/irq.h"
	.file 169 "/mnt/disk/jenkins/ci/workspace/chipset_release_960_xloader/opensource/component_code/vendor/huawei/extra/build/build_script/kirin_kernel_release/kernel/arch/arm64/include/asm/hardirq.h"
	.file 170 "/mnt/disk/jenkins/ci/workspace/chipset_release_960_xloader/opensource/component_code/vendor/huawei/extra/build/build_script/kirin_kernel_release/kernel/include/linux/slab.h"
	.file 171 "/mnt/disk/jenkins/ci/workspace/chipset_release_960_xloader/opensource/component_code/vendor/huawei/extra/build/build_script/kirin_kernel_release/kernel/include/linux/interrupt.h"
	.file 172 "/mnt/disk/jenkins/ci/workspace/chipset_release_960_xloader/opensource/component_code/vendor/huawei/extra/build/build_script/kirin_kernel_release/kernel/drivers/vcodec/hi_vcodec/vdec/vfmw/vfmw_v4.0/firmware/driver/HiVDHV400R004/vdm_hal_h264.h"
	.file 173 "/mnt/disk/jenkins/ci/workspace/chipset_release_960_xloader/opensource/component_code/vendor/huawei/extra/build/build_script/kirin_kernel_release/kernel/drivers/vcodec/hi_vcodec/vdec/vfmw/vfmw_v4.0/firmware/driver/HiVDHV400R004/vdm_hal_hevc.h"
	.file 174 "/mnt/disk/jenkins/ci/workspace/chipset_release_960_xloader/opensource/component_code/vendor/huawei/extra/build/build_script/kirin_kernel_release/kernel/drivers/vcodec/hi_vcodec/vdec/vfmw/vfmw_v4.0/firmware/driver/HiVDHV400R004/vdm_hal_mpeg2.h"
	.file 175 "/mnt/disk/jenkins/ci/workspace/chipset_release_960_xloader/opensource/component_code/vendor/huawei/extra/build/build_script/kirin_kernel_release/kernel/drivers/vcodec/hi_vcodec/vdec/vfmw/vfmw_v4.0/firmware/driver/HiVDHV400R004/vdm_hal_mpeg4.h"
	.file 176 "/mnt/disk/jenkins/ci/workspace/chipset_release_960_xloader/opensource/component_code/vendor/huawei/extra/build/build_script/kirin_kernel_release/kernel/drivers/vcodec/hi_vcodec/vdec/vfmw/vfmw_v4.0/firmware/driver/HiVDHV400R004/vdm_hal_real8.h"
	.file 177 "/mnt/disk/jenkins/ci/workspace/chipset_release_960_xloader/opensource/component_code/vendor/huawei/extra/build/build_script/kirin_kernel_release/kernel/drivers/vcodec/hi_vcodec/vdec/vfmw/vfmw_v4.0/firmware/driver/HiVDHV400R004/vdm_hal_real9.h"
	.file 178 "/mnt/disk/jenkins/ci/workspace/chipset_release_960_xloader/opensource/component_code/vendor/huawei/extra/build/build_script/kirin_kernel_release/kernel/drivers/vcodec/hi_vcodec/vdec/vfmw/vfmw_v4.0/firmware/driver/HiVDHV400R004/vdm_hal_vc1.h"
	.file 179 "/mnt/disk/jenkins/ci/workspace/chipset_release_960_xloader/opensource/component_code/vendor/huawei/extra/build/build_script/kirin_kernel_release/kernel/drivers/vcodec/hi_vcodec/vdec/vfmw/vfmw_v4.0/firmware/driver/HiVDHV400R004/vdm_hal_vp6.h"
	.file 180 "/mnt/disk/jenkins/ci/workspace/chipset_release_960_xloader/opensource/component_code/vendor/huawei/extra/build/build_script/kirin_kernel_release/kernel/drivers/vcodec/hi_vcodec/vdec/vfmw/vfmw_v4.0/firmware/driver/HiVDHV400R004/vdm_hal_vp8.h"
	.file 181 "/mnt/disk/jenkins/ci/workspace/chipset_release_960_xloader/opensource/component_code/vendor/huawei/extra/build/build_script/kirin_kernel_release/kernel/drivers/vcodec/hi_vcodec/vdec/vfmw/vfmw_v4.0/firmware/driver/HiVDHV400R004/vdm_hal_divx3.h"