	.cpu generic+fp+simd
	.file	"divx3.c"
	.text
.Ltext0:
	.cfi_sections	.debug_frame
	.align	2
	.global	Divx3_GetImageBuffer
	.type	Divx3_GetImageBuffer, %function
Divx3_GetImageBuffer:
.LFB2638:
	.file 1 "/mnt/disk/jenkins/ci/workspace/chipset_release_960_xloader/opensource/component_code/vendor/huawei/extra/build/build_script/kirin_kernel_release/kernel/drivers/vcodec/hi_vcodec/vdec/vfmw/vfmw_v4.0/firmware/common/syntax/divx3.c"
	.loc 1 62 0
	.cfi_startproc
.LVL0:
	stp	x29, x30, [sp, -48]!
	.cfi_def_cfa_offset 48
	.cfi_offset 29, -48
	.cfi_offset 30, -40
	.loc 1 70 0
	mov	w1, 1
	.loc 1 62 0
	add	x29, sp, 0
	.cfi_def_cfa_register 29
	str	x21, [sp,32]
	.cfi_offset 21, -16
	.loc 1 70 0
	add	x21, x0, 36864
	.loc 1 62 0
	stp	x19, x20, [sp,16]
	.cfi_offset 19, -32
	.cfi_offset 20, -24
	.loc 1 62 0
	mov	x20, x0
	.loc 1 70 0
	add	x19, x20, 168
	ldr	w0, [x21,3296]
.LVL1:
	add	x19, x19, 16384
	bl	FSP_NewLogicFs
.LVL2:
	mov	w1, w0
	str	w0, [x19,2956]
	.loc 1 71 0
	tbnz	w1, #31, .L9
.LBB10:
	.loc 1 84 0
	ldr	w0, [x21,3296]
	bl	FSP_GetLogicFs
.LVL3:
	mov	x20, x0
.LVL4:
	.loc 1 85 0
	cbz	x0, .L10
	.loc 1 91 0
	ldr	w2, [x19,2956]
	adrp	x1, .LC2
	mov	w0, 18
	add	x1, x1, :lo12:.LC2
	bl	dprint_linux_kernel
.LVL5:
	.loc 1 92 0
	ldr	x0, [x20,296]
	cbz	x0, .L7
	.loc 1 92 0 is_stmt 0 discriminator 1
	ldr	x1, [x20,304]
	cbz	x1, .L7
	.loc 1 92 0 discriminator 2
	ldr	x4, [x20,312]
	cbz	x4, .L7
	.loc 1 94 0 is_stmt 1
	ldr	w2, [x0,12]
	mov	w0, 18
	ldr	w3, [x1,12]
	adrp	x1, .LC3
	ldr	w4, [x4,12]
	add	x1, x1, :lo12:.LC3
	bl	dprint_linux_kernel
.LVL6:
.LBE10:
	.loc 1 102 0
	mov	w0, 1
.L3:
	.loc 1 103 0
	ldp	x19, x20, [sp,16]
	.cfi_remember_state
	.cfi_restore 20
	.cfi_restore 19
.LVL7:
	ldr	x21, [sp,32]
	.cfi_restore 21
	ldp	x29, x30, [sp], 48
	.cfi_restore 30
	.cfi_restore 29
	.cfi_def_cfa 31, 0
	ret
.LVL8:
.L7:
	.cfi_restore_state
	.loc 1 102 0
	mov	w0, 1
	.loc 1 103 0
	ldr	x21, [sp,32]
	.cfi_remember_state
	.cfi_restore 21
	ldp	x19, x20, [sp,16]
	.cfi_restore 19
	.cfi_restore 20
.LVL9:
	ldp	x29, x30, [sp], 48
	.cfi_restore 29
	.cfi_restore 30
	.cfi_def_cfa 31, 0
	ret
.LVL10:
.L9:
	.cfi_restore_state
	.loc 1 74 0
	adrp	x1, .LC0
	mov	w0, 0
	add	x1, x1, :lo12:.LC0
	bl	dprint_linux_kernel
.LVL11:
	.loc 1 75 0
	add	x1, x20, 16384
	ldr	w0, [x21,3296]
	add	x1, x1, 3176
	bl	FSP_ClearNotInVoQueue
.LVL12:
	.loc 1 77 0
	ldr	w1, [x19,2952]
	mov	w2, 1
	ldr	w0, [x21,3296]
	bl	FSP_ClearLogicFs
.LVL13:
	str	wzr, [x19,2952]
	.loc 1 77 0 is_stmt 0 discriminator 1
	ldr	w0, [x21,3296]
	bl	FSP_GetNullLogicFs
.LVL14:
	.loc 1 78 0 is_stmt 1
	str	wzr, [x19,2868]
	.loc 1 77 0
	str	w0, [x19,2952]
	.loc 1 79 0
	mov	w0, 0
	.loc 1 103 0
	ldp	x19, x20, [sp,16]
	.cfi_remember_state
	.cfi_restore 19
	.cfi_restore 20
.LVL15:
	ldr	x21, [sp,32]
	.cfi_restore 21
	ldp	x29, x30, [sp], 48
	.cfi_restore 29
	.cfi_restore 30
	.cfi_def_cfa 31, 0
	ret
.LVL16:
.L10:
	.cfi_restore_state
.LBB11:
	.loc 1 87 0
	adrp	x1, .LC1
	mov	w0, 0
.LVL17:
	add	x1, x1, :lo12:.LC1
	mov	w2, 87
	bl	dprint_linux_kernel
.LVL18:
	.loc 1 88 0
	mov	w0, 0
	b	.L3
.LBE11:
	.cfi_endproc
.LFE2638:
	.size	Divx3_GetImageBuffer, .-Divx3_GetImageBuffer
	.align	2
	.global	Divx3_ArrangeVHBMem
	.type	Divx3_ArrangeVHBMem, %function
Divx3_ArrangeVHBMem:
.LFB2639:
	.loc 1 115 0
	.cfi_startproc
.LVL19:
	stp	x29, x30, [sp, -96]!
	.cfi_def_cfa_offset 96
	.cfi_offset 29, -96
	.cfi_offset 30, -88
	add	x29, sp, 0
	.cfi_def_cfa_register 29
	stp	x19, x20, [sp,16]
	str	x21, [sp,32]
	.cfi_offset 19, -80
	.cfi_offset 20, -72
	.cfi_offset 21, -64
	.loc 1 115 0
	adrp	x19, __stack_chk_guard
	mov	x20, x1
	.loc 1 123 0
	ldr	w4, [x2,48]
	.loc 1 115 0
	ldr	x0, [x19,#:lo12:__stack_chk_guard]
.LVL20:
	str	x0, [x29,88]
	.loc 1 123 0
	cmp	w4, 1
	ldr	w3, [x2,52]
	bls	.L13
	.loc 1 123 0 is_stmt 0 discriminator 1
	cmp	w3, 1
	bls	.L13
	.loc 1 129 0 is_stmt 1
	ldr	x1, [x1]
.LVL21:
	ldr	w0, [x1,772]
	cbnz	w0, .L16
	.loc 1 129 0 is_stmt 0 discriminator 1
	ldr	w0, [x1,28]
	cmp	w0, 25
	beq	.L40
.L17:
	.loc 1 194 0 is_stmt 1
	stp	xzr, xzr, [x29,64]
	.loc 1 162 0
	ldr	w1, [x2,56]
	.loc 1 197 0
	cmp	w0, 24
	.loc 1 163 0
	ldr	w0, [x2,60]
	mov	w2, 5
.LVL22:
	.loc 1 194 0
	str	wzr, [x29,80]
	.loc 1 195 0
	str	w1, [x29,68]
	.loc 1 196 0
	str	w0, [x29,72]
	.loc 1 197 0
	beq	.L41
	.loc 1 165 0
	mov	w0, 2
.LVL23:
	.loc 1 164 0
	mov	w6, 4
.LVL24:
.L24:
	.loc 1 197 0 discriminator 1
	strb	w6, [x29,65]
	.loc 1 199 0 discriminator 1
	sxtb	w0, w0
.LVL25:
.L25:
	.loc 1 202 0
	add	x21, x20, 36864
	.loc 1 199 0 discriminator 4
	strb	w0, [x29,67]
	.loc 1 202 0
	add	x1, x29, 64
	strb	w2, [x29,66]
	ldr	w0, [x21,3296]
	bl	FSP_ConfigInstance
.LVL26:
	cbz	w0, .L30
.L31:
	.loc 1 214 0
	mov	w0, 0
.LVL27:
.L15:
	.loc 1 220 0
	ldr	x2, [x29,88]
.LVL28:
	ldr	x1, [x19,#:lo12:__stack_chk_guard]
	cmp	x2, x1
	bne	.L42
	ldp	x19, x20, [sp,16]
	.cfi_remember_state
	.cfi_restore 20
	.cfi_restore 19
.LVL29:
	ldr	x21, [sp,32]
	.cfi_restore 21
	ldp	x29, x30, [sp], 96
	.cfi_restore 30
	.cfi_restore 29
	.cfi_def_cfa 31, 0
	ret
.LVL30:
.L16:
	.cfi_restore_state
	.loc 1 160 0
	ldr	w0, [x1,28]
	cmp	w0, 25
	bne	.L17
	.loc 1 170 0
	ldr	w7, [x2,56]
	ldr	w4, [x1,732]
	cmp	w7, w4
	bhi	.L43
	.loc 1 170 0 is_stmt 0 discriminator 1
	ldr	w3, [x2,60]
	ldr	w5, [x1,736]
	cmp	w3, w5
	bhi	.L27
	.loc 1 181 0 is_stmt 1
	ldr	w2, [x1,760]
.LVL31:
	.loc 1 183 0
	mov	w0, 1
.LVL32:
	.loc 1 180 0
	ldr	w6, [x1,756]
	.loc 1 177 0
	mov	w4, w7
	.loc 1 178 0
	mov	w5, w3
	.loc 1 180 0
	add	w6, w6, w0
.LVL33:
	.loc 1 181 0
	cbnz	w2, .L44
.LVL34:
.L29:
	.loc 1 194 0
	stp	xzr, xzr, [x29,64]
	ldrsb	w2, [x1,780]
	str	wzr, [x29,80]
	.loc 1 195 0
	str	w4, [x29,68]
	.loc 1 196 0
	str	w5, [x29,72]
	b	.L24
.LVL35:
.L30:
	.loc 1 204 0
	ldr	x2, [x20]
	add	x3, x29, 60
	ldr	w0, [x21,3296]
	ldr	w1, [x2,20]
	ldr	w2, [x2,24]
	bl	FSP_PartitionFsMemory
.LVL36:
	.loc 1 206 0
	cbnz	w0, .L31
	.loc 1 217 0
	mov	w1, 1
	.loc 1 219 0
	mov	w0, 1
	.loc 1 217 0
	strb	w1, [x20,170]
	.loc 1 219 0
	b	.L15
.LVL37:
.L13:
	.loc 1 125 0
	adrp	x1, .LC4
	mov	w0, 0
	add	x1, x1, :lo12:.LC4
	mov	w2, w4
.LVL38:
	bl	dprint_linux_kernel
.LVL39:
	.loc 1 126 0
	mov	w0, 0
	b	.L15
.L41:
	.loc 1 199 0 discriminator 2
	mov	w0, 1
	b	.L25
.LVL40:
.L40:
	.loc 1 131 0
	ldr	w6, [x2,56]
	ldr	w4, [x1,732]
	cmp	w6, w4
	bhi	.L45
	.loc 1 131 0 is_stmt 0 discriminator 1
	ldr	w3, [x2,60]
	ldr	w5, [x1,736]
	cmp	w3, w5
	bhi	.L19
	.loc 1 143 0 is_stmt 1
	ldrb	w0, [x20,170]
	cmp	w0, 1
	beq	.L15
	.loc 1 149 0
	ldr	w2, [x1,760]
.LVL41:
	.loc 1 151 0
	mov	w0, 1
.LVL42:
	.loc 1 148 0
	ldr	w6, [x1,756]
	add	w6, w6, w0
.LVL43:
	.loc 1 149 0
	cbz	w2, .L29
	.loc 1 156 0
	cmp	w6, 17
	mov	w0, 17
	csel	w0, w6, w0, le
.LVL44:
	b	.L29
.LVL45:
.L43:
	ldr	w5, [x1,736]
	ldr	w3, [x2,60]
.L27:
	.loc 1 172 0
	adrp	x1, .LC5
	mov	w0, 0
	add	x1, x1, :lo12:.LC5
	mov	w2, w7
.LVL46:
	bl	dprint_linux_kernel
.LVL47:
	.loc 1 175 0
	mov	w0, 0
	b	.L15
.LVL48:
.L45:
	ldr	w5, [x1,736]
	ldr	w3, [x2,60]
.L19:
	.loc 1 133 0
	adrp	x1, .LC5
	mov	w0, 0
	add	x1, x1, :lo12:.LC5
	mov	w2, w6
.LVL49:
	bl	dprint_linux_kernel
.LVL50:
	.loc 1 136 0
	mov	w0, 0
	b	.L15
.LVL51:
.L44:
	.loc 1 188 0
	cmp	w6, 17
	mov	w2, 17
	csel	w0, w6, w2, le
.LVL52:
	b	.L29
.LVL53:
.L42:
	.loc 1 220 0
	bl	__stack_chk_fail
.LVL54:
	.cfi_endproc
.LFE2639:
	.size	Divx3_ArrangeVHBMem, .-Divx3_ArrangeVHBMem
	.align	2
	.global	Divx3_SetImgFormat
	.type	Divx3_SetImgFormat, %function
Divx3_SetImgFormat:
.LFB2640:
	.loc 1 224 0
	.cfi_startproc
.LVL55:
	stp	x29, x30, [sp, -32]!
	.cfi_def_cfa_offset 32
	.cfi_offset 29, -32
	.cfi_offset 30, -24
	.loc 1 233 0
	add	x1, x0, 168
	.loc 1 224 0
	add	x29, sp, 0
	.cfi_def_cfa_register 29
	stp	x19, x20, [sp,16]
	.cfi_offset 19, -16
	.cfi_offset 20, -8
	.loc 1 233 0
	add	x1, x1, 16384
	.loc 1 224 0
	mov	x20, x0
	.loc 1 233 0
	add	x0, x0, 36864
.LVL56:
	ldr	w1, [x1,2956]
	ldr	w0, [x0,3296]
	bl	FSP_GetFsImagePtr
.LVL57:
	mov	x19, x0
.LVL58:
	.loc 1 234 0
	cbz	x0, .L46
	.loc 1 239 0
	add	x2, x20, 16384
	.loc 1 248 0
	mov	w3, 7200
	.loc 1 239 0
	add	x4, x2, 2912
	.loc 1 255 0
	mov	w1, 0
	.loc 1 248 0
	ldr	w2, [x2,2912]
	.loc 1 251 0
	str	wzr, [x0,32]
	.loc 1 248 0
	and	w2, w2, 3
	.loc 1 249 0
	str	w2, [x0,36]
	.loc 1 250 0
	str	w2, [x0,40]
	.loc 1 248 0
	orr	w2, w2, w3
	str	w2, [x0,44]
	.loc 1 252 0
	ldr	w2, [x4,56]
	str	w2, [x0,48]
	.loc 1 253 0
	ldr	w2, [x4,60]
	str	w2, [x0,52]
	.loc 1 255 0
	bl	SetAspectRatio
.LVL59:
	.loc 1 258 0
	ldr	x0, [x20]
	ldr	w0, [x0,28]
	cmp	w0, 25
	beq	.L50
.L46:
	.loc 1 271 0
	ldp	x19, x20, [sp,16]
	.cfi_remember_state
	.cfi_restore 20
	.cfi_restore 19
.LVL60:
	ldp	x29, x30, [sp], 32
	.cfi_restore 30
	.cfi_restore 29
	.cfi_def_cfa 31, 0
	ret
.LVL61:
.L50:
	.cfi_restore_state
.LBB12:
	.loc 1 261 0
	ldr	w0, [x19,52]
	.loc 1 260 0
	ldr	w2, [x19,76]
	.loc 1 263 0
	ldr	w3, [x19,168]
	.loc 1 261 0
	add	w0, w0, 15
	lsl	w1, w2, 4
	lsr	w0, w0, 4
	.loc 1 266 0
	add	w4, w3, w2
	.loc 1 264 0
	str	w3, [x19,136]
	.loc 1 263 0
	madd	w0, w1, w0, w3
	str	w0, [x19,172]
	.loc 1 265 0
	str	w0, [x19,140]
	.loc 1 267 0
	add	w2, w0, w2
	.loc 1 266 0
	str	w4, [x19,144]
	.loc 1 267 0
	str	w2, [x19,148]
	.loc 1 268 0
	str	w3, [x19,176]
	.loc 1 269 0
	str	w0, [x19,180]
.LBE12:
	.loc 1 271 0
	ldp	x19, x20, [sp,16]
	.cfi_restore 19
	.cfi_restore 20
.LVL62:
	ldp	x29, x30, [sp], 32
	.cfi_restore 29
	.cfi_restore 30
	.cfi_def_cfa 31, 0
	ret
	.cfi_endproc
.LFE2640:
	.size	Divx3_SetImgFormat, .-Divx3_SetImgFormat
	.align	2
	.global	Divx3_RecordVFMWState
	.type	Divx3_RecordVFMWState, %function
Divx3_RecordVFMWState:
.LFB2641:
	.loc 1 283 0
	.cfi_startproc
.LVL63:
	.loc 1 289 0
	ret
	.cfi_endproc
.LFE2641:
	.size	Divx3_RecordVFMWState, .-Divx3_RecordVFMWState
	.align	2
	.global	Divx3_WritePicMsg
	.type	Divx3_WritePicMsg, %function
Divx3_WritePicMsg:
.LFB2642:
	.loc 1 293 0
	.cfi_startproc
.LVL64:
	.loc 1 303 0
	add	x3, x0, 16384
	add	x1, x0, 16
	add	x2, x3, 2912
	ldr	w3, [x3,2912]
	str	w3, [x0,16]
	.loc 1 305 0
	ldr	w0, [x2,48]
.LVL65:
	str	w0, [x1,4]
	.loc 1 306 0
	ldr	w0, [x2,52]
	str	w0, [x1,8]
	.loc 1 308 0
	ldr	w0, [x2,4]
	str	w0, [x1,12]
	.loc 1 309 0
	ldr	w0, [x2,8]
	str	w0, [x1,16]
	.loc 1 310 0
	ldr	w0, [x2,16]
	str	w0, [x1,20]
	.loc 1 312 0
	ldr	w0, [x2,24]
	str	w0, [x1,24]
	.loc 1 313 0
	ldr	w0, [x2,28]
	str	w0, [x1,28]
	.loc 1 314 0
	ldr	w0, [x2,32]
	str	w0, [x1,32]
	.loc 1 315 0
	ldr	w0, [x2,36]
	str	w0, [x1,36]
	.loc 1 316 0
	ldr	w0, [x2,40]
	str	w0, [x1,40]
	.loc 1 317 0
	ldr	w0, [x2,44]
	str	w0, [x1,44]
	.loc 1 320 0
	ret
	.cfi_endproc
.LFE2642:
	.size	Divx3_WritePicMsg, .-Divx3_WritePicMsg
	.align	2
	.global	Divx3_WriteReg
	.type	Divx3_WriteReg, %function
Divx3_WriteReg:
.LFB2643:
	.loc 1 324 0
	.cfi_startproc
.LVL66:
	.loc 1 330 0
	ret
	.cfi_endproc
.LFE2643:
	.size	Divx3_WriteReg, .-Divx3_WriteReg
	.align	2
	.global	Divx3_DecodeDecide
	.type	Divx3_DecodeDecide, %function
Divx3_DecodeDecide:
.LFB2644:
	.loc 1 334 0
	.cfi_startproc
.LVL67:
	stp	x29, x30, [sp, -64]!
	.cfi_def_cfa_offset 64
	.cfi_offset 29, -64
	.cfi_offset 30, -56
	add	x29, sp, 0
	.cfi_def_cfa_register 29
	stp	x19, x20, [sp,16]
	.cfi_offset 19, -48
	.cfi_offset 20, -40
	.loc 1 343 0
	add	x19, x0, 168
	.loc 1 334 0
	str	x23, [sp,48]
	stp	x21, x22, [sp,32]
	.cfi_offset 23, -16
	.cfi_offset 21, -32
	.cfi_offset 22, -24
	.loc 1 334 0
	mov	x20, x0
	.loc 1 343 0
	add	x1, x19, 16384
	.loc 1 345 0
	ldrb	w0, [x19,2]
.LVL68:
	.loc 1 343 0
	ldr	w21, [x1,2744]
	.loc 1 345 0
	cbz	w0, .L83
	.loc 1 352 0
	ldrb	w2, [x19,3]
	.loc 1 353 0
	ldr	x0, [x20]
	.loc 1 352 0
	sub	w2, w2, #2
	uxtb	w2, w2
	cmp	w2, 1
	.loc 1 353 0
	ldr	w2, [x0,12]
	.loc 1 352 0
	bls	.L84
.L58:
	.loc 1 361 0
	uxtb	w2, w2
	strb	w2, [x19,3]
	.loc 1 362 0
	cmp	w2, 4
	bls	.L85
	.loc 1 387 0
	adrp	x1, .LC11
	mov	w0, 1
	add	x1, x1, :lo12:.LC11
	bl	dprint_linux_kernel
.LVL69:
	.loc 1 424 0
	ldr	x23, [sp,48]
	.cfi_remember_state
	.cfi_restore 23
	.loc 1 422 0
	mov	w0, 0
	.loc 1 424 0
	ldp	x19, x20, [sp,16]
	.cfi_restore 19
	.cfi_restore 20
.LVL70:
	ldp	x21, x22, [sp,32]
	.cfi_restore 21
	.cfi_restore 22
	ldp	x29, x30, [sp], 64
	.cfi_restore 29
	.cfi_restore 30
	.cfi_def_cfa 31, 0
	ret
.LVL71:
.L85:
	.cfi_restore_state
	.loc 1 362 0
	adrp	x0, .L62
	add	x0, x0, :lo12:.L62
	ldrb	w0, [x0,w2,uxtw]
	adr	x1, .Lrtx62
	add	x0, x1, w0, sxtb #2
	br	x0
.Lrtx62:
	.section	.rodata
	.align	0
	.align	2
.L62:
	.byte	(.L61 - .Lrtx62) / 4
	.byte	(.L61 - .Lrtx62) / 4
	.byte	(.L63 - .Lrtx62) / 4
	.byte	(.L69 - .Lrtx62) / 4
	.byte	(.L61 - .Lrtx62) / 4
	.text
.L69:
	.loc 1 422 0
	mov	w0, 0
.LVL72:
.L80:
	.loc 1 424 0
	ldp	x19, x20, [sp,16]
	.cfi_remember_state
	.cfi_restore 20
	.cfi_restore 19
.LVL73:
	ldp	x21, x22, [sp,32]
	.cfi_restore 22
	.cfi_restore 21
.LVL74:
	ldr	x23, [sp,48]
	.cfi_restore 23
	ldp	x29, x30, [sp], 64
	.cfi_restore 30
	.cfi_restore 29
	.cfi_def_cfa 31, 0
	ret
.LVL75:
.L84:
	.cfi_restore_state
	.loc 1 352 0 discriminator 1
	cmp	w2, 1
	bls	.L70
	cmp	w2, 4
	bne	.L58
.L70:
	.loc 1 357 0
	adrp	x1, .LC7
	.loc 1 358 0
	add	x22, x19, 16384
	.loc 1 357 0
	add	x1, x1, :lo12:.LC7
	.loc 1 358 0
	add	x23, x20, 36864
	.loc 1 357 0
	mov	w0, 2
	bl	dprint_linux_kernel
.LVL76:
	.loc 1 358 0
	ldr	w0, [x23,3296]
	mov	w2, 1
	ldr	w1, [x22,2952]
	bl	FSP_ClearLogicFs
.LVL77:
	str	wzr, [x22,2952]
	.loc 1 358 0 is_stmt 0 discriminator 1
	ldr	w0, [x23,3296]
	bl	FSP_GetNullLogicFs
.LVL78:
	.loc 1 359 0 is_stmt 1
	str	wzr, [x22,2868]
	.loc 1 358 0
	str	w0, [x22,2952]
	ldr	x0, [x20]
	ldr	w2, [x0,12]
	b	.L58
.L83:
	.loc 1 347 0
	adrp	x1, .LC6
	mov	w0, 1
	add	x1, x1, :lo12:.LC6
	bl	dprint_linux_kernel
.LVL79:
	.loc 1 424 0
	ldr	x23, [sp,48]
	.cfi_remember_state
	.cfi_restore 23
	.loc 1 348 0
	mov	w0, 0
	.loc 1 424 0
	ldp	x19, x20, [sp,16]
	.cfi_restore 19
	.cfi_restore 20
.LVL80:
	ldp	x21, x22, [sp,32]
	.cfi_restore 21
	.cfi_restore 22
	ldp	x29, x30, [sp], 64
	.cfi_restore 29
	.cfi_restore 30
	.cfi_def_cfa 31, 0
	ret
.LVL81:
.L63:
	.cfi_restore_state
	.loc 1 368 0
	cbnz	w21, .L86
.L64:
	.loc 1 394 0
	add	x20, x20, 36864
.LVL82:
	add	x19, x19, 16384
	ldr	w0, [x20,3296]
	ldr	w1, [x19,2952]
	bl	FSP_GetFsImagePtr
.LVL83:
	.loc 1 424 0
	ldr	x23, [sp,48]
	.cfi_remember_state
	.cfi_restore 23
	.loc 1 417 0
	mov	w0, 1
	.loc 1 424 0
	ldp	x19, x20, [sp,16]
	.cfi_restore 19
	.cfi_restore 20
	ldp	x21, x22, [sp,32]
	.cfi_restore 21
	.cfi_restore 22
.LVL84:
	ldp	x29, x30, [sp], 64
	.cfi_restore 29
	.cfi_restore 30
	.cfi_def_cfa 31, 0
	ret
.LVL85:
.L61:
	.cfi_restore_state
	.loc 1 377 0
	cbz	w21, .L64
	.loc 1 377 0 is_stmt 0 discriminator 1
	add	x19, x19, 16384
	ldr	w0, [x19,2868]
	cbz	w0, .L87
	.loc 1 394 0 is_stmt 1
	add	x0, x20, 36864
	ldr	w1, [x19,2952]
	ldr	w0, [x0,3296]
	bl	FSP_GetFsImagePtr
.LVL86:
	.loc 1 397 0
	cbz	x0, .L88
	.loc 1 397 0 is_stmt 0 discriminator 1
	ldr	x1, [x20]
	ldr	w2, [x0,84]
	.loc 1 406 0 is_stmt 1
	mov	w0, 1
.LVL87:
	.loc 1 397 0 discriminator 1
	ldr	w3, [x1,4]
	cmp	w2, w3
	bls	.L80
	.loc 1 406 0
	adrp	x1, .LC13
	add	x1, x1, :lo12:.LC13
	bl	dprint_linux_kernel
.LVL88:
	.loc 1 424 0
	ldr	x23, [sp,48]
	.cfi_remember_state
	.cfi_restore 23
	.loc 1 407 0
	mov	w0, 0
	.loc 1 424 0
	ldp	x19, x20, [sp,16]
	.cfi_restore 19
	.cfi_restore 20
.LVL89:
	ldp	x21, x22, [sp,32]
	.cfi_restore 21
	.cfi_restore 22
.LVL90:
	ldp	x29, x30, [sp], 64
	.cfi_restore 29
	.cfi_restore 30
	.cfi_def_cfa 31, 0
	ret
.LVL91:
.L86:
	.cfi_restore_state
	.loc 1 371 0
	adrp	x1, .LC8
	mov	w0, 18
	add	x1, x1, :lo12:.LC8
	mov	w2, w21
	bl	dprint_linux_kernel
.LVL92:
	.loc 1 422 0
	mov	w0, 0
	b	.L80
.L87:
	.loc 1 379 0 discriminator 4
	adrp	x1, .LC9
	adrp	x2, .LC10
	mov	w0, 18
	add	x1, x1, :lo12:.LC9
	add	x2, x2, :lo12:.LC10
	mov	w3, 0
	bl	dprint_linux_kernel
.LVL93:
	.loc 1 422 0
	mov	w0, 0
	b	.L80
.LVL94:
.L88:
	.loc 1 401 0
	adrp	x1, .LC12
	adrp	x2, .LANCHOR0
	mov	w0, 0
.LVL95:
	add	x1, x1, :lo12:.LC12
	add	x2, x2, :lo12:.LANCHOR0
	mov	w3, 401
	bl	dprint_linux_kernel
.LVL96:
	.loc 1 402 0
	mov	w0, 0
	b	.L80
	.cfi_endproc
.LFE2644:
	.size	Divx3_DecodeDecide, .-Divx3_DecodeDecide
	.align	2
	.global	Divx3_GetPictureHeader
	.type	Divx3_GetPictureHeader, %function
Divx3_GetPictureHeader:
.LFB2645:
	.loc 1 428 0
	.cfi_startproc
.LVL97:
	stp	x29, x30, [sp, -48]!
	.cfi_def_cfa_offset 48
	.cfi_offset 29, -48
	.cfi_offset 30, -40
	add	x29, sp, 0
	.cfi_def_cfa_register 29
	stp	x19, x20, [sp,16]
	.cfi_offset 19, -32
	.cfi_offset 20, -24
	.loc 1 428 0
	mov	x19, x1
	.loc 1 429 0
	mov	w1, 2
.LVL98:
	.loc 1 428 0
	str	x2, [x29,40]
	mov	x20, x0
	.loc 1 429 0
	bl	BsGet
.LVL99:
	.loc 1 430 0
	cmp	w0, 1
	.loc 1 429 0
	str	w0, [x19]
	.loc 1 430 0
	ldr	x2, [x29,40]
.LVL100:
	bls	.L90
.L93:
	.loc 1 434 0
	mov	w1, 0
.L91:
	.loc 1 521 0
	ldp	x19, x20, [sp,16]
	.cfi_remember_state
	.cfi_restore 20
	.cfi_restore 19
.LVL101:
	mov	w0, w1
	ldp	x29, x30, [sp], 48
	.cfi_restore 30
	.cfi_restore 29
	.cfi_def_cfa 31, 0
	ret
.LVL102:
.L90:
	.cfi_restore_state
.LBB16:
.LBB17:
	.loc 1 437 0
	mov	w1, 5
	mov	x0, x20
	str	x2, [x29,40]
	bl	BsGet
.LVL103:
	str	w0, [x19,4]
	.loc 1 439 0
	ldr	w1, [x19]
	ldr	x2, [x29,40]
.LVL104:
	cbz	w1, .L117
.LBB18:
	.loc 1 487 0
	str	w2, [x19,20]
	.loc 1 494 0
	mov	w0, 0
	.loc 1 488 0
	cbz	w2, .L105
	.loc 1 490 0
	ldr	w1, [x19,8]
	mov	w0, 1
	sub	w0, w0, w1
.L105:
	.loc 1 496 0
	mov	w1, 1
	str	w0, [x19,8]
	mov	x0, x20
	bl	BsGet
.LVL105:
	str	w0, [x19,16]
	.loc 1 498 0
	mov	w1, 2
	mov	x0, x20
	bl	BsShow
.LVL106:
	.loc 1 499 0
	cmp	w0, 3
	.loc 1 498 0
	str	w0, [x19,36]
	.loc 1 499 0
	bhi	.L106
	adrp	x1, .L108
	add	x1, x1, :lo12:.L108
	ldrb	w0, [x1,w0,uxtw]
	adr	x1, .Lrtx108
	add	x0, x1, w0, sxtb #2
	br	x0
.Lrtx108:
	.section	.rodata
	.align	0
	.align	2
.L108:
	.byte	(.L107 - .Lrtx108) / 4
	.byte	(.L107 - .Lrtx108) / 4
	.byte	(.L110 - .Lrtx108) / 4
	.byte	(.L110 - .Lrtx108) / 4
	.text
.L110:
	.loc 1 512 0
	mov	x0, x20
	mov	w1, 2
	bl	BsSkip
.LVL107:
.L106:
	.loc 1 516 0
	mov	w1, 1
	mov	x0, x20
	bl	BsGet
.LVL108:
	str	w0, [x19,40]
	.loc 1 517 0
	mov	w1, 1
	mov	x0, x20
	bl	BsGet
.LVL109:
	str	w0, [x19,44]
.LBE18:
	.loc 1 520 0
	mov	w1, 1
.LBE17:
.LBE16:
	.loc 1 521 0
	ldp	x19, x20, [sp,16]
	.cfi_remember_state
	.cfi_restore 19
	.cfi_restore 20
.LVL110:
	mov	w0, w1
	ldp	x29, x30, [sp], 48
	.cfi_restore 29
	.cfi_restore 30
	.cfi_def_cfa 31, 0
	ret
.LVL111:
.L117:
	.cfi_restore_state
.LBB21:
.LBB20:
	.loc 1 441 0
	mov	w1, 1
	.loc 1 442 0
	mov	x0, x20
	.loc 1 441 0
	str	w1, [x19,8]
	.loc 1 442 0
	mov	w1, 5
	bl	BsGet
.LVL112:
	.loc 1 444 0
	sub	w1, w0, #23
	.loc 1 442 0
	str	w0, [x19,12]
	.loc 1 443 0
	cmp	w1, 1
	bls	.L112
	cmp	w0, 26
	bne	.L93
.L112:
	.loc 1 451 0
	mov	x0, x20
	mov	w1, 2
	bl	BsShow
.LVL113:
	.loc 1 452 0
	cmp	w0, 3
	.loc 1 451 0
	str	w0, [x19,24]
	.loc 1 452 0
	bhi	.L95
	adrp	x1, .L97
	add	x1, x1, :lo12:.L97
	ldrb	w0, [x1,w0,uxtw]
	adr	x1, .Lrtx97
	add	x0, x1, w0, sxtb #2
	br	x0
.Lrtx97:
	.section	.rodata
	.align	0
	.align	2
.L97:
	.byte	(.L96 - .Lrtx97) / 4
	.byte	(.L96 - .Lrtx97) / 4
	.byte	(.L99 - .Lrtx97) / 4
	.byte	(.L99 - .Lrtx97) / 4
	.text
.L107:
.LBB19:
	.loc 1 504 0
	mov	x0, x20
	mov	w1, 1
	bl	BsSkip
.LVL114:
	b	.L106
.L99:
.LBE19:
	.loc 1 462 0
	mov	x0, x20
	mov	w1, 2
	bl	BsSkip
.LVL115:
.L95:
	.loc 1 466 0
	mov	x0, x20
	mov	w1, 2
	bl	BsShow
.LVL116:
	.loc 1 467 0
	cmp	w0, 3
	.loc 1 466 0
	str	w0, [x19,28]
	.loc 1 467 0
	bhi	.L100
	adrp	x1, .L102
	add	x1, x1, :lo12:.L102
	ldrb	w0, [x1,w0,uxtw]
	adr	x1, .Lrtx102
	add	x0, x1, w0, sxtb #2
	br	x0
.Lrtx102:
	.section	.rodata
	.align	0
	.align	2
.L102:
	.byte	(.L101 - .Lrtx102) / 4
	.byte	(.L101 - .Lrtx102) / 4
	.byte	(.L104 - .Lrtx102) / 4
	.byte	(.L104 - .Lrtx102) / 4
	.text
.L104:
	.loc 1 477 0
	mov	x0, x20
	mov	w1, 2
	bl	BsSkip
.LVL117:
.L100:
	.loc 1 481 0
	mov	w1, 1
	mov	x0, x20
	bl	BsGet
.LVL118:
	str	w0, [x19,32]
	.loc 1 520 0
	mov	w1, 1
	b	.L91
.L96:
	.loc 1 456 0
	mov	x0, x20
	mov	w1, 1
	bl	BsSkip
.LVL119:
	b	.L95
.L101:
	.loc 1 471 0
	mov	x0, x20
	mov	w1, 1
	bl	BsSkip
.LVL120:
	b	.L100
.LBE20:
.LBE21:
	.cfi_endproc
.LFE2645:
	.size	Divx3_GetPictureHeader, .-Divx3_GetPictureHeader
	.align	2
	.global	DIVX3DEC_Init
	.type	DIVX3DEC_Init, %function
DIVX3DEC_Init:
.LFB2646:
	.loc 1 525 0
	.cfi_startproc
.LVL121:
	stp	x29, x30, [sp, -48]!
	.cfi_def_cfa_offset 48
	.cfi_offset 29, -48
	.cfi_offset 30, -40
	.loc 1 532 0
	mov	x2, 40168
	.loc 1 525 0
	add	x29, sp, 0
	.cfi_def_cfa_register 29
	stp	x19, x20, [sp,16]
	.cfi_offset 19, -32
	.cfi_offset 20, -24
	.loc 1 531 0
	add	x20, x0, 16384
	.loc 1 525 0
	mov	x19, x0
	stp	x21, x22, [sp,32]
	.cfi_offset 21, -16
	.cfi_offset 22, -8
	.loc 1 525 0
	mov	x21, x1
	.loc 1 532 0
	mov	w1, 0
.LVL122:
	.loc 1 531 0
	ldr	w22, [x20,3784]
	.loc 1 532 0
	bl	memset
.LVL123:
	.loc 1 533 0
	str	w22, [x20,3784]
	.loc 1 534 0
	add	x0, x20, 3176
	bl	ResetVoQueue
.LVL124:
	.loc 1 536 0
	mov	x1, x19
	.loc 1 540 0
	mov	w3, 1
	.loc 1 544 0
	mov	x0, x19
	add	x19, x19, 36864
.LVL125:
	.loc 1 536 0
	str	x21, [x1],168
	.loc 1 540 0
	add	x2, x1, 16384
	str	w3, [x2,2840]
	.loc 1 541 0
	ldr	w2, [x21,12]
	strb	w2, [x1,3]
	.loc 1 542 0
	strb	wzr, [x1,2]
	.loc 1 544 0
	bl	VCTRL_GetChanIDByCtx
.LVL126:
	.loc 1 545 0
	cmn	w0, #1
	.loc 1 544 0
	str	w0, [x19,3296]
	.loc 1 551 0
	mov	w1, 0
	.loc 1 545 0
	beq	.L121
.L119:
	.loc 1 552 0
	mov	w0, w1
	ldp	x19, x20, [sp,16]
	.cfi_remember_state
	.cfi_restore 20
	.cfi_restore 19
	ldp	x21, x22, [sp,32]
	.cfi_restore 22
	.cfi_restore 21
.LVL127:
	ldp	x29, x30, [sp], 48
	.cfi_restore 30
	.cfi_restore 29
	.cfi_def_cfa 31, 0
	ret
.LVL128:
.L121:
	.cfi_restore_state
	.loc 1 547 0
	adrp	x1, .LC14
	mov	w0, 0
	add	x1, x1, :lo12:.LC14
	bl	dprint_linux_kernel
.LVL129:
	.loc 1 548 0
	mov	w1, -20
	b	.L119
	.cfi_endproc
.LFE2646:
	.size	DIVX3DEC_Init, .-DIVX3DEC_Init
	.align	2
	.global	DIVX3DEC_Destroy
	.type	DIVX3DEC_Destroy, %function
DIVX3DEC_Destroy:
.LFB2647:
	.loc 1 556 0
	.cfi_startproc
.LVL130:
	.loc 1 560 0
	add	x0, x0, 168
.LVL131:
	adrp	x1, .LC15
	add	x2, x0, 16384
	add	x1, x1, :lo12:.LC15
	.loc 1 556 0
	stp	x29, x30, [sp, -16]!
	.cfi_def_cfa_offset 16
	.cfi_offset 29, -16
	.cfi_offset 30, -8
	.loc 1 560 0
	mov	w0, 2
	.loc 1 556 0
	add	x29, sp, 0
	.cfi_def_cfa_register 29
	.loc 1 560 0
	ldr	w2, [x2,2864]
	bl	dprint_linux_kernel
.LVL132:
	.loc 1 563 0
	ldp	x29, x30, [sp], 16
	.cfi_restore 30
	.cfi_restore 29
	.cfi_def_cfa 31, 0
	ret
	.cfi_endproc
.LFE2647:
	.size	DIVX3DEC_Destroy, .-DIVX3DEC_Destroy
	.align	2
	.global	DIVX3DEC_Decode
	.type	DIVX3DEC_Decode, %function
DIVX3DEC_Decode:
.LFB2648:
	.loc 1 567 0
	.cfi_startproc
.LVL133:
	stp	x29, x30, [sp, -304]!
	.cfi_def_cfa_offset 304
	.cfi_offset 29, -304
	.cfi_offset 30, -296
	add	x29, sp, 0
	.cfi_def_cfa_register 29
	stp	x25, x26, [sp,64]
	.cfi_offset 25, -240
	.cfi_offset 26, -232
	adrp	x26, __stack_chk_guard
	.loc 1 574 0
	add	x25, x29, 152
	.loc 1 567 0
	stp	x19, x20, [sp,16]
	.cfi_offset 19, -288
	.cfi_offset 20, -280
	.loc 1 568 0
	add	x20, x29, 200
	.loc 1 567 0
	mov	x19, x1
	stp	x23, x24, [sp,48]
	stp	x21, x22, [sp,32]
	stp	x27, x28, [sp,80]
	.cfi_offset 23, -256
	.cfi_offset 24, -248
	.cfi_offset 21, -272
	.cfi_offset 22, -264
	.cfi_offset 27, -224
	.cfi_offset 28, -216
	.loc 1 567 0
	ldr	x1, [x26,#:lo12:__stack_chk_guard]
.LVL134:
	mov	x23, x0
	.loc 1 568 0
	stp	xzr, xzr, [x20]
	stp	xzr, xzr, [x20,16]
	stp	xzr, xzr, [x20,32]
	.loc 1 567 0
	str	x1, [x29,296]
	.loc 1 568 0
	stp	xzr, xzr, [x20,48]
	stp	xzr, xzr, [x20,64]
	stp	xzr, xzr, [x20,80]
	.loc 1 574 0
	stp	xzr, xzr, [x25]
	str	wzr, [x29,168]
	stp	xzr, xzr, [x29,176]
	str	wzr, [x29,192]
	.loc 1 578 0
	str	wzr, [x29,132]
.LVL135:
	str	wzr, [x29,136]
.LVL136:
	str	wzr, [x29,140]
.LVL137:
	.loc 1 592 0
	cbz	x19, .L203
	.loc 1 598 0
	ldr	w0, [x19,4]
	cbz	w0, .L204
	.loc 1 604 0
	ldr	x0, [x19,64]
	cbz	x0, .L205
	.loc 1 616 0
	ldr	w0, [x19,8]
	cmp	w0, 9
	ble	.L206
	.loc 1 586 0
	add	x22, x23, 16
	.loc 1 625 0
	add	x21, x23, 168
	.loc 1 622 0
	stp	xzr, xzr, [x23,16]
	.loc 1 626 0
	add	x0, x21, 16384
	.loc 1 622 0
	stp	xzr, xzr, [x22,16]
	stp	xzr, xzr, [x22,32]
	stp	xzr, xzr, [x22,48]
	stp	xzr, xzr, [x22,64]
	stp	xzr, xzr, [x22,80]
	stp	xzr, xzr, [x22,96]
	stp	xzr, xzr, [x22,112]
	stp	xzr, xzr, [x22,128]
	str	wzr, [x22,144]
	.loc 1 625 0
	str	wzr, [x21,152]
	.loc 1 626 0
	ldr	w1, [x19,8]
	str	w1, [x0,2848]
	.loc 1 629 0
	ldr	w0, [x19,4]
	str	w0, [x21,156]
	.loc 1 630 0
	ldr	x0, [x19,64]
	str	x0, [x21,56]
	.loc 1 631 0
	ldr	w2, [x19,8]
	str	w2, [x21,160]
	.loc 1 632 0
	ldrb	w0, [x19,1]
	str	w0, [x21,164]
	.loc 1 634 0
	ldrb	w0, [x19,1]
	cmp	w0, 1
	beq	.L129
	.loc 1 636 0
	ldr	w0, [x19,84]
	str	w0, [x21,168]
	.loc 1 637 0
	ldr	x0, [x19,144]
	str	x0, [x21,64]
	.loc 1 638 0
	ldr	w0, [x19,88]
	str	w0, [x21,172]
	.loc 1 639 0
	ldrb	w0, [x19,81]
	str	w0, [x21,176]
	.loc 1 640 0
	ldrb	w0, [x19,81]
	cmp	w0, 1
	bne	.L207
	.loc 1 658 0
	mov	w1, 65525
	sub	w0, w2, #10
	movk	w1, 0x2f, lsl 16
	.loc 1 660 0
	mov	w28, 0
	.loc 1 658 0
	cmp	w0, w1
	bhi	.L125
.L214:
	.loc 1 664 0
	ldr	x1, [x21,56]
	cbz	x1, .L125
	.loc 1 588 0
	add	x0, x23, 16384
	str	x0, [x29,120]
	add	x24, x0, 3136
.LVL138:
	.loc 1 668 0
	mov	x0, x24
	bl	BsInit
.LVL139:
	.loc 1 671 0
	mov	x0, x24
	bl	BsResidBits
.LVL140:
	str	w0, [x29,116]
	.loc 1 674 0
	mov	w1, 32
	mov	x0, x24
	bl	BsGet
.LVL141:
	rev	w27, w0
.LVL142:
	.loc 1 680 0
	add	w2, w27, 15
	.loc 1 683 0
	mov	w1, 32
	.loc 1 680 0
	lsr	w2, w2, 4
	.loc 1 683 0
	mov	x0, x24
	.loc 1 681 0
	str	w27, [x29,256]
	.loc 1 680 0
	str	w2, [x29,248]
	.loc 1 683 0
	bl	BsGet
.LVL143:
	rev	w4, w0
.LVL144:
	.loc 1 690 0
	str	w4, [x29,260]
	.loc 1 689 0
	add	w0, w4, 15
	.loc 1 692 0
	sub	w1, w4, #32
	.loc 1 689 0
	lsr	w0, w0, 4
	.loc 1 692 0
	cmp	w1, 1056
	.loc 1 689 0
	str	w0, [x29,252]
	.loc 1 692 0
	bhi	.L166
	sub	w0, w27, #32
	cmp	w0, 1888
	bhi	.L166
	.loc 1 699 0
	ldr	x2, [x29,120]
	.loc 1 700 0
	add	x27, x21, 16384
.LVL145:
	mov	x0, x24
	mov	x1, x20
	.loc 1 699 0
	ldr	w2, [x2,2920]
	str	w2, [x20,8]
	.loc 1 700 0
	ldr	w2, [x27,2840]
	bl	Divx3_GetPictureHeader
.LVL146:
	cmp	w0, 1
	mov	w28, w0
	bne	.L208
	.loc 1 706 0
	ldr	w1, [x27,2868]
	cbnz	w1, .L134
	.loc 1 706 0 is_stmt 0 discriminator 1
	ldr	w1, [x20]
	cbnz	w1, .L209
.L134:
	.loc 1 712 0 is_stmt 1
	ldr	w4, [x29,248]
	ldr	w5, [x29,252]
	.loc 1 715 0
	ldrb	w0, [x21,2]
	.loc 1 712 0
	mul	w1, w5, w4
	str	w1, [x29,264]
	.loc 1 715 0
	cbz	w0, .L135
	.loc 1 716 0
	ldr	x0, [x29,120]
	add	x0, x0, 2912
	.loc 1 715 0 discriminator 1
	ldr	w1, [x0,48]
	cmp	w4, w1
	beq	.L210
.L135:
	.loc 1 719 0
	adrp	x0, g_event_report
	add	x27, x23, 36864
	ldr	x6, [x0,#:lo12:g_event_report]
	cbz	x6, .L137
.LBB22:
	.loc 1 719 0 is_stmt 0 discriminator 1
	ldr	x0, [x29,120]
	add	x27, x23, 36864
	mov	w1, 2
	add	x2, x29, 144
	mov	w3, 8
	strh	w4, [x29,148]
	ldr	w9, [x0,2960]
	ldr	w8, [x0,2964]
	ldr	w0, [x27,3296]
	strh	w9, [x29,144]
	strh	w8, [x29,146]
	strh	w5, [x29,150]
	blr	x6
.LVL147:
.L137:
.LBE22:
	.loc 1 721 0 is_stmt 1
	ldr	w0, [x27,3296]
	add	x1, x29, 132
	add	x2, x29, 136
	add	x3, x29, 140
	bl	VCTRL_GetChanImgNum
.LVL148:
	.loc 1 723 0
	ldr	x0, [x23]
	ldr	w0, [x0,772]
	cmp	w0, 1
	bne	.L138
	.loc 1 726 0
	ldr	w0, [x29,140]
.LVL149:
	cmp	w0, wzr
	bgt	.L163
.L138:
	.loc 1 739 0
	add	x3, x21, 16384
	.loc 1 741 0
	ldr	x1, [x29,120]
	.loc 1 739 0
	ldr	w0, [x27,3296]
	mov	w2, 1
	.loc 1 741 0
	add	x1, x1, 3176
	str	x1, [x29,104]
	.loc 1 739 0
	ldr	w1, [x3,2952]
	str	x3, [x29,96]
	bl	FSP_ClearLogicFs
.LVL150:
	ldr	x3, [x29,96]
	str	wzr, [x3,2952]
	.loc 1 739 0 is_stmt 0 discriminator 1
	ldr	w0, [x27,3296]
	bl	FSP_GetNullLogicFs
.LVL151:
	.loc 1 740 0 is_stmt 1
	ldr	x3, [x29,96]
	.loc 1 741 0
	ldr	x1, [x29,104]
	.loc 1 740 0
	str	wzr, [x3,2868]
	.loc 1 739 0
	str	w0, [x3,2952]
	.loc 1 741 0
	ldr	w0, [x27,3296]
	bl	FSP_ClearNotInVoQueue
.LVL152:
	.loc 1 743 0
	ldr	w2, [x29,248]
	ldr	w3, [x29,252]
	cmp	w2, 512
	bhi	.L140
	.loc 1 743 0 is_stmt 0 discriminator 1
	cmp	w3, 512
	bhi	.L140
	.loc 1 752 0 is_stmt 1
	ldr	x0, [x23]
	ldr	w1, [x0,772]
	cbnz	w1, .L142
	.loc 1 752 0 is_stmt 0 discriminator 1
	ldr	w0, [x0,28]
	cmp	w0, 25
	beq	.L211
.L142:
	.loc 1 761 0 is_stmt 1
	ldr	x0, [x29,104]
	bl	ResetVoQueue
.LVL153:
	ldr	w2, [x29,248]
	ldr	w3, [x29,252]
.L143:
	.loc 1 763 0
	adrp	x1, .LC24
	mov	w0, 1
	add	x1, x1, :lo12:.LC24
	bl	dprint_linux_kernel
.LVL154:
	.loc 1 765 0
	mov	w0, 6
	mov	x1, x23
	mov	x2, x20
	bl	Divx3_ArrangeVHBMem
.LVL155:
	.loc 1 766 0
	cmp	w0, 1
	bne	.L212
.L136:
	.loc 1 589 0
	ldr	x0, [x29,120]
	add	x6, x0, 2912
.LVL156:
	.loc 1 773 0
	ldr	w0, [x29,200]
	cbz	w0, .L144
	.loc 1 777 0
	ldp	x0, x1, [x20]
	ldp	x8, x9, [x20,16]
	.loc 1 775 0
	ldr	w14, [x6,12]
	.loc 1 777 0
	stp	x0, x1, [x6]
.LVL157:
	.loc 1 780 0
	str	w14, [x6,12]
	.loc 1 777 0
	ldp	x4, x5, [x20,32]
	ldp	x2, x3, [x20,48]
	ldp	x0, x1, [x20,64]
	ldp	x12, x13, [x20,80]
	stp	x12, x13, [x6,80]
	stp	x8, x9, [x6,16]
	stp	x4, x5, [x6,32]
	stp	x2, x3, [x6,48]
	stp	x0, x1, [x6,64]
.L159:
	.loc 1 783 0
	mov	x0, x23
	bl	Divx3_DecodeDecide
.LVL158:
	.loc 1 784 0
	cmp	w0, 1
	.loc 1 783 0
	mov	w20, w0
.LVL159:
	.loc 1 784 0
	beq	.L145
	.loc 1 786 0
	adrp	x1, .LC26
	mov	w0, 1
	add	x1, x1, :lo12:.LC26
	.loc 1 787 0
	mov	w28, 0
	.loc 1 786 0
	bl	dprint_linux_kernel
.LVL160:
	.loc 1 787 0
	b	.L125
.LVL161:
.L206:
	.loc 1 618 0
	adrp	x1, .LC19
	mov	w0, 1
	add	x1, x1, :lo12:.LC19
	.loc 1 619 0
	mov	w28, 0
	.loc 1 618 0
	bl	dprint_linux_kernel
.LVL162:
.L125:
	.loc 1 918 0
	ldr	x2, [x29,296]
	mov	w0, w28
	ldr	x1, [x26,#:lo12:__stack_chk_guard]
	cmp	x2, x1
	bne	.L213
	ldp	x19, x20, [sp,16]
	.cfi_remember_state
	.cfi_restore 20
	.cfi_restore 19
.LVL163:
	ldp	x21, x22, [sp,32]
	.cfi_restore 22
	.cfi_restore 21
	ldp	x23, x24, [sp,48]
	.cfi_restore 24
	.cfi_restore 23
.LVL164:
	ldp	x25, x26, [sp,64]
	.cfi_restore 26
	.cfi_restore 25
	ldp	x27, x28, [sp,80]
	.cfi_restore 28
	.cfi_restore 27
.LVL165:
	ldp	x29, x30, [sp], 304
	.cfi_restore 30
	.cfi_restore 29
	.cfi_def_cfa 31, 0
	ret
.LVL166:
.L207:
	.cfi_restore_state
	.loc 1 642 0
	add	x23, x23, 36864
.LVL167:
	ldr	w1, [x19,12]
	.loc 1 644 0
	mov	w28, 0
	.loc 1 642 0
	ldr	w0, [x23,3296]
	bl	SM_ReleaseStreamSeg
.LVL168:
	.loc 1 643 0
	ldr	w0, [x23,3296]
	ldr	w1, [x19,92]
	bl	SM_ReleaseStreamSeg
.LVL169:
	.loc 1 644 0
	b	.L125
.LVL170:
.L204:
	.loc 1 600 0
	add	x23, x23, 168
.LVL171:
	adrp	x1, .LC17
	add	x23, x23, 16384
	add	x1, x1, :lo12:.LC17
	mov	w0, 1
	.loc 1 601 0
	mov	w28, 0
	.loc 1 600 0
	ldr	w2, [x23,2864]
	bl	dprint_linux_kernel
.LVL172:
	.loc 1 601 0
	b	.L125
.LVL173:
.L129:
	.loc 1 658 0
	mov	w1, 65525
	sub	w0, w2, #10
	movk	w1, 0x2f, lsl 16
	.loc 1 652 0
	str	wzr, [x21,168]
	.loc 1 653 0
	str	xzr, [x21,64]
	.loc 1 658 0
	cmp	w0, w1
	.loc 1 654 0
	str	wzr, [x21,172]
	.loc 1 660 0
	mov	w28, 0
	.loc 1 655 0
	str	wzr, [x21,176]
	.loc 1 658 0
	bls	.L214
	b	.L125
.LVL174:
.L166:
	.loc 1 694 0
	add	x21, x21, 16384
	adrp	x1, .LC20
	add	x1, x1, :lo12:.LC20
	mov	w3, w27
	mov	w0, 1
	.loc 1 695 0
	mov	w28, 0
	.loc 1 694 0
	ldr	w2, [x21,2864]
	bl	dprint_linux_kernel
.LVL175:
	.loc 1 695 0
	b	.L125
.LVL176:
.L208:
	.loc 1 702 0
	adrp	x1, .LC21
	mov	w0, 1
	add	x1, x1, :lo12:.LC21
	.loc 1 703 0
	mov	w28, 0
	.loc 1 702 0
	bl	dprint_linux_kernel
.LVL177:
	.loc 1 703 0
	b	.L125
.LVL178:
.L203:
	.loc 1 594 0
	add	x23, x0, 168
.LVL179:
	adrp	x1, .LC16
	add	x23, x23, 16384
	add	x1, x1, :lo12:.LC16
	mov	w0, 1
.LVL180:
	.loc 1 595 0
	mov	w28, 0
	.loc 1 594 0
	ldr	w2, [x23,2864]
	bl	dprint_linux_kernel
.LVL181:
	.loc 1 595 0
	b	.L125
.LVL182:
.L205:
	.loc 1 606 0
	adrp	x1, .LC18
	mov	w0, 1
	add	x1, x1, :lo12:.LC18
	.loc 1 607 0
	mov	w28, 0
	.loc 1 606 0
	bl	dprint_linux_kernel
.LVL183:
	.loc 1 607 0
	b	.L125
.LVL184:
.L140:
	.loc 1 746 0
	adrp	x1, .LC23
	mov	w0, 18
	add	x1, x1, :lo12:.LC23
	.loc 1 749 0
	mov	w28, 0
	.loc 1 746 0
	bl	dprint_linux_kernel
.LVL185:
	.loc 1 749 0
	b	.L125
.L212:
	.loc 1 768 0
	adrp	x1, .LC25
	mov	w0, 1
	add	x1, x1, :lo12:.LC25
	.loc 1 769 0
	mov	w28, 0
	.loc 1 768 0
	bl	dprint_linux_kernel
.LVL186:
	.loc 1 769 0
	b	.L125
.LVL187:
.L144:
	.loc 1 777 0
	ldp	x2, x3, [x20]
	ldp	x0, x1, [x20,16]
	ldp	x4, x5, [x20,32]
	ldp	x8, x9, [x20,48]
	ldp	x12, x13, [x20,64]
	ldp	x14, x15, [x20,80]
	stp	x14, x15, [x6,80]
	stp	x2, x3, [x6]
	stp	x0, x1, [x6,16]
	stp	x4, x5, [x6,32]
	stp	x8, x9, [x6,48]
	stp	x12, x13, [x6,64]
	b	.L159
.LVL188:
.L210:
	.loc 1 716 0
	ldr	w0, [x0,52]
	cmp	w5, w0
	bne	.L135
	b	.L136
.L209:
	.loc 1 708 0
	adrp	x1, .LC22
	.loc 1 709 0
	mov	w28, 0
	.loc 1 708 0
	add	x1, x1, :lo12:.LC22
	bl	dprint_linux_kernel
.LVL189:
	.loc 1 709 0
	b	.L125
.LVL190:
.L145:
	.loc 1 791 0
	mov	x0, x23
	bl	Divx3_GetImageBuffer
.LVL191:
	cbz	w0, .L215
	.loc 1 798 0
	add	x0, x21, 16384
	add	x27, x23, 36864
	mov	x1, x0
	str	x1, [x29,104]
	ldr	w0, [x27,3296]
	ldr	w1, [x1,2956]
	bl	FSP_GetFsImagePtr
.LVL192:
	mov	x3, x0
.LVL193:
	.loc 1 799 0
	cbz	x0, .L147
	.loc 1 801 0
	ldr	x2, [x23]
	.loc 1 809 0
	mov	x4, -1
	.loc 1 810 0
	adrp	x1, .LC28
	mov	w0, 29
	add	x1, x1, :lo12:.LC28
	.loc 1 801 0
	ldr	x2, [x2,48]
	str	x2, [x3,224]
	.loc 1 802 0
	ldr	x2, [x23]
	ldr	x2, [x2,64]
	str	x2, [x3,232]
	.loc 1 803 0
	ldr	x2, [x23]
	ldr	x2, [x2,80]
	str	x2, [x3,240]
	.loc 1 804 0
	ldr	x2, [x23]
	ldr	w2, [x2,96]
	str	w2, [x3,8]
	.loc 1 805 0
	ldr	x2, [x23]
	ldr	w2, [x2,100]
	str	w2, [x3,12]
	.loc 1 806 0
	ldr	x2, [x23]
	ldr	w2, [x2,104]
	str	w2, [x3,16]
	.loc 1 807 0
	ldr	x2, [x23]
	ldr	w2, [x2,120]
	str	w2, [x3,20]
	.loc 1 809 0
	ldr	x2, [x23]
	str	x4, [x2,48]
	.loc 1 810 0
	ldr	x2, [x3,224]
	ldr	x3, [x3,232]
.LVL194:
	bl	dprint_linux_kernel
.LVL195:
	.loc 1 819 0
	ldr	x0, [x29,104]
	ldr	w1, [x0,2956]
	ldr	w0, [x27,3296]
	bl	FSP_GetLogicFs
.LVL196:
	mov	x20, x0
.LVL197:
	.loc 1 820 0
	ldr	x0, [x29,104]
	ldr	w1, [x0,2952]
	ldr	w0, [x27,3296]
	bl	FSP_GetLogicFs
.LVL198:
	.loc 1 823 0
	cbz	x0, .L148
	cbz	x20, .L148
	.loc 1 823 0 is_stmt 0 discriminator 1
	ldr	x1, [x20,296]
	cbz	x1, .L148
	.loc 1 823 0 discriminator 2
	ldr	x2, [x20,312]
	cbz	x2, .L148
	.loc 1 824 0 is_stmt 1
	ldr	x2, [x20,304]
	cbz	x2, .L148
	.loc 1 832 0
	ldr	x0, [x0,296]
.LVL199:
	cbz	x0, .L151
	.loc 1 832 0 is_stmt 0 discriminator 1
	ldr	w4, [x0,12]
.L152:
	.loc 1 832 0 discriminator 4
	str	w4, [x22,120]
	.loc 1 839 0 is_stmt 1
	adrp	x1, .LC31
	ldr	w6, [x22,140]
	add	x1, x1, :lo12:.LC31
	.loc 1 833 0
	ldr	x2, [x20,296]
	.loc 1 839 0
	mov	w0, 13
	.loc 1 833 0
	ldr	w2, [x2,12]
	str	w2, [x22,124]
	.loc 1 834 0
	ldr	w5, [x20,320]
	str	w5, [x22,136]
	.loc 1 836 0
	ldr	x3, [x20,304]
	ldr	w3, [x3,12]
	str	w3, [x22,128]
	.loc 1 839 0
	bl	dprint_linux_kernel
.LVL200:
	.loc 1 842 0
	ldr	x1, [x20,304]
	.loc 1 845 0
	mov	x0, x24
	.loc 1 842 0
	ldr	w1, [x1,20]
	str	w1, [x22,132]
	.loc 1 845 0
	bl	BsResidBits
.LVL201:
	.loc 1 846 0
	ldr	w1, [x19,4]
	ldr	w2, [x29,116]
	and	w1, w1, -16
	str	w1, [x22,92]
	.loc 1 847 0
	ldr	w1, [x19,4]
	ubfiz	w1, w1, 3, 4
	add	w1, w2, w1
	sub	w2, w1, w0
.LVL202:
	.loc 1 850 0
	mov	x0, x24
	.loc 1 848 0
	lsr	w1, w2, 7
	.loc 1 849 0
	and	w2, w2, 127
.LVL203:
	.loc 1 848 0
	lsl	w1, w1, 4
	.loc 1 849 0
	str	w2, [x22,104]
	.loc 1 848 0
	str	w1, [x22,96]
	.loc 1 850 0
	bl	BsResidBits
.LVL204:
	.loc 1 852 0
	str	wzr, [x22,100]
	.loc 1 857 0
	ldr	x1, [x29,120]
	.loc 1 850 0
	str	w0, [x22,112]
	.loc 1 857 0
	add	x2, x1, 2912
	.loc 1 853 0
	str	wzr, [x22,108]
	.loc 1 854 0
	str	wzr, [x22,116]
	.loc 1 857 0
	ldr	w0, [x2,12]
	cmp	w0, 24
	beq	.L154
	cmp	w0, 26
	beq	.L155
	cmp	w0, 23
	beq	.L216
	.loc 1 899 0
	adrp	x1, .LC32
	mov	w0, 1
	add	x1, x1, :lo12:.LC32
	.loc 1 900 0
	mov	w28, 0
	.loc 1 899 0
	bl	dprint_linux_kernel
.LVL205:
	.loc 1 900 0
	b	.L125
.LVL206:
.L211:
	.loc 1 754 0
	ldrb	w0, [x21,2]
	cbnz	w0, .L143
	.loc 1 756 0
	ldr	x0, [x29,104]
	bl	ResetVoQueue
.LVL207:
	ldr	w2, [x20,48]
	ldr	w3, [x20,52]
	b	.L143
.LVL208:
.L163:
	.loc 1 728 0
	mov	w28, -2
	b	.L125
.LVL209:
.L215:
	.loc 1 793 0
	add	x21, x21, 16384
	adrp	x1, .LC27
	add	x1, x1, :lo12:.LC27
	.loc 1 794 0
	mov	w28, 0
	.loc 1 793 0
	ldr	w2, [x21,2864]
	bl	dprint_linux_kernel
.LVL210:
	.loc 1 794 0
	b	.L125
.LVL211:
.L148:
	.loc 1 826 0
	add	x21, x21, 16384
	ldr	w0, [x27,3296]
.LVL212:
	mov	w2, 1
	.loc 1 828 0
	mov	w28, 0
	.loc 1 826 0
	ldr	w1, [x21,2956]
	bl	FSP_ClearLogicFs
.LVL213:
	.loc 1 827 0
	adrp	x1, .LC30
	mov	w0, 0
	add	x1, x1, :lo12:.LC30
	bl	dprint_linux_kernel
.LVL214:
	.loc 1 828 0
	b	.L125
.LVL215:
.L213:
	.loc 1 918 0
	bl	__stack_chk_fail
.LVL216:
.L216:
	.loc 1 863 0
	ldr	w1, [x2,64]
	.loc 1 860 0
	mov	w0, 1
.LVL217:
	.loc 1 862 0
	str	wzr, [x29,152]
	.loc 1 863 0
	sub	w1, w1, #1
	str	w1, [x29,176]
.L157:
.LBB23:
.LBB24:
	.loc 1 303 0
	ldr	x1, [x29,120]
.LBE24:
.LBE23:
	.loc 1 907 0 discriminator 1
	cmp	w0, 1
.LBB26:
.LBB25:
	.loc 1 303 0
	add	x1, x1, 2912
	ldr	w2, [x1]
	str	w2, [x23,16]
	.loc 1 305 0
	ldr	w2, [x1,48]
	str	w2, [x22,4]
	.loc 1 306 0
	ldr	w2, [x1,52]
	str	w2, [x22,8]
	.loc 1 308 0
	ldr	w2, [x1,4]
	str	w2, [x22,12]
	.loc 1 309 0
	ldr	w2, [x1,8]
	str	w2, [x22,16]
	.loc 1 310 0
	ldr	w2, [x1,16]
	str	w2, [x22,20]
	.loc 1 312 0
	ldr	w2, [x1,24]
	str	w2, [x22,24]
	.loc 1 313 0
	ldr	w2, [x1,28]
	str	w2, [x22,28]
	.loc 1 314 0
	ldr	w2, [x1,32]
	str	w2, [x22,32]
	.loc 1 315 0
	ldr	w2, [x1,36]
	str	w2, [x22,36]
	.loc 1 316 0
	ldr	w2, [x1,40]
	str	w2, [x22,40]
	.loc 1 317 0
	ldr	w1, [x1,44]
	str	w1, [x22,44]
.LBE25:
.LBE26:
	.loc 1 909 0
	ldr	w1, [x29,152]
	str	w1, [x22,52]
	.loc 1 910 0
	ldr	w1, [x29,176]
	.loc 1 906 0
	str	w0, [x22,48]
	.loc 1 910 0
	str	w1, [x22,72]
	.loc 1 907 0 discriminator 1
	beq	.L158
	.loc 1 909 0
	ldr	w1, [x29,156]
	.loc 1 907 0 discriminator 1
	cmp	w0, 2
	.loc 1 909 0
	str	w1, [x23,72]
	.loc 1 910 0
	ldr	w1, [x29,180]
	str	w1, [x23,92]
	.loc 1 907 0 discriminator 1
	beq	.L158
	.loc 1 909 0
	ldr	w2, [x25,8]
	.loc 1 907 0 discriminator 1
	cmp	w0, 3
	.loc 1 910 0
	ldr	w1, [x29,184]
	.loc 1 909 0
	str	w2, [x23,76]
	.loc 1 910 0
	str	w1, [x23,96]
	.loc 1 907 0 discriminator 1
	beq	.L158
	.loc 1 909 0
	ldr	w1, [x25,12]
	.loc 1 907 0 discriminator 1
	cmp	w0, 5
	.loc 1 910 0
	ldr	w0, [x29,188]
.LVL218:
	.loc 1 909 0
	str	w1, [x23,80]
	.loc 1 910 0
	str	w0, [x23,100]
	.loc 1 907 0 discriminator 1
	bne	.L158
	.loc 1 909 0
	ldr	w1, [x25,16]
	.loc 1 910 0
	ldr	w0, [x29,192]
	.loc 1 909 0
	str	w1, [x23,84]
	.loc 1 910 0
	str	w0, [x23,104]
.LVL219:
.L158:
	.loc 1 916 0
	ldr	x0, [x23]
.LVL220:
	.loc 1 915 0
	str	x22, [x23,8]
	.loc 1 916 0
	ldr	w0, [x0,676]
	str	w0, [x23,160]
	.loc 1 917 0
	b	.L125
.LVL221:
.L147:
	.loc 1 814 0
	adrp	x1, .LC29
	mov	w0, w20
.LVL222:
	add	x1, x1, :lo12:.LC29
	.loc 1 815 0
	mov	w28, 0
	.loc 1 814 0
	bl	dprint_linux_kernel
.LVL223:
	.loc 1 815 0
	b	.L125
.LVL224:
.L155:
	.loc 1 881 0
	ldr	w3, [x2,52]
	.loc 1 880 0
	mov	w0, 4
.LVL225:
	.loc 1 883 0
	ldr	w4, [x2,48]
	.loc 1 881 0
	lsr	w1, w3, 2
	.loc 1 882 0
	str	wzr, [x29,152]
	.loc 1 890 0
	and	w3, w3, 3
	.loc 1 883 0
	mul	w1, w1, w4
	.loc 1 884 0
	str	w1, [x29,156]
	.loc 1 885 0
	lsl	w4, w1, 1
	.loc 1 889 0
	lsl	w5, w1, 2
	.loc 1 887 0
	add	w6, w4, w1
	.loc 1 885 0
	sub	w12, w4, #1
	.loc 1 883 0
	sub	w1, w1, #1
	.loc 1 887 0
	sub	w9, w6, #1
	.loc 1 889 0
	sub	w8, w5, #1
	.loc 1 883 0
	str	w1, [x29,176]
	.loc 1 885 0
	str	w12, [x29,180]
	.loc 1 886 0
	str	w4, [x29,160]
	.loc 1 887 0
	str	w9, [x29,184]
	.loc 1 888 0
	str	w6, [x29,164]
	.loc 1 889 0
	str	w8, [x29,188]
	.loc 1 890 0
	cbz	w3, .L157
	.loc 1 894 0
	ldr	w1, [x2,64]
	.loc 1 892 0
	mov	w0, 5
	.loc 1 893 0
	str	w5, [x29,168]
	.loc 1 894 0
	sub	w1, w1, #1
	str	w1, [x29,192]
	b	.L157
.LVL226:
.L154:
	.loc 1 867 0
	ldr	w4, [x2,52]
	.loc 1 866 0
	mov	w0, 2
.LVL227:
	.loc 1 869 0
	ldr	w3, [x2,48]
	.loc 1 867 0
	lsr	w1, w4, 1
	.loc 1 868 0
	str	wzr, [x29,152]
	.loc 1 869 0
	mul	w1, w1, w3
	.loc 1 870 0
	str	w1, [x29,156]
	.loc 1 871 0
	lsl	w3, w1, 1
	.loc 1 869 0
	sub	w1, w1, #1
	.loc 1 871 0
	sub	w5, w3, #1
	.loc 1 869 0
	str	w1, [x29,176]
	.loc 1 871 0
	str	w5, [x29,180]
	.loc 1 872 0
	tbz	x4, 0, .L157
	.loc 1 876 0
	ldr	w1, [x2,64]
	.loc 1 874 0
	mov	w0, 3
	.loc 1 875 0
	str	w3, [x29,160]
	.loc 1 876 0
	sub	w1, w1, #1
	str	w1, [x29,184]
	b	.L157
.LVL228:
.L151:
	.loc 1 832 0 discriminator 2
	ldr	w4, [x1,12]
	b	.L152
	.cfi_endproc
.LFE2648:
	.size	DIVX3DEC_Decode, .-DIVX3DEC_Decode
	.align	2
	.global	DIVX3DEC_RecycleImage
	.type	DIVX3DEC_RecycleImage, %function
DIVX3DEC_RecycleImage:
.LFB2649:
	.loc 1 922 0
	.cfi_startproc
.LVL229:
	stp	x29, x30, [sp, -32]!
	.cfi_def_cfa_offset 32
	.cfi_offset 29, -32
	.cfi_offset 30, -24
	add	x29, sp, 0
	.cfi_def_cfa_register 29
	stp	x19, x20, [sp,16]
	.cfi_offset 19, -16
	.cfi_offset 20, -8
	.loc 1 926 0
	cbz	x0, .L219
	.loc 1 933 0
	add	x19, x0, 36864
	mov	w2, 0
	mov	w20, w1
	ldr	w0, [x19,3296]
.LVL230:
	bl	FSP_SetDisplay
.LVL231:
	.loc 1 934 0
	ldr	w0, [x19,3296]
	mov	w1, w20
	bl	FSP_GetFsImagePtr
.LVL232:
	.loc 1 943 0
	mov	w0, 1
	.loc 1 944 0
	ldp	x19, x20, [sp,16]
	.cfi_remember_state
	.cfi_restore 20
	.cfi_restore 19
.LVL233:
	ldp	x29, x30, [sp], 32
	.cfi_restore 30
	.cfi_restore 29
	.cfi_def_cfa 31, 0
	ret
.LVL234:
.L219:
	.cfi_restore_state
	.loc 1 928 0
	mov	w0, 0
.LVL235:
	.loc 1 944 0
	ldp	x19, x20, [sp,16]
	.cfi_restore 19
	.cfi_restore 20
	ldp	x29, x30, [sp], 32
	.cfi_restore 29
	.cfi_restore 30
	.cfi_def_cfa 31, 0
	ret
	.cfi_endproc
.LFE2649:
	.size	DIVX3DEC_RecycleImage, .-DIVX3DEC_RecycleImage
	.align	2
	.global	DIVX3DEC_GetRemainImg
	.type	DIVX3DEC_GetRemainImg, %function
DIVX3DEC_GetRemainImg:
.LFB2650:
	.loc 1 948 0
	.cfi_startproc
.LVL236:
	stp	x29, x30, [sp, -64]!
	.cfi_def_cfa_offset 64
	.cfi_offset 29, -64
	.cfi_offset 30, -56
	add	x29, sp, 0
	.cfi_def_cfa_register 29
	stp	x19, x20, [sp,16]
	stp	x21, x22, [sp,32]
	stp	x23, x24, [sp,48]
	.cfi_offset 19, -48
	.cfi_offset 20, -40
	.cfi_offset 21, -32
	.cfi_offset 22, -24
	.cfi_offset 23, -16
	.cfi_offset 24, -8
	.loc 1 948 0
	mov	x19, x0
	.loc 1 956 0
	ldr	x0, [x0]
.LVL237:
	ldr	w0, [x0,16]
	cmp	w0, 1
	beq	.L233
	.loc 1 962 0
	add	x20, x19, 168
	add	x23, x19, 36864
	add	x20, x20, 16384
	ldr	w0, [x23,3296]
	ldr	w1, [x20,2956]
	bl	FSP_GetFsImagePtr
.LVL238:
	mov	x24, x0
.LVL239:
	.loc 1 963 0
	cbz	x0, .L233
	.loc 1 965 0
	ldr	w0, [x23,3296]
	add	x22, x19, 16384
	ldr	w1, [x20,2956]
	bl	FSP_GetDisplay
.LVL240:
	.loc 1 966 0
	cmp	w0, 2
	beq	.L234
.L221:
	add	x21, x22, 3176
.L223:
	.loc 1 999 0
	mov	x0, x21
	bl	GetVoLastImageID
.LVL241:
.L232:
	.loc 1 1003 0
	ldp	x19, x20, [sp,16]
	.cfi_remember_state
	.cfi_restore 20
	.cfi_restore 19
.LVL242:
.LVL243:
	ldp	x21, x22, [sp,32]
	.cfi_restore 22
	.cfi_restore 21
	ldp	x23, x24, [sp,48]
	.cfi_restore 24
	.cfi_restore 23
.LVL244:
	ldp	x29, x30, [sp], 64
	.cfi_restore 30
	.cfi_restore 29
	.cfi_def_cfa 31, 0
	ret
.LVL245:
.L233:
	.cfi_restore_state
	add	x22, x19, 16384
	b	.L221
.LVL246:
.L234:
	.loc 1 968 0
	mov	x0, x19
	.loc 1 972 0
	add	x21, x22, 3176
	.loc 1 968 0
	bl	Divx3_SetImgFormat
.LVL247:
	.loc 1 969 0
	mov	w2, 1
	str	w2, [x24,108]
	.loc 1 971 0
	ldr	w0, [x23,3296]
	ldr	w1, [x20,2956]
	bl	FSP_SetDisplay
.LVL248:
	.loc 1 972 0
	ldr	w0, [x23,3296]
	mov	w1, 5
	mov	x2, x19
	mov	x3, x21
	mov	x4, x24
	bl	InsertImgToVoQueue
.LVL249:
	cmp	w0, 1
	beq	.L222
	.loc 1 974 0
	ldr	w0, [x23,3296]
	mov	w2, 0
	ldr	w1, [x20,2956]
	bl	FSP_SetDisplay
.LVL250:
	.loc 1 975 0
	ldr	w0, [x23,3296]
	ldr	x1, [x24,248]
	bl	FreeUsdByDec
.LVL251:
	.loc 1 976 0
	str	xzr, [x24,248]
	.loc 1 977 0
	ldr	x1, [x24,256]
	ldr	w0, [x23,3296]
	bl	FreeUsdByDec
.LVL252:
	.loc 1 978 0
	str	xzr, [x24,256]
	b	.L223
.L222:
	.loc 1 981 0
	ldr	w0, [x24,84]
	cmp	w0, 100
	bhi	.L221
	.loc 1 981 0 is_stmt 0 discriminator 1
	ldr	w0, [x24,48]
	cmp	w0, 31
	bls	.L221
	.loc 1 981 0 discriminator 2
	ldr	w0, [x24,52]
	cmp	w0, 31
	bls	.L221
	mov	w0, 0
.LVL253:
	b	.L232
	.cfi_endproc
.LFE2650:
	.size	DIVX3DEC_GetRemainImg, .-DIVX3DEC_GetRemainImg
	.align	2
	.global	DIVX3DEC_VDMPostProc
	.type	DIVX3DEC_VDMPostProc, %function
DIVX3DEC_VDMPostProc:
.LFB2651:
	.loc 1 1007 0 is_stmt 1
	.cfi_startproc
.LVL254:
	stp	x29, x30, [sp, -80]!
	.cfi_def_cfa_offset 80
	.cfi_offset 29, -80
	.cfi_offset 30, -72
	add	x29, sp, 0
	.cfi_def_cfa_register 29
	stp	x21, x22, [sp,32]
	.cfi_offset 21, -48
	.cfi_offset 22, -40
	mov	w21, w1
	.loc 1 1016 0
	adrp	x1, .LC33
.LVL255:
	.loc 1 1007 0
	stp	x19, x20, [sp,16]
	stp	x23, x24, [sp,48]
	.cfi_offset 19, -64
	.cfi_offset 20, -56
	.cfi_offset 23, -32
	.cfi_offset 24, -24
	.loc 1 1007 0
	mov	x20, x0
	.loc 1 1016 0
	add	x1, x1, :lo12:.LC33
	.loc 1 1007 0
	mov	w24, w2
	.loc 1 1016 0
	mov	w0, 22
.LVL256:
	mov	w2, w21
.LVL257:
	.loc 1 1021 0
	add	x19, x20, 168
	add	x22, x20, 36864
	add	x23, x19, 16384
	.loc 1 1016 0
	bl	dprint_linux_kernel
.LVL258:
	.loc 1 1019 0
	mov	w0, 5
	mov	x1, x20
	bl	ReleasePacket
.LVL259:
	.loc 1 1021 0
	ldr	w0, [x22,3296]
	ldr	w1, [x23,2956]
	bl	FSP_GetFsImagePtr
.LVL260:
	.loc 1 1024 0
	cbz	x0, .L263
	.loc 1 1030 0
	ldr	w1, [x23,2744]
	cbz	w1, .L265
	.loc 1 1037 0
	tbnz	w21, #31, .L248
.L268:
	.loc 1 1037 0 is_stmt 0 discriminator 1
	cmp	w21, 100
	mov	w1, 100
	csel	w21, w21, w1, le
.LVL261:
.L239:
	.loc 1 1040 0 is_stmt 1
	adrp	x1, .LC34
	.loc 1 1037 0 discriminator 4
	str	w21, [x0,84]
	.loc 1 1040 0
	add	x1, x1, :lo12:.LC34
	mov	w0, 22
.LVL262:
	bl	dprint_linux_kernel
.LVL263:
	.loc 1 1042 0
	mov	x0, x20
	bl	Divx3_SetImgFormat
.LVL264:
	.loc 1 1044 0
	ldrb	w0, [x19,3]
	cmp	w0, 2
	beq	.L242
	.loc 1 1050 0
	ldr	x0, [x20]
	ldr	w0, [x0,16]
	cmp	w0, 1
	beq	.L242
	.loc 1 1052 0
	add	x0, x19, 16384
	.loc 1 1052 0 is_stmt 0 discriminator 2
	mov	w1, -1
	.loc 1 1052 0
	ldr	w2, [x0,2868]
	cbz	w2, .L243
	.loc 1 1052 0 discriminator 1
	ldr	w1, [x0,2952]
.L243:
	.loc 1 1052 0 discriminator 4
	add	x0, x19, 16384
	str	w1, [x0,2960]
.L241:
	.loc 1 1060 0 is_stmt 1
	cmn	w1, #1
	add	x21, x20, 16384
	beq	.L244
	.loc 1 1062 0
	ldr	w0, [x22,3296]
	.loc 1 1063 0
	add	x23, x19, 16384
	.loc 1 1066 0
	add	x21, x20, 16384
	.loc 1 1062 0
	bl	FSP_GetFsImagePtr
.LVL265:
	str	x0, [x29,64]
	.loc 1 1063 0
	ldr	w2, [x23,2960]
	ldr	w0, [x22,3296]
.LVL266:
	mov	w1, w2
	str	x2, [x29,72]
	bl	FSP_GetRef
.LVL267:
	.loc 1 1063 0 is_stmt 0 discriminator 1
	mov	w3, w0
	ldr	x2, [x29,72]
	adrp	x1, .LC35
	add	x1, x1, :lo12:.LC35
	mov	w0, 12
	bl	dprint_linux_kernel
.LVL268:
	.loc 1 1065 0 is_stmt 1
	ldr	w0, [x22,3296]
	mov	w2, 1
	ldr	w1, [x23,2960]
	bl	FSP_SetDisplay
.LVL269:
	.loc 1 1066 0
	ldr	w0, [x22,3296]
	mov	w1, 5
	ldr	x4, [x29,64]
.LVL270:
	mov	x2, x20
	add	x3, x21, 3176
	bl	InsertImgToVoQueue
.LVL271:
	cmp	w0, 1
	bne	.L266
.L244:
	.loc 1 1073 0
	add	x1, x19, 16384
	ldr	w0, [x1,2864]
	add	w0, w0, 1
	str	w0, [x1,2864]
	.loc 1 1077 0
	ldr	w0, [x21,2912]
	cmp	w0, 1
	beq	.L267
.L245:
	.loc 1 1082 0
	add	x20, x19, 16384
.LVL272:
	mov	w1, 1
	.loc 1 1084 0
	ldr	w2, [x20,2952]
	ldr	w0, [x20,2956]
	.loc 1 1082 0
	str	w1, [x20,2868]
	.loc 1 1084 0
	cmp	w2, w0
	beq	.L247
	.loc 1 1087 0
	adrp	x1, .LC36
	mov	w0, 13
	add	x1, x1, :lo12:.LC36
	bl	dprint_linux_kernel
.LVL273:
	.loc 1 1088 0
	ldr	w0, [x22,3296]
	mov	w2, 0
	ldr	w1, [x20,2952]
	bl	FSP_SetRef
.LVL274:
	.loc 1 1089 0
	ldr	w0, [x22,3296]
	ldr	w1, [x20,2952]
	bl	FSP_RemovePmv
.LVL275:
	ldr	w0, [x20,2956]
.L247:
	.loc 1 1092 0
	add	x19, x19, 16384
	.loc 1 1093 0
	mov	w1, w0
	mov	w2, 1
	.loc 1 1092 0
	str	w0, [x19,2952]
	.loc 1 1093 0
	ldr	w0, [x22,3296]
	bl	FSP_SetRef
.LVL276:
	.loc 1 1094 0
	ldr	w2, [x19,2956]
	adrp	x1, .LC37
	add	x1, x1, :lo12:.LC37
	mov	w0, 13
	bl	dprint_linux_kernel
.LVL277:
	.loc 1 1096 0
	mov	w0, 1
	.loc 1 1097 0
	ldp	x19, x20, [sp,16]
	.cfi_remember_state
	.cfi_restore 20
	.cfi_restore 19
	ldp	x21, x22, [sp,32]
	.cfi_restore 22
	.cfi_restore 21
	ldp	x23, x24, [sp,48]
	.cfi_restore 24
	.cfi_restore 23
.LVL278:
	ldp	x29, x30, [sp], 80
	.cfi_restore 30
	.cfi_restore 29
	.cfi_def_cfa 31, 0
	ret
.LVL279:
.L265:
	.cfi_restore_state
	.loc 1 1032 0
	and	w24, w24, 1
.LVL280:
	str	w24, [x23,2840]
	.loc 1 1037 0
	tbz	w21, #31, .L268
.LVL281:
.L248:
	.loc 1 1037 0 is_stmt 0 discriminator 2
	mov	w21, 0
.LVL282:
	b	.L239
.LVL283:
.L242:
	.loc 1 1046 0 is_stmt 1
	add	x0, x19, 16384
	ldr	w1, [x0,2956]
	str	w1, [x0,2960]
	b	.L241
.L266:
	.loc 1 1068 0
	ldr	w0, [x22,3296]
	mov	w2, 0
	ldr	w1, [x23,2960]
	bl	FSP_SetDisplay
.LVL284:
.L263:
	.loc 1 1069 0
	mov	w0, 0
.LVL285:
.L269:
	.loc 1 1097 0
	ldp	x19, x20, [sp,16]
	.cfi_remember_state
	.cfi_restore 19
	.cfi_restore 20
.LVL286:
	ldp	x21, x22, [sp,32]
	.cfi_restore 21
	.cfi_restore 22
.LVL287:
	ldp	x23, x24, [sp,48]
	.cfi_restore 23
	.cfi_restore 24
.LVL288:
	ldp	x29, x30, [sp], 80
	.cfi_restore 29
	.cfi_restore 30
	.cfi_def_cfa 31, 0
	ret
.LVL289:
.L267:
	.cfi_restore_state
	.loc 1 1077 0 discriminator 1
	ldr	w0, [x1,2868]
	cbnz	w0, .L245
	.loc 1 1069 0
	mov	w0, 0
	b	.L269
	.cfi_endproc
.LFE2651:
	.size	DIVX3DEC_VDMPostProc, .-DIVX3DEC_VDMPostProc
	.align	2
	.global	DIVX3DEC_GetImageBuffer
	.type	DIVX3DEC_GetImageBuffer, %function
DIVX3DEC_GetImageBuffer:
.LFB2652:
	.loc 1 1101 0
	.cfi_startproc
.LVL290:
	stp	x29, x30, [sp, -48]!
	.cfi_def_cfa_offset 48
	.cfi_offset 29, -48
	.cfi_offset 30, -40
	add	x29, sp, 0
	.cfi_def_cfa_register 29
	stp	x19, x20, [sp,16]
	.cfi_offset 19, -32
	.cfi_offset 20, -24
	.loc 1 1109 0
	add	x20, x0, 36864
	.loc 1 1101 0
	str	x21, [sp,32]
	.cfi_offset 21, -16
	.loc 1 1101 0
	mov	x21, x0
	.loc 1 1109 0
	ldr	w0, [x20,3296]
.LVL291:
	bl	FSP_IsNewFsAvalible
.LVL292:
	cmp	w0, 1
	mov	w19, w0
	beq	.L271
	.loc 1 1113 0
	ldr	w0, [x20,3296]
	.loc 1 1118 0
	mov	w19, 0
	.loc 1 1113 0
	bl	FSP_IsNewFsAvalible
.LVL293:
	cmn	w0, #1
	beq	.L276
.L271:
	.loc 1 1119 0
	mov	w0, w19
	ldr	x21, [sp,32]
	.cfi_remember_state
	.cfi_restore 21
.LVL294:
	ldp	x19, x20, [sp,16]
	.cfi_restore 20
	.cfi_restore 19
	ldp	x29, x30, [sp], 48
	.cfi_restore 30
	.cfi_restore 29
	.cfi_def_cfa 31, 0
	ret
.LVL295:
.L276:
	.cfi_restore_state
	.loc 1 1115 0
	add	x1, x21, 16384
	ldr	w0, [x20,3296]
	add	x1, x1, 3176
	bl	FSP_ClearNotInVoQueue
.LVL296:
	.loc 1 1119 0
	ldr	x21, [sp,32]
	.cfi_restore 21
.LVL297:
	mov	w0, w19
	ldp	x19, x20, [sp,16]
	.cfi_restore 19
	.cfi_restore 20
	ldp	x29, x30, [sp], 48
	.cfi_restore 29
	.cfi_restore 30
	.cfi_def_cfa 31, 0
	ret
	.cfi_endproc
.LFE2652:
	.size	DIVX3DEC_GetImageBuffer, .-DIVX3DEC_GetImageBuffer
	.align	2
	.global	DIVX3DEC_GetImageWidth
	.type	DIVX3DEC_GetImageWidth, %function
DIVX3DEC_GetImageWidth:
.LFB2653:
	.loc 1 1122 0
	.cfi_startproc
.LVL298:
	.loc 1 1125 0
	add	x0, x0, 16384
.LVL299:
	.loc 1 1128 0
	ldr	w0, [x0,2968]
	ret
	.cfi_endproc
.LFE2653:
	.size	DIVX3DEC_GetImageWidth, .-DIVX3DEC_GetImageWidth
	.align	2
	.global	DIVX3DEC_GetImageHeight
	.type	DIVX3DEC_GetImageHeight, %function
DIVX3DEC_GetImageHeight:
.LFB2654:
	.loc 1 1131 0
	.cfi_startproc
.LVL300:
	.loc 1 1134 0
	add	x0, x0, 16384
.LVL301:
	.loc 1 1137 0
	ldr	w0, [x0,2972]
	ret
	.cfi_endproc
.LFE2654:
	.size	DIVX3DEC_GetImageHeight, .-DIVX3DEC_GetImageHeight
	.section	.rodata
	.align	3
.LANCHOR0 = . + 0
	.type	__FUNCTION__.42274, %object
	.size	__FUNCTION__.42274, 19
__FUNCTION__.42274:
	.string	"Divx3_DecodeDecide"
	.section	.rodata.str1.8,"aMS",%progbits,1
	.align	3
.LC0:
	.string	"get frame store fail!\n"
	.zero	1
.LC1:
	.string	"line: %d, pImage is NULL!\n"
	.zero	5
.LC2:
	.string	"get image buffer ok: LogicFsID = %d\n"
	.zero	3
.LC3:
	.string	"decode %pK, disp %pK, tf %pK\n"
	.zero	2
.LC4:
	.string	"image size abnormal (%dx%d) in MB\n"
	.zero	5
.LC5:
	.string	"divx3 actual frame size(%dx%d) exeed max config(%dx%d)\n"
.LC6:
	.string	"ERROR: No Img buffer is allocated\n"
	.zero	5
.LC7:
	.string	"----------------- divx3 Imode -> %d ------------------\n"
.LC8:
	.string	"-----I_MODE, but FrameType is %d-----\n"
	.zero	1
.LC9:
	.string	"-----cur framtype is %s, but refnum=%d-----\n"
	.zero	3
.LC10:
	.string	"P-frm"
	.zero	2
.LC11:
	.string	"error: DecMode illegal\n"
.LC12:
	.string	"fuction return value is null,%s %d unknow error!!\n"
	.zero	5
.LC13:
	.string	"dec P frame, fwd ref err(%d) > ref_thr(%d)\n"
	.zero	4
.LC14:
	.string	"-1 == VCTRL_GetChanIDByCtx() Err! \n"
	.zero	4
.LC15:
	.string	"Decoding quits at frm %d\n"
	.zero	6
.LC16:
	.string	"ERROR: frm %d, Invalid packet pointer!\n"
.LC17:
	.string	"ERROR: frm %d, Invalid packet PhyAddr!\n"
.LC18:
	.string	"ERROR: frm %d, Invalid packet VirAddr!\n"
.LC19:
	.string	"ERROR: frm %d, Invalid packet len!\n"
	.zero	4
.LC20:
	.string	"ERROR: frm %d, Invalid WxH: %dx%d!\n"
	.zero	4
.LC21:
	.string	"Divx3_GetPictureHeader Error!\n"
	.zero	1
.LC22:
	.string	"Can't decode from P frame!\n"
	.zero	4
.LC23:
	.string	"pic width/height to large,MbWidth = %d, MbHeight = %d"
	.zero	2
.LC24:
	.string	"new seq size %d * %d\n"
	.zero	2
.LC25:
	.string	"Divx3_ArrangeVHBMem err\n"
	.zero	7
.LC26:
	.string	"Divx3_DecodeDecide err\n"
.LC27:
	.string	"Fatal Error: frm%d, get image buffer failed\n"
	.zero	3
.LC28:
	.string	"dec_pts: %lld Usertag = %lld\n"
	.zero	2
.LC29:
	.string	"FSP_GetFsImagePtr Error!\n"
	.zero	6
.LC30:
	.string	"CurFsID abnormal!\n"
	.zero	5
.LC31:
	.string	"dec addr: cur,cur2d,fwd,currpmv,colpmv = %pK,%pK,%pK,%pK,%pK\n"
	.zero	2
.LC32:
	.string	"vol_mode Error!\n"
	.zero	7
.LC33:
	.string	"ErrRatio = %d\n"
	.zero	1
.LC34:
	.string	"DEBUG: DEC over\n"
	.zero	7
.LC35:
	.string	"insert buf %d ref %d\n"
	.zero	2
.LC36:
	.string	"---------- unref %d\n"
	.zero	3
.LC37:
	.string	"++++++++++ ref %d\n"
	.text
.Letext0:
	.file 2 "/mnt/disk/jenkins/ci/workspace/chipset_release_960_xloader/opensource/component_code/vendor/huawei/extra/build/build_script/kirin_kernel_release/kernel/drivers/vcodec/hi_vcodec/vdec/include/hi_type.h"
	.file 3 "/mnt/disk/jenkins/ci/workspace/chipset_release_960_xloader/opensource/component_code/vendor/huawei/extra/build/build_script/kirin_kernel_release/kernel/drivers/vcodec/hi_vcodec/vdec/vfmw/vfmw_v4.0/vfmw.h"
	.file 4 "/mnt/disk/jenkins/ci/workspace/chipset_release_960_xloader/opensource/component_code/vendor/huawei/extra/build/build_script/kirin_kernel_release/kernel/include/uapi/asm-generic/int-ll64.h"
	.file 5 "/mnt/disk/jenkins/ci/workspace/chipset_release_960_xloader/opensource/component_code/vendor/huawei/extra/build/build_script/kirin_kernel_release/kernel/include/asm-generic/int-ll64.h"
	.file 6 "/mnt/disk/jenkins/ci/workspace/chipset_release_960_xloader/opensource/component_code/vendor/huawei/extra/build/build_script/kirin_kernel_release/kernel/include/uapi/asm-generic/posix_types.h"
	.file 7 "/mnt/disk/jenkins/ci/workspace/chipset_release_960_xloader/opensource/component_code/vendor/huawei/extra/build/build_script/kirin_kernel_release/kernel/include/linux/export.h"
	.file 8 "/mnt/disk/jenkins/ci/workspace/chipset_release_960_xloader/opensource/component_code/vendor/huawei/extra/build/build_script/kirin_kernel_release/kernel/include/linux/types.h"
	.file 9 "/mnt/disk/jenkins/ci/workspace/chipset_release_960_xloader/opensource/component_code/vendor/huawei/extra/build/build_script/kirin_kernel_release/kernel/include/asm-generic/bug.h"
	.file 10 "/mnt/disk/jenkins/ci/workspace/chipset_release_960_xloader/opensource/component_code/vendor/huawei/extra/build/build_script/kirin_kernel_release/kernel/include/linux/restart_block.h"
	.file 11 "/mnt/disk/jenkins/ci/workspace/chipset_release_960_xloader/opensource/component_code/vendor/huawei/extra/build/build_script/kirin_kernel_release/kernel/include/uapi/linux/time.h"
	.file 12 "/mnt/disk/jenkins/ci/workspace/chipset_release_960_xloader/opensource/component_code/vendor/huawei/extra/build/build_script/kirin_kernel_release/kernel/arch/arm64/include/asm/compat.h"
	.file 13 "/mnt/disk/jenkins/ci/workspace/chipset_release_960_xloader/opensource/component_code/vendor/huawei/extra/build/build_script/kirin_kernel_release/kernel/include/uapi/asm-generic/poll.h"
	.file 14 "/mnt/disk/jenkins/ci/workspace/chipset_release_960_xloader/opensource/component_code/vendor/huawei/extra/build/build_script/kirin_kernel_release/kernel/arch/arm64/include/asm/thread_info.h"
	.file 15 "/mnt/disk/jenkins/ci/workspace/chipset_release_960_xloader/opensource/component_code/vendor/huawei/extra/build/build_script/kirin_kernel_release/kernel/arch/arm64/include/uapi/asm/ptrace.h"
	.file 16 "/mnt/disk/jenkins/ci/workspace/chipset_release_960_xloader/opensource/component_code/vendor/huawei/extra/build/build_script/kirin_kernel_release/kernel/arch/arm64/include/asm/ptrace.h"
	.file 17 "/mnt/disk/jenkins/ci/workspace/chipset_release_960_xloader/opensource/component_code/vendor/huawei/extra/build/build_script/kirin_kernel_release/kernel/arch/arm64/include/asm/spinlock_types.h"
	.file 18 "/mnt/disk/jenkins/ci/workspace/chipset_release_960_xloader/opensource/component_code/vendor/huawei/extra/build/build_script/kirin_kernel_release/kernel/include/linux/spinlock_types.h"
	.file 19 "/mnt/disk/jenkins/ci/workspace/chipset_release_960_xloader/opensource/component_code/vendor/huawei/extra/build/build_script/kirin_kernel_release/kernel/include/linux/rwlock_types.h"
	.file 20 "/mnt/disk/jenkins/ci/workspace/chipset_release_960_xloader/opensource/component_code/vendor/huawei/extra/build/build_script/kirin_kernel_release/kernel/arch/arm64/include/asm/fpsimd.h"
	.file 21 "/mnt/disk/jenkins/ci/workspace/chipset_release_960_xloader/opensource/component_code/vendor/huawei/extra/build/build_script/kirin_kernel_release/kernel/include/linux/jump_label.h"
	.file 22 "/mnt/disk/jenkins/ci/workspace/chipset_release_960_xloader/opensource/component_code/vendor/huawei/extra/build/build_script/kirin_kernel_release/kernel/include/asm-generic/atomic-long.h"
	.file 23 "/mnt/disk/jenkins/ci/workspace/chipset_release_960_xloader/opensource/component_code/vendor/huawei/extra/build/build_script/kirin_kernel_release/kernel/arch/arm64/include/asm/hw_breakpoint.h"
	.file 24 "/mnt/disk/jenkins/ci/workspace/chipset_release_960_xloader/opensource/component_code/vendor/huawei/extra/build/build_script/kirin_kernel_release/kernel/arch/arm64/include/asm/processor.h"
	.file 25 "/mnt/disk/jenkins/ci/workspace/chipset_release_960_xloader/opensource/component_code/vendor/huawei/extra/build/build_script/kirin_kernel_release/kernel/include/linux/perf_event.h"
	.file 26 "/mnt/disk/jenkins/ci/workspace/chipset_release_960_xloader/opensource/component_code/vendor/huawei/extra/build/build_script/kirin_kernel_release/kernel/include/linux/wait.h"
	.file 27 "/mnt/disk/jenkins/ci/workspace/chipset_release_960_xloader/opensource/component_code/vendor/huawei/extra/build/build_script/kirin_kernel_release/kernel/include/linux/seqlock.h"
	.file 28 "/mnt/disk/jenkins/ci/workspace/chipset_release_960_xloader/opensource/component_code/vendor/huawei/extra/build/build_script/kirin_kernel_release/kernel/include/linux/nodemask.h"
	.file 29 "/mnt/disk/jenkins/ci/workspace/chipset_release_960_xloader/opensource/component_code/vendor/huawei/extra/build/build_script/kirin_kernel_release/kernel/include/linux/cpumask.h"
	.file 30 "/mnt/disk/jenkins/ci/workspace/chipset_release_960_xloader/opensource/component_code/vendor/huawei/extra/build/build_script/kirin_kernel_release/kernel/include/linux/completion.h"
	.file 31 "/mnt/disk/jenkins/ci/workspace/chipset_release_960_xloader/opensource/component_code/vendor/huawei/extra/build/build_script/kirin_kernel_release/kernel/include/linux/time64.h"
	.file 32 "/mnt/disk/jenkins/ci/workspace/chipset_release_960_xloader/opensource/component_code/vendor/huawei/extra/build/build_script/kirin_kernel_release/kernel/include/linux/ktime.h"
	.file 33 "/mnt/disk/jenkins/ci/workspace/chipset_release_960_xloader/opensource/component_code/vendor/huawei/extra/build/build_script/kirin_kernel_release/kernel/include/linux/rbtree.h"
	.file 34 "/mnt/disk/jenkins/ci/workspace/chipset_release_960_xloader/opensource/component_code/vendor/huawei/extra/build/build_script/kirin_kernel_release/kernel/include/linux/osq_lock.h"
	.file 35 "/mnt/disk/jenkins/ci/workspace/chipset_release_960_xloader/opensource/component_code/vendor/huawei/extra/build/build_script/kirin_kernel_release/kernel/include/linux/rwsem.h"
	.file 36 "/mnt/disk/jenkins/ci/workspace/chipset_release_960_xloader/opensource/component_code/vendor/huawei/extra/build/build_script/kirin_kernel_release/kernel/include/linux/sched.h"
	.file 37 "/mnt/disk/jenkins/ci/workspace/chipset_release_960_xloader/opensource/component_code/vendor/huawei/extra/build/build_script/kirin_kernel_release/kernel/include/linux/mm_types.h"
	.file 38 "/mnt/disk/jenkins/ci/workspace/chipset_release_960_xloader/opensource/component_code/vendor/huawei/extra/build/build_script/kirin_kernel_release/kernel/include/linux/lockdep.h"
	.file 39 "/mnt/disk/jenkins/ci/workspace/chipset_release_960_xloader/opensource/component_code/vendor/huawei/extra/build/build_script/kirin_kernel_release/kernel/include/linux/uprobes.h"
	.file 40 "/mnt/disk/jenkins/ci/workspace/chipset_release_960_xloader/opensource/component_code/vendor/huawei/extra/build/build_script/kirin_kernel_release/kernel/include/linux/timer.h"
	.file 41 "/mnt/disk/jenkins/ci/workspace/chipset_release_960_xloader/opensource/component_code/vendor/huawei/extra/build/build_script/kirin_kernel_release/kernel/include/linux/uidgid.h"
	.file 42 "/mnt/disk/jenkins/ci/workspace/chipset_release_960_xloader/opensource/component_code/vendor/huawei/extra/build/build_script/kirin_kernel_release/kernel/include/linux/sysctl.h"
	.file 43 "/mnt/disk/jenkins/ci/workspace/chipset_release_960_xloader/opensource/component_code/vendor/huawei/extra/build/build_script/kirin_kernel_release/kernel/include/linux/workqueue.h"
	.file 44 "/mnt/disk/jenkins/ci/workspace/chipset_release_960_xloader/opensource/component_code/vendor/huawei/extra/build/build_script/kirin_kernel_release/kernel/arch/arm64/include/asm/pgtable-types.h"
	.file 45 "/mnt/disk/jenkins/ci/workspace/chipset_release_960_xloader/opensource/component_code/vendor/huawei/extra/build/build_script/kirin_kernel_release/kernel/arch/arm64/include/asm/page.h"
	.file 46 "/mnt/disk/jenkins/ci/workspace/chipset_release_960_xloader/opensource/component_code/vendor/huawei/extra/build/build_script/kirin_kernel_release/kernel/include/linux/llist.h"
	.file 47 "/mnt/disk/jenkins/ci/workspace/chipset_release_960_xloader/opensource/component_code/vendor/huawei/extra/build/build_script/kirin_kernel_release/kernel/arch/arm64/include/asm/smp.h"
	.file 48 "/mnt/disk/jenkins/ci/workspace/chipset_release_960_xloader/opensource/component_code/vendor/huawei/extra/build/build_script/kirin_kernel_release/kernel/arch/arm64/include/asm/mmu.h"
	.file 49 "/mnt/disk/jenkins/ci/workspace/chipset_release_960_xloader/opensource/component_code/vendor/huawei/extra/build/build_script/kirin_kernel_release/kernel/include/linux/fs.h"
	.file 50 "/mnt/disk/jenkins/ci/workspace/chipset_release_960_xloader/opensource/component_code/vendor/huawei/extra/build/build_script/kirin_kernel_release/kernel/include/linux/mm.h"
	.file 51 "/mnt/disk/jenkins/ci/workspace/chipset_release_960_xloader/opensource/component_code/vendor/huawei/extra/build/build_script/kirin_kernel_release/kernel/include/linux/user_namespace.h"
	.file 52 "/mnt/disk/jenkins/ci/workspace/chipset_release_960_xloader/opensource/component_code/vendor/huawei/extra/build/build_script/kirin_kernel_release/kernel/include/linux/mmzone.h"
	.file 53 "/mnt/disk/jenkins/ci/workspace/chipset_release_960_xloader/opensource/component_code/vendor/huawei/extra/build/build_script/kirin_kernel_release/kernel/include/linux/mutex.h"
	.file 54 "/mnt/disk/jenkins/ci/workspace/chipset_release_960_xloader/opensource/component_code/vendor/huawei/extra/build/build_script/kirin_kernel_release/kernel/include/linux/percpu-refcount.h"
	.file 55 "/mnt/disk/jenkins/ci/workspace/chipset_release_960_xloader/opensource/component_code/vendor/huawei/extra/build/build_script/kirin_kernel_release/kernel/include/linux/shrinker.h"
	.file 56 "/mnt/disk/jenkins/ci/workspace/chipset_release_960_xloader/opensource/component_code/vendor/huawei/extra/build/build_script/kirin_kernel_release/kernel/include/uapi/linux/resource.h"
	.file 57 "/mnt/disk/jenkins/ci/workspace/chipset_release_960_xloader/opensource/component_code/vendor/huawei/extra/build/build_script/kirin_kernel_release/kernel/include/linux/tracepoint-defs.h"
	.file 58 "/mnt/disk/jenkins/ci/workspace/chipset_release_960_xloader/opensource/component_code/vendor/huawei/extra/build/build_script/kirin_kernel_release/kernel/include/linux/vmstat.h"
	.file 59 "/mnt/disk/jenkins/ci/workspace/chipset_release_960_xloader/opensource/component_code/vendor/huawei/extra/build/build_script/kirin_kernel_release/kernel/include/linux/capability.h"
	.file 60 "/mnt/disk/jenkins/ci/workspace/chipset_release_960_xloader/opensource/component_code/vendor/huawei/extra/build/build_script/kirin_kernel_release/kernel/include/linux/plist.h"
	.file 61 "/mnt/disk/jenkins/ci/workspace/chipset_release_960_xloader/opensource/component_code/vendor/huawei/extra/build/build_script/kirin_kernel_release/kernel/include/asm-generic/cputime_jiffies.h"
	.file 62 "/mnt/disk/jenkins/ci/workspace/chipset_release_960_xloader/opensource/component_code/vendor/huawei/extra/build/build_script/kirin_kernel_release/kernel/include/uapi/asm-generic/signal.h"
	.file 63 "/mnt/disk/jenkins/ci/workspace/chipset_release_960_xloader/opensource/component_code/vendor/huawei/extra/build/build_script/kirin_kernel_release/kernel/include/uapi/asm-generic/signal-defs.h"
	.file 64 "/mnt/disk/jenkins/ci/workspace/chipset_release_960_xloader/opensource/component_code/vendor/huawei/extra/build/build_script/kirin_kernel_release/kernel/include/uapi/asm-generic/siginfo.h"
	.file 65 "/mnt/disk/jenkins/ci/workspace/chipset_release_960_xloader/opensource/component_code/vendor/huawei/extra/build/build_script/kirin_kernel_release/kernel/include/linux/signal.h"
	.file 66 "/mnt/disk/jenkins/ci/workspace/chipset_release_960_xloader/opensource/component_code/vendor/huawei/extra/build/build_script/kirin_kernel_release/kernel/include/linux/pid.h"
	.file 67 "/mnt/disk/jenkins/ci/workspace/chipset_release_960_xloader/opensource/component_code/vendor/huawei/extra/build/build_script/kirin_kernel_release/kernel/include/linux/pid_namespace.h"
	.file 68 "/mnt/disk/jenkins/ci/workspace/chipset_release_960_xloader/opensource/component_code/vendor/huawei/extra/build/build_script/kirin_kernel_release/kernel/include/linux/seccomp.h"
	.file 69 "/mnt/disk/jenkins/ci/workspace/chipset_release_960_xloader/opensource/component_code/vendor/huawei/extra/build/build_script/kirin_kernel_release/kernel/include/linux/timerqueue.h"
	.file 70 "/mnt/disk/jenkins/ci/workspace/chipset_release_960_xloader/opensource/component_code/vendor/huawei/extra/build/build_script/kirin_kernel_release/kernel/include/linux/hrtimer.h"
	.file 71 "/mnt/disk/jenkins/ci/workspace/chipset_release_960_xloader/opensource/component_code/vendor/huawei/extra/build/build_script/kirin_kernel_release/kernel/include/linux/task_io_accounting.h"
	.file 72 "/mnt/disk/jenkins/ci/workspace/chipset_release_960_xloader/opensource/component_code/vendor/huawei/extra/build/build_script/kirin_kernel_release/kernel/include/linux/assoc_array.h"
	.file 73 "/mnt/disk/jenkins/ci/workspace/chipset_release_960_xloader/opensource/component_code/vendor/huawei/extra/build/build_script/kirin_kernel_release/kernel/include/linux/key.h"
	.file 74 "/mnt/disk/jenkins/ci/workspace/chipset_release_960_xloader/opensource/component_code/vendor/huawei/extra/build/build_script/kirin_kernel_release/kernel/include/linux/cred.h"
	.file 75 "/mnt/disk/jenkins/ci/workspace/chipset_release_960_xloader/opensource/component_code/vendor/huawei/extra/build/build_script/kirin_kernel_release/kernel/include/linux/idr.h"
	.file 76 "/mnt/disk/jenkins/ci/workspace/chipset_release_960_xloader/opensource/component_code/vendor/huawei/extra/build/build_script/kirin_kernel_release/kernel/include/linux/rcu_sync.h"
	.file 77 "/mnt/disk/jenkins/ci/workspace/chipset_release_960_xloader/opensource/component_code/vendor/huawei/extra/build/build_script/kirin_kernel_release/kernel/include/linux/percpu-rwsem.h"
	.file 78 "/mnt/disk/jenkins/ci/workspace/chipset_release_960_xloader/opensource/component_code/vendor/huawei/extra/build/build_script/kirin_kernel_release/kernel/include/linux/bpf-cgroup.h"
	.file 79 "/mnt/disk/jenkins/ci/workspace/chipset_release_960_xloader/opensource/component_code/vendor/huawei/extra/build/build_script/kirin_kernel_release/kernel/include/linux/cgroup-defs.h"
	.file 80 "/mnt/disk/jenkins/ci/workspace/chipset_release_960_xloader/opensource/component_code/vendor/huawei/extra/build/build_script/kirin_kernel_release/kernel/include/linux/kernfs.h"
	.file 81 "/mnt/disk/jenkins/ci/workspace/chipset_release_960_xloader/opensource/component_code/vendor/huawei/extra/build/build_script/kirin_kernel_release/kernel/include/linux/seq_file.h"
	.file 82 "/mnt/disk/jenkins/ci/workspace/chipset_release_960_xloader/opensource/component_code/vendor/huawei/extra/build/build_script/kirin_kernel_release/kernel/include/uapi/linux/taskstats.h"
	.file 83 "/mnt/disk/jenkins/ci/workspace/chipset_release_960_xloader/opensource/component_code/vendor/huawei/extra/build/build_script/kirin_kernel_release/kernel/include/linux/nsproxy.h"
	.file 84 "/mnt/disk/jenkins/ci/workspace/chipset_release_960_xloader/opensource/component_code/vendor/huawei/extra/build/build_script/kirin_kernel_release/kernel/include/linux/compat.h"
	.file 85 "/mnt/disk/jenkins/ci/workspace/chipset_release_960_xloader/opensource/component_code/vendor/huawei/extra/build/build_script/kirin_kernel_release/kernel/include/linux/stat.h"
	.file 86 "/mnt/disk/jenkins/ci/workspace/chipset_release_960_xloader/opensource/component_code/vendor/huawei/extra/build/build_script/kirin_kernel_release/kernel/include/uapi/linux/elf.h"
	.file 87 "/mnt/disk/jenkins/ci/workspace/chipset_release_960_xloader/opensource/component_code/vendor/huawei/extra/build/build_script/kirin_kernel_release/kernel/include/linux/kobject_ns.h"
	.file 88 "/mnt/disk/jenkins/ci/workspace/chipset_release_960_xloader/opensource/component_code/vendor/huawei/extra/build/build_script/kirin_kernel_release/kernel/include/linux/sysfs.h"
	.file 89 "/mnt/disk/jenkins/ci/workspace/chipset_release_960_xloader/opensource/component_code/vendor/huawei/extra/build/build_script/kirin_kernel_release/kernel/include/linux/kobject.h"
	.file 90 "/mnt/disk/jenkins/ci/workspace/chipset_release_960_xloader/opensource/component_code/vendor/huawei/extra/build/build_script/kirin_kernel_release/kernel/include/linux/kref.h"
	.file 91 "/mnt/disk/jenkins/ci/workspace/chipset_release_960_xloader/opensource/component_code/vendor/huawei/extra/build/build_script/kirin_kernel_release/kernel/include/linux/moduleparam.h"
	.file 92 "/mnt/disk/jenkins/ci/workspace/chipset_release_960_xloader/opensource/component_code/vendor/huawei/extra/build/build_script/kirin_kernel_release/kernel/include/linux/module.h"
	.file 93 "/mnt/disk/jenkins/ci/workspace/chipset_release_960_xloader/opensource/component_code/vendor/huawei/extra/build/build_script/kirin_kernel_release/kernel/include/linux/rbtree_latch.h"
	.file 94 "/mnt/disk/jenkins/ci/workspace/chipset_release_960_xloader/opensource/component_code/vendor/huawei/extra/build/build_script/kirin_kernel_release/kernel/arch/arm64/include/asm/module.h"
	.file 95 "/mnt/disk/jenkins/ci/workspace/chipset_release_960_xloader/opensource/component_code/vendor/huawei/extra/build/build_script/kirin_kernel_release/kernel/arch/arm64/include/asm/uaccess.h"
	.file 96 "/mnt/disk/jenkins/ci/workspace/chipset_release_960_xloader/opensource/component_code/vendor/huawei/extra/build/build_script/kirin_kernel_release/kernel/include/linux/trace_events.h"
	.file 97 "/mnt/disk/jenkins/ci/workspace/chipset_release_960_xloader/opensource/component_code/vendor/huawei/extra/build/build_script/kirin_kernel_release/kernel/include/linux/tracepoint.h"
	.file 98 "/mnt/disk/jenkins/ci/workspace/chipset_release_960_xloader/opensource/component_code/vendor/huawei/extra/build/build_script/kirin_kernel_release/kernel/include/linux/percpu_counter.h"
	.file 99 "/mnt/disk/jenkins/ci/workspace/chipset_release_960_xloader/opensource/component_code/vendor/huawei/extra/build/build_script/kirin_kernel_release/kernel/include/linux/quota.h"
	.file 100 "/mnt/disk/jenkins/ci/workspace/chipset_release_960_xloader/opensource/component_code/vendor/huawei/extra/build/build_script/kirin_kernel_release/kernel/include/linux/projid.h"
	.file 101 "/mnt/disk/jenkins/ci/workspace/chipset_release_960_xloader/opensource/component_code/vendor/huawei/extra/build/build_script/kirin_kernel_release/kernel/include/linux/path.h"
	.file 102 "/mnt/disk/jenkins/ci/workspace/chipset_release_960_xloader/opensource/component_code/vendor/huawei/extra/build/build_script/kirin_kernel_release/kernel/include/linux/list_bl.h"
	.file 103 "/mnt/disk/jenkins/ci/workspace/chipset_release_960_xloader/opensource/component_code/vendor/huawei/extra/build/build_script/kirin_kernel_release/kernel/include/linux/lockref.h"
	.file 104 "/mnt/disk/jenkins/ci/workspace/chipset_release_960_xloader/opensource/component_code/vendor/huawei/extra/build/build_script/kirin_kernel_release/kernel/include/linux/dcache.h"
	.file 105 "/mnt/disk/jenkins/ci/workspace/chipset_release_960_xloader/opensource/component_code/vendor/huawei/extra/build/build_script/kirin_kernel_release/kernel/include/linux/list_lru.h"
	.file 106 "/mnt/disk/jenkins/ci/workspace/chipset_release_960_xloader/opensource/component_code/vendor/huawei/extra/build/build_script/kirin_kernel_release/kernel/include/linux/radix-tree.h"
	.file 107 "/mnt/disk/jenkins/ci/workspace/chipset_release_960_xloader/opensource/component_code/vendor/huawei/extra/build/build_script/kirin_kernel_release/kernel/include/uapi/linux/fiemap.h"
	.file 108 "/mnt/disk/jenkins/ci/workspace/chipset_release_960_xloader/opensource/component_code/vendor/huawei/extra/build/build_script/kirin_kernel_release/kernel/include/linux/migrate_mode.h"
	.file 109 "/mnt/disk/jenkins/ci/workspace/chipset_release_960_xloader/opensource/component_code/vendor/huawei/extra/build/build_script/kirin_kernel_release/kernel/include/linux/bvec.h"
	.file 110 "/mnt/disk/jenkins/ci/workspace/chipset_release_960_xloader/opensource/component_code/vendor/huawei/extra/build/build_script/kirin_kernel_release/kernel/include/linux/delayed_call.h"
	.file 111 "/mnt/disk/jenkins/ci/workspace/chipset_release_960_xloader/opensource/component_code/vendor/huawei/extra/build/build_script/kirin_kernel_release/kernel/include/linux/uio.h"
	.file 112 "/mnt/disk/jenkins/ci/workspace/chipset_release_960_xloader/opensource/component_code/vendor/huawei/extra/build/build_script/kirin_kernel_release/kernel/include/linux/nfs_fs_i.h"
	.file 113 "/mnt/disk/jenkins/ci/workspace/chipset_release_960_xloader/opensource/component_code/vendor/huawei/extra/build/build_script/kirin_kernel_release/kernel/include/linux/poll.h"
	.file 114 "/mnt/disk/jenkins/ci/workspace/chipset_release_960_xloader/opensource/component_code/vendor/huawei/extra/build/build_script/kirin_kernel_release/kernel/include/linux/seq_buf.h"
	.file 115 "/mnt/disk/jenkins/ci/workspace/chipset_release_960_xloader/opensource/component_code/vendor/huawei/extra/build/build_script/kirin_kernel_release/kernel/include/linux/trace_seq.h"
	.file 116 "/mnt/disk/jenkins/ci/workspace/chipset_release_960_xloader/opensource/component_code/vendor/huawei/extra/build/build_script/kirin_kernel_release/kernel/include/uapi/linux/perf_event.h"
	.file 117 "/mnt/disk/jenkins/ci/workspace/chipset_release_960_xloader/opensource/component_code/vendor/huawei/extra/build/build_script/kirin_kernel_release/kernel/include/asm-generic/local.h"
	.file 118 "/mnt/disk/jenkins/ci/workspace/chipset_release_960_xloader/opensource/component_code/vendor/huawei/extra/build/build_script/kirin_kernel_release/kernel/include/asm-generic/local64.h"
	.file 119 "/mnt/disk/jenkins/ci/workspace/chipset_release_960_xloader/opensource/component_code/vendor/huawei/extra/build/build_script/kirin_kernel_release/kernel/include/linux/cgroup.h"
	.file 120 "/mnt/disk/jenkins/ci/workspace/chipset_release_960_xloader/opensource/component_code/vendor/huawei/extra/build/build_script/kirin_kernel_release/kernel/include/linux/ns_common.h"
	.file 121 "/mnt/disk/jenkins/ci/workspace/chipset_release_960_xloader/opensource/component_code/vendor/huawei/extra/build/build_script/kirin_kernel_release/kernel/include/uapi/linux/uio.h"
	.file 122 "/mnt/disk/jenkins/ci/workspace/chipset_release_960_xloader/opensource/component_code/vendor/huawei/extra/build/build_script/kirin_kernel_release/kernel/include/linux/klist.h"
	.file 123 "/mnt/disk/jenkins/ci/workspace/chipset_release_960_xloader/opensource/component_code/vendor/huawei/extra/build/build_script/kirin_kernel_release/kernel/include/linux/pinctrl/devinfo.h"
	.file 124 "/mnt/disk/jenkins/ci/workspace/chipset_release_960_xloader/opensource/component_code/vendor/huawei/extra/build/build_script/kirin_kernel_release/kernel/include/linux/pm.h"
	.file 125 "/mnt/disk/jenkins/ci/workspace/chipset_release_960_xloader/opensource/component_code/vendor/huawei/extra/build/build_script/kirin_kernel_release/kernel/include/linux/device.h"
	.file 126 "/mnt/disk/jenkins/ci/workspace/chipset_release_960_xloader/opensource/component_code/vendor/huawei/extra/build/build_script/kirin_kernel_release/kernel/include/linux/pm_wakeup.h"
	.file 127 "/mnt/disk/jenkins/ci/workspace/chipset_release_960_xloader/opensource/component_code/vendor/huawei/extra/build/build_script/kirin_kernel_release/kernel/arch/arm64/include/asm/device.h"
	.file 128 "/mnt/disk/jenkins/ci/workspace/chipset_release_960_xloader/opensource/component_code/vendor/huawei/extra/build/build_script/kirin_kernel_release/kernel/include/linux/irq_work.h"
	.file 129 "/mnt/disk/jenkins/ci/workspace/chipset_release_960_xloader/opensource/component_code/vendor/huawei/extra/build/build_script/kirin_kernel_release/kernel/include/linux/perf_regs.h"
	.file 130 "/mnt/disk/jenkins/ci/workspace/chipset_release_960_xloader/opensource/component_code/vendor/huawei/extra/build/build_script/kirin_kernel_release/kernel/drivers/vcodec/hi_vcodec/vdec/vfmw/vfmw_v4.0/firmware/driver/HiSCDV200/scd_drv.h"
	.file 131 "/mnt/disk/jenkins/ci/workspace/chipset_release_960_xloader/opensource/component_code/vendor/huawei/extra/build/build_script/kirin_kernel_release/kernel/drivers/vcodec/hi_vcodec/vdec/vfmw/vfmw_v4.0/firmware/common/syn_cmn.h"
	.file 132 "/mnt/disk/jenkins/ci/workspace/chipset_release_960_xloader/opensource/component_code/vendor/huawei/extra/build/build_script/kirin_kernel_release/kernel/drivers/vcodec/hi_vcodec/vdec/vfmw/vfmw_v4.0/firmware/common/decparam.h"
	.file 133 "/mnt/disk/jenkins/ci/workspace/chipset_release_960_xloader/opensource/component_code/vendor/huawei/extra/build/build_script/kirin_kernel_release/kernel/drivers/vcodec/hi_vcodec/vdec/vfmw/vfmw_v4.0/firmware/common/vdm_hal.h"
	.file 134 "/mnt/disk/jenkins/ci/workspace/chipset_release_960_xloader/opensource/component_code/vendor/huawei/extra/build/build_script/kirin_kernel_release/kernel/drivers/vcodec/hi_vcodec/vdec/vfmw/vfmw_v4.0/firmware/common/public.h"
	.file 135 "/mnt/disk/jenkins/ci/workspace/chipset_release_960_xloader/opensource/component_code/vendor/huawei/extra/build/build_script/kirin_kernel_release/kernel/drivers/vcodec/hi_vcodec/vdec/vfmw/vfmw_v4.0/firmware/common/bitstream.h"
	.file 136 "/mnt/disk/jenkins/ci/workspace/chipset_release_960_xloader/opensource/component_code/vendor/huawei/extra/build/build_script/kirin_kernel_release/kernel/drivers/vcodec/hi_vcodec/vdec/vfmw/vfmw_v4.0/firmware/common/syntax/divx3.h"
	.file 137 "/mnt/disk/jenkins/ci/workspace/chipset_release_960_xloader/opensource/component_code/vendor/huawei/extra/build/build_script/kirin_kernel_release/kernel/drivers/vcodec/hi_vcodec/vdec/vfmw/vfmw_v4.0/firmware/common/fsp.h"
	.file 138 "/mnt/disk/jenkins/ci/workspace/chipset_release_960_xloader/opensource/component_code/vendor/huawei/extra/build/build_script/kirin_kernel_release/kernel/arch/arm64/include/asm/cachetype.h"
	.file 139 "/mnt/disk/jenkins/ci/workspace/chipset_release_960_xloader/opensource/component_code/vendor/huawei/extra/build/build_script/kirin_kernel_release/kernel/include/linux/printk.h"
	.file 140 "/mnt/disk/jenkins/ci/workspace/chipset_release_960_xloader/opensource/component_code/vendor/huawei/extra/build/build_script/kirin_kernel_release/kernel/include/linux/kernel.h"
	.file 141 "/mnt/disk/jenkins/ci/workspace/chipset_release_960_xloader/opensource/component_code/vendor/huawei/extra/build/build_script/kirin_kernel_release/kernel/arch/arm64/include/asm/stack_pointer.h"
	.file 142 "/mnt/disk/jenkins/ci/workspace/chipset_release_960_xloader/opensource/component_code/vendor/huawei/extra/build/build_script/kirin_kernel_release/kernel/arch/arm64/include/asm/hwcap.h"
	.file 143 "/mnt/disk/jenkins/ci/workspace/chipset_release_960_xloader/opensource/component_code/vendor/huawei/extra/build/build_script/kirin_kernel_release/kernel/arch/arm64/include/asm/cpufeature.h"
	.file 144 "/mnt/disk/jenkins/ci/workspace/chipset_release_960_xloader/opensource/component_code/vendor/huawei/extra/build/build_script/kirin_kernel_release/kernel/arch/arm64/include/asm/virt.h"
	.file 145 "/mnt/disk/jenkins/ci/workspace/chipset_release_960_xloader/opensource/component_code/vendor/huawei/extra/build/build_script/kirin_kernel_release/kernel/include/linux/jiffies.h"
	.file 146 "/mnt/disk/jenkins/ci/workspace/chipset_release_960_xloader/opensource/component_code/vendor/huawei/extra/build/build_script/kirin_kernel_release/kernel/include/linux/highuid.h"
	.file 147 "/mnt/disk/jenkins/ci/workspace/chipset_release_960_xloader/opensource/component_code/vendor/huawei/extra/build/build_script/kirin_kernel_release/kernel/arch/arm64/include/asm/memory.h"
	.file 148 "/mnt/disk/jenkins/ci/workspace/chipset_release_960_xloader/opensource/component_code/vendor/huawei/extra/build/build_script/kirin_kernel_release/kernel/include/asm-generic/percpu.h"
	.file 149 "/mnt/disk/jenkins/ci/workspace/chipset_release_960_xloader/opensource/component_code/vendor/huawei/extra/build/build_script/kirin_kernel_release/kernel/include/linux/debug_locks.h"
	.file 150 "/mnt/disk/jenkins/ci/workspace/chipset_release_960_xloader/opensource/component_code/vendor/huawei/extra/build/build_script/kirin_kernel_release/kernel/include/asm-generic/pgtable.h"
	.file 151 "/mnt/disk/jenkins/ci/workspace/chipset_release_960_xloader/opensource/component_code/vendor/huawei/extra/build/build_script/kirin_kernel_release/kernel/arch/arm64/include/asm/irq.h"
	.file 152 "/mnt/disk/jenkins/ci/workspace/chipset_release_960_xloader/opensource/component_code/vendor/huawei/extra/build/build_script/kirin_kernel_release/kernel/arch/arm64/include/asm/hardirq.h"
	.file 153 "/mnt/disk/jenkins/ci/workspace/chipset_release_960_xloader/opensource/component_code/vendor/huawei/extra/build/build_script/kirin_kernel_release/kernel/include/linux/slab.h"
	.file 154 "/mnt/disk/jenkins/ci/workspace/chipset_release_960_xloader/opensource/component_code/vendor/huawei/extra/build/build_script/kirin_kernel_release/kernel/include/linux/interrupt.h"
	.file 155 "/mnt/disk/jenkins/ci/workspace/chipset_release_960_xloader/opensource/component_code/vendor/huawei/extra/build/build_script/kirin_kernel_release/kernel/drivers/vcodec/hi_vcodec/vdec/vfmw/vfmw_v4.0/firmware/common/syntax/syntax.h"
	.file 156 "/mnt/disk/jenkins/ci/workspace/chipset_release_960_xloader/opensource/component_code/vendor/huawei/extra/build/build_script/kirin_kernel_release/kernel/drivers/vcodec/hi_vcodec/vdec/vfmw/vfmw_v4.0/firmware/common/vfmw_ctrl.h"
	.section	.note.GNU-stack,"",%progbits
