	.cpu generic+fp+simd
	.file	"vp6.c"
	.text
.Ltext0:
	.cfi_sections	.debug_frame
	.align	2
	.global	Vp6_Vfmw_DecodeBool
	.type	Vp6_Vfmw_DecodeBool, %function
Vp6_Vfmw_DecodeBool:
.LFB2638:
	.file 1 "/mnt/disk/jenkins/ci/workspace/chipset_release_960_xloader/opensource/component_code/vendor/huawei/extra/build/build_script/kirin_kernel_release/kernel/drivers/vcodec/hi_vcodec/vdec/vfmw/vfmw_v4.0/firmware/common/syntax/vp6.c"
	.loc 1 318 0
	.cfi_startproc
.LVL0:
	stp	x29, x30, [sp, -64]!
	.cfi_def_cfa_offset 64
	.cfi_offset 29, -64
	.cfi_offset 30, -56
	uxtb	w2, w2
	add	x29, sp, 0
	.cfi_def_cfa_register 29
	stp	x21, x22, [sp,32]
	stp	x19, x20, [sp,16]
	str	x23, [sp,48]
	.cfi_offset 21, -32
	.cfi_offset 22, -24
	.cfi_offset 19, -48
	.cfi_offset 20, -40
	.cfi_offset 23, -16
	.loc 1 318 0
	mov	x22, x0
	mov	x21, x1
	.loc 1 319 0
	mov	w23, 0
.LVL1:
	.loc 1 323 0
	ldr	w3, [x1,4]
	.loc 1 324 0
	ldr	w20, [x1,8]
	.loc 1 326 0
	sub	w0, w3, #1
.LVL2:
	.loc 1 322 0
	ldr	w1, [x1,12]
.LVL3:
	.loc 1 326 0
	mul	w2, w2, w0
.LVL4:
	lsr	w19, w2, 8
	add	w19, w19, 1
	.loc 1 328 0
	lsl	w0, w19, 16
.LVL5:
	.loc 1 331 0
	cmp	w20, w0
	bcc	.L2
	.loc 1 333 0
	sub	w19, w3, w19
	.loc 1 334 0
	sub	w20, w20, w0
	.loc 1 335 0
	mov	w23, 1
.L2:
	.loc 1 338 0
	cmp	w19, 127
	bls	.L8
	b	.L10
.LVL6:
.L5:
	.loc 1 357 0
	cmp	w19, 127
	bhi	.L12
.L8:
	.loc 1 351 0
	subs	w1, w1, #1
	.loc 1 348 0
	lsl	w19, w19, 1
	.loc 1 349 0
	lsl	w20, w20, 1
	.loc 1 351 0
	bne	.L5
	.loc 1 354 0
	mov	w1, 8
.LVL7:
	mov	x0, x22
.LVL8:
	bl	BsGet
.LVL9:
	orr	w20, w20, w0
	.loc 1 357 0
	cmp	w19, 127
	.loc 1 353 0
	mov	w1, 8
.LVL10:
	.loc 1 357 0
	bls	.L8
.LVL11:
.L12:
	.loc 1 360 0
	str	w1, [x21,12]
.L10:
	.loc 1 361 0
	str	w20, [x21,8]
	.loc 1 365 0
	mov	w0, w23
.LVL12:
	.loc 1 362 0
	str	w19, [x21,4]
	.loc 1 365 0
	ldp	x19, x20, [sp,16]
	.cfi_restore 20
	.cfi_restore 19
.LVL13:
	ldp	x21, x22, [sp,32]
	.cfi_restore 22
	.cfi_restore 21
.LVL14:
	ldr	x23, [sp,48]
	.cfi_restore 23
.LVL15:
	ldp	x29, x30, [sp], 64
	.cfi_restore 30
	.cfi_restore 29
	.cfi_def_cfa 31, 0
	ret
	.cfi_endproc
.LFE2638:
	.size	Vp6_Vfmw_DecodeBool, .-Vp6_Vfmw_DecodeBool
	.align	2
	.global	Vp6_Vfmw_DecodeBool128
	.type	Vp6_Vfmw_DecodeBool128, %function
Vp6_Vfmw_DecodeBool128:
.LFB2639:
	.loc 1 370 0
	.cfi_startproc
.LVL16:
	stp	x29, x30, [sp, -48]!
	.cfi_def_cfa_offset 48
	.cfi_offset 29, -48
	.cfi_offset 30, -40
	add	x29, sp, 0
	.cfi_def_cfa_register 29
	stp	x19, x20, [sp,16]
	stp	x21, x22, [sp,32]
	.cfi_offset 19, -32
	.cfi_offset 20, -24
	.cfi_offset 21, -16
	.cfi_offset 22, -8
	.loc 1 370 0
	mov	x19, x1
	.loc 1 375 0
	ldr	w20, [x1,4]
	.loc 1 376 0
	ldr	w2, [x1,8]
	.loc 1 378 0
	add	w1, w20, 1
.LVL17:
	.loc 1 374 0
	ldr	w3, [x19,12]
	.loc 1 378 0
	lsr	w1, w1, 1
.LVL18:
	.loc 1 379 0
	lsl	w21, w1, 16
.LVL19:
	.loc 1 381 0
	cmp	w2, w21
	bcc	.L14
	.loc 1 383 0
	sub	w20, w20, w1
	.loc 1 384 0
	sub	w21, w2, w21
.LVL20:
	.loc 1 383 0
	lsl	w20, w20, 1
	.loc 1 384 0
	lsl	w21, w21, 1
	.loc 1 385 0
	mov	w22, 1
.LVL21:
.L15:
	.loc 1 394 0
	subs	w3, w3, #1
	bne	.L16
	.loc 1 397 0
	mov	w1, 8
.LVL22:
	bl	BsGet
.LVL23:
	orr	w21, w21, w0
	.loc 1 396 0
	mov	w3, 8
.LVL24:
.L16:
	.loc 1 399 0
	str	w3, [x19,12]
	.loc 1 404 0
	mov	w0, w22
.LVL25:
	.loc 1 400 0
	str	w21, [x19,8]
	.loc 1 401 0
	str	w20, [x19,4]
	.loc 1 404 0
	ldp	x19, x20, [sp,16]
	.cfi_remember_state
	.cfi_restore 20
	.cfi_restore 19
.LVL26:
	ldp	x21, x22, [sp,32]
	.cfi_restore 22
	.cfi_restore 21
.LVL27:
	ldp	x29, x30, [sp], 48
	.cfi_restore 30
	.cfi_restore 29
	.cfi_def_cfa 31, 0
	ret
.LVL28:
.L14:
	.cfi_restore_state
	.loc 1 389 0
	lsl	w20, w1, 1
	.loc 1 390 0
	lsl	w21, w2, 1
.LVL29:
	.loc 1 391 0
	mov	w22, 0
.LVL30:
	b	.L15
	.cfi_endproc
.LFE2639:
	.size	Vp6_Vfmw_DecodeBool128, .-Vp6_Vfmw_DecodeBool128
	.align	2
	.global	Vp6_Vfmw_BoolRead
	.type	Vp6_Vfmw_BoolRead, %function
Vp6_Vfmw_BoolRead:
.LFB2640:
	.loc 1 409 0
	.cfi_startproc
.LVL31:
	stp	x29, x30, [sp, -80]!
	.cfi_def_cfa_offset 80
	.cfi_offset 29, -80
	.cfi_offset 30, -72
	add	x29, sp, 0
	.cfi_def_cfa_register 29
	stp	x21, x22, [sp,32]
	stp	x19, x20, [sp,16]
	stp	x23, x24, [sp,48]
	str	x25, [sp,64]
	.cfi_offset 21, -48
	.cfi_offset 22, -40
	.cfi_offset 19, -64
	.cfi_offset 20, -56
	.cfi_offset 23, -32
	.cfi_offset 24, -24
	.cfi_offset 25, -16
	.loc 1 413 0 discriminator 1
	subs	w22, w2, #1
.LVL32:
	bmi	.L23
	ldr	w3, [x1,12]
	mov	x23, x1
	ldr	w6, [x1,4]
	mov	x19, x0
	ldr	w5, [x1,8]
	mov	w25, 0
.LVL33:
	mov	w20, 1
.LVL34:
.L22:
.LBB82:
.LBB83:
	.loc 1 378 0
	add	w4, w6, 1
	.loc 1 390 0
	lsl	w21, w5, 1
	.loc 1 378 0
	lsr	w4, w4, 1
.LVL35:
	.loc 1 390 0
	mov	w1, 0
	.loc 1 379 0
	lsl	w0, w4, 16
	.loc 1 389 0
	lsl	w24, w4, 1
	.loc 1 381 0
	cmp	w0, w5
	.loc 1 383 0
	sub	w4, w6, w4
.LVL36:
	.loc 1 384 0
	sub	w5, w5, w0
	.loc 1 381 0
	bhi	.L20
	.loc 1 383 0
	lsl	w24, w4, 1
	.loc 1 384 0
	lsl	w21, w5, 1
	lsl	w1, w20, w22
.L20:
	.loc 1 394 0
	subs	w3, w3, #1
.LVL37:
.LBE83:
.LBE82:
	.loc 1 413 0 discriminator 3
	sub	w22, w22, #1
	.loc 1 415 0
	orr	w25, w1, w25
.LBB86:
.LBB84:
	.loc 1 394 0
	bne	.L21
	.loc 1 397 0
	mov	x0, x19
.LVL38:
	mov	w1, 8
	bl	BsGet
.LVL39:
	orr	w21, w21, w0
	.loc 1 396 0
	mov	w3, 8
.LVL40:
.L21:
	.loc 1 399 0
	str	w3, [x23,12]
.LBE84:
.LBE86:
	.loc 1 413 0 discriminator 1
	cmn	w22, #1
.LBB87:
.LBB85:
	.loc 1 400 0
	str	w21, [x23,8]
	mov	w6, w24
	.loc 1 401 0
	str	w24, [x23,4]
	mov	w5, w21
.LBE85:
.LBE87:
	.loc 1 413 0 discriminator 1
	bne	.L22
.LVL41:
.L18:
	.loc 1 419 0
	mov	w0, w25
.LVL42:
	ldr	x25, [sp,64]
	.cfi_remember_state
	.cfi_restore 25
.LVL43:
	ldp	x19, x20, [sp,16]
	.cfi_restore 20
	.cfi_restore 19
.LVL44:
	ldp	x21, x22, [sp,32]
	.cfi_restore 22
	.cfi_restore 21
.LVL45:
	ldp	x23, x24, [sp,48]
	.cfi_restore 24
	.cfi_restore 23
.LVL46:
	ldp	x29, x30, [sp], 80
	.cfi_restore 30
	.cfi_restore 29
	.cfi_def_cfa 31, 0
	ret
.LVL47:
.L23:
	.cfi_restore_state
	.loc 1 411 0
	mov	w25, 0
.LVL48:
	b	.L18
	.cfi_endproc
.LFE2640:
	.size	Vp6_Vfmw_BoolRead, .-Vp6_Vfmw_BoolRead
	.align	2
	.global	Vp6_Vfmw_StartDecode
	.type	Vp6_Vfmw_StartDecode, %function
Vp6_Vfmw_StartDecode:
.LFB2641:
	.loc 1 423 0
	.cfi_startproc
.LVL49:
	stp	x29, x30, [sp, -32]!
	.cfi_def_cfa_offset 32
	.cfi_offset 29, -32
	.cfi_offset 30, -24
	.loc 1 425 0
	mov	w2, 255
	.loc 1 423 0
	add	x29, sp, 0
	.cfi_def_cfa_register 29
	str	x19, [sp,16]
	.cfi_offset 19, -16
	.loc 1 423 0
	mov	x19, x1
	.loc 1 427 0
	mov	w1, 24
.LVL50:
	.loc 1 425 0
	str	w2, [x19,4]
	.loc 1 426 0
	mov	w2, 8
	.loc 1 424 0
	str	wzr, [x19]
	.loc 1 426 0
	str	w2, [x19,12]
	.loc 1 427 0
	bl	BsGet
.LVL51:
	str	w0, [x19,8]
	.loc 1 428 0
	ldr	x19, [sp,16]
	.cfi_restore 19
.LVL52:
	ldp	x29, x30, [sp], 32
	.cfi_restore 30
	.cfi_restore 29
	.cfi_def_cfa 31, 0
	ret
	.cfi_endproc
.LFE2641:
	.size	Vp6_Vfmw_StartDecode, .-Vp6_Vfmw_StartDecode
	.align	2
	.global	VP6_ArrangeVHBMem
	.type	VP6_ArrangeVHBMem, %function
VP6_ArrangeVHBMem:
.LFB2642:
	.loc 1 431 0
	.cfi_startproc
.LVL53:
	stp	x29, x30, [sp, -80]!
	.cfi_def_cfa_offset 80
	.cfi_offset 29, -80
	.cfi_offset 30, -72
	add	x29, sp, 0
	.cfi_def_cfa_register 29
	stp	x19, x20, [sp,16]
	.cfi_offset 19, -64
	.cfi_offset 20, -56
	.loc 1 431 0
	mov	x20, x0
	.loc 1 440 0
	add	x0, x0, 12288
.LVL54:
	add	x0, x0, 252
	.loc 1 431 0
	adrp	x19, __stack_chk_guard
	.loc 1 440 0
	ldr	w3, [x0,24]
	.loc 1 431 0
	ldr	x1, [x19,#:lo12:__stack_chk_guard]
	str	x1, [x29,72]
	.loc 1 440 0
	cmp	w3, 2
	ldr	w2, [x0,28]
	bls	.L28
	.loc 1 440 0 is_stmt 0 discriminator 1
	sub	w0, w2, #3
	.loc 1 440 0 discriminator 3
	cmp	w0, 509
	bhi	.L28
	cmp	w3, 512
	bhi	.L28
	.loc 1 446 0 is_stmt 1
	ldr	x1, [x20]
	ldr	w0, [x1,772]
	cbnz	w0, .L32
	.loc 1 446 0 is_stmt 0 discriminator 1
	ldr	w0, [x1,28]
	cmp	w0, 25
	beq	.L60
.L33:
	.loc 1 511 0 is_stmt 1
	stp	xzr, xzr, [x29,48]
	.loc 1 479 0
	lsl	w2, w2, 4
	.loc 1 480 0
	lsl	w3, w3, 4
	.loc 1 512 0
	str	w2, [x29,52]
	.loc 1 516 0
	cmp	w0, 24
	.loc 1 513 0
	str	w3, [x29,56]
	.loc 1 514 0
	str	w2, [x29,60]
	.loc 1 515 0
	str	w3, [x29,64]
	.loc 1 516 0
	beq	.L61
	.loc 1 482 0
	mov	w0, 3
.LVL55:
	mov	w6, 5
	.loc 1 481 0
	mov	w3, w0
.LVL56:
.L40:
	.loc 1 516 0 discriminator 1
	strb	w3, [x29,49]
	.loc 1 518 0 discriminator 1
	sxtb	w2, w0
.L41:
	.loc 1 520 0
	ldr	w0, [x20,13344]
.LVL57:
	add	x1, x29, 48
	strb	w6, [x29,50]
	.loc 1 518 0 discriminator 4
	strb	w2, [x29,51]
	.loc 1 520 0
	bl	FSP_ConfigInstance
.LVL58:
	cbnz	w0, .L46
.LBB88:
	.loc 1 523 0
	ldr	x2, [x20]
	add	x3, x29, 44
	ldr	w0, [x20,13344]
	ldr	w1, [x2,20]
	ldr	w2, [x2,24]
	bl	FSP_PartitionFsMemory
.LVL59:
	.loc 1 525 0
	cbz	w0, .L62
.LBE88:
	.loc 1 534 0
	mov	w0, 0
	b	.L31
.L28:
	.loc 1 442 0
	adrp	x1, .LC0
	mov	w0, 0
	add	x1, x1, :lo12:.LC0
	bl	dprint_linux_kernel
.LVL60:
	.loc 1 443 0
	mov	w0, 0
.L31:
	.loc 1 539 0
	ldr	x2, [x29,72]
	ldr	x1, [x19,#:lo12:__stack_chk_guard]
	cmp	x2, x1
	bne	.L63
	ldp	x19, x20, [sp,16]
	.cfi_remember_state
	.cfi_restore 20
	.cfi_restore 19
.LVL61:
	ldp	x29, x30, [sp], 80
	.cfi_restore 30
	.cfi_restore 29
	.cfi_def_cfa 31, 0
	ret
.LVL62:
.L32:
	.cfi_restore_state
	.loc 1 477 0
	ldr	w0, [x1,28]
	cmp	w0, 25
	bne	.L33
	.loc 1 487 0
	ldr	w4, [x1,732]
	lsl	w2, w2, 4
	ldr	w5, [x1,736]
	lsl	w3, w3, 4
	cmp	w2, w4
	bhi	.L43
	.loc 1 487 0 is_stmt 0 discriminator 1
	cmp	w3, w5
	bhi	.L43
	.loc 1 498 0 is_stmt 1
	ldr	w7, [x1,760]
	.loc 1 494 0
	mov	w4, w2
	.loc 1 497 0
	ldr	w2, [x1,756]
	.loc 1 500 0
	mov	w0, 1
.LVL63:
	.loc 1 495 0
	mov	w5, w3
	.loc 1 497 0
	add	w3, w2, w0
.LVL64:
	.loc 1 498 0
	cbz	w7, .L45
.L59:
	.loc 1 505 0
	cmp	w3, 17
	mov	w0, 17
	csel	w0, w3, w0, le
.LVL65:
.L45:
	.loc 1 511 0
	stp	xzr, xzr, [x29,48]
	ldrsb	w6, [x1,780]
	.loc 1 512 0
	str	w4, [x29,52]
	.loc 1 513 0
	str	w5, [x29,56]
	.loc 1 514 0
	str	w4, [x29,60]
	.loc 1 515 0
	str	w5, [x29,64]
	b	.L40
.LVL66:
.L46:
	.loc 1 533 0
	adrp	x1, .LC2
	mov	w0, 0
	add	x1, x1, :lo12:.LC2
	bl	dprint_linux_kernel
.LVL67:
	.loc 1 534 0
	mov	w0, 0
	b	.L31
.L62:
	.loc 1 536 0
	mov	w0, 1
	str	w0, [x20,12364]
	.loc 1 538 0
	b	.L31
.L61:
	mov	w6, 5
	.loc 1 518 0 discriminator 2
	mov	w2, 1
	b	.L41
.L43:
	.loc 1 489 0
	adrp	x1, .LC1
	mov	w0, 0
	add	x1, x1, :lo12:.LC1
	bl	dprint_linux_kernel
.LVL68:
	.loc 1 492 0
	mov	w0, 0
	b	.L31
.L60:
	.loc 1 448 0
	ldr	w4, [x1,732]
	lsl	w2, w2, 4
	ldr	w5, [x1,736]
	lsl	w3, w3, 4
	cmp	w2, w4
	bhi	.L43
	.loc 1 448 0 is_stmt 0 discriminator 1
	cmp	w3, w5
	bhi	.L43
	.loc 1 460 0 is_stmt 1
	ldr	w0, [x20,12364]
	cmp	w0, 1
	beq	.L31
	.loc 1 466 0
	ldr	w2, [x1,760]
	.loc 1 468 0
	mov	w0, 1
.LVL69:
	.loc 1 465 0
	ldr	w3, [x1,756]
	add	w3, w3, w0
.LVL70:
	.loc 1 466 0
	cbz	w2, .L45
	b	.L59
.LVL71:
.L63:
	.loc 1 539 0
	bl	__stack_chk_fail
.LVL72:
	.cfi_endproc
.LFE2642:
	.size	VP6_ArrangeVHBMem, .-VP6_ArrangeVHBMem
	.align	2
	.global	VP6_GetImageBuffer
	.type	VP6_GetImageBuffer, %function
VP6_GetImageBuffer:
.LFB2643:
	.loc 1 550 0
	.cfi_startproc
.LVL73:
	stp	x29, x30, [sp, -32]!
	.cfi_def_cfa_offset 32
	.cfi_offset 29, -32
	.cfi_offset 30, -24
	.loc 1 557 0
	mov	w1, 1
	.loc 1 550 0
	add	x29, sp, 0
	.cfi_def_cfa_register 29
	stp	x19, x20, [sp,16]
	.cfi_offset 19, -16
	.cfi_offset 20, -8
	.loc 1 557 0
	add	x20, x0, 288
	.loc 1 550 0
	mov	x19, x0
	.loc 1 557 0
	ldr	w0, [x0,13344]
.LVL74:
	bl	FSP_NewLogicFs
.LVL75:
	mov	w1, w0
	str	w0, [x20,12088]
	.loc 1 558 0
	tbnz	w1, #31, .L71
	.loc 1 567 0
	ldr	w0, [x19,13344]
	bl	FSP_GetLogicFs
.LVL76:
	mov	x19, x0
.LVL77:
	.loc 1 568 0
	cbz	x0, .L72
	.loc 1 574 0
	ldr	w2, [x20,12088]
	adrp	x1, .LC5
	mov	w0, 18
	add	x1, x1, :lo12:.LC5
	bl	dprint_linux_kernel
.LVL78:
	.loc 1 575 0
	ldr	x0, [x19,296]
	cbz	x0, .L70
	.loc 1 575 0 is_stmt 0 discriminator 1
	ldr	x0, [x19,304]
	cbz	x0, .L70
	.loc 1 575 0 discriminator 2
	ldr	x1, [x19,312]
	cbz	x1, .L70
	.loc 1 577 0 is_stmt 1
	ldr	w0, [x0,20]
	.loc 1 578 0
	adrp	x1, .LC6
	.loc 1 577 0
	str	w0, [x20,12104]
	.loc 1 578 0
	add	x1, x1, :lo12:.LC6
	mov	w0, 18
	ldr	x2, [x19,296]
	ldr	x3, [x19,304]
	ldr	x4, [x19,312]
	ldr	w2, [x2,12]
	ldr	w3, [x3,12]
	ldr	w4, [x4,12]
	bl	dprint_linux_kernel
.LVL79:
	.loc 1 585 0
	mov	w0, 1
.L66:
	.loc 1 587 0
	ldp	x19, x20, [sp,16]
	.cfi_remember_state
	.cfi_restore 20
	.cfi_restore 19
.LVL80:
	ldp	x29, x30, [sp], 32
	.cfi_restore 30
	.cfi_restore 29
	.cfi_def_cfa 31, 0
	ret
.LVL81:
.L70:
	.cfi_restore_state
	.loc 1 582 0
	mov	w0, 0
	.loc 1 587 0
	ldp	x19, x20, [sp,16]
	.cfi_remember_state
	.cfi_restore 19
	.cfi_restore 20
.LVL82:
	ldp	x29, x30, [sp], 32
	.cfi_restore 29
	.cfi_restore 30
	.cfi_def_cfa 31, 0
	ret
.LVL83:
.L71:
	.cfi_restore_state
	.loc 1 561 0
	adrp	x1, .LC3
	mov	w0, 0
	add	x1, x1, :lo12:.LC3
	bl	dprint_linux_kernel
.LVL84:
	.loc 1 562 0
	ldr	w0, [x19,13344]
	mov	w2, 1
	ldr	w1, [x20,12092]
	bl	FSP_ClearLogicFs
.LVL85:
	.loc 1 562 0 is_stmt 0 discriminator 1
	ldr	w1, [x20,12096]
	mov	w2, 1
	ldr	w0, [x19,13344]
	bl	FSP_ClearLogicFs
.LVL86:
	.loc 1 562 0
	str	wzr, [x20,12092]
	str	wzr, [x20,12096]
	.loc 1 562 0 discriminator 2
	ldr	w0, [x19,13344]
	bl	FSP_GetNullLogicFs
.LVL87:
	.loc 1 563 0 is_stmt 1
	str	wzr, [x20,12072]
	.loc 1 562 0
	str	w0, [x20,12096]
	.loc 1 564 0
	add	x1, x19, 12288
	.loc 1 562 0
	str	w0, [x20,12092]
	.loc 1 564 0
	add	x1, x1, 440
	ldr	w0, [x19,13344]
	bl	FSP_ClearNotInVoQueue
.LVL88:
	.loc 1 565 0
	mov	w0, 0
	.loc 1 587 0
	ldp	x19, x20, [sp,16]
	.cfi_remember_state
	.cfi_restore 19
	.cfi_restore 20
.LVL89:
	ldp	x29, x30, [sp], 32
	.cfi_restore 29
	.cfi_restore 30
	.cfi_def_cfa 31, 0
	ret
.LVL90:
.L72:
	.cfi_restore_state
	.loc 1 570 0
	adrp	x1, .LC4
	mov	w0, 22
.LVL91:
	add	x1, x1, :lo12:.LC4
	mov	w2, 570
	bl	dprint_linux_kernel
.LVL92:
	.loc 1 571 0
	mov	w0, 0
	b	.L66
	.cfi_endproc
.LFE2643:
	.size	VP6_GetImageBuffer, .-VP6_GetImageBuffer
	.align	2
	.global	VP6DEC_GetImageBuffer
	.type	VP6DEC_GetImageBuffer, %function
VP6DEC_GetImageBuffer:
.LFB2644:
	.loc 1 590 0
	.cfi_startproc
.LVL93:
	stp	x29, x30, [sp, -32]!
	.cfi_def_cfa_offset 32
	.cfi_offset 29, -32
	.cfi_offset 30, -24
	add	x29, sp, 0
	.cfi_def_cfa_register 29
	stp	x19, x20, [sp,16]
	.cfi_offset 19, -16
	.cfi_offset 20, -8
	.loc 1 590 0
	mov	x20, x0
	.loc 1 591 0
	ldr	w0, [x0,13344]
.LVL94:
	bl	FSP_IsNewFsAvalible
.LVL95:
	cmp	w0, 1
	mov	w19, w0
	beq	.L74
	.loc 1 595 0
	ldr	w0, [x20,13344]
	.loc 1 600 0
	mov	w19, 0
	.loc 1 595 0
	bl	FSP_IsNewFsAvalible
.LVL96:
	cmn	w0, #1
	beq	.L79
.L74:
	.loc 1 601 0
	mov	w0, w19
	ldp	x19, x20, [sp,16]
	.cfi_remember_state
	.cfi_restore 20
	.cfi_restore 19
.LVL97:
	ldp	x29, x30, [sp], 32
	.cfi_restore 30
	.cfi_restore 29
	.cfi_def_cfa 31, 0
	ret
.LVL98:
.L79:
	.cfi_restore_state
	.loc 1 597 0
	add	x1, x20, 12288
	ldr	w0, [x20,13344]
	add	x1, x1, 440
	bl	FSP_ClearNotInVoQueue
.LVL99:
	.loc 1 601 0
	mov	w0, w19
	ldp	x19, x20, [sp,16]
	.cfi_restore 19
	.cfi_restore 20
.LVL100:
	ldp	x29, x30, [sp], 32
	.cfi_restore 29
	.cfi_restore 30
	.cfi_def_cfa 31, 0
	ret
	.cfi_endproc
.LFE2644:
	.size	VP6DEC_GetImageBuffer, .-VP6DEC_GetImageBuffer
	.align	2
	.global	VP6_BuildScanOrder
	.type	VP6_BuildScanOrder, %function
VP6_BuildScanOrder:
.LFB2645:
	.loc 1 621 0
	.cfi_startproc
.LVL101:
	.loc 1 623 0
	mov	w6, 1
.LVL102:
	.loc 1 631 0
	mov	w5, 0
.LVL103:
	add	x7, x0, 1089
	.loc 1 627 0
	strb	wzr, [x0,960]
.L81:
	mov	x3, x7
	.loc 1 621 0
	mov	w2, 1
	b	.L83
.L82:
	.loc 1 633 0 discriminator 2
	add	w2, w2, 1
	.loc 1 633 0 is_stmt 0 discriminator 1
	cmp	w2, 64
	beq	.L91
.L83:
	.loc 1 635 0 is_stmt 1
	ldrb	w4, [x3]
	add	x3, x3, 1
	cmp	w4, w5
	bne	.L82
	.loc 1 637 0
	add	x4, x0, x6, uxtw
	strb	w2, [x4,960]
	.loc 1 633 0 discriminator 2
	add	w2, w2, 1
	.loc 1 637 0
	add	w6, w6, 1
	.loc 1 633 0 discriminator 1
	cmp	w2, 64
	bne	.L83
.L91:
	.loc 1 631 0 discriminator 2
	add	w5, w5, 1
	.loc 1 631 0 is_stmt 0 discriminator 1
	cmp	w5, 16
	bne	.L81
	add	x9, x0, 64
	mov	x8, x0
.L84:
	mov	w7, w0
	sub	w6, w8, w0
.LVL104:
	.loc 1 631 0
	mov	x2, x0
	mov	w3, 0
.L85:
	.loc 1 651 0 is_stmt 1
	ldrb	w4, [x2,960]
	add	x2, x2, 1
	sub	w5, w2, w7
.LVL105:
	cmp	w3, w4
	csel	w3, w3, w4, cs
	.loc 1 649 0 discriminator 1
	cmp	w5, w6
	bls	.L85
	.loc 1 657 0
	uxtb	w3, w3
	strb	w3, [x8,1024]
	.loc 1 659 0
	ldr	w2, [x1,12]
	cmp	w2, 6
	bls	.L86
	.loc 1 661 0
	add	w3, w3, 1
	strb	w3, [x8,1024]
.L86:
	add	x8, x8, 1
	.loc 1 646 0 discriminator 1
	cmp	x8, x9
	bne	.L84
	.loc 1 664 0
	ret
	.cfi_endproc
.LFE2645:
	.size	VP6_BuildScanOrder, .-VP6_BuildScanOrder
	.align	2
	.global	VP6_BuildModeTree
	.type	VP6_BuildModeTree, %function
VP6_BuildModeTree:
.LFB2646:
	.loc 1 681 0
	.cfi_startproc
.LVL106:
	sub	sp, sp, #128
	.cfi_def_cfa_offset 128
	add	x1, x0, 44
.LVL107:
.LBB89:
	.loc 1 699 0
	mov	x9, 0
.LBE89:
	.loc 1 681 0
	stp	x19, x20, [sp]
	str	x0, [sp,112]
	.cfi_offset 19, -128
	.cfi_offset 20, -120
.LBB90:
	.loc 1 703 0
	mov	w20, 100
	str	x1, [sp,96]
	add	x1, x0, 404
.LBE90:
	.loc 1 681 0
	stp	x21, x22, [sp,16]
	add	x0, x0, 464
.LVL108:
	str	x1, [sp,120]
	stp	x23, x24, [sp,32]
	stp	x25, x26, [sp,48]
	stp	x27, x28, [sp,64]
	.cfi_offset 21, -112
	.cfi_offset 22, -104
	.cfi_offset 23, -96
	.cfi_offset 24, -88
	.cfi_offset 25, -80
	.cfi_offset 26, -72
	.cfi_offset 27, -64
	.cfi_offset 28, -56
	str	x0, [sp,104]
.L93:
	ldr	x0, [sp,112]
.LVL109:
	ldr	x14, [sp,120]
.LBB91:
	.loc 1 699 0
	ldr	x22, [sp,96]
	add	x10, x0, x9
.L107:
	.loc 1 697 0
	cbz	x9, .L115
	.loc 1 703 0
	ldrb	w3, [x14]
	.loc 1 697 0
	cmp	w9, 1
	.loc 1 703 0
	mul	w3, w3, w20
	.loc 1 697 0
	beq	.L119
.L95:
	.loc 1 703 0
	ldrb	w2, [x14,1]
	.loc 1 697 0
	cmp	x9, 2
	add	w1, w3, 1
	.loc 1 703 0
	mul	w2, w2, w20
	.loc 1 697 0
	beq	.L97
.L108:
	.loc 1 703 0
	ldrb	w6, [x14,2]
	.loc 1 697 0
	cmp	x9, 3
	add	w0, w1, w2
.LVL110:
	.loc 1 703 0
	mul	w6, w6, w20
	.loc 1 697 0
	beq	.L98
.L109:
	.loc 1 703 0
	ldrb	w4, [x14,3]
	.loc 1 697 0
	cmp	x9, 4
	add	w1, w0, w6
	.loc 1 703 0
	mul	w4, w4, w20
	.loc 1 697 0
	beq	.L99
.L110:
	.loc 1 703 0
	ldrb	w13, [x14,4]
	.loc 1 697 0
	cmp	x9, 5
	add	w0, w1, w4
	.loc 1 703 0
	mul	w13, w13, w20
	.loc 1 697 0
	beq	.L100
.L111:
	.loc 1 703 0
	ldrb	w5, [x14,5]
	.loc 1 697 0
	cmp	x9, 6
	add	w0, w0, w13
	.loc 1 703 0
	mul	w5, w5, w20
	.loc 1 697 0
	beq	.L101
.L112:
	.loc 1 703 0
	ldrb	w7, [x14,6]
	.loc 1 697 0
	cmp	x9, 7
	add	w0, w0, w5
	.loc 1 703 0
	mul	w7, w7, w20
	.loc 1 697 0
	beq	.L102
.L113:
	.loc 1 703 0
	ldrb	w16, [x14,7]
	.loc 1 697 0
	cmp	x9, 8
	add	w0, w0, w7
	.loc 1 703 0
	mul	w16, w16, w20
	.loc 1 697 0
	beq	.L103
.L114:
	.loc 1 703 0
	ldrb	w1, [x14,8]
	.loc 1 697 0
	cmp	x9, 9
	add	w0, w0, w16
	.loc 1 703 0
	mul	w1, w1, w20
	.loc 1 697 0
	beq	.L120
.L105:
	.loc 1 703 0
	ldrb	w17, [x14,9]
	mul	w17, w17, w20
.L104:
	add	x15, x14, x9
	.loc 1 713 0
	ldrb	w12, [x14,x9]
	add	w7, w5, w7
	.loc 1 745 0
	add	w8, w2, w16
	add	w11, w4, w13
	add	w23, w7, 1
	.loc 1 710 0
	ldrb	w15, [x15,10]
	add	w18, w8, w23
	.loc 1 721 0
	add	w6, w6, w3
	add	w21, w1, 1
	.loc 1 712 0
	add	w13, w15, 1
	.loc 1 710 0
	lsl	w24, w15, 8
	sub	w15, w24, w15
	.loc 1 713 0
	add	w12, w13, w12
	.loc 1 710 0
	str	w15, [sp,88]
	add	w0, w0, w1
	.loc 1 713 0
	str	w12, [sp,92]
	add	w18, w18, w1
	.loc 1 778 0
	lsl	w26, w2, 8
	.loc 1 811 0
	lsl	w24, w1, 8
	.loc 1 723 0
	add	w19, w11, w6
	add	w21, w17, w21
	.loc 1 726 0
	add	w0, w0, w17
	.loc 1 754 0
	add	w18, w17, w18
	.loc 1 778 0
	sub	w26, w26, w2
	.loc 1 711 0
	ldr	w17, [sp,92]
	.loc 1 811 0
	sub	w2, w24, w1
	.loc 1 711 0
	ldr	w1, [sp,88]
	.loc 1 719 0
	lsl	w16, w19, 8
	.loc 1 730 0
	lsl	w15, w6, 8
	.loc 1 743 0
	lsl	w13, w8, 8
	.loc 1 788 0
	lsl	w12, w7, 8
	.loc 1 758 0
	lsl	w28, w3, 8
	.loc 1 768 0
	lsl	w27, w4, 8
	.loc 1 801 0
	lsl	w25, w5, 8
	.loc 1 719 0
	sub	w16, w16, w19
	.loc 1 730 0
	sub	w15, w15, w6
	.loc 1 743 0
	sub	w13, w13, w8
	.loc 1 788 0
	sub	w12, w12, w7
	.loc 1 739 0
	add	w19, w19, 1
	.loc 1 797 0
	add	w7, w21, w7
	.loc 1 758 0
	sub	w3, w28, w3
	.loc 1 764 0
	add	w6, w6, 1
	.loc 1 768 0
	sub	w4, w27, w4
	.loc 1 774 0
	add	w11, w11, 1
	.loc 1 784 0
	add	w8, w8, 1
	.loc 1 801 0
	sub	w5, w25, w5
	add	x10, x10, 10
	add	x22, x22, 90
	add	x14, x14, 20
	.loc 1 711 0
	sdiv	w1, w1, w17
	.loc 1 692 0 discriminator 1
	ldr	x17, [sp,104]
	.loc 1 709 0
	mvn	w1, w1
	strb	w1, [x10,-6]
	.loc 1 692 0 discriminator 1
	cmp	x14, x17
	.loc 1 725 0
	udiv	w0, w16, w0
	.loc 1 719 0
	add	w0, w0, 1
	strb	w0, [x22,-90]
	.loc 1 734 0
	udiv	w19, w15, w19
	.loc 1 730 0
	add	w19, w19, 1
	strb	w19, [x22,-89]
	.loc 1 747 0
	udiv	w13, w13, w18
	.loc 1 743 0
	add	w13, w13, 1
	strb	w13, [x22,-88]
	.loc 1 761 0
	udiv	w3, w3, w6
	.loc 1 758 0
	add	w3, w3, 1
	strb	w3, [x22,-87]
	.loc 1 771 0
	udiv	w4, w4, w11
	.loc 1 768 0
	add	w4, w4, 1
	strb	w4, [x22,-86]
	.loc 1 781 0
	udiv	w8, w26, w8
	.loc 1 778 0
	add	w8, w8, 1
	strb	w8, [x22,-85]
	.loc 1 792 0
	udiv	w7, w12, w7
	.loc 1 788 0
	add	w7, w7, 1
	strb	w7, [x22,-84]
	.loc 1 804 0
	udiv	w23, w5, w23
	.loc 1 801 0
	add	w23, w23, 1
	strb	w23, [x22,-83]
	.loc 1 814 0
	udiv	w21, w2, w21
	.loc 1 811 0
	add	w21, w21, 1
	strb	w21, [x22,-82]
	.loc 1 692 0 discriminator 1
	bne	.L107
	ldr	x0, [sp,96]
	add	x9, x9, 1
.LBE91:
	.loc 1 686 0 discriminator 1
	cmp	x9, 10
	add	x0, x0, 9
	str	x0, [sp,96]
	bne	.L93
	.loc 1 822 0
	ldp	x19, x20, [sp]
	.cfi_remember_state
	.cfi_restore 20
	.cfi_restore 19
	ldp	x21, x22, [sp,16]
	.cfi_restore 22
	.cfi_restore 21
	ldp	x23, x24, [sp,32]
	.cfi_restore 24
	.cfi_restore 23
	ldp	x25, x26, [sp,48]
	.cfi_restore 26
	.cfi_restore 25
	ldp	x27, x28, [sp,64]
	.cfi_restore 28
	.cfi_restore 27
	add	sp, sp, 128
	.cfi_def_cfa_offset 0
	ret
.LVL111:
.L115:
	.cfi_restore_state
.LBB92:
	.loc 1 699 0
	mov	w3, 0
	b	.L95
.LVL112:
.L120:
	mov	w17, 0
	b	.L104
.L103:
	add	w0, w16, w0
	mov	w1, 0
	b	.L105
.L102:
	add	w0, w7, w0
	mov	w16, 0
	b	.L114
.L101:
	add	w0, w5, w0
	mov	w7, 0
	b	.L113
.L100:
	add	w0, w13, w0
	mov	w5, 0
	b	.L112
.L99:
	add	w0, w4, w1
	mov	w13, 0
	b	.L111
.L98:
	add	w1, w6, w0
	mov	w4, 0
	b	.L110
.LVL113:
.L97:
	add	w0, w1, w2
.LVL114:
	mov	w6, 0
	b	.L109
.LVL115:
.L119:
	add	w1, w3, 1
	mov	w2, 0
	b	.L108
.LBE92:
	.cfi_endproc
.LFE2646:
	.size	VP6_BuildModeTree, .-VP6_BuildModeTree
	.align	2
	.global	VP6_ConfigureContexts
	.type	VP6_ConfigureContexts, %function
VP6_ConfigureContexts:
.LFB2647:
	.loc 1 840 0
	.cfi_startproc
.LVL116:
	sub	sp, sp, #80
	.cfi_def_cfa_offset 80
	.loc 1 847 0
	mov	w16, 0
	.loc 1 856 0
	mov	w5, 255
	.loc 1 840 0
	stp	x19, x20, [sp]
	stp	x21, x22, [sp,16]
	stp	x23, x24, [sp,32]
	stp	x25, x26, [sp,48]
	stp	x27, x28, [sp,64]
	.cfi_offset 19, -80
	.cfi_offset 20, -72
	.cfi_offset 21, -64
	.cfi_offset 22, -56
	.cfi_offset 23, -48
	.cfi_offset 24, -40
	.cfi_offset 25, -32
	.cfi_offset 26, -24
	.cfi_offset 27, -16
	.cfi_offset 28, -8
.L122:
	lsl	w25, w16, 4
	lsl	w13, w16, 5
	sub	w1, w25, w16, lsl 2
.LVL117:
	add	w13, w13, w16
	sub	w25, w1, w16
	adrp	x1, .LANCHOR0
	.loc 1 854 0
	add	w15, w25, 1
	add	w14, w25, 2
	add	w12, w25, 3
	add	w11, w25, 4
	.loc 1 865 0
	add	w10, w25, 5
	add	w9, w25, 6
	add	w8, w25, 7
	add	w7, w25, 8
	add	w6, w25, 9
	add	w2, w25, 10
	.loc 1 854 0
	add	x15, x0, x15
	add	x14, x0, x14
	add	x12, x0, x12
	add	x11, x0, x11
	.loc 1 865 0
	add	x10, x0, x10
	add	x9, x0, x9
	add	x8, x0, x8
	add	x7, x0, x7
	add	x6, x0, x6
	add	x2, x0, x2
	add	x4, x1, :lo12:.LANCHOR0
	.loc 1 854 0
	ldrb	w24, [x15,514]
	add	x1, x0, x25, uxtw
	ldrb	w23, [x14,514]
	ldrb	w25, [x1,514]
	add	w3, w13, 1
	ldrb	w22, [x12,514]
	add	w13, w13, 34
	ldrb	w21, [x11,514]
	.loc 1 865 0
	ldrb	w20, [x10,514]
	ldrb	w19, [x9,514]
	ldrb	w18, [x8,514]
	ldrb	w17, [x7,514]
	ldrb	w15, [x6,514]
	ldrb	w14, [x2,514]
.L123:
	.loc 1 854 0
	ldr	w1, [x4]
	.loc 1 860 0
	sub	w6, w3, #1
	.loc 1 854 0
	ldr	w2, [x4,4]
	.loc 1 860 0
	add	x6, x0, x6
	add	x4, x4, 8
	add	x27, x0, x3, uxtw
	.loc 1 854 0
	mul	w1, w25, w1
	.loc 1 860 0
	add	w26, w3, 1
	add	w12, w3, 2
	.loc 1 854 0
	add	w1, w1, 128
	.loc 1 860 0
	add	x26, x0, x26
	add	x12, x0, x12
	add	w11, w3, 3
	.loc 1 854 0
	add	w1, w2, w1, asr 8
	.loc 1 865 0
	add	w10, w3, 4
	.loc 1 856 0
	cmp	w1, 255
	.loc 1 860 0
	add	x11, x0, x11
	.loc 1 856 0
	csel	w1, w1, w5, le
	.loc 1 865 0
	add	w9, w3, 5
	.loc 1 857 0
	cmp	w1, wzr
	.loc 1 865 0
	add	x10, x0, x10
	.loc 1 857 0
	csinc	w2, w1, wzr, gt
	.loc 1 860 0
	strb	w2, [x6,1152]
	.loc 1 865 0
	add	w8, w3, 6
	add	x9, x0, x9
	.loc 1 854 0
	ldr	w1, [x4,16]
	.loc 1 865 0
	add	w7, w3, 7
	.loc 1 854 0
	ldr	w28, [x4,20]
	.loc 1 865 0
	add	x8, x0, x8
	add	w6, w3, 8
	add	x7, x0, x7
	.loc 1 854 0
	mul	w1, w24, w1
	.loc 1 865 0
	add	w2, w3, 9
	add	x6, x0, x6
	.loc 1 854 0
	add	w1, w1, 128
	.loc 1 865 0
	add	x2, x0, x2
	add	w3, w3, 11
	.loc 1 854 0
	add	w1, w28, w1, asr 8
	.loc 1 856 0
	cmp	w1, 255
	csel	w1, w1, w5, le
	.loc 1 857 0
	cmp	w1, wzr
	csinc	w1, w1, wzr, gt
	.loc 1 860 0
	strb	w1, [x27,1152]
	.loc 1 854 0
	ldr	w1, [x4,40]
	ldr	w27, [x4,44]
	mul	w1, w23, w1
	add	w1, w1, 128
	add	w1, w27, w1, asr 8
	.loc 1 856 0
	cmp	w1, 255
	csel	w1, w1, w5, le
	.loc 1 857 0
	cmp	w1, wzr
	csinc	w1, w1, wzr, gt
	.loc 1 860 0
	strb	w1, [x26,1152]
	.loc 1 854 0
	ldr	w1, [x4,64]
	ldr	w26, [x4,68]
	mul	w1, w22, w1
	add	w1, w1, 128
	add	w1, w26, w1, asr 8
	.loc 1 856 0
	cmp	w1, 255
	csel	w1, w1, w5, le
	.loc 1 857 0
	cmp	w1, wzr
	csinc	w1, w1, wzr, gt
	.loc 1 860 0
	strb	w1, [x12,1152]
	.loc 1 854 0
	ldr	w1, [x4,88]
	ldr	w12, [x4,92]
	mul	w1, w21, w1
	add	w1, w1, 128
	add	w1, w12, w1, asr 8
	.loc 1 856 0
	cmp	w1, 255
	csel	w1, w1, w5, le
	.loc 1 857 0
	cmp	w1, wzr
	csinc	w1, w1, wzr, gt
	.loc 1 860 0
	strb	w1, [x11,1152]
	.loc 1 865 0
	strb	w20, [x10,1152]
	.loc 1 849 0 discriminator 1
	cmp	w3, w13
	.loc 1 865 0
	strb	w19, [x9,1152]
	strb	w18, [x8,1152]
	strb	w17, [x7,1152]
	strb	w15, [x6,1152]
	strb	w14, [x2,1152]
	.loc 1 849 0 discriminator 1
	bne	.L123
	.loc 1 847 0 discriminator 1
	cbnz	w16, .L121
	mov	w16, 1
	b	.L122
.L121:
	.loc 1 869 0
	ldp	x19, x20, [sp]
	.cfi_restore 20
	.cfi_restore 19
	ldp	x21, x22, [sp,16]
	.cfi_restore 22
	.cfi_restore 21
	ldp	x23, x24, [sp,32]
	.cfi_restore 24
	.cfi_restore 23
	ldp	x25, x26, [sp,48]
	.cfi_restore 26
	.cfi_restore 25
	ldp	x27, x28, [sp,64]
	.cfi_restore 28
	.cfi_restore 27
	add	sp, sp, 80
	.cfi_def_cfa_offset 0
	ret
	.cfi_endproc
.LFE2647:
	.size	VP6_ConfigureContexts, .-VP6_ConfigureContexts
	.align	2
	.global	VP6_ConfigureEntropyDecoder
	.type	VP6_ConfigureEntropyDecoder, %function
VP6_ConfigureEntropyDecoder:
.LFB2648:
	.loc 1 887 0
	.cfi_startproc
.LVL118:
	stp	x29, x30, [sp, -208]!
	.cfi_def_cfa_offset 208
	.cfi_offset 29, -208
	.cfi_offset 30, -200
	mov	x4, x2
	add	x29, sp, 0
	.cfi_def_cfa_register 29
	stp	x27, x28, [sp,80]
	stp	x19, x20, [sp,16]
	str	x2, [x29,104]
	adrp	x2, .LANCHOR0
.LVL119:
	.cfi_offset 27, -128
	.cfi_offset 28, -120
	.cfi_offset 19, -192
	.cfi_offset 20, -184
	add	x27, x2, :lo12:.LANCHOR0
	adrp	x2, __stack_chk_guard
	str	x0, [x29,168]
	.loc 1 895 0
	mov	x0, -9187201950435737472
.LVL120:
	str	x0, [x29,184]
	mov	w0, -32640
	.loc 1 887 0
	ldr	x2, [x2,#:lo12:__stack_chk_guard]
	mov	x20, x1
	.loc 1 895 0
	strh	w0, [x29,192]
	mov	w0, -128
	.loc 1 887 0
	stp	x25, x26, [sp,64]
	.loc 1 895 0
	strb	w0, [x29,194]
	.cfi_offset 25, -144
	.cfi_offset 26, -136
	add	x26, x4, 72
	add	x0, x27, 120
	.loc 1 887 0
	str	w3, [x29,156]
	stp	x21, x22, [sp,32]
	stp	x23, x24, [sp,48]
	.cfi_offset 21, -176
	.cfi_offset 22, -168
	.cfi_offset 23, -160
	.cfi_offset 24, -152
	.loc 1 887 0
	str	x2, [x29,200]
	mov	w19, 1
	.loc 1 898 0
	str	wzr, [x29,144]
	str	x0, [x29,136]
.LVL121:
.L127:
	.loc 1 908 0
	ldr	w0, [x29,144]
	mov	w1, 11
	mov	x24, 0
	lsl	w21, w0, 4
.LVL122:
	sub	w21, w21, w0, lsl 2
	umull	x22, w0, w1
	sub	w0, w21, w0
	str	w0, [x29,160]
	ldr	x0, [x29,136]
	add	x22, x0, x22
.LVL123:
.L134:
	.loc 1 903 0
	ldrb	w2, [x22,x24]
	mov	x0, x20
.LVL124:
	mov	x1, x26
	bl	Vp6_Vfmw_DecodeBool
.LVL125:
	cbz	w0, .L128
	ldr	w1, [x26,12]
	mov	w25, 0
	ldr	w3, [x26,4]
	mov	w27, 6
	ldr	w2, [x26,8]
	b	.L132
.LVL126:
.L200:
.LBB111:
.LBB112:
.LBB113:
.LBB114:
	.loc 1 383 0
	sub	w3, w3, w0
	.loc 1 384 0
	sub	w2, w2, w8
	.loc 1 383 0
	lsl	w21, w3, 1
	.loc 1 384 0
	lsl	w28, w2, 1
	lsl	w23, w19, w27
.L130:
	.loc 1 394 0
	subs	w1, w1, #1
.LVL127:
	bne	.L131
	.loc 1 397 0
	mov	w1, 8
.LVL128:
	mov	x0, x20
.LVL129:
	bl	BsGet
.LVL130:
	orr	w28, w28, w0
	.loc 1 396 0
	mov	w1, 8
.LVL131:
.L131:
.LBE114:
.LBE113:
	.loc 1 413 0 discriminator 3
	sub	w27, w27, #1
.LBB118:
.LBB115:
	.loc 1 399 0
	str	w1, [x26,12]
	.loc 1 400 0
	str	w28, [x26,8]
.LBE115:
.LBE118:
	.loc 1 413 0 discriminator 1
	cmn	w27, #1
.LBB119:
.LBB116:
	.loc 1 401 0
	str	w21, [x26,4]
.LBE116:
.LBE119:
	.loc 1 415 0
	orr	w25, w23, w25
	mov	w3, w21
	mov	w2, w28
	.loc 1 413 0 discriminator 1
	beq	.L199
.L132:
.LBB120:
.LBB117:
	.loc 1 378 0
	add	w0, w3, 1
.LVL132:
	lsr	w0, w0, 1
.LVL133:
	.loc 1 379 0
	lsl	w8, w0, 16
	.loc 1 381 0
	cmp	w8, w2
	bls	.L200
	.loc 1 389 0
	lsl	w21, w0, 1
	.loc 1 390 0
	lsl	w28, w2, 1
	mov	w23, 0
	b	.L130
.LVL134:
.L128:
.LBE117:
.LBE120:
.LBE112:
.LBE111:
	.loc 1 911 0
	ldr	w0, [x29,156]
.LVL135:
	cbnz	w0, .L133
	.loc 1 913 0
	ldr	w0, [x29,160]
.LVL136:
	ldr	x1, [x29,168]
.LVL137:
	add	w0, w0, w24
	add	x0, x1, x0
	add	x1, x29, 184
.LVL138:
	ldrb	w1, [x24,x1]
	strb	w1, [x0,514]
.LVL139:
.L133:
	add	x24, x24, 1
	.loc 1 901 0 discriminator 1
	cmp	x24, 11
	bne	.L134
	.loc 1 898 0 discriminator 1
	ldr	w0, [x29,144]
.LVL140:
	cbnz	w0, .L135
	mov	w0, 1
	str	w0, [x29,144]
	b	.L127
.LVL141:
.L199:
	.loc 1 908 0
	ldr	w0, [x29,160]
.LVL142:
	.loc 1 906 0
	ubfiz	w6, w25, 1, 7
	.loc 1 907 0
	cmp	w6, wzr
	add	x2, x29, 184
	.loc 1 908 0
	add	w1, w0, w24
.LVL143:
	ldr	x0, [x29,168]
.LVL144:
	.loc 1 907 0
	csinc	w6, w6, w6, ne
	.loc 1 908 0
	add	x1, x0, x1
	.loc 1 907 0
	uxtb	w0, w6
.LVL145:
	strb	w0, [x24,x2]
	.loc 1 908 0
	strb	w0, [x1,514]
	b	.L133
.L135:
	.loc 1 919 0
	ldr	w0, [x29,156]
.LVL146:
	cbnz	w0, .L136
	.loc 1 921 0
	ldr	x1, [x29,168]
.LVL147:
	adrp	x0, .LANCHOR0
.LVL148:
	add	x0, x0, :lo12:.LANCHOR0
	add	x1, x1, 536
.LVL149:
	ldp	x6, x7, [x0,144]
	ldr	x3, [x0,160]
	ldr	w0, [x0,168]
	stp	x6, x7, [x1]
	str	x3, [x1,16]
	str	w0, [x1,24]
.LVL150:
.L136:
	.loc 1 925 0
	mov	x0, x20
.LVL151:
	mov	x1, x26
	bl	Vp6_Vfmw_DecodeBool128
.LVL152:
	cbz	w0, .L137
	adrp	x0, .LANCHOR0
	add	x22, x0, :lo12:.LANCHOR0
	ldr	x0, [x29,168]
.LVL153:
	add	x27, x22, 177
.LVL154:
	add	x22, x22, 240
	add	x21, x0, 1089
.LVL155:
	b	.L151
.LVL156:
.L202:
.LBB121:
.LBB122:
.LBB123:
.LBB124:
	.loc 1 389 0
	lsl	w28, w28, 1
	.loc 1 390 0
	lsl	w19, w19, 1
	mov	w24, 0
.L140:
	.loc 1 394 0
	subs	w1, w1, #1
	bne	.L141
	.loc 1 397 0
	mov	w1, 8
	mov	x0, x20
	bl	BsGet
.LVL157:
	orr	w19, w19, w0
	.loc 1 396 0
	mov	w1, 8
.L141:
	.loc 1 378 0
	lsr	w23, w28, 1
	.loc 1 399 0
	str	w1, [x26,12]
	.loc 1 379 0
	lsl	w0, w23, 16
	.loc 1 400 0
	str	w19, [x26,8]
	.loc 1 401 0
	str	w28, [x26,4]
	.loc 1 381 0
	cmp	w0, w19
	bls	.L142
	.loc 1 389 0
	lsl	w23, w23, 1
	.loc 1 390 0
	lsl	w19, w19, 1
	mov	w28, 0
.L143:
	.loc 1 394 0
	subs	w1, w1, #1
	bne	.L144
	.loc 1 397 0
	mov	w1, 8
	mov	x0, x20
	bl	BsGet
.LVL158:
	orr	w19, w19, w0
	.loc 1 396 0
	mov	w1, 8
.L144:
	.loc 1 378 0
	lsr	w0, w23, 1
	.loc 1 399 0
	str	w1, [x26,12]
	.loc 1 379 0
	lsl	w3, w0, 16
	.loc 1 400 0
	str	w19, [x26,8]
	.loc 1 401 0
	str	w23, [x26,4]
	.loc 1 381 0
	cmp	w3, w19
.LBE124:
.LBE123:
	.loc 1 415 0
	orr	w28, w28, w24
.LBB130:
.LBB125:
	.loc 1 381 0
	bls	.L145
	.loc 1 389 0
	lsl	w23, w0, 1
	.loc 1 390 0
	lsl	w19, w19, 1
	mov	w24, 0
.L146:
	.loc 1 394 0
	subs	w1, w1, #1
	bne	.L147
	.loc 1 397 0
	mov	w1, 8
	mov	x0, x20
	bl	BsGet
.LVL159:
	orr	w19, w19, w0
	.loc 1 396 0
	mov	w1, 8
.L147:
	.loc 1 378 0
	lsr	w0, w23, 1
	.loc 1 399 0
	str	w1, [x26,12]
	.loc 1 379 0
	lsl	w2, w0, 16
	.loc 1 400 0
	str	w19, [x26,8]
	.loc 1 401 0
	str	w23, [x26,4]
	.loc 1 381 0
	cmp	w2, w19
.LBE125:
.LBE130:
	.loc 1 415 0
	orr	w28, w24, w28
.LBB131:
.LBB126:
	.loc 1 381 0
	bhi	.L148
	.loc 1 383 0
	sub	w23, w23, w0
	.loc 1 384 0
	sub	w19, w19, w2
	.loc 1 383 0
	lsl	w23, w23, 1
	.loc 1 384 0
	lsl	w19, w19, 1
	mov	w24, 1
.L149:
	.loc 1 394 0
	subs	w1, w1, #1
	bne	.L150
	.loc 1 397 0
	mov	w1, 8
	mov	x0, x20
	bl	BsGet
.LVL160:
	orr	w19, w19, w0
	.loc 1 396 0
	mov	w1, 8
.L150:
	.loc 1 399 0
	str	w1, [x26,12]
.LBE126:
.LBE131:
	.loc 1 415 0
	orr	w28, w24, w28
.LBB132:
.LBB127:
	.loc 1 400 0
	str	w19, [x26,8]
	.loc 1 401 0
	str	w23, [x26,4]
.LBE127:
.LBE132:
.LBE122:
.LBE121:
	.loc 1 932 0
	strb	w28, [x21]
.LVL161:
.L138:
	add	x27, x27, 1
	add	x21, x21, 1
	.loc 1 928 0 discriminator 1
	cmp	x27, x22
	beq	.L201
.LVL162:
.L151:
	.loc 1 931 0
	ldrb	w2, [x27]
	mov	x0, x20
.LVL163:
	mov	x1, x26
	bl	Vp6_Vfmw_DecodeBool
.LVL164:
	cbz	w0, .L138
	ldr	w0, [x26,4]
	ldr	w19, [x26,8]
.LBB137:
.LBB135:
.LBB133:
.LBB128:
	.loc 1 378 0
	add	w28, w0, 1
.LVL165:
	ldr	w1, [x26,12]
	lsr	w28, w28, 1
	.loc 1 379 0
	lsl	w2, w28, 16
	.loc 1 381 0
	cmp	w2, w19
	bhi	.L202
	.loc 1 383 0
	sub	w28, w0, w28
	.loc 1 384 0
	sub	w19, w19, w2
	.loc 1 383 0
	lsl	w28, w28, 1
	.loc 1 384 0
	lsl	w19, w19, 1
	mov	w24, 8
	b	.L140
.L148:
	.loc 1 389 0
	lsl	w23, w0, 1
	.loc 1 390 0
	lsl	w19, w19, 1
	mov	w24, 0
	b	.L149
.L142:
	.loc 1 383 0
	sub	w23, w28, w23
	.loc 1 384 0
	sub	w19, w19, w0
	.loc 1 383 0
	lsl	w23, w23, 1
	.loc 1 384 0
	lsl	w19, w19, 1
	mov	w28, 4
	b	.L143
.L145:
	.loc 1 383 0
	sub	w23, w23, w0
	.loc 1 384 0
	sub	w19, w19, w3
	.loc 1 383 0
	lsl	w23, w23, 1
	.loc 1 384 0
	lsl	w19, w19, 1
	mov	w24, 2
	b	.L146
.LVL166:
.L201:
.LBE128:
.LBE133:
.LBE135:
.LBE137:
	.loc 1 935 0
	ldr	x0, [x29,168]
	ldr	x1, [x29,104]
	bl	VP6_BuildScanOrder
.LVL167:
.L137:
	adrp	x0, .LANCHOR0
.LBB138:
.LBB139:
.LBB140:
.LBB141:
	.loc 1 396 0
	str	wzr, [x29,144]
	add	x28, x0, :lo12:.LANCHOR0
.LVL168:
	mov	w21, 1
.LVL169:
	add	x0, x28, 240
	str	x0, [x29,136]
.LVL170:
.L158:
	ldr	w0, [x29,144]
.LBE141:
.LBE140:
.LBE139:
.LBE138:
.LBB151:
.LBB136:
.LBB134:
.LBB129:
	mov	x19, 0
	ldr	x1, [x29,136]
.LVL171:
	lsl	x22, x0, 4
	sub	x0, x22, x0, lsl 1
	str	x0, [x29,160]
	add	x23, x1, x0
.LVL172:
.L157:
.LBE129:
.LBE134:
.LBE136:
.LBE151:
	.loc 1 943 0
	ldrb	w2, [x23,x19]
	mov	x0, x20
	mov	x1, x26
.LVL173:
	bl	Vp6_Vfmw_DecodeBool
.LVL174:
	cbz	w0, .L152
	ldr	w1, [x26,12]
	mov	w24, 0
	ldr	w3, [x26,4]
	mov	w28, 6
	ldr	w2, [x26,8]
	b	.L156
.LVL175:
.L204:
.LBB152:
.LBB150:
.LBB146:
.LBB142:
	.loc 1 383 0
	sub	w3, w3, w0
	.loc 1 384 0
	sub	w2, w2, w7
	.loc 1 383 0
	lsl	w25, w3, 1
.LVL176:
	.loc 1 384 0
	lsl	w27, w2, 1
.LVL177:
	lsl	w22, w21, w28
.L154:
	.loc 1 394 0
	subs	w1, w1, #1
.LVL178:
	bne	.L155
	.loc 1 397 0
	mov	w1, 8
.LVL179:
	mov	x0, x20
.LVL180:
	bl	BsGet
.LVL181:
	orr	w27, w27, w0
	.loc 1 396 0
	mov	w1, 8
.LVL182:
.L155:
.LBE142:
.LBE146:
	.loc 1 413 0 discriminator 3
	sub	w28, w28, #1
.LBB147:
.LBB143:
	.loc 1 399 0
	str	w1, [x26,12]
	.loc 1 400 0
	str	w27, [x26,8]
.LBE143:
.LBE147:
	.loc 1 413 0 discriminator 1
	cmn	w28, #1
.LBB148:
.LBB144:
	.loc 1 401 0
	str	w25, [x26,4]
.LBE144:
.LBE148:
	.loc 1 415 0
	orr	w24, w22, w24
	mov	w3, w25
	mov	w2, w27
	.loc 1 413 0 discriminator 1
	beq	.L203
.LVL183:
.L156:
.LBB149:
.LBB145:
	.loc 1 378 0
	add	w0, w3, 1
.LVL184:
	lsr	w0, w0, 1
.LVL185:
	.loc 1 379 0
	lsl	w7, w0, 16
	.loc 1 381 0
	cmp	w7, w2
	bls	.L204
	.loc 1 389 0
	lsl	w25, w0, 1
.LVL186:
	.loc 1 390 0
	lsl	w27, w2, 1
.LVL187:
	mov	w22, 0
	b	.L154
.L203:
	ldr	x0, [x29,160]
.LVL188:
.LBE145:
.LBE149:
.LBE150:
.LBE152:
	.loc 1 946 0
	ubfiz	w6, w24, 1, 7
	ldr	x1, [x29,168]
.LVL189:
	.loc 1 947 0
	cmp	w6, wzr
	add	x0, x19, x0
	csinc	w6, w6, w6, ne
	add	x0, x1, x0
	strb	w6, [x0,536]
.LVL190:
.L152:
	add	x19, x19, 1
	.loc 1 941 0 discriminator 1
	cmp	x19, 14
	bne	.L157
	.loc 1 939 0 discriminator 1
	ldr	w0, [x29,144]
	cbz	w0, .L178
	adrp	x0, .LANCHOR0
	str	wzr, [x29,120]
	add	x0, x0, :lo12:.LANCHOR0
	str	xzr, [x29,112]
	add	x0, x0, 272
	str	x0, [x29,128]
.LVL191:
.L159:
	str	wzr, [x29,124]
.LVL192:
.L176:
	.loc 1 970 0
	ldr	w0, [x29,124]
	mov	w1, 198
.LVL193:
	ldr	w2, [x29,120]
.LBB153:
.LBB154:
	.loc 1 335 0
	mov	w22, 1
.LVL194:
.LBE154:
.LBE153:
	.loc 1 970 0
	str	xzr, [x29,144]
	madd	w1, w0, w1, w2
	ldr	x2, [x29,112]
	str	w1, [x29,152]
	mov	w1, 66
	umaddl	x0, w0, w1, x2
	str	x0, [x29,136]
.LVL195:
.L174:
	ldr	x0, [x29,144]
	mov	x19, 0
	ldr	x1, [x29,136]
.LVL196:
	add	x23, x0, x1
	ldr	w1, [x29,152]
	add	w0, w1, w0
	str	w0, [x29,160]
	ldr	x0, [x29,128]
	add	x23, x0, x23
.LVL197:
.L171:
.LBB156:
.LBB155:
	.loc 1 323 0
	ldr	w5, [x26,4]
	.loc 1 319 0
	mov	w21, 0
.LVL198:
	.loc 1 326 0
	ldrb	w0, [x23,x19]
.LVL199:
	sub	w2, w5, #1
	.loc 1 324 0
	ldr	w28, [x26,8]
.LVL200:
	.loc 1 322 0
	ldr	w1, [x26,12]
.LVL201:
	.loc 1 326 0
	mul	w2, w0, w2
	lsr	w2, w2, 8
	add	w27, w2, 1
.LVL202:
	.loc 1 328 0
	lsl	w0, w27, 16
.LVL203:
	.loc 1 331 0
	cmp	w28, w0
	bcc	.L160
	.loc 1 333 0
	sub	w27, w5, w27
	.loc 1 334 0
	sub	w28, w28, w0
	.loc 1 335 0
	mov	w21, 1
.L160:
	.loc 1 338 0
	cmp	w27, 127
	bls	.L186
	b	.L198
.LVL204:
.L163:
	.loc 1 357 0
	cmp	w27, 127
	bhi	.L205
.L186:
	.loc 1 351 0
	subs	w1, w1, #1
	.loc 1 348 0
	lsl	w27, w27, 1
	.loc 1 349 0
	lsl	w28, w28, 1
	.loc 1 351 0
	bne	.L163
	.loc 1 354 0
	mov	w1, 8
.LVL205:
	mov	x0, x20
.LVL206:
	bl	BsGet
.LVL207:
	orr	w28, w28, w0
	.loc 1 357 0
	cmp	w27, 127
	.loc 1 353 0
	mov	w1, 8
.LVL208:
	.loc 1 357 0
	bls	.L186
.LVL209:
.L205:
	.loc 1 360 0
	str	w1, [x26,12]
.L198:
	.loc 1 361 0
	str	w28, [x26,8]
	.loc 1 362 0
	str	w27, [x26,4]
.LBE155:
.LBE156:
	.loc 1 964 0
	cbz	w21, .L165
	ldr	w1, [x26,12]
.LVL210:
	mov	w28, 0
.LVL211:
	ldr	w2, [x26,4]
	mov	w27, 6
.LVL212:
	ldr	w21, [x26,8]
.LVL213:
	b	.L169
.LVL214:
.L207:
.LBB157:
.LBB158:
.LBB159:
.LBB160:
	.loc 1 383 0
	sub	w2, w2, w0
	.loc 1 384 0
	sub	w21, w21, w6
	.loc 1 383 0
	lsl	w25, w2, 1
.LVL215:
	.loc 1 384 0
	lsl	w21, w21, 1
.LVL216:
	lsl	w24, w22, w27
.LVL217:
.L167:
	.loc 1 394 0
	subs	w1, w1, #1
.LVL218:
	bne	.L168
	.loc 1 397 0
	mov	w1, 8
.LVL219:
	mov	x0, x20
.LVL220:
	bl	BsGet
.LVL221:
	orr	w21, w21, w0
	.loc 1 396 0
	mov	w1, 8
.LVL222:
.L168:
.LBE160:
.LBE159:
	.loc 1 413 0 discriminator 3
	sub	w27, w27, #1
.LBB164:
.LBB161:
	.loc 1 399 0
	str	w1, [x26,12]
	.loc 1 400 0
	str	w21, [x26,8]
.LBE161:
.LBE164:
	.loc 1 413 0 discriminator 1
	cmn	w27, #1
.LBB165:
.LBB162:
	.loc 1 401 0
	str	w25, [x26,4]
.LBE162:
.LBE165:
	.loc 1 415 0
	orr	w28, w24, w28
	mov	w2, w25
	.loc 1 413 0 discriminator 1
	beq	.L206
.LVL223:
.L169:
.LBB166:
.LBB163:
	.loc 1 378 0
	add	w0, w2, 1
.LVL224:
	lsr	w0, w0, 1
.LVL225:
	.loc 1 379 0
	lsl	w6, w0, 16
	.loc 1 381 0
	cmp	w6, w21
.LVL226:
	bls	.L207
	.loc 1 389 0
	lsl	w25, w0, 1
.LVL227:
	.loc 1 390 0
	lsl	w21, w21, 1
.LVL228:
	mov	w24, 0
.LVL229:
	b	.L167
.LVL230:
.L165:
.LBE163:
.LBE166:
.LBE158:
.LBE157:
	.loc 1 972 0
	ldr	w0, [x29,156]
.LVL231:
	cbnz	w0, .L170
	.loc 1 974 0
	ldr	w0, [x29,160]
.LVL232:
	ldr	x1, [x29,168]
.LVL233:
	add	w0, w0, w19
	add	x0, x1, x0
	add	x1, x29, 184
.LVL234:
	ldrb	w1, [x19,x1]
	strb	w1, [x0,564]
.LVL235:
.L170:
	add	x19, x19, 1
	.loc 1 962 0 discriminator 1
	cmp	x19, 11
	bne	.L171
	ldr	x0, [x29,144]
.LVL236:
	add	x0, x0, 11
	str	x0, [x29,144]
	.loc 1 959 0 discriminator 1
	cmp	x0, 66
	bne	.L174
	.loc 1 957 0 discriminator 1
	ldr	w0, [x29,124]
	cbnz	w0, .L173
	mov	w0, 1
	str	w0, [x29,124]
	b	.L176
.LVL237:
.L206:
	.loc 1 970 0
	ldr	w0, [x29,160]
.LVL238:
	.loc 1 968 0
	ubfiz	w5, w28, 1, 7
	.loc 1 970 0
	ldr	x1, [x29,168]
.LVL239:
	.loc 1 969 0
	cmp	w5, wzr
	.loc 1 970 0
	add	w0, w0, w19
	.loc 1 969 0
	csinc	w5, w5, w5, ne
	.loc 1 970 0
	add	x0, x1, x0
	.loc 1 969 0
	add	x1, x29, 184
.LVL240:
	uxtb	w5, w5
	strb	w5, [x19,x1]
	.loc 1 970 0
	strb	w5, [x0,564]
	b	.L170
.LVL241:
.L173:
	ldr	x0, [x29,112]
	ldr	w1, [x29,120]
.LVL242:
	add	x0, x0, 132
	str	x0, [x29,112]
	add	w1, w1, 66
	.loc 1 954 0 discriminator 1
	cmp	x0, 396
	str	w1, [x29,120]
	bne	.L159
	.loc 1 982 0
	ldr	x0, [x29,168]
	ldr	x1, [x29,104]
	bl	VP6_ConfigureContexts
.LVL243:
	.loc 1 983 0
	adrp	x0, __stack_chk_guard
	ldr	x1, [x29,200]
	ldr	x0, [x0,#:lo12:__stack_chk_guard]
	cmp	x1, x0
	bne	.L208
	ldp	x19, x20, [sp,16]
	.cfi_remember_state
	.cfi_restore 20
	.cfi_restore 19
.LVL244:
	ldp	x21, x22, [sp,32]
	.cfi_restore 22
	.cfi_restore 21
.LVL245:
	ldp	x23, x24, [sp,48]
	.cfi_restore 24
	.cfi_restore 23
.LVL246:
	ldp	x25, x26, [sp,64]
	.cfi_restore 26
	.cfi_restore 25
.LVL247:
	ldp	x27, x28, [sp,80]
	.cfi_restore 28
	.cfi_restore 27
.LVL248:
	ldp	x29, x30, [sp], 208
	.cfi_restore 30
	.cfi_restore 29
	.cfi_def_cfa 31, 0
	ret
.LVL249:
.L178:
	.cfi_restore_state
	mov	w0, 1
	str	w0, [x29,144]
	b	.L158
.LVL250:
.L208:
	bl	__stack_chk_fail
.LVL251:
	.cfi_endproc
.LFE2648:
	.size	VP6_ConfigureEntropyDecoder, .-VP6_ConfigureEntropyDecoder
	.align	2
	.global	VP6_decodeModeDiff
	.type	VP6_decodeModeDiff, %function
VP6_decodeModeDiff:
.LFB2649:
	.loc 1 1007 0
	.cfi_startproc
.LVL252:
	stp	x29, x30, [sp, -80]!
	.cfi_def_cfa_offset 80
	.cfi_offset 29, -80
	.cfi_offset 30, -72
	add	x29, sp, 0
	.cfi_def_cfa_register 29
	stp	x21, x22, [sp,32]
	.cfi_offset 21, -48
	.cfi_offset 22, -40
.LBB174:
.LBB175:
	.loc 1 322 0
	add	x21, x1, 72
.LBE175:
.LBE174:
	.loc 1 1007 0
	mov	x22, x0
	stp	x19, x20, [sp,16]
	stp	x23, x24, [sp,48]
	stp	x25, x26, [sp,64]
	.cfi_offset 19, -64
	.cfi_offset 20, -56
	.cfi_offset 23, -32
	.cfi_offset 24, -24
	.cfi_offset 25, -16
	.cfi_offset 26, -8
.LBB178:
.LBB176:
	.loc 1 326 0
	mov	w19, 205
	.loc 1 319 0
	mov	w23, 0
.LVL253:
	.loc 1 323 0
	ldr	w3, [x21,4]
	.loc 1 324 0
	ldr	w20, [x21,8]
	.loc 1 326 0
	sub	w1, w3, #1
.LVL254:
	.loc 1 322 0
	ldr	w2, [x21,12]
	.loc 1 326 0
	mul	w19, w1, w19
	lsr	w19, w19, 8
	add	w19, w19, 1
	.loc 1 328 0
	lsl	w0, w19, 16
.LVL255:
	.loc 1 331 0
	cmp	w20, w0
	bcc	.L210
	.loc 1 333 0
	sub	w19, w3, w19
	.loc 1 334 0
	sub	w20, w20, w0
	.loc 1 335 0
	mov	w23, 1
.L210:
	.loc 1 338 0
	cmp	w19, 127
	bls	.L227
	b	.L231
.LVL256:
.L213:
	.loc 1 357 0
	cmp	w19, 127
	bhi	.L232
.L227:
	.loc 1 351 0
	subs	w2, w2, #1
	.loc 1 348 0
	lsl	w19, w19, 1
	.loc 1 349 0
	lsl	w20, w20, 1
	.loc 1 351 0
	bne	.L213
	.loc 1 354 0
	mov	x0, x22
.LVL257:
	mov	w1, 8
	bl	BsGet
.LVL258:
	orr	w20, w20, w0
	.loc 1 357 0
	cmp	w19, 127
	.loc 1 353 0
	mov	w2, 8
.LVL259:
	.loc 1 357 0
	bls	.L227
.LVL260:
.L232:
	.loc 1 360 0
	str	w2, [x21,12]
.L231:
	.loc 1 361 0
	str	w20, [x21,8]
.LBE176:
.LBE178:
	.loc 1 1012 0
	mov	w0, 0
.LVL261:
.LBB179:
.LBB177:
	.loc 1 362 0
	str	w19, [x21,4]
.LBE177:
.LBE179:
	.loc 1 1010 0
	cbnz	w23, .L233
.LVL262:
.L215:
	.loc 1 1046 0
	ldp	x19, x20, [sp,16]
	.cfi_remember_state
	.cfi_restore 20
	.cfi_restore 19
.LVL263:
	ldp	x21, x22, [sp,32]
	.cfi_restore 22
	.cfi_restore 21
.LVL264:
	ldp	x23, x24, [sp,48]
	.cfi_restore 24
	.cfi_restore 23
.LVL265:
	ldp	x25, x26, [sp,64]
	.cfi_restore 26
	.cfi_restore 25
	ldp	x29, x30, [sp], 80
	.cfi_restore 30
	.cfi_restore 29
	.cfi_def_cfa 31, 0
	ret
.LVL266:
.L233:
	.cfi_restore_state
	.loc 1 1015 0
	mov	x1, x21
	mov	x0, x22
	bl	Vp6_Vfmw_DecodeBool128
.LVL267:
	neg	w19, w0, lsl 1
	.loc 1 1017 0
	mov	x1, x21
	mov	x0, x22
	mov	w2, -85
	.loc 1 1015 0
	add	w19, w19, 1
.LVL268:
	.loc 1 1017 0
	bl	Vp6_Vfmw_DecodeBool
.LVL269:
	cbz	w0, .L234
	.loc 1 1022 0
	mov	x0, x22
	mov	x1, x21
	mov	w2, -57
	bl	Vp6_Vfmw_DecodeBool
.LVL270:
	cbz	w0, .L235
	ldr	w1, [x21,12]
	mov	w26, 0
.LVL271:
	ldr	w0, [x21,4]
	mov	w24, 6
.LVL272:
	ldr	w3, [x21,8]
	mov	w20, 1
.LVL273:
.L224:
.LBB180:
.LBB181:
.LBB182:
.LBB183:
.LBB184:
	.loc 1 378 0
	add	w2, w0, 1
.LVL274:
	.loc 1 390 0
	lsl	w23, w3, 1
.LVL275:
	.loc 1 378 0
	lsr	w2, w2, 1
.LVL276:
	.loc 1 390 0
	mov	w5, 0
	.loc 1 379 0
	lsl	w4, w2, 16
	.loc 1 389 0
	lsl	w25, w2, 1
	.loc 1 381 0
	cmp	w3, w4
	.loc 1 383 0
	sub	w0, w0, w2
	.loc 1 384 0
	sub	w3, w3, w4
	.loc 1 381 0
	bcc	.L222
	.loc 1 383 0
	lsl	w25, w0, 1
	.loc 1 384 0
	lsl	w23, w3, 1
	lsl	w5, w20, w24
.L222:
	.loc 1 394 0
	subs	w1, w1, #1
.LVL277:
.LBE184:
.LBE183:
	.loc 1 413 0 discriminator 3
	sub	w24, w24, #1
	.loc 1 415 0
	orr	w26, w5, w26
.LBB187:
.LBB185:
	.loc 1 394 0
	bne	.L223
	.loc 1 397 0
	mov	w1, 8
.LVL278:
	mov	x0, x22
	bl	BsGet
.LVL279:
	orr	w23, w23, w0
	.loc 1 396 0
	mov	w1, 8
.LVL280:
.L223:
	.loc 1 399 0
	str	w1, [x21,12]
.LBE185:
.LBE187:
	.loc 1 413 0 discriminator 1
	cmn	w24, #1
.LBB188:
.LBB186:
	.loc 1 400 0
	str	w23, [x21,8]
	mov	w0, w25
	.loc 1 401 0
	str	w25, [x21,4]
	mov	w3, w23
.LBE186:
.LBE188:
	.loc 1 413 0 discriminator 1
	bne	.L224
.LBE182:
.LBE181:
	.loc 1 1043 0
	mul	w0, w19, w26
.LBE180:
	.loc 1 1046 0
	ldp	x21, x22, [sp,32]
	.cfi_remember_state
	.cfi_restore 21
	.cfi_restore 22
.LVL281:
.LBB189:
	.loc 1 1043 0
	lsl	w0, w0, 2
.LBE189:
	.loc 1 1046 0
	ldp	x19, x20, [sp,16]
	.cfi_restore 19
	.cfi_restore 20
.LVL282:
	ldp	x23, x24, [sp,48]
	.cfi_restore 23
	.cfi_restore 24
.LVL283:
	ldp	x25, x26, [sp,64]
	.cfi_restore 25
	.cfi_restore 26
.LVL284:
	ldp	x29, x30, [sp], 80
	.cfi_restore 29
	.cfi_restore 30
	.cfi_def_cfa 31, 0
	ret
.LVL285:
.L235:
	.cfi_restore_state
	.loc 1 1024 0
	mov	x0, x22
	mov	x1, x21
	mov	w2, -116
	bl	Vp6_Vfmw_DecodeBool
.LVL286:
	cbz	w0, .L218
	.loc 1 1026 0
	lsl	w0, w19, 4
	sub	w0, w0, w19, lsl 2
	b	.L215
.L234:
	.loc 1 1019 0
	mov	x1, x21
	mov	x0, x22
	mov	w2, 83
	bl	Vp6_Vfmw_DecodeBool
.LVL287:
	mov	w1, 3
	sub	w0, w1, w0
	lsl	w0, w19, w0
	.loc 1 1046 0
	ldp	x19, x20, [sp,16]
	.cfi_remember_state
	.cfi_restore 19
	.cfi_restore 20
.LVL288:
	ldp	x21, x22, [sp,32]
	.cfi_restore 21
	.cfi_restore 22
.LVL289:
	ldp	x23, x24, [sp,48]
	.cfi_restore 23
	.cfi_restore 24
.LVL290:
	ldp	x25, x26, [sp,64]
	.cfi_restore 25
	.cfi_restore 26
	ldp	x29, x30, [sp], 80
	.cfi_restore 29
	.cfi_restore 30
	.cfi_def_cfa 31, 0
	ret
.LVL291:
.L218:
	.cfi_restore_state
	.loc 1 1029 0
	mov	x0, x22
	mov	x1, x21
	mov	w2, 125
	bl	Vp6_Vfmw_DecodeBool
.LVL292:
	cbz	w0, .L219
	.loc 1 1031 0
	lsl	w0, w19, 4
	b	.L215
.L219:
	.loc 1 1034 0
	mov	x0, x22
	mov	x1, x21
	mov	w2, 104
	bl	Vp6_Vfmw_DecodeBool
.LVL293:
	cbz	w0, .L220
	.loc 1 1036 0
	lsl	w0, w19, 4
	add	w0, w0, w19, lsl 2
	b	.L215
.L220:
	.loc 1 1038 0
	lsl	w0, w19, 5
	sub	w0, w0, w19, lsl 3
	b	.L215
	.cfi_endproc
.LFE2649:
	.size	VP6_decodeModeDiff, .-VP6_decodeModeDiff
	.align	2
	.global	VP6_DecodeModeProbs
	.type	VP6_DecodeModeProbs, %function
VP6_DecodeModeProbs:
.LFB2650:
	.loc 1 1070 0
	.cfi_startproc
.LVL294:
	stp	x29, x30, [sp, -112]!
	.cfi_def_cfa_offset 112
	.cfi_offset 29, -112
	.cfi_offset 30, -104
	add	x29, sp, 0
	.cfi_def_cfa_register 29
	stp	x25, x26, [sp,64]
	.cfi_offset 25, -48
	.cfi_offset 26, -40
.LBB196:
	.loc 1 1085 0
	adrp	x25, .LANCHOR0
.LBE196:
	.loc 1 1070 0
	mov	x26, x0
.LBB221:
	.loc 1 1085 0
	add	x25, x25, :lo12:.LANCHOR0
.LBE221:
	.loc 1 1070 0
	stp	x19, x20, [sp,16]
	stp	x21, x22, [sp,32]
	stp	x23, x24, [sp,48]
	stp	x27, x28, [sp,80]
	.cfi_offset 19, -96
	.cfi_offset 20, -88
	.cfi_offset 21, -80
	.cfi_offset 22, -72
	.cfi_offset 23, -64
	.cfi_offset 24, -56
	.cfi_offset 27, -32
	.cfi_offset 28, -24
	.loc 1 1070 0
	mov	x21, x2
	mov	x20, x1
	add	x22, x2, 72
	add	x19, x0, 414
	.loc 1 1074 0
	mov	w24, 0
.LVL295:
.LBB222:
	.loc 1 1085 0
	add	x25, x25, 672
.L253:
.LBE222:
	.loc 1 1077 0
	mov	x0, x20
	mov	x1, x22
	mov	w2, -82
	bl	Vp6_Vfmw_DecodeBool
.LVL296:
	cbz	w0, .L252
	ldr	w0, [x22,4]
	ldr	w23, [x22,8]
.LBB223:
.LBB197:
.LBB198:
.LBB199:
.LBB200:
	.loc 1 378 0
	add	w28, w0, 1
	ldr	w1, [x22,12]
	lsr	w28, w28, 1
	.loc 1 379 0
	lsl	w2, w28, 16
	.loc 1 381 0
	cmp	w23, w2
	bcs	.L240
	.loc 1 389 0
	lsl	w28, w28, 1
	.loc 1 390 0
	lsl	w23, w23, 1
	mov	w2, 0
.L241:
	.loc 1 394 0
	subs	w1, w1, #1
	bne	.L242
	.loc 1 397 0
	mov	w1, 8
	mov	x0, x20
	str	x2, [x29,104]
	bl	BsGet
.LVL297:
	orr	w23, w23, w0
	ldr	x2, [x29,104]
	.loc 1 396 0
	mov	w1, 8
.L242:
	.loc 1 378 0
	lsr	w27, w28, 1
	.loc 1 399 0
	str	w1, [x22,12]
	.loc 1 379 0
	lsl	w0, w27, 16
	.loc 1 400 0
	str	w23, [x22,8]
	.loc 1 401 0
	str	w28, [x22,4]
	.loc 1 381 0
	cmp	w23, w0
	bcs	.L243
	.loc 1 389 0
	lsl	w27, w27, 1
	.loc 1 390 0
	lsl	w23, w23, 1
	mov	w28, 0
.L244:
	.loc 1 394 0
	subs	w1, w1, #1
	bne	.L245
	.loc 1 397 0
	mov	w1, 8
	mov	x0, x20
	str	x2, [x29,104]
	bl	BsGet
.LVL298:
	orr	w23, w23, w0
	ldr	x2, [x29,104]
	.loc 1 396 0
	mov	w1, 8
.L245:
	.loc 1 378 0
	lsr	w0, w27, 1
	.loc 1 399 0
	str	w1, [x22,12]
	.loc 1 379 0
	lsl	w3, w0, 16
	.loc 1 400 0
	str	w23, [x22,8]
	.loc 1 401 0
	str	w27, [x22,4]
	.loc 1 381 0
	cmp	w23, w3
.LBE200:
.LBE199:
	.loc 1 415 0
	orr	w28, w28, w2
.LBB207:
.LBB201:
	.loc 1 381 0
	bcs	.L246
	.loc 1 389 0
	lsl	w27, w0, 1
	.loc 1 390 0
	lsl	w23, w23, 1
	mov	w2, 0
.L247:
	.loc 1 394 0
	subs	w1, w1, #1
	bne	.L248
	.loc 1 397 0
	mov	w1, 8
	mov	x0, x20
	str	x2, [x29,104]
	bl	BsGet
.LVL299:
	orr	w23, w23, w0
	ldr	x2, [x29,104]
	.loc 1 396 0
	mov	w1, 8
.L248:
	.loc 1 378 0
	lsr	w3, w27, 1
	.loc 1 399 0
	str	w1, [x22,12]
	.loc 1 379 0
	lsl	w0, w3, 16
	.loc 1 400 0
	str	w23, [x22,8]
	.loc 1 401 0
	str	w27, [x22,4]
	.loc 1 381 0
	cmp	w0, w23
.LBE201:
.LBE207:
	.loc 1 415 0
	orr	w28, w2, w28
.LBB208:
.LBB202:
	.loc 1 381 0
	bhi	.L249
	.loc 1 383 0
	sub	w27, w27, w3
	.loc 1 384 0
	sub	w23, w23, w0
	.loc 1 383 0
	lsl	w27, w27, 1
	.loc 1 384 0
	lsl	w23, w23, 1
	mov	w2, 1
.L250:
	.loc 1 394 0
	subs	w1, w1, #1
	bne	.L251
	.loc 1 397 0
	mov	w1, 8
	mov	x0, x20
	str	x2, [x29,104]
	bl	BsGet
.LVL300:
	orr	w23, w23, w0
	ldr	x2, [x29,104]
	.loc 1 396 0
	mov	w1, 8
.L251:
.LBE202:
.LBE208:
	.loc 1 415 0
	orr	w28, w2, w28
.LVL301:
.LBE198:
.LBE197:
	.loc 1 1085 0
	sxtw	x2, w24
.LVL302:
.LBB217:
.LBB213:
.LBB209:
.LBB203:
	.loc 1 399 0
	str	w1, [x22,12]
.LBE203:
.LBE209:
.LBE213:
.LBE217:
	.loc 1 1085 0
	lsl	x3, x2, 8
	sxtw	x0, w28
.LVL303:
	add	x2, x3, x2, lsl 6
.LVL304:
	lsl	x1, x0, 4
.LBB218:
.LBB214:
.LBB210:
.LBB204:
	.loc 1 400 0
	str	w23, [x22,8]
.LBE204:
.LBE210:
.LBE214:
.LBE218:
	.loc 1 1085 0
	add	x0, x1, x0, lsl 2
.LVL305:
.LBB219:
.LBB215:
.LBB211:
.LBB205:
	.loc 1 401 0
	str	w27, [x22,4]
.LBE205:
.LBE211:
.LBE215:
.LBE219:
	.loc 1 1085 0
	add	x0, x0, x2
	add	x23, x25, x0
	ldrb	w14, [x25,x0]
	.loc 1 1086 0
	ldrb	w3, [x23,11]
	.loc 1 1085 0
	ldrb	w2, [x23,12]
	.loc 1 1086 0
	ldrb	w1, [x23,13]
	.loc 1 1085 0
	ldrb	w0, [x23,14]
	.loc 1 1086 0
	ldrb	w13, [x23,1]
	.loc 1 1085 0
	ldrb	w12, [x23,2]
	.loc 1 1086 0
	ldrb	w11, [x23,3]
	.loc 1 1085 0
	ldrb	w10, [x23,4]
	.loc 1 1086 0
	ldrb	w9, [x23,5]
	.loc 1 1085 0
	ldrb	w8, [x23,6]
	.loc 1 1086 0
	ldrb	w7, [x23,7]
	.loc 1 1085 0
	ldrb	w6, [x23,8]
	.loc 1 1086 0
	ldrb	w5, [x23,9]
	.loc 1 1085 0
	ldrb	w4, [x23,10]
	.loc 1 1086 0
	strb	w3, [x19,-5]
	.loc 1 1085 0
	strb	w2, [x19,6]
	.loc 1 1086 0
	strb	w1, [x19,-4]
	.loc 1 1085 0
	strb	w0, [x19,7]
	strb	w14, [x19]
	.loc 1 1086 0
	strb	w13, [x19,-10]
	.loc 1 1085 0
	strb	w12, [x19,1]
	.loc 1 1086 0
	strb	w11, [x19,-9]
	.loc 1 1085 0
	strb	w10, [x19,2]
	.loc 1 1086 0
	strb	w9, [x19,-8]
	.loc 1 1085 0
	strb	w8, [x19,3]
	.loc 1 1086 0
	strb	w7, [x19,-7]
	.loc 1 1085 0
	strb	w6, [x19,4]
	.loc 1 1086 0
	strb	w5, [x19,-6]
	.loc 1 1085 0
	strb	w4, [x19,5]
	.loc 1 1086 0
	ldrb	w4, [x23,15]
	.loc 1 1085 0
	ldrb	w3, [x23,16]
	.loc 1 1086 0
	ldrb	w2, [x23,17]
	.loc 1 1085 0
	ldrb	w1, [x23,18]
	.loc 1 1086 0
	ldrb	w0, [x23,19]
	strb	w4, [x19,-3]
	.loc 1 1085 0
	strb	w3, [x19,8]
	.loc 1 1086 0
	strb	w2, [x19,-2]
	.loc 1 1085 0
	strb	w1, [x19,9]
	.loc 1 1086 0
	strb	w0, [x19,-1]
.LVL306:
.L252:
.LBE223:
	.loc 1 1091 0
	mov	x0, x20
	mov	x1, x22
	mov	w2, -2
	bl	Vp6_Vfmw_DecodeBool
.LVL307:
	cbz	w0, .L239
	sub	x27, x19, #10
.LBB224:
	.loc 1 1101 0 discriminator 1
	mov	w23, 255
	b	.L257
.L264:
	cmp	w0, 255
	csel	w1, w0, w23, le
	.loc 1 1104 0
	mov	x0, x20
	.loc 1 1101 0 discriminator 1
	uxtb	w1, w1
	.loc 1 1101 0 is_stmt 0 discriminator 4
	strb	w1, [x27,10]
	.loc 1 1104 0 is_stmt 1
	mov	x1, x21
	bl	VP6_decodeModeDiff
.LVL308:
	.loc 1 1105 0
	ldrb	w1, [x27]
	.loc 1 1107 0
	adds	w0, w1, w0
	bmi	.L259
.L265:
	.loc 1 1107 0 is_stmt 0 discriminator 1
	cmp	w0, 255
	csel	w1, w0, w23, le
	uxtb	w1, w1
	.loc 1 1107 0 discriminator 4
	strb	w1, [x27],1
.LBE224:
	.loc 1 1093 0 is_stmt 1 discriminator 1
	cmp	x19, x27
	beq	.L239
.L257:
.LBB225:
	.loc 1 1098 0
	mov	x1, x21
	mov	x0, x20
	bl	VP6_decodeModeDiff
.LVL309:
	.loc 1 1099 0
	ldrb	w1, [x27,10]
	.loc 1 1101 0
	adds	w0, w1, w0
	bpl	.L264
	.loc 1 1101 0 is_stmt 0 discriminator 2
	mov	w1, 0
	.loc 1 1104 0 is_stmt 1
	mov	x0, x20
	.loc 1 1101 0 discriminator 4
	strb	w1, [x27,10]
	.loc 1 1104 0
	mov	x1, x21
	bl	VP6_decodeModeDiff
.LVL310:
	.loc 1 1105 0
	ldrb	w1, [x27]
	.loc 1 1107 0
	adds	w0, w1, w0
	bpl	.L265
.L259:
	.loc 1 1107 0 is_stmt 0 discriminator 2
	mov	w1, 0
	.loc 1 1107 0 discriminator 4
	strb	w1, [x27],1
.LBE225:
	.loc 1 1093 0 is_stmt 1 discriminator 1
	cmp	x19, x27
	bne	.L257
.L239:
	.loc 1 1074 0 discriminator 2
	add	w24, w24, 1
	add	x19, x19, 20
	.loc 1 1074 0 is_stmt 0 discriminator 1
	cmp	w24, 3
	bne	.L253
	.loc 1 1112 0 is_stmt 1
	mov	x0, x26
	mov	x1, x21
	bl	VP6_BuildModeTree
.LVL311:
	.loc 1 1113 0
	ldp	x19, x20, [sp,16]
	.cfi_remember_state
	.cfi_restore 20
	.cfi_restore 19
.LVL312:
	ldp	x21, x22, [sp,32]
	.cfi_restore 22
	.cfi_restore 21
.LVL313:
	ldp	x23, x24, [sp,48]
	.cfi_restore 24
	.cfi_restore 23
.LVL314:
	ldp	x25, x26, [sp,64]
	.cfi_restore 26
	.cfi_restore 25
.LVL315:
	ldp	x27, x28, [sp,80]
	.cfi_restore 28
	.cfi_restore 27
	ldp	x29, x30, [sp], 112
	.cfi_restore 30
	.cfi_restore 29
	.cfi_def_cfa 31, 0
	ret
.LVL316:
.L249:
	.cfi_restore_state
.LBB226:
.LBB220:
.LBB216:
.LBB212:
.LBB206:
	.loc 1 389 0
	lsl	w27, w3, 1
	.loc 1 390 0
	lsl	w23, w23, 1
	mov	w2, 0
	b	.L250
.L240:
	.loc 1 384 0
	sub	w23, w23, w2
	.loc 1 383 0
	sub	w28, w0, w28
	lsl	w28, w28, 1
	.loc 1 384 0
	lsl	w23, w23, 1
	mov	w2, 8
	b	.L241
.L246:
	.loc 1 383 0
	sub	w27, w27, w0
	.loc 1 384 0
	sub	w23, w23, w3
	.loc 1 383 0
	lsl	w27, w27, 1
	.loc 1 384 0
	lsl	w23, w23, 1
	mov	w2, 2
	b	.L247
.L243:
	.loc 1 383 0
	sub	w27, w28, w27
	.loc 1 384 0
	sub	w23, w23, w0
	.loc 1 383 0
	lsl	w27, w27, 1
	.loc 1 384 0
	lsl	w23, w23, 1
	mov	w28, 4
	b	.L244
.LBE206:
.LBE212:
.LBE216:
.LBE220:
.LBE226:
	.cfi_endproc
.LFE2650:
	.size	VP6_DecodeModeProbs, .-VP6_DecodeModeProbs
	.align	2
	.global	VP6_ConfigureMvEntropyDecoder
	.type	VP6_ConfigureMvEntropyDecoder, %function
VP6_ConfigureMvEntropyDecoder:
.LFB2651:
	.loc 1 1133 0
	.cfi_startproc
.LVL317:
	stp	x29, x30, [sp, -128]!
	.cfi_def_cfa_offset 128
	.cfi_offset 29, -128
	.cfi_offset 30, -120
	add	x29, sp, 0
	.cfi_def_cfa_register 29
	stp	x21, x22, [sp,32]
	stp	x23, x24, [sp,48]
	str	x0, [x29,112]
	.loc 1 1140 0
	adrp	x0, .LANCHOR0
.LVL318:
	.cfi_offset 21, -96
	.cfi_offset 22, -88
	.cfi_offset 23, -80
	.cfi_offset 24, -72
	add	x22, x0, :lo12:.LANCHOR0
	.loc 1 1137 0
	mov	w23, 0
	.loc 1 1133 0
	stp	x19, x20, [sp,16]
	stp	x25, x26, [sp,64]
	stp	x27, x28, [sp,80]
	.cfi_offset 19, -112
	.cfi_offset 20, -104
	.cfi_offset 25, -64
	.cfi_offset 26, -56
	.cfi_offset 27, -48
	.cfi_offset 28, -40
	.loc 1 1133 0
	mov	x19, x1
	add	x26, x2, 72
	.loc 1 1140 0
	add	x22, x22, 1632
	.loc 1 1145 0
	mov	w24, 1
.LVL319:
.L275:
	.loc 1 1140 0
	sxtw	x21, w23
	mov	x0, x19
.LVL320:
	mov	x1, x26
	add	x2, x22, x21, lsl 4
.LVL321:
	ldrb	w2, [x2,x21]
	bl	Vp6_Vfmw_DecodeBool
.LVL322:
	cbz	w0, .L268
	mov	w27, 0
.LVL323:
	mov	w20, 6
.LVL324:
.L267:
.LBB241:
.LBB242:
	.loc 1 415 0
	mov	x0, x19
	mov	x1, x26
	bl	Vp6_Vfmw_DecodeBool128
.LVL325:
	lsl	w0, w0, w20
	.loc 1 413 0 discriminator 3
	sub	w20, w20, #1
	.loc 1 415 0
	orr	w27, w0, w27
	.loc 1 413 0 discriminator 1
	cmn	w20, #1
	bne	.L267
.LBE242:
.LBE241:
	.loc 1 1142 0
	lsl	w27, w27, 1
.LVL326:
	.loc 1 1145 0
	ldr	x0, [x29,112]
.LVL327:
	.loc 1 1143 0
	tst	w27, 254
	.loc 1 1145 0
	add	x0, x0, x21
.LVL328:
	.loc 1 1143 0
	beq	.L269
	.loc 1 1142 0
	strb	w27, [x0,2]
.LVL329:
.L268:
	.loc 1 1149 0
	add	x2, x22, x21, lsl 4
	mov	x0, x19
	add	x2, x2, x21
	mov	x1, x26
	ldrb	w2, [x2,1]
	bl	Vp6_Vfmw_DecodeBool
.LVL330:
	cbz	w0, .L272
	mov	w27, 0
.LVL331:
	mov	w20, 6
.LVL332:
.L271:
.LBB243:
.LBB244:
	.loc 1 415 0
	mov	x0, x19
	mov	x1, x26
	bl	Vp6_Vfmw_DecodeBool128
.LVL333:
	lsl	w0, w0, w20
	.loc 1 413 0 discriminator 3
	sub	w20, w20, #1
	.loc 1 415 0
	orr	w27, w0, w27
	.loc 1 413 0 discriminator 1
	cmn	w20, #1
	bne	.L271
.LBE244:
.LBE243:
	.loc 1 1151 0
	lsl	w27, w27, 1
.LVL334:
	.loc 1 1154 0
	ldr	x0, [x29,112]
.LVL335:
	.loc 1 1152 0
	tst	w27, 254
	beq	.L273
	.loc 1 1151 0
	strb	w27, [x0,x21]
.LVL336:
.L272:
	.loc 1 1137 0 discriminator 1
	cbz	w23, .L299
	adrp	x0, .LANCHOR0
.LVL337:
	str	wzr, [x29,124]
	add	x27, x0, :lo12:.LANCHOR0
	add	x0, x27, 1632
	str	x0, [x29,104]
.LVL338:
.L276:
	ldr	w1, [x29,124]
.LVL339:
	mov	x2, 2
	sxtw	x24, w1
	lsl	x0, x24, 3
	sub	x24, x0, x24
	mov	w0, w1
	mov	w1, 17
	add	x20, x24, 484
.LVL340:
	add	x24, x24, 491
	smaddl	x21, w0, w1, x2
	ldr	x0, [x29,104]
	add	x21, x0, x21
	ldr	x0, [x29,112]
.LVL341:
	add	x20, x0, x20
	add	x24, x0, x24
.LVL342:
.L285:
.LBB245:
	.loc 1 1166 0
	ldrb	w2, [x21]
	mov	x0, x19
.LVL343:
	mov	x1, x26
.LVL344:
	bl	Vp6_Vfmw_DecodeBool
.LVL345:
	cbz	w0, .L278
	ldr	w1, [x26,12]
	mov	w25, 0
	ldr	w4, [x26,4]
	mov	w27, 6
	ldr	w2, [x26,8]
.LVL346:
.L282:
.LBB246:
.LBB247:
.LBB248:
.LBB249:
	.loc 1 378 0
	add	w0, w4, 1
	.loc 1 390 0
	lsl	w28, w2, 1
	.loc 1 378 0
	lsr	w0, w0, 1
.LVL347:
	.loc 1 390 0
	mov	w10, 0
	.loc 1 379 0
	lsl	w8, w0, 16
	.loc 1 389 0
	lsl	w22, w0, 1
	.loc 1 381 0
	cmp	w8, w2
	.loc 1 383 0
	sub	w0, w4, w0
.LVL348:
	.loc 1 384 0
	sub	w2, w2, w8
	.loc 1 381 0
	bhi	.L280
	.loc 1 383 0
	lsl	w22, w0, 1
	.loc 1 384 0
	lsl	w28, w2, 1
	lsl	w10, w23, w27
.L280:
	.loc 1 394 0
	subs	w1, w1, #1
.LVL349:
.LBE249:
.LBE248:
	.loc 1 413 0 discriminator 3
	sub	w27, w27, #1
	.loc 1 415 0
	orr	w25, w10, w25
.LBB252:
.LBB250:
	.loc 1 394 0
	bne	.L281
	.loc 1 397 0
	mov	w1, 8
.LVL350:
	mov	x0, x19
	bl	BsGet
.LVL351:
	orr	w28, w28, w0
	.loc 1 396 0
	mov	w1, 8
.LVL352:
.L281:
	.loc 1 399 0
	str	w1, [x26,12]
.LBE250:
.LBE252:
	.loc 1 413 0 discriminator 1
	cmn	w27, #1
.LBB253:
.LBB251:
	.loc 1 400 0
	str	w28, [x26,8]
	mov	w4, w22
	.loc 1 401 0
	str	w22, [x26,4]
	mov	w2, w28
.LBE251:
.LBE253:
	.loc 1 413 0 discriminator 1
	bne	.L282
.LBE247:
.LBE246:
	.loc 1 1168 0
	lsl	w9, w25, 1
	.loc 1 1169 0
	tst	w9, 254
	beq	.L283
	.loc 1 1168 0
	strb	w9, [x20]
.L278:
	add	x20, x20, 1
	add	x21, x21, 1
	.loc 1 1164 0 discriminator 1
	cmp	x20, x24
	bne	.L285
.LBE245:
	.loc 1 1159 0 discriminator 1
	ldr	w0, [x29,124]
	cbnz	w0, .L300
	mov	w0, 1
	str	w0, [x29,124]
	b	.L276
.L283:
.LBB254:
	.loc 1 1171 0
	mov	w0, 1
	strb	w0, [x20]
	b	.L278
.LVL353:
.L299:
.LBE254:
	mov	w23, 1
	b	.L275
.LVL354:
.L300:
	adrp	x0, .LANCHOR0
	ldr	w22, [x29,124]
.LVL355:
	add	x0, x0, :lo12:.LANCHOR0
	str	wzr, [x29,104]
	add	x0, x0, 1632
	str	x0, [x29,96]
.LVL356:
.L286:
	ldr	w0, [x29,104]
	mov	w1, 17
.LVL357:
	mov	x2, 9
	sxtw	x20, w0
	smaddl	x21, w0, w1, x2
	lsl	x20, x20, 3
	ldr	x0, [x29,112]
.LVL358:
	ldr	x1, [x29,96]
	add	x23, x20, 8
	add	x23, x0, x23
	add	x20, x0, x20
	add	x21, x1, x21
.LVL359:
.L295:
.LBB255:
	.loc 1 1186 0
	ldrb	w2, [x21]
	mov	x0, x19
.LVL360:
	mov	x1, x26
.LVL361:
	bl	Vp6_Vfmw_DecodeBool
.LVL362:
	cbz	w0, .L288
	ldr	w1, [x26,12]
	mov	w27, 0
.LVL363:
	ldr	w4, [x26,4]
	mov	w28, 6
.LVL364:
	ldr	w2, [x26,8]
.LVL365:
.L292:
.LBB256:
.LBB257:
.LBB258:
.LBB259:
	.loc 1 378 0
	add	w0, w4, 1
	.loc 1 390 0
	lsl	w24, w2, 1
	.loc 1 378 0
	lsr	w0, w0, 1
.LVL366:
	.loc 1 390 0
	mov	w10, 0
	.loc 1 379 0
	lsl	w8, w0, 16
	.loc 1 389 0
	lsl	w25, w0, 1
.LVL367:
	.loc 1 381 0
	cmp	w8, w2
	.loc 1 383 0
	sub	w0, w4, w0
.LVL368:
	.loc 1 384 0
	sub	w2, w2, w8
	.loc 1 381 0
	bhi	.L290
	.loc 1 383 0
	lsl	w25, w0, 1
	.loc 1 384 0
	lsl	w24, w2, 1
	lsl	w10, w22, w28
.L290:
	.loc 1 394 0
	subs	w1, w1, #1
.LVL369:
.LBE259:
.LBE258:
	.loc 1 413 0 discriminator 3
	sub	w28, w28, #1
	.loc 1 415 0
	orr	w27, w10, w27
.LBB262:
.LBB260:
	.loc 1 394 0
	bne	.L291
	.loc 1 397 0
	mov	w1, 8
.LVL370:
	mov	x0, x19
	bl	BsGet
.LVL371:
	orr	w24, w24, w0
	.loc 1 396 0
	mov	w1, 8
.LVL372:
.L291:
	.loc 1 399 0
	str	w1, [x26,12]
.LBE260:
.LBE262:
	.loc 1 413 0 discriminator 1
	cmn	w28, #1
.LBB263:
.LBB261:
	.loc 1 400 0
	str	w24, [x26,8]
	mov	w4, w25
	.loc 1 401 0
	str	w25, [x26,4]
	mov	w2, w24
.LBE261:
.LBE263:
	.loc 1 413 0 discriminator 1
	bne	.L292
.LBE257:
.LBE256:
	.loc 1 1188 0
	lsl	w9, w27, 1
	.loc 1 1189 0
	tst	w9, 254
	beq	.L293
	.loc 1 1188 0
	strb	w9, [x20,498]
.LVL373:
.L288:
	add	x20, x20, 1
	add	x21, x21, 1
	.loc 1 1184 0 discriminator 1
	cmp	x20, x23
	bne	.L295
.LBE255:
	.loc 1 1179 0 discriminator 1
	ldr	w0, [x29,104]
	cbnz	w0, .L266
	mov	w0, 1
	str	w0, [x29,104]
	b	.L286
.LVL374:
.L293:
.LBB264:
	.loc 1 1191 0
	mov	w0, 1
	strb	w0, [x20,498]
	b	.L288
.LVL375:
.L266:
.LBE264:
	.loc 1 1197 0
	ldp	x19, x20, [sp,16]
	.cfi_remember_state
	.cfi_restore 20
	.cfi_restore 19
.LVL376:
	ldp	x21, x22, [sp,32]
	.cfi_restore 22
	.cfi_restore 21
	ldp	x23, x24, [sp,48]
	.cfi_restore 24
	.cfi_restore 23
.LVL377:
	ldp	x25, x26, [sp,64]
	.cfi_restore 26
	.cfi_restore 25
.LVL378:
	ldp	x27, x28, [sp,80]
	.cfi_restore 28
	.cfi_restore 27
.LVL379:
	ldp	x29, x30, [sp], 128
	.cfi_restore 30
	.cfi_restore 29
	.cfi_def_cfa 31, 0
	ret
.LVL380:
.L269:
	.cfi_restore_state
	.loc 1 1145 0
	strb	w24, [x0,2]
	b	.L268
.LVL381:
.L273:
	.loc 1 1154 0
	strb	w24, [x0,x21]
	b	.L272
	.cfi_endproc
.LFE2651:
	.size	VP6_ConfigureMvEntropyDecoder, .-VP6_ConfigureMvEntropyDecoder
	.align	2
	.global	VP6_BoolTreeToHuffCodes
	.type	VP6_BoolTreeToHuffCodes, %function
VP6_BoolTreeToHuffCodes:
.LFB2652:
	.loc 1 1203 0
	.cfi_startproc
.LVL382:
	.loc 1 1207 0
	ldrb	w3, [x0]
	.loc 1 1208 0
	mov	w5, 255
	.loc 1 1207 0
	ldrb	w2, [x0,1]
	mul	w2, w2, w3
	lsr	w2, w2, 8
	str	w2, [x1,44]
	.loc 1 1208 0
	ldrb	w2, [x0,1]
	ldrb	w3, [x0]
	sub	w2, w5, w2
	mul	w2, w2, w3
	lsr	w2, w2, 8
	str	w2, [x1]
	.loc 1 1210 0
	ldrb	w3, [x0]
	.loc 1 1211 0
	ldrb	w2, [x0,2]
	.loc 1 1210 0
	sub	w3, w5, w3
	.loc 1 1211 0
	mul	w2, w3, w2
	lsr	w2, w2, 8
	str	w2, [x1,4]
	.loc 1 1213 0
	ldrb	w2, [x0,2]
	.loc 1 1214 0
	ldrb	w4, [x0,3]
	.loc 1 1213 0
	sub	w2, w5, w2
	.loc 1 1215 0
	ldrb	w6, [x0,4]
	.loc 1 1213 0
	mul	w3, w2, w3
	lsr	w3, w3, 8
	.loc 1 1214 0
	mul	w4, w3, w4
	lsr	w2, w4, 8
	.loc 1 1215 0
	mul	w6, w2, w6
	lsr	w6, w6, 8
	str	w6, [x1,8]
	.loc 1 1217 0
	ldrb	w6, [x0,4]
	.loc 1 1218 0
	ldrb	w4, [x0,5]
	.loc 1 1217 0
	sub	w6, w5, w6
	mul	w2, w2, w6
	lsr	w2, w2, 8
	.loc 1 1218 0
	mul	w4, w2, w4
	lsr	w4, w4, 8
	str	w4, [x1,12]
	.loc 1 1219 0
	ldrb	w4, [x0,5]
	sub	w4, w5, w4
	mul	w2, w2, w4
	lsr	w2, w2, 8
	str	w2, [x1,16]
	.loc 1 1221 0
	ldrb	w2, [x0,3]
	.loc 1 1222 0
	ldrb	w4, [x0,6]
	.loc 1 1221 0
	sub	w2, w5, w2
	.loc 1 1223 0
	ldrb	w6, [x0,7]
	.loc 1 1221 0
	mul	w3, w3, w2
	lsr	w2, w3, 8
	.loc 1 1222 0
	mul	w4, w2, w4
	lsr	w3, w4, 8
	.loc 1 1223 0
	mul	w6, w3, w6
	lsr	w6, w6, 8
	str	w6, [x1,20]
	.loc 1 1224 0
	ldrb	w4, [x0,7]
	sub	w4, w5, w4
	mul	w3, w3, w4
	lsr	w3, w3, 8
	str	w3, [x1,24]
	.loc 1 1226 0
	ldrb	w3, [x0,6]
	.loc 1 1227 0
	ldrb	w4, [x0,8]
	.loc 1 1226 0
	sub	w3, w5, w3
	.loc 1 1228 0
	ldrb	w6, [x0,9]
	.loc 1 1226 0
	mul	w2, w2, w3
	lsr	w3, w2, 8
	.loc 1 1227 0
	mul	w4, w3, w4
	lsr	w2, w4, 8
	.loc 1 1228 0
	mul	w6, w2, w6
	lsr	w6, w6, 8
	str	w6, [x1,28]
	.loc 1 1229 0
	ldrb	w4, [x0,9]
	sub	w4, w5, w4
	mul	w2, w2, w4
	lsr	w2, w2, 8
	str	w2, [x1,32]
	.loc 1 1231 0
	ldrb	w2, [x0,8]
	.loc 1 1232 0
	ldrb	w4, [x0,10]
	.loc 1 1231 0
	sub	w2, w5, w2
	mul	w3, w3, w2
	lsr	w2, w3, 8
	.loc 1 1232 0
	mul	w4, w2, w4
	lsr	w4, w4, 8
	str	w4, [x1,36]
	.loc 1 1233 0
	ldrb	w0, [x0,10]
.LVL383:
	sub	w5, w5, w0
	mul	w2, w2, w5
	lsr	w2, w2, 8
	str	w2, [x1,40]
	.loc 1 1234 0
	ret
	.cfi_endproc
.LFE2652:
	.size	VP6_BoolTreeToHuffCodes, .-VP6_BoolTreeToHuffCodes
	.align	2
	.global	VP6_ZerosBoolTreeToHuffCodes
	.type	VP6_ZerosBoolTreeToHuffCodes, %function
VP6_ZerosBoolTreeToHuffCodes:
.LFB2653:
	.loc 1 1239 0
	.cfi_startproc
.LVL384:
	.loc 1 1242 0
	ldrb	w2, [x0,1]
	.loc 1 1244 0
	mov	w3, 255
	.loc 1 1242 0
	ldrb	w4, [x0]
	.loc 1 1243 0
	ldrb	w5, [x0,2]
	.loc 1 1242 0
	mul	w4, w2, w4
	lsr	w4, w4, 8
	.loc 1 1243 0
	mul	w5, w4, w5
	lsr	w5, w5, 8
	str	w5, [x1]
	.loc 1 1244 0
	ldrb	w2, [x0,2]
	sub	w2, w3, w2
	mul	w2, w2, w4
	lsr	w2, w2, 8
	str	w2, [x1,4]
	.loc 1 1246 0
	ldrb	w2, [x0,1]
	ldrb	w5, [x0]
	sub	w2, w3, w2
	.loc 1 1247 0
	ldrb	w4, [x0,3]
	.loc 1 1246 0
	mul	w2, w2, w5
	lsr	w2, w2, 8
	.loc 1 1247 0
	mul	w4, w2, w4
	lsr	w4, w4, 8
	str	w4, [x1,8]
	.loc 1 1248 0
	ldrb	w4, [x0,3]
	sub	w4, w3, w4
	mul	w2, w2, w4
	lsr	w2, w2, 8
	str	w2, [x1,12]
	.loc 1 1250 0
	ldrb	w2, [x0]
	ldrb	w6, [x0,4]
	sub	w2, w3, w2
	.loc 1 1251 0
	ldrb	w5, [x0,5]
	.loc 1 1252 0
	ldrb	w4, [x0,6]
	.loc 1 1250 0
	mul	w2, w2, w6
	lsr	w2, w2, 8
	.loc 1 1251 0
	mul	w2, w2, w5
	lsr	w2, w2, 8
	.loc 1 1252 0
	mul	w4, w2, w4
	lsr	w4, w4, 8
	str	w4, [x1,16]
	.loc 1 1253 0
	ldrb	w4, [x0,6]
	sub	w4, w3, w4
	mul	w2, w2, w4
	lsr	w2, w2, 8
	str	w2, [x1,20]
	.loc 1 1255 0
	ldrb	w2, [x0]
	ldrb	w6, [x0,4]
	sub	w2, w3, w2
	.loc 1 1256 0
	ldrb	w5, [x0,5]
	.loc 1 1257 0
	ldrb	w4, [x0,7]
	.loc 1 1255 0
	mul	w2, w2, w6
	.loc 1 1256 0
	sub	w5, w3, w5
	.loc 1 1255 0
	lsr	w2, w2, 8
	.loc 1 1256 0
	mul	w2, w2, w5
	lsr	w2, w2, 8
	.loc 1 1257 0
	mul	w4, w2, w4
	lsr	w4, w4, 8
	str	w4, [x1,24]
	.loc 1 1258 0
	ldrb	w4, [x0,7]
	sub	w4, w3, w4
	mul	w2, w2, w4
	lsr	w2, w2, 8
	str	w2, [x1,28]
	.loc 1 1260 0
	ldrb	w2, [x0,4]
	ldrb	w0, [x0]
.LVL385:
	sub	w2, w3, w2
	sub	w0, w3, w0
	mul	w0, w2, w0
	lsr	w0, w0, 8
	.loc 1 1261 0
	str	w0, [x1,32]
	.loc 1 1262 0
	ret
	.cfi_endproc
.LFE2653:
	.size	VP6_ZerosBoolTreeToHuffCodes, .-VP6_ZerosBoolTreeToHuffCodes
	.align	2
	.global	VP6_InsertSorted
	.type	VP6_InsertSorted, %function
VP6_InsertSorted:
.LFB2654:
	.loc 1 1267 0
	.cfi_startproc
.LVL386:
	.loc 1 1268 0
	ldr	w9, [x2]
	.loc 1 1272 0
	cmn	w9, #1
	beq	.L310
	.loc 1 1272 0 is_stmt 0 discriminator 1
	uxtw	x8, w1
.LVL387:
	uxtw	x3, w9
	lsl	x10, x8, 4
	lsl	x6, x3, 4
	sub	x8, x10, x8, lsl 2
.LVL388:
	sub	x3, x6, x3, lsl 2
	add	x8, x0, x8
	add	x3, x0, x3
	ldr	w7, [x8,8]
	ldr	w4, [x3,8]
	cmp	w7, w4
	bls	.L311
	uxtw	x6, w9
	b	.L313
.L321:
	sub	x3, x5, x3, lsl 2
	add	x3, x0, x3
	ldr	w5, [x3,8]
	cmp	w5, w7
	bcs	.L320
	uxtw	x6, w4
.L313:
	.loc 1 1275 0 is_stmt 1
	ldr	w4, [x3,4]
	.loc 1 1272 0
	cmn	w4, #1
	.loc 1 1272 0 is_stmt 0 discriminator 1
	uxtw	x3, w4
	lsl	x5, x3, 4
	.loc 1 1272 0
	bne	.L321
.L312:
	.loc 1 1285 0 is_stmt 1
	lsl	x2, x6, 4
.LVL389:
	sub	x6, x2, x6, lsl 2
	add	x0, x0, x6
.LVL390:
	str	w1, [x0,4]
	.loc 1 1286 0
	str	w4, [x8,4]
	.loc 1 1288 0
	ret
.LVL391:
.L320:
	.loc 1 1278 0
	cmp	w9, w4
	bne	.L312
.LVL392:
.L315:
	.loc 1 1280 0
	str	w1, [x2]
	.loc 1 1281 0
	str	w4, [x8,4]
	.loc 1 1288 0
	ret
.LVL393:
.L310:
	uxtw	x3, w1
.LVL394:
	lsl	x8, x3, 4
	sub	x8, x8, x3, lsl 2
	add	x8, x0, x8
.L311:
	mov	w4, w9
	b	.L315
	.cfi_endproc
.LFE2654:
	.size	VP6_InsertSorted, .-VP6_InsertSorted
	.align	2
	.global	VP6_BuildHuffTree
	.type	VP6_BuildHuffTree, %function
VP6_BuildHuffTree:
.LFB2655:
	.loc 1 1294 0
	.cfi_startproc
.LVL395:
	stp	x29, x30, [sp, -448]!
	.cfi_def_cfa_offset 448
	.cfi_offset 29, -448
	.cfi_offset 30, -440
	add	x29, sp, 0
	.cfi_def_cfa_register 29
	stp	x21, x22, [sp,32]
	.cfi_offset 21, -416
	.cfi_offset 22, -408
	adrp	x21, __stack_chk_guard
	stp	x19, x20, [sp,16]
	.cfi_offset 19, -432
	.cfi_offset 20, -424
	mov	x20, x0
	.loc 1 1297 0
	str	wzr, [x29,76]
.LVL396:
	.loc 1 1294 0
	ldr	x0, [x21,#:lo12:__stack_chk_guard]
.LVL397:
	add	x19, x29, 80
	stp	x23, x24, [sp,48]
	.cfi_offset 23, -400
	.cfi_offset 24, -392
	.loc 1 1294 0
	str	x0, [x29,440]
	mov	w23, w2
	.loc 1 1308 0
	sub	w24, w2, #1
.LVL398:
	.loc 1 1315 0 discriminator 1
	cbz	w2, .L327
	uxtw	x6, w24
	add	x5, x19, 4
	add	x6, x6, 1
	mov	x3, 0
	.loc 1 1322 0
	mov	w8, 1
	.loc 1 1324 0
	mov	w7, -1
.L326:
	.loc 1 1317 0
	uxtw	x0, w3
	.loc 1 1321 0
	ldr	w4, [x1,x3,lsl 2]
	.loc 1 1317 0
	lsl	x2, x0, 4
	sub	x0, x2, x0, lsl 2
	ldrb	w2, [x19,x0]
	.loc 1 1318 0
	orr	w2, w2, 1
	bfi	w2, w3, 1, 4
	.loc 1 1319 0
	and	w2, w2, 31
	strb	w2, [x19,x0]
	.loc 1 1321 0
	cbnz	w4, .L325
	.loc 1 1322 0
	str	w8, [x1,x3,lsl 2]
	mov	w4, 1
.L325:
	.loc 1 1323 0
	str	w4, [x5,4]
	add	x3, x3, 1
	.loc 1 1324 0
	str	w7, [x5],12
	.loc 1 1315 0 discriminator 1
	cmp	x3, x6
	bne	.L326
	.loc 1 1330 0 discriminator 1
	cmp	w23, 1
	bls	.L327
	mov	w22, 1
.L328:
	.loc 1 1332 0
	mov	w1, w22
.LVL399:
	mov	x0, x19
	add	x2, x29, 76
	.loc 1 1330 0 discriminator 3
	add	w22, w22, 1
	.loc 1 1332 0
	bl	VP6_InsertSorted
.LVL400:
	.loc 1 1330 0 discriminator 1
	cmp	w22, w23
	bne	.L328
	ldr	w1, [x29,76]
.LVL401:
.L324:
	.loc 1 1336 0
	uxtw	x1, w1
.LBB265:
	.loc 1 1352 0
	mov	w22, -1
.LBE265:
	.loc 1 1336 0
	lsl	x0, x1, 4
	sub	x0, x0, x1, lsl 2
	add	x0, x19, x0
	ldr	w0, [x0,4]
	cmp	w0, w22
	beq	.L322
.L333:
.LBB266:
	.loc 1 1348 0
	uxtw	x2, w23
.LVL402:
	.loc 1 1340 0
	uxtw	x0, w0
	.loc 1 1348 0
	lsl	x3, x2, 4
	.loc 1 1340 0
	lsl	x4, x1, 4
	.loc 1 1348 0
	sub	x3, x3, x2, lsl 2
	.loc 1 1340 0
	lsl	x2, x0, 4
.LVL403:
	sub	x1, x4, x1, lsl 2
	sub	x0, x2, x0, lsl 2
	.loc 1 1348 0
	add	x6, x19, x3
	.loc 1 1343 0
	sub	w24, w24, #1
	.loc 1 1344 0
	ubfiz	x5, x24, 1, 32
	.loc 1 1340 0
	add	x7, x19, x0
	add	x11, x19, x1
	.loc 1 1344 0
	ldrb	w8, [x19,x1]
	add	x9, x20, x5
	.loc 1 1348 0
	ldrb	w4, [x19,x3]
	.loc 1 1352 0
	str	w22, [x6,4]
.LVL404:
	.loc 1 1358 0
	mov	w1, w23
	.loc 1 1344 0
	strb	w8, [x20,x5]
	.loc 1 1349 0
	and	w4, w4, 254
	.loc 1 1340 0
	ldr	w8, [x7,8]
	.loc 1 1349 0
	bfi	w4, w24, 1, 4
	.loc 1 1340 0
	ldr	w5, [x11,8]
	.loc 1 1358 0
	add	x2, x29, 76
	.loc 1 1345 0
	ldrb	w10, [x19,x0]
	.loc 1 1358 0
	mov	x0, x19
	.loc 1 1355 0
	ldr	w7, [x7,4]
	.loc 1 1340 0
	add	w5, w8, w5
.LVL405:
	.loc 1 1345 0
	strb	w10, [x9,1]
	.loc 1 1360 0
	add	w23, w23, 1
	.loc 1 1351 0
	str	w5, [x6,8]
	.loc 1 1349 0
	strb	w4, [x19,x3]
	.loc 1 1355 0
	str	w7, [x29,76]
	.loc 1 1358 0
	bl	VP6_InsertSorted
.LVL406:
.LBE266:
	.loc 1 1336 0
	ldr	w1, [x29,76]
	lsl	x0, x1, 4
	sub	x0, x0, x1, lsl 2
	add	x0, x19, x0
	ldr	w0, [x0,4]
	cmn	w0, #1
	bne	.L333
.L322:
	.loc 1 1364 0
	ldr	x1, [x29,440]
	ldr	x0, [x21,#:lo12:__stack_chk_guard]
	cmp	x1, x0
	bne	.L337
	ldp	x19, x20, [sp,16]
	.cfi_remember_state
	.cfi_restore 20
	.cfi_restore 19
.LVL407:
	ldp	x21, x22, [sp,32]
	.cfi_restore 22
	.cfi_restore 21
	ldp	x23, x24, [sp,48]
	.cfi_restore 24
	.cfi_restore 23
.LVL408:
	ldp	x29, x30, [sp], 448
	.cfi_restore 30
	.cfi_restore 29
	.cfi_def_cfa 31, 0
	ret
.LVL409:
.L327:
	.cfi_restore_state
	.loc 1 1330 0 discriminator 1
	mov	w1, 0
.LVL410:
	b	.L324
.L337:
	.loc 1 1364 0
	bl	__stack_chk_fail
.LVL411:
	.cfi_endproc
.LFE2655:
	.size	VP6_BuildHuffTree, .-VP6_BuildHuffTree
	.align	2
	.global	VP6_BuildHuffLookupTable
	.type	VP6_BuildHuffLookupTable, %function
VP6_BuildHuffLookupTable:
.LFB2656:
	.loc 1 1370 0
	.cfi_startproc
.LVL412:
	.loc 1 1375 0
	mov	w5, 0
.LVL413:
.L353:
	.loc 1 1386 0
	tbnz	x5, 5, .L339
.LVL414:
	.loc 1 1392 0
	ldrb	w2, [x0]
.LVL415:
	and	w3, w2, 1
.LVL416:
	ubfx	x2, x2, 1, 4
.LVL417:
	.loc 1 1395 0
	cbnz	w3, .L354
.L362:
	.loc 1 1386 0
	tbnz	x5, 4, .L342
.LVL418:
	.loc 1 1392 0
	ubfiz	x3, x2, 1, 4
	ldrb	w2, [x0,x3]
.LVL419:
	and	w3, w2, 1
.LVL420:
	ubfx	x2, x2, 1, 4
.LVL421:
	.loc 1 1395 0
	cbnz	w3, .L355
.L363:
	.loc 1 1386 0
	tbnz	x5, 3, .L344
.LVL422:
	.loc 1 1392 0
	ubfiz	x3, x2, 1, 4
	ldrb	w2, [x0,x3]
.LVL423:
	and	w3, w2, 1
.LVL424:
	ubfx	x2, x2, 1, 4
.LVL425:
	.loc 1 1395 0
	cbnz	w3, .L356
.L364:
	.loc 1 1386 0
	tbnz	x5, 2, .L346
.LVL426:
	.loc 1 1392 0
	ubfiz	x3, x2, 1, 4
	ldrb	w2, [x0,x3]
.LVL427:
	and	w3, w2, 1
.LVL428:
	ubfx	x2, x2, 1, 4
.LVL429:
	.loc 1 1395 0
	cbnz	w3, .L357
.L365:
	.loc 1 1386 0
	tbnz	x5, 1, .L348
.LVL430:
	.loc 1 1392 0
	ubfiz	x3, x2, 1, 4
	ldrb	w2, [x0,x3]
.LVL431:
	and	w3, w2, 1
.LVL432:
	ubfx	x2, x2, 1, 4
.LVL433:
	.loc 1 1395 0
	cbnz	w3, .L358
.L366:
	.loc 1 1386 0
	tbz	x5, 0, .L350
.LVL434:
	.loc 1 1388 0
	ubfiz	x3, x2, 1, 4
	add	x2, x0, x3
.LVL435:
	ldrb	w2, [x2,1]
.LVL436:
	and	w3, w2, 1
.LVL437:
	ubfx	x2, x2, 1, 4
.LVL438:
.L351:
	mov	w6, 6
.LVL439:
.L352:
	.loc 1 1397 0
	ldrb	w4, [x1]
.LVL440:
	.loc 1 1375 0 discriminator 2
	add	w5, w5, 1
	.loc 1 1375 0 is_stmt 0 discriminator 1
	cmp	w5, 64
	.loc 1 1397 0 is_stmt 1
	bfi	w4, w2, 4, 4
	.loc 1 1398 0
	bfi	w4, w6, 1, 3
.LVL441:
	.loc 1 1399 0
	bfi	w4, w3, 0, 1
	strb	w4, [x1],1
	.loc 1 1375 0 discriminator 1
	bne	.L353
	.loc 1 1401 0
	ret
.LVL442:
.L339:
	.loc 1 1388 0
	ldrb	w2, [x0,1]
.LVL443:
	and	w3, w2, 1
.LVL444:
	ubfx	x2, x2, 1, 4
.LVL445:
	.loc 1 1395 0
	cbz	w3, .L362
.L354:
	.loc 1 1385 0
	mov	w6, 1
.LVL446:
	b	.L352
.LVL447:
.L342:
	.loc 1 1388 0
	ubfiz	x3, x2, 1, 4
	add	x2, x0, x3
.LVL448:
	ldrb	w2, [x2,1]
.LVL449:
	and	w3, w2, 1
.LVL450:
	ubfx	x2, x2, 1, 4
.LVL451:
	.loc 1 1395 0
	cbz	w3, .L363
.L355:
	.loc 1 1385 0
	mov	w6, 2
.LVL452:
	b	.L352
.LVL453:
.L344:
	.loc 1 1388 0
	ubfiz	x3, x2, 1, 4
	add	x2, x0, x3
.LVL454:
	ldrb	w2, [x2,1]
.LVL455:
	and	w3, w2, 1
.LVL456:
	ubfx	x2, x2, 1, 4
.LVL457:
	.loc 1 1395 0
	cbz	w3, .L364
.L356:
	.loc 1 1385 0
	mov	w6, 3
.LVL458:
	b	.L352
.LVL459:
.L346:
	.loc 1 1388 0
	ubfiz	x3, x2, 1, 4
	add	x2, x0, x3
.LVL460:
	ldrb	w2, [x2,1]
.LVL461:
	and	w3, w2, 1
.LVL462:
	ubfx	x2, x2, 1, 4
.LVL463:
	.loc 1 1395 0
	cbz	w3, .L365
.L357:
	.loc 1 1385 0
	mov	w6, 4
.LVL464:
	b	.L352
.LVL465:
.L348:
	.loc 1 1388 0
	ubfiz	x3, x2, 1, 4
	add	x2, x0, x3
.LVL466:
	ldrb	w2, [x2,1]
.LVL467:
	and	w3, w2, 1
.LVL468:
	ubfx	x2, x2, 1, 4
.LVL469:
	.loc 1 1395 0
	cbz	w3, .L366
.L358:
	.loc 1 1385 0
	mov	w6, 5
.LVL470:
	b	.L352
.LVL471:
.L350:
	.loc 1 1392 0
	ubfiz	x3, x2, 1, 4
	ldrb	w2, [x0,x3]
.LVL472:
	and	w3, w2, 1
.LVL473:
	ubfx	x2, x2, 1, 4
.LVL474:
	b	.L351
	.cfi_endproc
.LFE2656:
	.size	VP6_BuildHuffLookupTable, .-VP6_BuildHuffLookupTable
	.align	2
	.global	VP6_BuildTreeTab
	.type	VP6_BuildTreeTab, %function
VP6_BuildTreeTab:
.LFB2657:
	.loc 1 1405 0
	.cfi_startproc
.LVL475:
	sub	sp, sp, #32
	.cfi_def_cfa_offset 32
	mov	w1, 0
	stp	x19, x20, [sp]
	stp	x21, x22, [sp,16]
	.cfi_offset 19, -32
	.cfi_offset 20, -24
	.cfi_offset 21, -16
	.cfi_offset 22, -8
	.loc 1 1409 0
	mov	w19, 0
	mov	w21, 432
	mov	x20, 8588
.L368:
	umaddl	x17, w19, w21, x20
	add	w18, w1, 384
	add	x17, x0, x17
.L371:
	add	w16, w1, 128
	.loc 1 1405 0
	mov	x2, x17
.L369:
	.loc 1 1417 0
	ldrb	w5, [x2]
	.loc 1 1418 0
	add	w3, w1, 1
	.loc 1 1417 0
	add	x4, x0, x1, uxtw
	.loc 1 1418 0
	add	x3, x0, x3
	.loc 1 1417 0
	strb	w5, [x4,1218]
	add	w4, w1, 2
	add	x4, x0, x4
	.loc 1 1418 0
	add	w5, w1, 3
	ldrb	w6, [x2,1]
	add	x5, x0, x5
	strb	w6, [x3,1218]
	.loc 1 1417 0
	add	w3, w1, 4
	add	x3, x0, x3
	.loc 1 1418 0
	add	w13, w1, 5
	.loc 1 1417 0
	ldrb	w6, [x2,2]
	.loc 1 1418 0
	add	x13, x0, x13
	.loc 1 1417 0
	strb	w6, [x4,1218]
	add	w11, w1, 6
	add	x11, x0, x11
	.loc 1 1418 0
	add	w9, w1, 7
	ldrb	w7, [x2,3]
	add	x9, x0, x9
	strb	w7, [x5,1218]
	.loc 1 1417 0
	add	w7, w1, 8
	add	x7, x0, x7
	.loc 1 1418 0
	add	w5, w1, 9
	.loc 1 1417 0
	ldrb	w8, [x2,4]
	.loc 1 1418 0
	add	x5, x0, x5
	.loc 1 1417 0
	strb	w8, [x3,1218]
	add	w3, w1, 10
	add	x3, x0, x3
	.loc 1 1418 0
	add	w15, w1, 11
	ldrb	w4, [x2,5]
	add	x15, x0, x15
	strb	w4, [x13,1218]
	add	x2, x2, 24
	.loc 1 1417 0
	add	w14, w1, 16
	.loc 1 1418 0
	add	w13, w1, 17
	.loc 1 1417 0
	ldrb	w4, [x2,-18]
	add	x14, x0, x14
	strb	w4, [x11,1218]
	.loc 1 1418 0
	add	x13, x0, x13
	.loc 1 1417 0
	add	w12, w1, 18
	.loc 1 1418 0
	add	w11, w1, 19
	ldrb	w4, [x2,-17]
	.loc 1 1417 0
	add	x12, x0, x12
	.loc 1 1418 0
	strb	w4, [x9,1218]
	add	x11, x0, x11
	.loc 1 1417 0
	add	w10, w1, 20
	.loc 1 1418 0
	add	w9, w1, 21
	.loc 1 1417 0
	ldrb	w4, [x2,-16]
	add	x10, x0, x10
	strb	w4, [x7,1218]
	.loc 1 1418 0
	add	x9, x0, x9
	.loc 1 1417 0
	add	w8, w1, 22
	.loc 1 1418 0
	add	w7, w1, 23
	ldrb	w4, [x2,-15]
	.loc 1 1417 0
	add	x8, x0, x8
	.loc 1 1418 0
	strb	w4, [x5,1218]
	add	x7, x0, x7
	.loc 1 1417 0
	add	w6, w1, 24
	.loc 1 1418 0
	add	w5, w1, 25
	.loc 1 1417 0
	ldrb	w4, [x2,-14]
	add	x6, x0, x6
	strb	w4, [x3,1218]
	.loc 1 1418 0
	add	x5, x0, x5
	.loc 1 1417 0
	add	w4, w1, 26
	.loc 1 1418 0
	add	w3, w1, 27
	ldrb	w22, [x2,-13]
	.loc 1 1417 0
	add	x4, x0, x4
	.loc 1 1418 0
	strb	w22, [x15,1218]
	add	x3, x0, x3
	.loc 1 1422 0
	add	w1, w1, 32
	.loc 1 1417 0
	ldrb	w15, [x2,-12]
	.loc 1 1413 0 discriminator 1
	cmp	w16, w1
	.loc 1 1417 0
	strb	w15, [x14,1218]
	.loc 1 1418 0
	ldrb	w14, [x2,-11]
	strb	w14, [x13,1218]
	.loc 1 1417 0
	ldrb	w13, [x2,-10]
	strb	w13, [x12,1218]
	.loc 1 1418 0
	ldrb	w12, [x2,-9]
	strb	w12, [x11,1218]
	.loc 1 1417 0
	ldrb	w11, [x2,-8]
	strb	w11, [x10,1218]
	.loc 1 1418 0
	ldrb	w10, [x2,-7]
	strb	w10, [x9,1218]
	.loc 1 1417 0
	ldrb	w9, [x2,-6]
	strb	w9, [x8,1218]
	.loc 1 1418 0
	ldrb	w8, [x2,-5]
	strb	w8, [x7,1218]
	.loc 1 1417 0
	ldrb	w7, [x2,-4]
	strb	w7, [x6,1218]
	.loc 1 1418 0
	ldrb	w6, [x2,-3]
	strb	w6, [x5,1218]
	.loc 1 1417 0
	ldrb	w5, [x2,-2]
	strb	w5, [x4,1218]
	.loc 1 1418 0
	ldrb	w4, [x2,-1]
	strb	w4, [x3,1218]
	.loc 1 1413 0 discriminator 1
	bne	.L369
	.loc 1 1411 0 discriminator 1
	cmp	w16, w18
	add	x17, x17, 144
	mov	w1, w16
	bne	.L371
	mov	w1, w16
	.loc 1 1409 0 discriminator 1
	cbz	w19, .L372
	.loc 1 1437 0
	add	x1, x0, 8192
	ldrb	w2, [x1,1260]
	strb	w2, [x0,1986]
	.loc 1 1438 0
	ldrb	w2, [x1,1261]
	strb	w2, [x0,1987]
	.loc 1 1437 0
	ldrb	w2, [x1,1262]
	strb	w2, [x0,1988]
	.loc 1 1438 0
	ldrb	w2, [x1,1263]
	strb	w2, [x0,1989]
	.loc 1 1437 0
	ldrb	w2, [x1,1264]
	strb	w2, [x0,1990]
	.loc 1 1438 0
	ldrb	w2, [x1,1265]
	strb	w2, [x0,1991]
	.loc 1 1437 0
	ldrb	w2, [x1,1266]
	strb	w2, [x0,1992]
	.loc 1 1438 0
	ldrb	w2, [x1,1267]
	strb	w2, [x0,1993]
	.loc 1 1437 0
	ldrb	w2, [x1,1268]
	strb	w2, [x0,1994]
	.loc 1 1438 0
	ldrb	w2, [x1,1269]
	strb	w2, [x0,1995]
	.loc 1 1437 0
	ldrb	w2, [x1,1270]
	strb	w2, [x0,1996]
	.loc 1 1438 0
	ldrb	w2, [x1,1271]
	strb	w2, [x0,1997]
	.loc 1 1437 0
	ldrb	w2, [x1,1272]
	strb	w2, [x0,2002]
	.loc 1 1438 0
	ldrb	w2, [x1,1273]
	strb	w2, [x0,2003]
	.loc 1 1437 0
	ldrb	w2, [x1,1274]
	strb	w2, [x0,2004]
	.loc 1 1438 0
	ldrb	w2, [x1,1275]
	strb	w2, [x0,2005]
	.loc 1 1437 0
	ldrb	w2, [x1,1276]
	strb	w2, [x0,2006]
	.loc 1 1438 0
	ldrb	w2, [x1,1277]
	strb	w2, [x0,2007]
	.loc 1 1437 0
	ldrb	w2, [x1,1278]
	strb	w2, [x0,2008]
	.loc 1 1438 0
	ldrb	w2, [x1,1279]
	strb	w2, [x0,2009]
	.loc 1 1437 0
	ldrb	w2, [x1,1280]
	strb	w2, [x0,2010]
	.loc 1 1438 0
	ldrb	w2, [x1,1281]
	strb	w2, [x0,2011]
	.loc 1 1437 0
	ldrb	w2, [x1,1282]
	strb	w2, [x0,2012]
	.loc 1 1438 0
	ldrb	w2, [x1,1283]
	strb	w2, [x0,2013]
	.loc 1 1437 0
	ldrb	w2, [x1,1284]
	strb	w2, [x0,2018]
	.loc 1 1438 0
	ldrb	w2, [x1,1285]
	strb	w2, [x0,2019]
	.loc 1 1437 0
	ldrb	w2, [x1,1286]
	strb	w2, [x0,2020]
	.loc 1 1438 0
	ldrb	w2, [x1,1287]
	strb	w2, [x0,2021]
	.loc 1 1437 0
	ldrb	w2, [x1,1288]
	strb	w2, [x0,2022]
	.loc 1 1438 0
	ldrb	w2, [x1,1289]
	strb	w2, [x0,2023]
	.loc 1 1437 0
	ldrb	w2, [x1,1290]
	strb	w2, [x0,2024]
	.loc 1 1438 0
	ldrb	w2, [x1,1291]
	strb	w2, [x0,2025]
	.loc 1 1437 0
	ldrb	w2, [x1,1292]
	strb	w2, [x0,2026]
	.loc 1 1438 0
	ldrb	w2, [x1,1293]
	strb	w2, [x0,2027]
	.loc 1 1437 0
	ldrb	w2, [x1,1294]
	strb	w2, [x0,2028]
	.loc 1 1438 0
	ldrb	w2, [x1,1295]
	strb	w2, [x0,2029]
	.loc 1 1437 0
	ldrb	w2, [x1,1296]
	strb	w2, [x0,2034]
	.loc 1 1438 0
	ldrb	w2, [x1,1297]
	strb	w2, [x0,2035]
	.loc 1 1437 0
	ldrb	w2, [x1,1298]
	strb	w2, [x0,2036]
	.loc 1 1438 0
	ldrb	w2, [x1,1299]
	strb	w2, [x0,2037]
	.loc 1 1437 0
	ldrb	w2, [x1,1300]
	strb	w2, [x0,2038]
	.loc 1 1438 0
	ldrb	w2, [x1,1301]
	strb	w2, [x0,2039]
	.loc 1 1437 0
	ldrb	w2, [x1,1302]
	strb	w2, [x0,2040]
	.loc 1 1438 0
	ldrb	w2, [x1,1303]
	strb	w2, [x0,2041]
	.loc 1 1437 0
	ldrb	w2, [x1,1304]
	strb	w2, [x0,2042]
	.loc 1 1438 0
	ldrb	w2, [x1,1305]
	strb	w2, [x0,2043]
	.loc 1 1437 0
	ldrb	w2, [x1,1306]
	strb	w2, [x0,2044]
	.loc 1 1438 0
	ldrb	w2, [x1,1307]
	strb	w2, [x0,2045]
	.loc 1 1457 0
	ldrb	w2, [x1,340]
	strb	w2, [x0,2050]
	.loc 1 1458 0
	ldrb	w2, [x1,341]
	strb	w2, [x0,2051]
	.loc 1 1457 0
	ldrb	w2, [x1,342]
	strb	w2, [x0,2052]
	.loc 1 1458 0
	ldrb	w2, [x1,343]
	strb	w2, [x0,2053]
	.loc 1 1457 0
	ldrb	w2, [x1,344]
	strb	w2, [x0,2054]
	.loc 1 1458 0
	ldrb	w2, [x1,345]
	strb	w2, [x0,2055]
	.loc 1 1457 0
	ldrb	w2, [x1,346]
	strb	w2, [x0,2056]
	.loc 1 1458 0
	ldrb	w2, [x1,347]
	strb	w2, [x0,2057]
	.loc 1 1457 0
	ldrb	w2, [x1,348]
	strb	w2, [x0,2058]
	.loc 1 1458 0
	ldrb	w2, [x1,349]
	strb	w2, [x0,2059]
	.loc 1 1457 0
	ldrb	w2, [x1,350]
	strb	w2, [x0,2060]
	.loc 1 1458 0
	ldrb	w2, [x1,351]
	strb	w2, [x0,2061]
	.loc 1 1457 0
	ldrb	w2, [x1,352]
	strb	w2, [x0,2066]
	.loc 1 1458 0
	ldrb	w2, [x1,353]
	strb	w2, [x0,2067]
	.loc 1 1457 0
	ldrb	w2, [x1,354]
	strb	w2, [x0,2068]
	.loc 1 1458 0
	ldrb	w2, [x1,355]
	strb	w2, [x0,2069]
	.loc 1 1457 0
	ldrb	w2, [x1,356]
	strb	w2, [x0,2070]
	.loc 1 1458 0
	ldrb	w2, [x1,357]
	strb	w2, [x0,2071]
	.loc 1 1457 0
	ldrb	w2, [x1,358]
	strb	w2, [x0,2072]
	.loc 1 1458 0
	ldrb	w2, [x1,359]
	strb	w2, [x0,2073]
	.loc 1 1457 0
	ldrb	w2, [x1,360]
	strb	w2, [x0,2074]
	.loc 1 1458 0
	ldrb	w2, [x1,361]
	strb	w2, [x0,2075]
	.loc 1 1457 0
	ldrb	w2, [x1,362]
	strb	w2, [x0,2076]
	.loc 1 1458 0
	ldrb	w2, [x1,363]
	strb	w2, [x0,2077]
	.loc 1 1457 0
	ldrb	w2, [x1,364]
	strb	w2, [x0,2082]
	.loc 1 1458 0
	ldrb	w2, [x1,365]
	strb	w2, [x0,2083]
	.loc 1 1457 0
	ldrb	w2, [x1,366]
	strb	w2, [x0,2084]
	.loc 1 1458 0
	ldrb	w2, [x1,367]
	strb	w2, [x0,2085]
	.loc 1 1457 0
	ldrb	w2, [x1,368]
	strb	w2, [x0,2114]
	.loc 1 1458 0
	ldrb	w2, [x1,369]
	strb	w2, [x0,2115]
	.loc 1 1457 0
	ldrb	w2, [x1,370]
	strb	w2, [x0,2116]
	.loc 1 1458 0
	ldrb	w2, [x1,371]
	strb	w2, [x0,2117]
	.loc 1 1457 0
	ldrb	w2, [x1,372]
	strb	w2, [x0,2118]
	.loc 1 1458 0
	ldrb	w2, [x1,373]
	strb	w2, [x0,2119]
	.loc 1 1457 0
	ldrb	w2, [x1,374]
	strb	w2, [x0,2120]
	.loc 1 1458 0
	ldrb	w2, [x1,375]
	strb	w2, [x0,2121]
	.loc 1 1457 0
	ldrb	w2, [x1,376]
	strb	w2, [x0,2122]
	.loc 1 1458 0
	ldrb	w2, [x1,377]
	strb	w2, [x0,2123]
	.loc 1 1457 0
	ldrb	w2, [x1,378]
	strb	w2, [x0,2124]
	.loc 1 1458 0
	ldrb	w2, [x1,379]
	strb	w2, [x0,2125]
	.loc 1 1457 0
	ldrb	w2, [x1,380]
	strb	w2, [x0,2130]
	.loc 1 1458 0
	ldrb	w2, [x1,381]
	strb	w2, [x0,2131]
	.loc 1 1457 0
	ldrb	w2, [x1,382]
	strb	w2, [x0,2132]
	.loc 1 1458 0
	ldrb	w2, [x1,383]
	strb	w2, [x0,2133]
	.loc 1 1457 0
	ldrb	w2, [x1,384]
	strb	w2, [x0,2134]
	.loc 1 1458 0
	ldrb	w2, [x1,385]
	strb	w2, [x0,2135]
	.loc 1 1457 0
	ldrb	w2, [x1,386]
	strb	w2, [x0,2136]
	.loc 1 1458 0
	ldrb	w2, [x1,387]
	strb	w2, [x0,2137]
	.loc 1 1457 0
	ldrb	w2, [x1,388]
	strb	w2, [x0,2138]
	.loc 1 1458 0
	ldrb	w2, [x1,389]
	strb	w2, [x0,2139]
	.loc 1 1457 0
	ldrb	w2, [x1,390]
	strb	w2, [x0,2140]
	.loc 1 1458 0
	ldrb	w2, [x1,391]
	strb	w2, [x0,2141]
	.loc 1 1457 0
	ldrb	w2, [x1,392]
	strb	w2, [x0,2146]
	.loc 1 1458 0
	ldrb	w2, [x1,393]
	strb	w2, [x0,2147]
	.loc 1 1457 0
	ldrb	w2, [x1,394]
	strb	w2, [x0,2148]
	.loc 1 1472 0
	ldp	x19, x20, [sp]
	.cfi_remember_state
	.cfi_restore 20
	.cfi_restore 19
	.loc 1 1458 0
	ldrb	w1, [x1,395]
	.loc 1 1472 0
	ldp	x21, x22, [sp,16]
	.cfi_restore 22
	.cfi_restore 21
	.loc 1 1458 0
	strb	w1, [x0,2149]
	.loc 1 1472 0
	add	sp, sp, 32
	.cfi_def_cfa_offset 0
	ret
.L372:
	.cfi_restore_state
	mov	w19, 1
	b	.L368
	.cfi_endproc
.LFE2657:
	.size	VP6_BuildTreeTab, .-VP6_BuildTreeTab
	.align	2
	.global	VP6_ConvertBoolToHuff
	.type	VP6_ConvertBoolToHuff, %function
VP6_ConvertBoolToHuff:
.LFB2658:
	.loc 1 1475 0
	.cfi_startproc
.LVL476:
	stp	x29, x30, [sp, -112]!
	.cfi_def_cfa_offset 112
	.cfi_offset 29, -112
	.cfi_offset 30, -104
	.loc 1 1481 0
	adrp	x1, .LC7
	.loc 1 1475 0
	add	x29, sp, 0
	.cfi_def_cfa_register 29
	stp	x21, x22, [sp,32]
	.loc 1 1481 0
	add	x1, x1, :lo12:.LC7
	.cfi_offset 21, -80
	.cfi_offset 22, -72
	.loc 1 1475 0
	mov	x21, x0
	.loc 1 1481 0
	mov	w0, 22
.LVL477:
	.loc 1 1475 0
	stp	x19, x20, [sp,16]
	.cfi_offset 19, -96
	.cfi_offset 20, -88
	.loc 1 1484 0
	add	x20, x21, 4096
	.loc 1 1485 0
	add	x19, x21, 8192
	.loc 1 1475 0
	stp	x23, x24, [sp,48]
	stp	x25, x26, [sp,64]
	.cfi_offset 23, -64
	.cfi_offset 24, -56
	.cfi_offset 25, -48
	.cfi_offset 26, -40
	.loc 1 1484 0
	add	x23, x20, 2500
	.loc 1 1485 0
	add	x22, x19, 1260
	.loc 1 1475 0
	stp	x27, x28, [sp,80]
	.cfi_offset 27, -32
	.cfi_offset 28, -24
	.loc 1 1481 0
	bl	dprint_linux_kernel
.LVL478:
	.loc 1 1484 0
	add	x28, x20, 2548
	mov	x1, x23
	add	x0, x21, 514
	.loc 1 1485 0
	add	x25, x19, 1284
	.loc 1 1491 0
	add	x24, x20, 2596
	.loc 1 1484 0
	bl	VP6_BoolTreeToHuffCodes
.LVL479:
	.loc 1 1491 0
	add	x20, x20, 2652
	.loc 1 1485 0
	mov	w2, 12
	mov	x1, x23
	mov	x0, x22
	.loc 1 1492 0
	add	x23, x19, 340
	.loc 1 1493 0
	mov	w26, 0
	.loc 1 1485 0
	bl	VP6_BuildHuffTree
.LVL480:
	.loc 1 1486 0
	mov	x0, x22
	add	x1, x19, 1308
	.loc 1 1492 0
	add	x22, x19, 368
	.loc 1 1486 0
	bl	VP6_BuildHuffLookupTable
.LVL481:
	.loc 1 1484 0
	add	x0, x21, 525
	mov	x1, x28
	bl	VP6_BoolTreeToHuffCodes
.LVL482:
	.loc 1 1485 0
	mov	w2, 12
	mov	x1, x28
	mov	x0, x25
	bl	VP6_BuildHuffTree
.LVL483:
	.loc 1 1486 0
	mov	x0, x25
	add	x1, x19, 1372
	bl	VP6_BuildHuffLookupTable
.LVL484:
	.loc 1 1491 0
	add	x0, x21, 536
	mov	x1, x24
	bl	VP6_ZerosBoolTreeToHuffCodes
.LVL485:
	.loc 1 1492 0
	mov	w2, 9
	mov	x1, x24
	mov	x0, x23
	bl	VP6_BuildHuffTree
.LVL486:
	.loc 1 1493 0
	mov	x0, x23
	add	x1, x19, 3740
	bl	VP6_BuildHuffLookupTable
.LVL487:
	.loc 1 1491 0
	add	x0, x21, 550
	mov	x1, x20
	bl	VP6_ZerosBoolTreeToHuffCodes
.LVL488:
	.loc 1 1492 0
	mov	x1, x20
	mov	x0, x22
	mov	w2, 9
	bl	VP6_BuildHuffTree
.LVL489:
	.loc 1 1493 0
	mov	x0, x22
	add	x1, x19, 3804
	bl	VP6_BuildHuffLookupTable
.LVL490:
.L376:
	mov	w0, 198
	mov	x1, 6804
	mov	x19, 9628
	mul	w27, w26, w0
	mov	w0, 864
	umaddl	x25, w26, w0, x1
	mov	w0, 432
	mov	x1, 8588
	add	x25, x21, x25
	umaddl	x24, w26, w0, x1
	mov	w0, 1152
	add	x24, x21, x24
	umaddl	x23, w26, w0, x19
	add	w0, w27, 198
	str	w0, [x29,108]
	add	x23, x21, x23
.L380:
	add	w22, w27, 66
	.loc 1 1475 0
	mov	x20, x23
	mov	x19, x24
	mov	x28, x25
.L377:
	.loc 1 1501 0
	mov	x1, x28
	add	x0, x21, x27, uxtw
	add	x0, x0, 564
	add	w27, w27, 11
	bl	VP6_BoolTreeToHuffCodes
.LVL491:
	.loc 1 1502 0
	mov	x0, x19
	mov	x1, x28
	mov	w2, 12
	add	x28, x28, 48
	bl	VP6_BuildHuffTree
.LVL492:
	.loc 1 1503 0
	mov	x0, x19
	mov	x1, x20
	add	x19, x19, 24
	add	x20, x20, 64
	bl	VP6_BuildHuffLookupTable
.LVL493:
	.loc 1 1499 0 discriminator 1
	cmp	w27, w22
	bne	.L377
	.loc 1 1497 0 discriminator 1
	ldr	w0, [x29,108]
	add	x25, x25, 288
	add	x24, x24, 144
	add	x23, x23, 384
	cmp	w27, w0
	bne	.L380
	.loc 1 1495 0 discriminator 1
	cbnz	w26, .L379
	mov	w26, 1
	b	.L376
.L379:
	.loc 1 1507 0
	mov	x0, x21
	bl	VP6_BuildTreeTab
.LVL494:
	.loc 1 1508 0
	adrp	x1, .LC8
	mov	w0, 22
	add	x1, x1, :lo12:.LC8
	bl	dprint_linux_kernel
.LVL495:
	.loc 1 1509 0
	ldp	x19, x20, [sp,16]
	.cfi_restore 20
	.cfi_restore 19
	ldp	x21, x22, [sp,32]
	.cfi_restore 22
	.cfi_restore 21
.LVL496:
	ldp	x23, x24, [sp,48]
	.cfi_restore 24
	.cfi_restore 23
	ldp	x25, x26, [sp,64]
	.cfi_restore 26
	.cfi_restore 25
	ldp	x27, x28, [sp,80]
	.cfi_restore 28
	.cfi_restore 27
	ldp	x29, x30, [sp], 112
	.cfi_restore 30
	.cfi_restore 29
	.cfi_def_cfa 31, 0
	ret
	.cfi_endproc
.LFE2658:
	.size	VP6_ConvertBoolToHuff, .-VP6_ConvertBoolToHuff
	.align	2
	.global	VP6_IntraFrmHeader
	.type	VP6_IntraFrmHeader, %function
VP6_IntraFrmHeader:
.LFB2659:
	.loc 1 1514 0
	.cfi_startproc
.LVL497:
	stp	x29, x30, [sp, -112]!
	.cfi_def_cfa_offset 112
	.cfi_offset 29, -112
	.cfi_offset 30, -104
	add	x29, sp, 0
	.cfi_def_cfa_register 29
	stp	x19, x20, [sp,16]
	.cfi_offset 19, -96
	.cfi_offset 20, -88
	mov	x20, x1
	.loc 1 1519 0
	adrp	x1, .LC9
.LVL498:
	.loc 1 1514 0
	stp	x21, x22, [sp,32]
	.loc 1 1519 0
	add	x1, x1, :lo12:.LC9
	.cfi_offset 21, -80
	.cfi_offset 22, -72
	.loc 1 1514 0
	mov	x22, x0
	.loc 1 1519 0
	mov	w0, 22
.LVL499:
	.loc 1 1522 0
	add	x21, x22, 8192
	.loc 1 1514 0
	stp	x23, x24, [sp,48]
	stp	x25, x26, [sp,64]
	stp	x27, x28, [sp,80]
	.cfi_offset 23, -64
	.cfi_offset 24, -56
	.cfi_offset 25, -48
	.cfi_offset 26, -40
	.cfi_offset 27, -32
	.cfi_offset 28, -24
	.loc 1 1519 0
	bl	dprint_linux_kernel
.LVL500:
	.loc 1 1522 0
	add	x19, x21, 4060
	mov	w1, 5
	mov	x0, x20
	bl	BsGet
.LVL501:
	uxtb	w0, w0
	.loc 1 1523 0
	mov	w1, 2
	.loc 1 1522 0
	str	w0, [x19,12]
	.loc 1 1523 0
	mov	x0, x20
	bl	BsGet
.LVL502:
	uxtb	w0, w0
	.loc 1 1524 0
	ldr	w2, [x19,12]
	.loc 1 1523 0
	str	w0, [x19,16]
	.loc 1 1524 0
	cmp	w2, 8
	bhi	.L425
	.loc 1 1530 0
	mov	x0, x20
	mov	w1, 1
	bl	BsGet
.LVL503:
	uxtb	w0, w0
	cbnz	w0, .L426
.LBB297:
.LBB298:
	.loc 1 1540 0
	ldrb	w0, [x19,2]
.LBB299:
.LBB300:
	.loc 1 424 0
	add	x23, x22, 12288
.LBE300:
.LBE299:
	.loc 1 1540 0
	cbz	w0, .L386
	.loc 1 1544 0
	mov	w1, 16
	mov	x0, x20
	bl	BsGet
.LVL504:
	str	w0, [x21,4112]
.LBB302:
.LBB301:
	.loc 1 424 0
	str	wzr, [x22,12324]
	.loc 1 425 0
	mov	w0, 255
	str	w0, [x23,40]
	.loc 1 426 0
	mov	w0, 8
	.loc 1 427 0
	mov	w1, 24
	.loc 1 426 0
	str	w0, [x23,48]
	.loc 1 427 0
	mov	x0, x20
	bl	BsGet
.LVL505:
	str	w0, [x23,44]
.L387:
.LBE301:
.LBE302:
	.loc 1 1552 0
	add	x2, x21, 4060
	ldr	w4, [x23,48]
	ldr	w3, [x23,40]
	add	x2, x2, 72
.LBB303:
.LBB304:
	.loc 1 411 0
	mov	w27, 0
.LVL506:
.LBE304:
.LBE303:
	.loc 1 1552 0
	str	x2, [x29,104]
.LBB312:
.LBB311:
	.loc 1 413 0
	mov	w26, 7
.LVL507:
	mov	w25, 1
.LVL508:
.L391:
.LBB305:
.LBB306:
	.loc 1 378 0
	add	w1, w3, 1
.LVL509:
	.loc 1 390 0
	lsl	w19, w0, 1
	.loc 1 378 0
	lsr	w1, w1, 1
.LVL510:
	.loc 1 390 0
	mov	w6, 0
	.loc 1 379 0
	lsl	w5, w1, 16
	.loc 1 389 0
	lsl	w24, w1, 1
	.loc 1 381 0
	cmp	w5, w0
	.loc 1 383 0
	sub	w1, w3, w1
.LVL511:
	.loc 1 384 0
	sub	w0, w0, w5
	.loc 1 381 0
	bhi	.L389
	.loc 1 383 0
	lsl	w24, w1, 1
	.loc 1 384 0
	lsl	w19, w0, 1
	lsl	w6, w25, w26
.L389:
	.loc 1 394 0
	subs	w1, w4, #1
.LVL512:
.LBE306:
.LBE305:
	.loc 1 413 0 discriminator 3
	sub	w26, w26, #1
	.loc 1 415 0
	orr	w27, w6, w27
.LBB309:
.LBB307:
	.loc 1 394 0
	bne	.L390
	.loc 1 397 0
	mov	w1, 8
.LVL513:
	mov	x0, x20
	bl	BsGet
.LVL514:
	orr	w19, w19, w0
	.loc 1 396 0
	mov	w1, 8
.LVL515:
.L390:
.LBE307:
.LBE309:
	.loc 1 413 0 discriminator 1
	cmn	w26, #1
.LBB310:
.LBB308:
	.loc 1 399 0
	str	w1, [x23,48]
	.loc 1 400 0
	str	w19, [x23,44]
	mov	w4, w1
	.loc 1 401 0
	str	w24, [x23,40]
	mov	w3, w24
	mov	w0, w19
.LBE308:
.LBE310:
	.loc 1 413 0 discriminator 1
	bne	.L391
.LBE311:
.LBE312:
	.loc 1 1552 0
	str	w27, [x21,4084]
.LBB313:
.LBB314:
	.loc 1 411 0
	mov	w25, 0
.LVL516:
.LBE314:
.LBE313:
	.loc 1 1552 0
	mov	w27, w19
.LVL517:
.LBB322:
.LBB321:
	.loc 1 413 0
	mov	w26, 7
.LVL518:
.L395:
.LBB315:
.LBB316:
	.loc 1 378 0
	add	w0, w24, 1
.LVL519:
	.loc 1 390 0
	lsl	w19, w27, 1
.LVL520:
	.loc 1 378 0
	lsr	w0, w0, 1
.LVL521:
	.loc 1 390 0
	mov	w4, 0
	.loc 1 379 0
	lsl	w3, w0, 16
.LVL522:
	.loc 1 389 0
	lsl	w28, w0, 1
	.loc 1 381 0
	cmp	w3, w27
	.loc 1 383 0
	sub	w24, w24, w0
	.loc 1 384 0
	sub	w27, w27, w3
	.loc 1 381 0
	bhi	.L393
	mov	w0, 1
.LVL523:
	.loc 1 383 0
	lsl	w28, w24, 1
	.loc 1 384 0
	lsl	w19, w27, 1
	lsl	w4, w0, w26
.LVL524:
.L393:
	.loc 1 394 0
	subs	w3, w1, #1
.LVL525:
.LBE316:
.LBE315:
	.loc 1 413 0 discriminator 3
	sub	w26, w26, #1
	.loc 1 415 0
	orr	w25, w4, w25
.LBB319:
.LBB317:
	.loc 1 394 0
	bne	.L394
	.loc 1 397 0
	mov	x0, x20
.LVL526:
	mov	w1, 8
	bl	BsGet
.LVL527:
	orr	w19, w19, w0
	.loc 1 396 0
	mov	w3, 8
.LVL528:
.L394:
.LBE317:
.LBE319:
	.loc 1 413 0 discriminator 1
	cmn	w26, #1
.LBB320:
.LBB318:
	.loc 1 399 0
	str	w3, [x23,48]
	.loc 1 400 0
	str	w19, [x23,44]
	mov	w1, w3
	.loc 1 401 0
	str	w28, [x23,40]
	mov	w24, w28
	mov	w27, w19
.LBE318:
.LBE320:
	.loc 1 413 0 discriminator 1
	bne	.L395
.LBE321:
.LBE322:
	.loc 1 1555 0
	ldr	w24, [x21,4084]
	.loc 1 1556 0
	lsl	w0, w25, 1
.LVL529:
	mov	w2, w0
	str	w0, [x29,96]
	.loc 1 1555 0
	lsl	w0, w24, 1
	.loc 1 1553 0
	str	w25, [x21,4088]
	.loc 1 1555 0
	str	w0, [x29,100]
	.loc 1 1556 0
	mov	w26, w19
.LVL530:
	.loc 1 1555 0
	str	w0, [x21,4092]
.LBB323:
.LBB324:
	.loc 1 411 0
	mov	w24, 0
.LVL531:
.LBE324:
.LBE323:
	.loc 1 1556 0
	mov	w0, w28
	str	w2, [x21,4096]
.LBB332:
.LBB331:
	.loc 1 413 0
	mov	w25, 7
.LVL532:
	mov	w27, 1
.LVL533:
.L399:
.LBB325:
.LBB326:
	.loc 1 378 0
	add	w1, w0, 1
.LVL534:
	.loc 1 390 0
	lsl	w19, w26, 1
.LVL535:
	.loc 1 378 0
	lsr	w1, w1, 1
.LVL536:
	.loc 1 390 0
	mov	w7, 0
	.loc 1 379 0
	lsl	w5, w1, 16
.LVL537:
	.loc 1 389 0
	lsl	w28, w1, 1
.LVL538:
	.loc 1 381 0
	cmp	w5, w26
	.loc 1 383 0
	sub	w0, w0, w1
	.loc 1 384 0
	sub	w26, w26, w5
	.loc 1 381 0
	bhi	.L397
	.loc 1 383 0
	lsl	w28, w0, 1
	.loc 1 384 0
	lsl	w19, w26, 1
	lsl	w7, w27, w25
.L397:
	.loc 1 394 0
	subs	w1, w3, #1
.LVL539:
.LBE326:
.LBE325:
	.loc 1 413 0 discriminator 3
	sub	w25, w25, #1
	.loc 1 415 0
	orr	w24, w7, w24
.LBB329:
.LBB327:
	.loc 1 394 0
	bne	.L398
	.loc 1 397 0
	mov	w1, 8
.LVL540:
	mov	x0, x20
	bl	BsGet
.LVL541:
	orr	w19, w19, w0
	.loc 1 396 0
	mov	w1, 8
.LVL542:
.L398:
.LBE327:
.LBE329:
	.loc 1 413 0 discriminator 1
	cmn	w25, #1
.LBB330:
.LBB328:
	.loc 1 399 0
	str	w1, [x23,48]
	.loc 1 400 0
	str	w19, [x23,44]
	mov	w3, w1
	.loc 1 401 0
	str	w28, [x23,40]
	mov	w0, w28
	mov	w26, w19
.LBE328:
.LBE330:
	.loc 1 413 0 discriminator 1
	bne	.L399
.LBE331:
.LBE332:
	.loc 1 1561 0
	lsl	w6, w24, 1
.LBB333:
.LBB334:
	.loc 1 411 0
	mov	w25, 0
.LVL543:
.LBE334:
.LBE333:
	.loc 1 1561 0
	str	w6, [x21,4100]
.LBB342:
.LBB341:
	.loc 1 413 0
	mov	w24, 7
.LVL544:
.L403:
.LBB335:
.LBB336:
	.loc 1 378 0
	add	w0, w28, 1
.LVL545:
	.loc 1 390 0
	lsl	w27, w19, 1
.LVL546:
	.loc 1 378 0
	lsr	w0, w0, 1
.LVL547:
	.loc 1 390 0
	mov	w7, 0
	.loc 1 379 0
	lsl	w5, w0, 16
.LVL548:
	.loc 1 389 0
	lsl	w26, w0, 1
	.loc 1 381 0
	cmp	w5, w19
	.loc 1 383 0
	sub	w28, w28, w0
	.loc 1 384 0
	sub	w19, w19, w5
	.loc 1 381 0
	bhi	.L401
	mov	w0, 1
.LVL549:
	.loc 1 383 0
	lsl	w26, w28, 1
	.loc 1 384 0
	lsl	w27, w19, 1
	lsl	w7, w0, w24
.LVL550:
.L401:
	.loc 1 394 0
	subs	w1, w1, #1
.LVL551:
.LBE336:
.LBE335:
	.loc 1 413 0 discriminator 3
	sub	w24, w24, #1
	.loc 1 415 0
	orr	w25, w7, w25
.LBB339:
.LBB337:
	.loc 1 394 0
	bne	.L402
	.loc 1 397 0
	mov	w1, 8
.LVL552:
	mov	x0, x20
.LVL553:
	bl	BsGet
.LVL554:
	orr	w27, w27, w0
	.loc 1 396 0
	mov	w1, 8
.LVL555:
.L402:
.LBE337:
.LBE339:
	.loc 1 413 0 discriminator 1
	cmn	w24, #1
.LBB340:
.LBB338:
	.loc 1 399 0
	str	w1, [x23,48]
	.loc 1 400 0
	str	w27, [x23,44]
	mov	w28, w26
	.loc 1 401 0
	str	w26, [x23,40]
	mov	w19, w27
.LBE338:
.LBE340:
	.loc 1 413 0 discriminator 1
	bne	.L403
.LBE341:
.LBE342:
.LBB343:
.LBB344:
	.loc 1 415 0
	ldr	x23, [x29,104]
.LBE344:
.LBE343:
	.loc 1 1562 0
	lsl	w6, w25, 1
.LBB347:
.LBB345:
	.loc 1 415 0
	mov	x0, x20
.LVL556:
.LBE345:
.LBE347:
	.loc 1 1562 0
	str	w6, [x21,4104]
.LBB348:
.LBB346:
	.loc 1 415 0
	mov	x1, x23
.LVL557:
	bl	Vp6_Vfmw_DecodeBool128
.LVL558:
	mov	w26, w0
.LVL559:
	mov	x1, x23
	mov	x0, x20
	bl	Vp6_Vfmw_DecodeBool128
.LVL560:
	orr	w0, w0, w26, lsl 1
.LBE346:
.LBE348:
	.loc 1 1563 0
	strb	w0, [x21,4063]
	.loc 1 1566 0
	ldr	w0, [x29,100]
	ldr	w3, [x22,12064]
	ldr	w2, [x22,12060]
	cmp	w0, w3
	bne	.L405
	.loc 1 1566 0 is_stmt 0 discriminator 1
	ldr	w0, [x29,96]
	cmp	w0, w2
	beq	.L406
.L405:
	.loc 1 1568 0 is_stmt 1
	adrp	x1, .LC12
	ldr	w4, [x29,96]
	ldr	w5, [x29,100]
	mov	w0, 22
	add	x1, x1, :lo12:.LC12
	bl	dprint_linux_kernel
.LVL561:
.L406:
	.loc 1 1571 0
	ldr	w1, [x29,96]
	.loc 1 1575 0
	add	x0, x21, 4060
	.loc 1 1571 0
	str	w1, [x22,12060]
	.loc 1 1572 0
	ldr	w1, [x29,100]
	str	w1, [x22,12064]
	.loc 1 1575 0
	ldr	w1, [x0,16]
	cbnz	w1, .L427
	.loc 1 1611 0
	mov	w1, 14
	strb	w1, [x0,6]
	.loc 1 1612 0
	str	wzr, [x21,4116]
.LVL562:
.L416:
	.loc 1 1615 0
	adrp	x1, .LC13
	mov	w0, 22
	add	x1, x1, :lo12:.LC13
	bl	dprint_linux_kernel
.LVL563:
	mov	w0, 1
.LBE298:
.LBE297:
	.loc 1 1617 0
	ldp	x19, x20, [sp,16]
	.cfi_remember_state
	.cfi_restore 20
	.cfi_restore 19
.LVL564:
	ldp	x21, x22, [sp,32]
	.cfi_restore 22
	.cfi_restore 21
.LVL565:
	ldp	x23, x24, [sp,48]
	.cfi_restore 24
	.cfi_restore 23
.LVL566:
	ldp	x25, x26, [sp,64]
	.cfi_restore 26
	.cfi_restore 25
.LVL567:
	ldp	x27, x28, [sp,80]
	.cfi_restore 28
	.cfi_restore 27
.LVL568:
	ldp	x29, x30, [sp], 112
	.cfi_restore 30
	.cfi_restore 29
	.cfi_def_cfa 31, 0
	ret
.LVL569:
.L425:
	.cfi_restore_state
	.loc 1 1526 0
	adrp	x1, .LC10
	mov	w0, 1
	add	x1, x1, :lo12:.LC10
	bl	dprint_linux_kernel
.LVL570:
	.loc 1 1527 0
	mov	w0, 0
	.loc 1 1617 0
	ldp	x19, x20, [sp,16]
	.cfi_remember_state
	.cfi_restore 19
	.cfi_restore 20
.LVL571:
	ldp	x21, x22, [sp,32]
	.cfi_restore 21
	.cfi_restore 22
.LVL572:
	ldp	x23, x24, [sp,48]
	.cfi_restore 23
	.cfi_restore 24
	ldp	x25, x26, [sp,64]
	.cfi_restore 25
	.cfi_restore 26
	ldp	x27, x28, [sp,80]
	.cfi_restore 27
	.cfi_restore 28
	ldp	x29, x30, [sp], 112
	.cfi_restore 29
	.cfi_restore 30
	.cfi_def_cfa 31, 0
	ret
.LVL573:
.L386:
	.cfi_restore_state
.LBB363:
.LBB361:
.LBB349:
.LBB350:
	.loc 1 424 0
	str	wzr, [x22,12324]
	.loc 1 425 0
	mov	w3, 255
	.loc 1 427 0
	mov	x0, x20
	.loc 1 425 0
	str	w3, [x23,40]
	.loc 1 427 0
	mov	w1, 24
	.loc 1 426 0
	mov	w3, 8
	str	w3, [x23,48]
	.loc 1 427 0
	bl	BsGet
.LVL574:
	str	w0, [x23,44]
	b	.L387
.L426:
.LBE350:
.LBE349:
.LBE361:
.LBE363:
	.loc 1 1533 0
	adrp	x1, .LC11
	mov	w0, 1
	add	x1, x1, :lo12:.LC11
	bl	dprint_linux_kernel
.LVL575:
	.loc 1 1534 0
	mov	w0, 0
	.loc 1 1617 0
	ldp	x19, x20, [sp,16]
	.cfi_remember_state
	.cfi_restore 19
	.cfi_restore 20
.LVL576:
	ldp	x21, x22, [sp,32]
	.cfi_restore 21
	.cfi_restore 22
.LVL577:
	ldp	x23, x24, [sp,48]
	.cfi_restore 23
	.cfi_restore 24
	ldp	x25, x26, [sp,64]
	.cfi_restore 25
	.cfi_restore 26
	ldp	x27, x28, [sp,80]
	.cfi_restore 27
	.cfi_restore 28
	ldp	x29, x30, [sp], 112
	.cfi_restore 29
	.cfi_restore 30
	.cfi_def_cfa 31, 0
	ret
.LVL578:
.L427:
	.cfi_restore_state
.LBB364:
.LBB362:
	.loc 1 1578 0
	ldr	x1, [x29,104]
	mov	x0, x20
	bl	Vp6_Vfmw_DecodeBool128
.LVL579:
	cbz	w0, .L408
	.loc 1 1580 0
	mov	w0, 2
.LBB351:
.LBB352:
	.loc 1 411 0
	mov	w22, 0
.LVL580:
.LBE352:
.LBE351:
	.loc 1 1580 0
	str	w0, [x21,4116]
.LBB354:
.LBB353:
	.loc 1 413 0
	mov	w19, 4
.LVL581:
.L409:
	.loc 1 415 0
	ldr	x1, [x29,104]
	mov	x0, x20
	bl	Vp6_Vfmw_DecodeBool128
.LVL582:
	lsl	w0, w0, w19
	.loc 1 413 0 discriminator 3
	sub	w19, w19, #1
	.loc 1 415 0
	orr	w22, w0, w22
	.loc 1 413 0 discriminator 1
	cmn	w19, #1
	bne	.L409
.LBE353:
.LBE354:
	.loc 1 1583 0
	ldr	w0, [x21,4072]
	and	w22, w22, 255
.LVL583:
.LBB355:
.LBB356:
	.loc 1 411 0
	mov	w24, 0
.LVL584:
	.loc 1 413 0
	mov	w19, 2
.LVL585:
.LBE356:
.LBE355:
	.loc 1 1583 0 discriminator 2
	cmp	w0, 7
	mov	w0, 5
	csel	w0, wzr, w0, hi
	.loc 1 1583 0 is_stmt 0 discriminator 4
	lsl	w22, w22, w0
	.loc 1 1582 0 is_stmt 1
	strb	w22, [x21,4064]
.L411:
.LBB358:
.LBB357:
	.loc 1 415 0
	ldr	x1, [x29,104]
	mov	x0, x20
	bl	Vp6_Vfmw_DecodeBool128
.LVL586:
	lsl	w0, w0, w19
	.loc 1 413 0 discriminator 3
	sub	w19, w19, #1
	.loc 1 415 0
	orr	w24, w0, w24
	.loc 1 413 0 discriminator 1
	cmn	w19, #1
	bne	.L411
.LBE357:
.LBE358:
	.loc 1 1585 0
	strb	w24, [x21,4065]
.LVL587:
.L412:
	.loc 1 1599 0
	add	x0, x21, 4060
	ldr	w1, [x0,12]
	cmp	w1, 7
	bls	.L414
	mov	w22, 0
.LVL588:
	mov	w19, 3
.LVL589:
.L415:
.LBB359:
.LBB360:
	.loc 1 415 0
	ldr	x1, [x29,104]
	mov	x0, x20
	bl	Vp6_Vfmw_DecodeBool128
.LVL590:
	lsl	w0, w0, w19
	.loc 1 413 0 discriminator 3
	sub	w19, w19, #1
	.loc 1 415 0
	orr	w22, w0, w22
	.loc 1 413 0 discriminator 1
	cmn	w19, #1
	bne	.L415
.LBE360:
.LBE359:
	.loc 1 1601 0
	strb	w22, [x21,4066]
	b	.L416
.LVL591:
.L414:
	.loc 1 1605 0
	mov	w1, 16
	strb	w1, [x0,6]
	b	.L416
.LVL592:
.L408:
	.loc 1 1589 0
	ldr	x1, [x29,104]
	mov	x0, x20
	bl	Vp6_Vfmw_DecodeBool128
.LVL593:
	cbz	w0, .L413
	.loc 1 1591 0
	mov	w0, 1
	str	w0, [x21,4116]
	b	.L412
.L413:
	.loc 1 1595 0
	str	wzr, [x21,4116]
	b	.L412
.LBE362:
.LBE364:
	.cfi_endproc
.LFE2659:
	.size	VP6_IntraFrmHeader, .-VP6_IntraFrmHeader
	.align	2
	.global	VP6_InterFrmHeader
	.type	VP6_InterFrmHeader, %function
VP6_InterFrmHeader:
.LFB2660:
	.loc 1 1622 0
	.cfi_startproc
.LVL594:
	stp	x29, x30, [sp, -80]!
	.cfi_def_cfa_offset 80
	.cfi_offset 29, -80
	.cfi_offset 30, -72
	add	x29, sp, 0
	.cfi_def_cfa_register 29
	stp	x19, x20, [sp,16]
	stp	x23, x24, [sp,48]
	stp	x21, x22, [sp,32]
	str	x25, [sp,64]
	.cfi_offset 19, -64
	.cfi_offset 20, -56
	.cfi_offset 23, -32
	.cfi_offset 24, -24
	.cfi_offset 21, -48
	.cfi_offset 22, -40
	.cfi_offset 25, -16
	.loc 1 1622 0
	mov	x23, x1
	mov	x19, x0
	.loc 1 1626 0
	ldr	w1, [x0,12120]
.LVL595:
	cbz	w1, .L453
	.loc 1 1634 0
	add	x24, x0, 8192
	str	w1, [x24,4072]
.LBB377:
.LBB378:
	.loc 1 424 0
	add	x20, x0, 12288
.LBE378:
.LBE377:
	.loc 1 1635 0
	ldr	w2, [x0,12124]
	.loc 1 1638 0
	ldrb	w1, [x24,4062]
	.loc 1 1635 0
	str	w2, [x24,4076]
	.loc 1 1638 0
	cbnz	w1, .L454
.LBB381:
.LBB382:
	.loc 1 424 0
	str	wzr, [x0,12324]
	.loc 1 425 0
	mov	w2, 255
	.loc 1 427 0
	mov	w1, 24
	.loc 1 425 0
	str	w2, [x20,40]
	.loc 1 427 0
	mov	x0, x23
	.loc 1 426 0
	mov	w2, 8
	str	w2, [x20,48]
	.loc 1 427 0
	bl	BsGet
.LVL596:
.LBE382:
.LBE381:
.LBB384:
.LBB385:
	.loc 1 375 0
	ldr	w22, [x20,40]
.LBE385:
.LBE384:
.LBB390:
.LBB383:
	.loc 1 427 0
	str	w0, [x20,44]
.LBE383:
.LBE390:
.LBB391:
.LBB386:
	.loc 1 378 0
	add	w1, w22, 1
	.loc 1 374 0
	ldr	w2, [x20,48]
	.loc 1 378 0
	lsr	w1, w1, 1
.LVL597:
	.loc 1 379 0
	lsl	w21, w1, 16
.LVL598:
	.loc 1 381 0
	cmp	w21, w0
	bhi	.L433
.L456:
	.loc 1 383 0
	sub	w22, w22, w1
	.loc 1 384 0
	sub	w21, w0, w21
.LVL599:
	.loc 1 383 0
	lsl	w22, w22, 1
	.loc 1 384 0
	lsl	w21, w21, 1
.LVL600:
	.loc 1 385 0
	mov	w25, 1
.LVL601:
.L434:
	.loc 1 394 0
	subs	w2, w2, #1
	bne	.L435
	.loc 1 397 0
	mov	x0, x23
	mov	w1, 8
.LVL602:
	bl	BsGet
.LVL603:
	orr	w21, w21, w0
	.loc 1 396 0
	mov	w2, 8
.LVL604:
.L435:
	.loc 1 399 0
	str	w2, [x20,48]
.LBE386:
.LBE391:
	.loc 1 1651 0
	add	x0, x24, 4060
.LBB392:
.LBB387:
	.loc 1 400 0
	str	w21, [x20,44]
	.loc 1 401 0
	str	w22, [x20,40]
.LBE387:
.LBE392:
	.loc 1 1651 0
	str	w25, [x24,4120]
	.loc 1 1650 0
	str	w25, [x19,12084]
	.loc 1 1654 0
	ldr	w1, [x19,12124]
.LVL605:
	cbnz	w1, .L455
	.loc 1 1697 0
	mov	w1, 14
	strb	w1, [x0,6]
	.loc 1 1698 0
	str	wzr, [x24,4116]
	.loc 1 1701 0
	mov	w19, 1
.LVL606:
.L430:
	.loc 1 1702 0
	mov	w0, w19
	ldr	x25, [sp,64]
	.cfi_remember_state
	.cfi_restore 25
.LVL607:
	ldp	x19, x20, [sp,16]
	.cfi_restore 20
	.cfi_restore 19
	ldp	x21, x22, [sp,32]
	.cfi_restore 22
	.cfi_restore 21
.LVL608:
	ldp	x23, x24, [sp,48]
	.cfi_restore 24
	.cfi_restore 23
.LVL609:
	ldp	x29, x30, [sp], 80
	.cfi_restore 30
	.cfi_restore 29
	.cfi_def_cfa 31, 0
	ret
.LVL610:
.L454:
	.cfi_restore_state
	.loc 1 1641 0
	mov	w1, 16
	mov	x0, x23
.LVL611:
	bl	BsGet
.LVL612:
	str	w0, [x24,4112]
.LBB393:
.LBB379:
	.loc 1 424 0
	str	wzr, [x19,12324]
	.loc 1 425 0
	mov	w0, 255
	str	w0, [x20,40]
	.loc 1 426 0
	mov	w0, 8
	.loc 1 427 0
	mov	w1, 24
	.loc 1 426 0
	str	w0, [x20,48]
	.loc 1 427 0
	mov	x0, x23
	bl	BsGet
.LVL613:
.LBE379:
.LBE393:
.LBB394:
.LBB388:
	.loc 1 375 0
	ldr	w22, [x20,40]
.LBE388:
.LBE394:
.LBB395:
.LBB380:
	.loc 1 427 0
	str	w0, [x20,44]
.LBE380:
.LBE395:
.LBB396:
.LBB389:
	.loc 1 378 0
	add	w1, w22, 1
	.loc 1 374 0
	ldr	w2, [x20,48]
	.loc 1 378 0
	lsr	w1, w1, 1
.LVL614:
	.loc 1 379 0
	lsl	w21, w1, 16
.LVL615:
	.loc 1 381 0
	cmp	w21, w0
	bls	.L456
.L433:
	.loc 1 389 0
	lsl	w22, w1, 1
	.loc 1 390 0
	lsl	w21, w0, 1
.LVL616:
	.loc 1 391 0
	mov	w25, 0
.LVL617:
	b	.L434
.LVL618:
.L455:
.LBE389:
.LBE396:
	.loc 1 1652 0
	add	x20, x0, 72
	.loc 1 1657 0
	mov	x0, x23
	mov	x1, x20
	bl	Vp6_Vfmw_DecodeBool128
.LVL619:
	str	w0, [x24,4124]
	mov	w21, w0
.LVL620:
	.loc 1 1658 0
	cbnz	w0, .L457
.L437:
	.loc 1 1664 0
	ldr	w0, [x19,12120]
	cmp	w0, 7
	bhi	.L458
	.loc 1 1691 0
	mov	w0, 16
	strb	w0, [x24,4066]
	.loc 1 1701 0
	mov	w19, 1
.LVL621:
	.loc 1 1702 0
	mov	w0, w19
	ldr	x25, [sp,64]
	.cfi_remember_state
	.cfi_restore 25
.LVL622:
	ldp	x19, x20, [sp,16]
	.cfi_restore 19
	.cfi_restore 20
	ldp	x21, x22, [sp,32]
	.cfi_restore 21
	.cfi_restore 22
	ldp	x23, x24, [sp,48]
	.cfi_restore 23
	.cfi_restore 24
.LVL623:
	ldp	x29, x30, [sp], 80
	.cfi_restore 29
	.cfi_restore 30
	.cfi_def_cfa 31, 0
	ret
.LVL624:
.L458:
	.cfi_restore_state
	.loc 1 1666 0
	mov	x0, x23
	mov	x1, x20
	.loc 1 1701 0
	mov	w19, 1
.LVL625:
	.loc 1 1666 0
	bl	Vp6_Vfmw_DecodeBool128
.LVL626:
	cbz	w0, .L430
	.loc 1 1668 0
	mov	x0, x23
	mov	x1, x20
	bl	Vp6_Vfmw_DecodeBool128
.LVL627:
	cbz	w0, .L439
	.loc 1 1670 0
	mov	w0, 2
.LBB397:
.LBB398:
	.loc 1 411 0
	mov	w21, 0
.LVL628:
.LBE398:
.LBE397:
	.loc 1 1670 0
	str	w0, [x24,4116]
.LBB400:
.LBB399:
	.loc 1 413 0
	mov	w19, 4
.LVL629:
.L440:
	.loc 1 415 0
	mov	x0, x23
	mov	x1, x20
	bl	Vp6_Vfmw_DecodeBool128
.LVL630:
	lsl	w0, w0, w19
	.loc 1 413 0 discriminator 3
	sub	w19, w19, #1
	.loc 1 415 0
	orr	w21, w0, w21
	.loc 1 413 0 discriminator 1
	cmn	w19, #1
	bne	.L440
.LBE399:
.LBE400:
	.loc 1 1671 0
	strb	w21, [x24,4064]
.LBB401:
.LBB402:
	.loc 1 413 0
	mov	w19, 2
.LVL631:
	.loc 1 411 0
	mov	w21, 0
.LVL632:
.L441:
	.loc 1 415 0
	mov	x0, x23
	mov	x1, x20
	bl	Vp6_Vfmw_DecodeBool128
.LVL633:
	lsl	w0, w0, w19
	.loc 1 413 0 discriminator 3
	sub	w19, w19, #1
	.loc 1 415 0
	orr	w21, w0, w21
	.loc 1 413 0 discriminator 1
	cmn	w19, #1
	bne	.L441
.LBE402:
.LBE401:
	.loc 1 1672 0
	strb	w21, [x24,4065]
.L442:
.LBB404:
.LBB403:
	.loc 1 413 0
	mov	w21, 0
.LVL634:
	mov	w19, 3
.LVL635:
.L444:
.LBE403:
.LBE404:
.LBB405:
.LBB406:
	.loc 1 415 0
	mov	x0, x23
	mov	x1, x20
	bl	Vp6_Vfmw_DecodeBool128
.LVL636:
	lsl	w0, w0, w19
	.loc 1 413 0 discriminator 3
	sub	w19, w19, #1
	.loc 1 415 0
	orr	w21, w0, w21
	.loc 1 413 0 discriminator 1
	cmn	w19, #1
	bne	.L444
.LBE406:
.LBE405:
	.loc 1 1686 0
	strb	w21, [x24,4066]
	.loc 1 1701 0
	mov	w19, 1
.LVL637:
	b	.L430
.LVL638:
.L457:
	.loc 1 1661 0
	mov	x0, x23
	mov	x1, x20
	bl	Vp6_Vfmw_DecodeBool128
.LVL639:
	orr	w0, w0, w21, lsl 1
	.loc 1 1660 0
	str	w0, [x24,4124]
	b	.L437
.LVL640:
.L453:
	.loc 1 1628 0
	ldr	w3, [x0,12264]
	adrp	x1, .LC14
	add	x1, x1, :lo12:.LC14
	mov	w2, 0
	mov	w0, 1
.LVL641:
	.loc 1 1631 0
	mov	w19, -88
.LVL642:
	.loc 1 1628 0
	bl	dprint_linux_kernel
.LVL643:
	.loc 1 1631 0
	b	.L430
.LVL644:
.L439:
	.loc 1 1676 0
	mov	x0, x23
	mov	x1, x20
	bl	Vp6_Vfmw_DecodeBool128
.LVL645:
	.loc 1 1678 0
	cmp	w0, wzr
	csel	w19, w19, wzr, ne
	str	w19, [x24,4116]
	b	.L442
	.cfi_endproc
.LFE2660:
	.size	VP6_InterFrmHeader, .-VP6_InterFrmHeader
	.align	2
	.global	VP6_GetPictureHeader
	.type	VP6_GetPictureHeader, %function
VP6_GetPictureHeader:
.LFB2661:
	.loc 1 1706 0
	.cfi_startproc
.LVL646:
	stp	x29, x30, [sp, -48]!
	.cfi_def_cfa_offset 48
	.cfi_offset 29, -48
	.cfi_offset 30, -40
	add	x29, sp, 0
	.cfi_def_cfa_register 29
	stp	x19, x20, [sp,16]
	stp	x21, x22, [sp,32]
	.cfi_offset 19, -32
	.cfi_offset 20, -24
	.cfi_offset 21, -16
	.cfi_offset 22, -8
	.loc 1 1706 0
	mov	x21, x0
	mov	x19, x1
.LBB409:
.LBB410:
	.loc 1 1717 0
	mov	w0, 22
.LVL647:
.LBE410:
.LBE409:
	.loc 1 1711 0
	cbz	x21, .L466
	cbz	x1, .L466
.LBB413:
.LBB411:
	.loc 1 1717 0
	adrp	x1, .LC16
	.loc 1 1721 0
	add	x22, x21, 8192
	.loc 1 1717 0
	add	x1, x1, :lo12:.LC16
	bl	dprint_linux_kernel
.LVL648:
	.loc 1 1721 0
	mov	w1, 1
	mov	x0, x19
	bl	BsGet
.LVL649:
	uxtb	w0, w0
	.loc 1 1722 0
	mov	w1, 6
	.loc 1 1721 0
	str	w0, [x22,4080]
	strb	w0, [x22,3888]
	.loc 1 1722 0
	mov	x0, x19
	bl	BsGet
.LVL650:
	.loc 1 1724 0
	and	w3, w0, 255
	adrp	x1, .LANCHOR0
	.loc 1 1722 0
	strb	w0, [x22,4060]
	.loc 1 1724 0
	add	x1, x1, :lo12:.LANCHOR0
	.loc 1 1728 0
	mov	x0, x19
	.loc 1 1724 0
	add	x5, x1, 1672
	.loc 1 1725 0
	add	x4, x1, 1736
	.loc 1 1726 0
	add	x2, x1, 1864
	.loc 1 1728 0
	mov	w1, 1
	.loc 1 1724 0
	ldrb	w5, [x5,w3,sxtw]
	.loc 1 1725 0
	ldrh	w4, [x4,w3,sxtw 1]
	.loc 1 1726 0
	ldrh	w2, [x2,w3,sxtw 1]
	.loc 1 1724 0
	strb	w5, [x22,4061]
	.loc 1 1725 0
	strh	w4, [x22,4068]
	.loc 1 1726 0
	strh	w2, [x22,4070]
	.loc 1 1728 0
	bl	BsGet
.LVL651:
	strb	w0, [x22,4062]
	.loc 1 1733 0
	ldr	w1, [x22,4080]
	.loc 1 1735 0
	mov	x0, x21
	.loc 1 1733 0
	cbz	w1, .L467
	.loc 1 1739 0
	mov	x1, x19
	bl	VP6_InterFrmHeader
.LVL652:
	.loc 1 1742 0
	cmp	w0, 1
.LVL653:
	mov	w20, w0
	beq	.L468
.L462:
.LBE411:
.LBE413:
	.loc 1 1756 0
	mov	w0, w20
.LVL654:
	ldp	x19, x20, [sp,16]
	.cfi_remember_state
	.cfi_restore 20
	.cfi_restore 19
.LVL655:
	ldp	x21, x22, [sp,32]
	.cfi_restore 22
	.cfi_restore 21
.LVL656:
	ldp	x29, x30, [sp], 48
	.cfi_restore 30
	.cfi_restore 29
	.cfi_def_cfa 31, 0
	ret
.LVL657:
.L467:
	.cfi_restore_state
.LBB414:
.LBB412:
	.loc 1 1735 0
	mov	x1, x19
	bl	VP6_IntraFrmHeader
.LVL658:
	.loc 1 1742 0
	cmp	w0, 1
.LVL659:
	mov	w20, w0
	bne	.L462
.L468:
	.loc 1 1749 0
	add	x1, x22, 4060
	mov	x0, x19
.LVL660:
	add	x1, x1, 72
	bl	Vp6_Vfmw_DecodeBool128
.LVL661:
	str	w0, [x22,4128]
	.loc 1 1750 0
	ldrb	w1, [x22,4060]
	.loc 1 1753 0
	mov	w0, 22
	.loc 1 1750 0
	str	w1, [x22,4108]
	.loc 1 1753 0
	adrp	x1, .LC17
	add	x1, x1, :lo12:.LC17
	bl	dprint_linux_kernel
.LVL662:
.LBE412:
.LBE414:
	.loc 1 1756 0
	mov	w0, w20
	ldp	x19, x20, [sp,16]
	.cfi_remember_state
	.cfi_restore 19
	.cfi_restore 20
.LVL663:
	ldp	x21, x22, [sp,32]
	.cfi_restore 21
	.cfi_restore 22
.LVL664:
	ldp	x29, x30, [sp], 48
	.cfi_restore 29
	.cfi_restore 30
	.cfi_def_cfa 31, 0
	ret
.LVL665:
.L466:
	.cfi_restore_state
	.loc 1 1713 0
	adrp	x1, .LC15
.LVL666:
	.loc 1 1714 0
	mov	w20, 0
	.loc 1 1713 0
	add	x1, x1, :lo12:.LC15
	bl	dprint_linux_kernel
.LVL667:
	.loc 1 1756 0
	mov	w0, w20
	ldp	x19, x20, [sp,16]
	.cfi_restore 19
	.cfi_restore 20
.LVL668:
	ldp	x21, x22, [sp,32]
	.cfi_restore 21
	.cfi_restore 22
.LVL669:
	ldp	x29, x30, [sp], 48
	.cfi_restore 29
	.cfi_restore 30
	.cfi_def_cfa 31, 0
	ret
	.cfi_endproc
.LFE2661:
	.size	VP6_GetPictureHeader, .-VP6_GetPictureHeader
	.align	2
	.global	VP6DEC_Init
	.type	VP6DEC_Init, %function
VP6DEC_Init:
.LFB2662:
	.loc 1 1760 0
	.cfi_startproc
.LVL670:
	stp	x29, x30, [sp, -48]!
	.cfi_def_cfa_offset 48
	.cfi_offset 29, -48
	.cfi_offset 30, -40
	.loc 1 1765 0
	mov	x2, 13352
	.loc 1 1760 0
	add	x29, sp, 0
	.cfi_def_cfa_register 29
	stp	x19, x20, [sp,16]
	str	x21, [sp,32]
	.cfi_offset 19, -32
	.cfi_offset 20, -24
	.cfi_offset 21, -16
	.loc 1 1760 0
	mov	x20, x1
	.loc 1 1765 0
	mov	w1, 0
.LVL671:
	.loc 1 1760 0
	mov	x19, x0
	.loc 1 1764 0
	ldr	w21, [x0,13336]
	.loc 1 1765 0
	bl	memset
.LVL672:
	.loc 1 1767 0
	add	x0, x19, 12288
	.loc 1 1766 0
	str	w21, [x19,13336]
	.loc 1 1767 0
	add	x0, x0, 440
	bl	ResetVoQueue
.LVL673:
	.loc 1 1769 0
	str	x20, [x19]
	.loc 1 1771 0
	mov	x0, x19
	bl	VCTRL_GetChanIDByCtx
.LVL674:
	.loc 1 1772 0
	cmn	w0, #1
	.loc 1 1771 0
	str	w0, [x19,13344]
	.loc 1 1772 0
	beq	.L472
	.loc 1 1779 0
	add	x20, x19, 288
.LVL675:
	mov	w1, 0
	mov	x0, x20
	mov	x2, 12396
	bl	memset
.LVL676:
	.loc 1 1783 0
	ldr	x1, [x19]
	.loc 1 1781 0
	mov	w0, 1024
	str	w0, [x19,12392]
	.loc 1 1785 0
	mov	w0, 1
	.loc 1 1783 0
	ldr	w1, [x1,12]
	str	w1, [x19,12356]
.LVL677:
.L471:
	.loc 1 1786 0
	ldp	x19, x20, [sp,16]
	.cfi_remember_state
	.cfi_restore 20
	.cfi_restore 19
.LVL678:
	ldr	x21, [sp,32]
	.cfi_restore 21
	ldp	x29, x30, [sp], 48
	.cfi_restore 30
	.cfi_restore 29
	.cfi_def_cfa 31, 0
	ret
.LVL679:
.L472:
	.cfi_restore_state
	.loc 1 1774 0
	adrp	x1, .LC18
	mov	w0, 0
	add	x1, x1, :lo12:.LC18
	bl	dprint_linux_kernel
.LVL680:
	.loc 1 1775 0
	mov	w0, -20
	b	.L471
	.cfi_endproc
.LFE2662:
	.size	VP6DEC_Init, .-VP6DEC_Init
	.align	2
	.global	VP6DEC_Destroy
	.type	VP6DEC_Destroy, %function
VP6DEC_Destroy:
.LFB2663:
	.loc 1 1792 0
	.cfi_startproc
.LVL681:
	.loc 1 1794 0
	mov	w0, 1
.LVL682:
	ret
	.cfi_endproc
.LFE2663:
	.size	VP6DEC_Destroy, .-VP6DEC_Destroy
	.align	2
	.global	VP6_DecodeDecide
	.type	VP6_DecodeDecide, %function
VP6_DecodeDecide:
.LFB2664:
	.loc 1 1800 0
	.cfi_startproc
.LVL683:
	stp	x29, x30, [sp, -32]!
	.cfi_def_cfa_offset 32
	.cfi_offset 29, -32
	.cfi_offset 30, -24
	add	x29, sp, 0
	.cfi_def_cfa_register 29
	stp	x19, x20, [sp,16]
	.cfi_offset 19, -16
	.cfi_offset 20, -8
	.loc 1 1809 0
	add	x19, x0, 288
	.loc 1 1800 0
	mov	x20, x0
	.loc 1 1809 0
	ldr	w0, [x19,12076]
.LVL684:
	cbz	w0, .L503
	.loc 1 1816 0
	ldr	w0, [x19,12068]
	sub	w0, w0, #2
	cmp	w0, 1
	.loc 1 1817 0
	ldr	x0, [x20]
	ldr	w2, [x0,12]
	.loc 1 1816 0
	bls	.L504
.L478:
	.loc 1 1825 0
	str	w2, [x19,12068]
	.loc 1 1826 0
	cmp	w2, 4
	bls	.L505
	.loc 1 1851 0
	adrp	x1, .LC24
	mov	w0, 1
	add	x1, x1, :lo12:.LC24
	bl	dprint_linux_kernel
.LVL685:
	.loc 1 1883 0
	mov	w0, 0
	.loc 1 1885 0
	ldp	x19, x20, [sp,16]
	.cfi_remember_state
	.cfi_restore 19
	.cfi_restore 20
.LVL686:
	ldp	x29, x30, [sp], 32
	.cfi_restore 29
	.cfi_restore 30
	.cfi_def_cfa 31, 0
	ret
.LVL687:
.L505:
	.cfi_restore_state
	.loc 1 1826 0
	adrp	x0, .L482
	add	x0, x0, :lo12:.L482
	ldrb	w0, [x0,w2,uxtw]
	adr	x1, .Lrtx482
	add	x0, x1, w0, sxtb #2
	br	x0
.Lrtx482:
	.section	.rodata
	.align	0
	.align	2
.L482:
	.byte	(.L481 - .Lrtx482) / 4
	.byte	(.L481 - .Lrtx482) / 4
	.byte	(.L483 - .Lrtx482) / 4
	.byte	(.L488 - .Lrtx482) / 4
	.byte	(.L481 - .Lrtx482) / 4
	.text
.L488:
	.loc 1 1883 0
	mov	w0, 0
.LVL688:
.L496:
	.loc 1 1885 0
	ldp	x19, x20, [sp,16]
	.cfi_remember_state
	.cfi_restore 20
	.cfi_restore 19
.LVL689:
	ldp	x29, x30, [sp], 32
	.cfi_restore 30
	.cfi_restore 29
	.cfi_def_cfa 31, 0
	ret
.LVL690:
.L504:
	.cfi_restore_state
	.loc 1 1816 0 discriminator 1
	cmp	w2, 1
	bls	.L491
	cmp	w2, 4
	bne	.L478
.L491:
	.loc 1 1821 0
	adrp	x1, .LC20
	mov	w0, 2
	add	x1, x1, :lo12:.LC20
	bl	dprint_linux_kernel
.LVL691:
	.loc 1 1822 0
	ldr	w0, [x20,13344]
	mov	w2, 1
	ldr	w1, [x19,12092]
	bl	FSP_ClearLogicFs
.LVL692:
	.loc 1 1822 0 is_stmt 0 discriminator 1
	ldr	w0, [x20,13344]
	mov	w2, 1
	ldr	w1, [x19,12096]
	bl	FSP_ClearLogicFs
.LVL693:
	.loc 1 1822 0
	str	wzr, [x19,12092]
	str	wzr, [x19,12096]
	.loc 1 1822 0 discriminator 2
	ldr	w0, [x20,13344]
	bl	FSP_GetNullLogicFs
.LVL694:
	.loc 1 1823 0 is_stmt 1
	str	wzr, [x19,12072]
	.loc 1 1822 0
	str	w0, [x19,12096]
	str	w0, [x19,12092]
	ldr	x0, [x20]
	ldr	w2, [x0,12]
	b	.L478
.L503:
	.loc 1 1811 0
	adrp	x1, .LC19
	mov	w0, 1
	add	x1, x1, :lo12:.LC19
	bl	dprint_linux_kernel
.LVL695:
	.loc 1 1812 0
	mov	w0, 0
	.loc 1 1885 0
	ldp	x19, x20, [sp,16]
	.cfi_remember_state
	.cfi_restore 19
	.cfi_restore 20
.LVL696:
	ldp	x29, x30, [sp], 32
	.cfi_restore 29
	.cfi_restore 30
	.cfi_def_cfa 31, 0
	ret
.LVL697:
.L483:
	.cfi_restore_state
	.loc 1 1832 0
	add	x0, x19, 8192
	ldrb	w2, [x0,3888]
	cbnz	w2, .L506
.L484:
	.loc 1 1858 0
	ldr	w1, [x19,12096]
	ldr	w0, [x20,13344]
	bl	FSP_GetFsImagePtr
.LVL698:
	mov	x1, x0
.LVL699:
	.loc 1 1859 0
	cbz	x0, .L507
	.loc 1 1864 0
	add	x19, x19, 8192
	.loc 1 1878 0
	mov	w0, 1
	.loc 1 1864 0
	ldrb	w2, [x19,3888]
	cbz	w2, .L496
	.loc 1 1866 0 discriminator 1
	ldr	x3, [x20]
	ldr	w2, [x1,84]
	ldr	w3, [x3,4]
	cmp	w2, w3
	bls	.L496
	.loc 1 1868 0
	adrp	x1, .LC26
.LVL700:
	add	x1, x1, :lo12:.LC26
	bl	dprint_linux_kernel
.LVL701:
	.loc 1 1869 0
	mov	w0, 0
	.loc 1 1885 0
	ldp	x19, x20, [sp,16]
	.cfi_remember_state
	.cfi_restore 19
	.cfi_restore 20
.LVL702:
	ldp	x29, x30, [sp], 32
	.cfi_restore 29
	.cfi_restore 30
	.cfi_def_cfa 31, 0
	ret
.LVL703:
.L481:
	.cfi_restore_state
	.loc 1 1841 0
	add	x0, x19, 8192
	ldrb	w0, [x0,3888]
	cbz	w0, .L484
	.loc 1 1841 0 is_stmt 0 discriminator 1
	ldr	w0, [x19,12072]
	cbnz	w0, .L484
	.loc 1 1843 0 is_stmt 1 discriminator 4
	adrp	x1, .LC22
	adrp	x2, .LC23
	mov	w0, 18
	add	x1, x1, :lo12:.LC22
	add	x2, x2, :lo12:.LC23
	mov	w3, 0
	bl	dprint_linux_kernel
.LVL704:
	.loc 1 1883 0
	mov	w0, 0
	b	.L496
.L506:
	.loc 1 1835 0
	adrp	x1, .LC21
	mov	w0, 18
	add	x1, x1, :lo12:.LC21
	bl	dprint_linux_kernel
.LVL705:
	.loc 1 1883 0
	mov	w0, 0
	b	.L496
.LVL706:
.L507:
	.loc 1 1861 0
	adrp	x2, .LANCHOR0
	adrp	x1, .LC25
	add	x2, x2, :lo12:.LANCHOR0
	mov	w0, 22
.LVL707:
	add	x1, x1, :lo12:.LC25
	add	x2, x2, 1992
	mov	w3, 1861
	bl	dprint_linux_kernel
.LVL708:
	.loc 1 1862 0
	mov	w0, 0
	b	.L496
	.cfi_endproc
.LFE2664:
	.size	VP6_DecodeDecide, .-VP6_DecodeDecide
	.align	2
	.global	VP6_Set_DecParam
	.type	VP6_Set_DecParam, %function
VP6_Set_DecParam:
.LFB2665:
	.loc 1 1890 0
	.cfi_startproc
.LVL709:
	stp	x29, x30, [sp, -80]!
	.cfi_def_cfa_offset 80
	.cfi_offset 29, -80
	.cfi_offset 30, -72
	add	x29, sp, 0
	.cfi_def_cfa_register 29
	stp	x21, x22, [sp,32]
	.cfi_offset 21, -48
	.cfi_offset 22, -40
	.loc 1 1900 0
	add	x21, x0, 288
	.loc 1 1890 0
	stp	x19, x20, [sp,16]
	.cfi_offset 19, -64
	.cfi_offset 20, -56
	mov	x20, x0
	.loc 1 1891 0
	add	x19, x0, 16
	.loc 1 1900 0
	add	x0, x21, 8192
.LVL710:
	.loc 1 1890 0
	stp	x23, x24, [sp,48]
	stp	x25, x26, [sp,64]
	.cfi_offset 23, -32
	.cfi_offset 24, -24
	.cfi_offset 25, -16
	.cfi_offset 26, -8
	.loc 1 1900 0
	ldrb	w0, [x0,3888]
	.loc 1 1894 0
	ldr	x24, [x20,264]
.LVL711:
	.loc 1 1900 0
	cmp	w0, 3
	beq	.L534
	.loc 1 1927 0
	add	x22, x20, 12288
	.loc 1 1926 0
	mov	x2, 248
	mov	w1, 0
	mov	x0, x19
	bl	memset
.LVL712:
	.loc 1 1927 0
	ldr	w1, [x22,272]
	str	w1, [x19,112]
	.loc 1 1928 0
	strb	wzr, [x19,1]
	.loc 1 1929 0
	ldrb	w1, [x22,252]
	str	w1, [x19,116]
	.loc 1 1930 0
	ldrb	w1, [x22,254]
	str	w1, [x19,120]
	.loc 1 1931 0
	ldr	w1, [x22,320]
	str	w1, [x19,124]
	.loc 1 1932 0
	ldr	w1, [x22,308]
	str	w1, [x19,136]
	.loc 1 1933 0
	ldrb	w1, [x22,256]
	str	w1, [x19,140]
	.loc 1 1934 0
	ldrb	w1, [x22,257]
	str	w1, [x19,144]
	.loc 1 1935 0
	ldrb	w1, [x22,258]
	str	w1, [x19,148]
	.loc 1 1937 0
	ldr	w1, [x22,316]
	str	w1, [x19,160]
	.loc 1 1938 0
	ldrb	w1, [x22,253]
	strb	w1, [x20,16]
	.loc 1 1939 0
	ldrh	w1, [x22,260]
	str	w1, [x19,128]
	.loc 1 1940 0
	ldrh	w1, [x22,262]
	str	w1, [x19,132]
	.loc 1 1942 0
	ldr	w1, [x22,268]
	str	w1, [x19,156]
	.loc 1 1943 0
	ldr	w1, [x22,264]
	str	w1, [x19,152]
	.loc 1 1945 0
	ldr	w1, [x22,280]
	strh	w1, [x19,104]
	.loc 1 1946 0
	ldr	w0, [x22,276]
	strh	w0, [x19,106]
	.loc 1 1948 0
	ldr	w0, [x20,13344]
	ldr	w1, [x21,12088]
	bl	FSP_GetLogicFs
.LVL713:
	mov	x23, x0
	.loc 1 1949 0
	ldr	w1, [x21,12096]
	ldr	w0, [x20,13344]
	bl	FSP_GetLogicFs
.LVL714:
	mov	x25, x0
	.loc 1 1950 0
	ldr	w1, [x21,12092]
	ldr	w0, [x20,13344]
	bl	FSP_GetLogicFs
.LVL715:
	.loc 1 1951 0
	cmp	x25, xzr
	cset	w2, eq
	cmp	x23, xzr
	cset	w1, eq
	.loc 1 1951 0 is_stmt 0 discriminator 1
	orr	w1, w2, w1
	cbnz	w1, .L518
	cbz	x0, .L518
	.loc 1 1956 0 is_stmt 1
	ldr	x1, [x23,296]
	cbz	x1, .L519
	.loc 1 1961 0
	ldr	w1, [x1,12]
	str	w1, [x19,224]
	.loc 1 1962 0
	ldr	w1, [x23,320]
	str	w1, [x19,236]
	.loc 1 1963 0
	ldr	x0, [x0,296]
	cbz	x0, .L535
.L532:
	.loc 1 1963 0 is_stmt 0 discriminator 2
	ldr	w0, [x0,12]
	.loc 1 1963 0 discriminator 4
	str	w0, [x19,228]
	.loc 1 1964 0 is_stmt 1
	ldr	x0, [x25,296]
	cbz	x0, .L536
.L533:
	.loc 1 1964 0 is_stmt 0 discriminator 2
	ldr	w0, [x0,12]
	.loc 1 1896 0 is_stmt 1
	add	x26, x22, 400
.LVL716:
	.loc 1 1964 0 discriminator 4
	str	w0, [x19,232]
	.loc 1 1971 0
	mov	x0, x26
	.loc 1 1965 0
	ldr	w1, [x21,12104]
	str	w1, [x19,240]
	.loc 1 1967 0
	ldr	w1, [x22,332]
	str	w1, [x19,212]
	.loc 1 1968 0
	ldr	w1, [x22,328]
	str	w1, [x19,216]
	.loc 1 1969 0
	ldr	w1, [x22,336]
	str	w1, [x19,220]
	.loc 1 1971 0
	ldr	x23, [x24]
	bl	BsPos
.LVL717:
	cmp	w0, wzr
	add	w1, w0, 7
	csel	w0, w1, w0, lt
	asr	w0, w0, 3
	add	x23, x23, x0, sxtw
	.loc 1 1972 0
	mov	x0, x23
	bl	MEM_Vir2Phy
.LVL718:
	and	w0, w0, -16
	sub	w1, w0, #16
	.loc 1 1973 0
	mov	x0, x23
	.loc 1 1972 0
	str	w1, [x19,108]
	.loc 1 1973 0
	bl	MEM_Vir2Phy
.LVL719:
	and	w0, w0, 15
	.loc 1 1974 0
	ldrb	w1, [x22,254]
	.loc 1 1977 0
	lsl	w0, w0, 3
	.loc 1 1974 0
	cbnz	w1, .L524
	.loc 1 1974 0 is_stmt 0 discriminator 1
	ldr	w1, [x22,268]
	cbnz	w1, .L525
.L524:
	.loc 1 1977 0 is_stmt 1
	str	w0, [x19,168]
	.loc 1 1976 0
	mov	w0, 16
	str	w0, [x19,172]
	.loc 1 1978 0
	mov	x0, x26
	add	x22, x22, 252
	ldr	w23, [x22,52]
	bl	BsPos
.LVL720:
	.loc 1 1979 0
	str	wzr, [x19,184]
	.loc 1 1978 0
	lsl	w23, w23, 3
	.loc 1 1980 0
	str	wzr, [x19,180]
	.loc 1 1978 0
	sub	w0, w23, w0
	.loc 1 1981 0
	str	wzr, [x19,176]
	.loc 1 1978 0
	str	w0, [x19,164]
	.loc 1 1982 0
	ldr	w0, [x22,52]
	ldr	x23, [x24]
	add	x23, x23, x0
	.loc 1 1983 0
	mov	x0, x23
	bl	MEM_Vir2Phy
.LVL721:
	mov	w25, w0
	.loc 1 1986 0
	mov	x0, x23
	.loc 1 1988 0
	ubfiz	w25, w25, 3, 4
	.loc 1 1986 0
	bl	MEM_Vir2Phy
.LVL722:
	ldr	w23, [x19,108]
	and	w0, w0, -16
	.loc 1 1987 0
	str	w25, [x19,192]
	.loc 1 1986 0
	sub	w23, w0, w23
	.loc 1 1985 0
	str	w23, [x19,196]
	.loc 1 1990 0
	ldr	w0, [x24,12]
	ldr	w22, [x22,52]
	lsl	w0, w0, 3
	.loc 1 1991 0
	str	wzr, [x19,208]
	.loc 1 1992 0
	str	wzr, [x19,204]
	.loc 1 1990 0
	sub	w0, w0, w22, lsl 3
	.loc 1 1993 0
	str	wzr, [x19,200]
	.loc 1 1989 0
	str	w0, [x19,188]
.L526:
	.loc 1 2014 0
	add	x21, x21, 4096
	.loc 1 2018 0
	add	x1, x20, 3362
	.loc 1 2014 0
	add	x0, x21, 834
	str	x0, [x19,88]
	.loc 1 2016 0
	add	x0, x21, 706
	.loc 1 2018 0
	str	x1, [x19,40]
	.loc 1 2016 0
	str	x0, [x19,80]
	.loc 1 2015 0
	add	x1, x21, 98
	.loc 1 2019 0
	add	x0, x20, 3426
	.loc 1 2015 0
	str	x1, [x19,64]
	.loc 1 2019 0
	str	x0, [x19,48]
	.loc 1 2017 0
	add	x1, x21, 2
	.loc 1 2021 0
	add	x0, x20, 2594
	.loc 1 2017 0
	str	x1, [x19,56]
	.loc 1 2021 0
	str	x0, [x19,16]
	.loc 1 2020 0
	add	x1, x20, 3298
	.loc 1 2023 0
	add	x0, x20, 3234
	.loc 1 2020 0
	str	x1, [x19,32]
	.loc 1 2023 0
	str	x0, [x19,24]
	.loc 1 2022 0
	add	x1, x20, 2530
	.loc 1 2024 0
	add	x0, x21, 2370
	.loc 1 2022 0
	str	x1, [x19,8]
	.loc 1 2024 0
	str	x0, [x19,96]
	.loc 1 2025 0
	add	x21, x21, 674
	str	x21, [x19,72]
	.loc 1 2029 0
	mov	w0, 1
	.loc 1 2026 0
	ldr	x1, [x20]
	ldr	w2, [x1,676]
	str	w2, [x19,244]
	.loc 1 2027 0
	str	x19, [x20,8]
	.loc 1 2028 0
	ldr	w1, [x1,676]
	str	w1, [x19,244]
.L512:
	.loc 1 2030 0
	ldp	x19, x20, [sp,16]
	.cfi_remember_state
	.cfi_restore 20
	.cfi_restore 19
.LVL723:
	ldp	x21, x22, [sp,32]
	.cfi_restore 22
	.cfi_restore 21
	ldp	x23, x24, [sp,48]
	.cfi_restore 24
	.cfi_restore 23
.LVL724:
	ldp	x25, x26, [sp,64]
	.cfi_restore 26
	.cfi_restore 25
.LVL725:
	ldp	x29, x30, [sp], 80
	.cfi_restore 30
	.cfi_restore 29
	.cfi_def_cfa 31, 0
	ret
.LVL726:
.L518:
	.cfi_restore_state
	.loc 1 1909 0
	adrp	x1, .LC27
	mov	w0, 1
	add	x1, x1, :lo12:.LC27
	bl	dprint_linux_kernel
.LVL727:
	.loc 1 1910 0
	mov	w0, 0
	.loc 1 2030 0
	ldp	x19, x20, [sp,16]
	.cfi_remember_state
	.cfi_restore 19
	.cfi_restore 20
.LVL728:
	ldp	x21, x22, [sp,32]
	.cfi_restore 21
	.cfi_restore 22
	ldp	x23, x24, [sp,48]
	.cfi_restore 23
	.cfi_restore 24
.LVL729:
	ldp	x25, x26, [sp,64]
	.cfi_restore 25
	.cfi_restore 26
	ldp	x29, x30, [sp], 80
	.cfi_restore 29
	.cfi_restore 30
	.cfi_def_cfa 31, 0
	ret
.LVL730:
.L534:
	.cfi_restore_state
	.loc 1 1902 0
	str	w0, [x19,112]
	.loc 1 1903 0
	mov	w0, 1
	strb	w0, [x19,1]
	.loc 1 1904 0
	ldr	w1, [x21,12088]
	ldr	w0, [x20,13344]
	bl	FSP_GetLogicFs
.LVL731:
	mov	x22, x0
	.loc 1 1905 0
	ldr	w1, [x21,12096]
	ldr	w0, [x20,13344]
	bl	FSP_GetLogicFs
.LVL732:
	mov	x23, x0
	.loc 1 1906 0
	ldr	w1, [x21,12092]
	ldr	w0, [x20,13344]
	bl	FSP_GetLogicFs
.LVL733:
	.loc 1 1907 0
	cmp	x23, xzr
	cset	w2, eq
	cmp	x22, xzr
	cset	w1, eq
	.loc 1 1907 0 is_stmt 0 discriminator 1
	orr	w1, w2, w1
	cbnz	w1, .L518
	cbz	x0, .L518
	.loc 1 1912 0 is_stmt 1
	ldr	x1, [x22,296]
	cbz	x1, .L519
	.loc 1 1917 0
	ldr	w1, [x1,12]
	str	w1, [x19,224]
	.loc 1 1918 0
	ldr	w1, [x22,320]
	str	w1, [x19,236]
	.loc 1 1919 0
	ldr	x0, [x0,296]
	cbz	x0, .L537
.L530:
	.loc 1 1919 0 is_stmt 0 discriminator 2
	ldr	w0, [x0,12]
	.loc 1 1919 0 discriminator 4
	str	w0, [x19,228]
	.loc 1 1920 0 is_stmt 1
	ldr	x0, [x23,296]
	cbz	x0, .L538
.L531:
	.loc 1 1920 0 is_stmt 0 discriminator 2
	ldr	w0, [x0,12]
	.loc 1 1920 0 discriminator 4
	str	w0, [x19,232]
	.loc 1 1923 0 is_stmt 1
	mov	w0, 1
	.loc 1 1921 0
	str	x19, [x20,8]
	.loc 1 2030 0
	ldp	x19, x20, [sp,16]
	.cfi_remember_state
	.cfi_restore 19
	.cfi_restore 20
.LVL734:
	ldp	x21, x22, [sp,32]
	.cfi_restore 21
	.cfi_restore 22
	ldp	x23, x24, [sp,48]
	.cfi_restore 23
	.cfi_restore 24
.LVL735:
	ldp	x25, x26, [sp,64]
	.cfi_restore 25
	.cfi_restore 26
	ldp	x29, x30, [sp], 80
	.cfi_restore 29
	.cfi_restore 30
	.cfi_def_cfa 31, 0
	ret
.LVL736:
.L525:
	.cfi_restore_state
	.loc 1 1999 0
	str	w0, [x19,168]
	.loc 1 1998 0
	mov	w1, 16
	str	w1, [x19,172]
	.loc 1 2000 0
	mov	x0, x26
	ldr	w22, [x24,12]
	bl	BsPos
.LVL737:
	.loc 1 2002 0
	str	wzr, [x19,184]
	.loc 1 2000 0
	lsl	w22, w22, 3
	.loc 1 2003 0
	str	wzr, [x19,180]
	.loc 1 2000 0
	sub	w0, w22, w0
	.loc 1 2004 0
	str	wzr, [x19,176]
	.loc 1 2000 0
	str	w0, [x19,164]
	.loc 1 2005 0
	str	wzr, [x19,196]
	.loc 1 2006 0
	str	wzr, [x19,192]
	.loc 1 2007 0
	str	wzr, [x19,188]
	.loc 1 2009 0
	str	wzr, [x19,208]
	.loc 1 2010 0
	str	wzr, [x19,204]
	.loc 1 2011 0
	str	wzr, [x19,200]
	b	.L526
.LVL738:
.L536:
	.loc 1 1964 0 discriminator 2
	ldr	x0, [x23,296]
	b	.L533
.L535:
	.loc 1 1963 0 discriminator 2
	ldr	x0, [x23,296]
	b	.L532
.L519:
	.loc 1 1914 0
	adrp	x1, .LC28
	mov	w0, 1
	add	x1, x1, :lo12:.LC28
	bl	dprint_linux_kernel
.LVL739:
	.loc 1 1915 0
	mov	w0, 0
	b	.L512
.L538:
	.loc 1 1920 0 discriminator 2
	ldr	x0, [x22,296]
	b	.L531
.L537:
	.loc 1 1919 0 discriminator 2
	ldr	x0, [x22,296]
	b	.L530
	.cfi_endproc
.LFE2665:
	.size	VP6_Set_DecParam, .-VP6_Set_DecParam
	.align	2
	.global	VP6_CfgTable
	.type	VP6_CfgTable, %function
VP6_CfgTable:
.LFB2666:
	.loc 1 2033 0
	.cfi_startproc
.LVL740:
	stp	x29, x30, [sp, -80]!
	.cfi_def_cfa_offset 80
	.cfi_offset 29, -80
	.cfi_offset 30, -72
	.loc 1 2039 0
	add	x4, x0, 2242
	add	x3, x0, 2258
	.loc 1 2033 0
	add	x29, sp, 0
	.cfi_def_cfa_register 29
	stp	x19, x20, [sp,16]
	stp	x21, x22, [sp,32]
	.cfi_offset 19, -64
	.cfi_offset 20, -56
	.cfi_offset 21, -48
	.cfi_offset 22, -40
	.loc 1 2033 0
	mov	x19, x0
	.loc 1 2039 0
	add	x2, x0, 2274
	ldr	x0, [x0,4]
.LVL741:
	.loc 1 2033 0
	adrp	x20, __stack_chk_guard
	.loc 1 2039 0
	str	x0, [x4]
	.loc 1 2035 0
	add	x6, x29, 56
	add	x5, x19, 2306
	add	x0, x19, 44
	.loc 1 2039 0
	ldrh	w7, [x19,12]
	strh	w7, [x19,2250]
	add	x7, x19, 404
	ldr	x4, [x19,14]
	str	x4, [x3]
	.loc 1 2033 0
	ldr	x8, [x20,#:lo12:__stack_chk_guard]
	.loc 1 2039 0
	ldrh	w4, [x19,22]
	ldr	x3, [x19,24]
	strh	w4, [x19,2266]
	str	x3, [x2]
	.loc 1 2035 0
	stp	xzr, xzr, [x6]
	.loc 1 2039 0
	ldrh	w3, [x19,32]
	.loc 1 2033 0
	str	x8, [x29,72]
	.loc 1 2039 0
	strh	w3, [x19,2282]
.L540:
	add	x4, x0, 90
	.loc 1 2033 0
	mov	x2, x5
.L541:
	.loc 1 2045 0
	ldr	x3, [x0]
	add	x0, x0, 9
	str	x3, [x2]
	add	x2, x2, 16
	.loc 1 2043 0 discriminator 1
	cmp	x0, x4
	.loc 1 2045 0
	ldrb	w3, [x0,-1]
	strb	w3, [x2,-8]
	.loc 1 2043 0 discriminator 1
	bne	.L541
	.loc 1 2041 0 discriminator 1
	cmp	x7, x0
	add	x5, x5, 160
	bne	.L540
	.loc 1 2048 0
	stp	xzr, xzr, [x6]
	.loc 1 2049 0
	ldrb	w0, [x19]
	.loc 1 2058 0
	add	x8, x19, 2946
	.loc 1 2052 0
	ldrb	w12, [x19,485]
	.loc 1 2072 0
	add	x7, x19, 2962
	.loc 1 2053 0
	ldrb	w11, [x19,486]
	.loc 1 2084 0
	add	x3, x19, 2978
	.loc 1 2054 0
	ldrb	w10, [x19,487]
	.loc 1 2098 0
	add	x2, x19, 2994
	.loc 1 2055 0
	ldrb	w9, [x19,488]
	.loc 1 2056 0
	ldrb	w5, [x19,489]
	.loc 1 2057 0
	ldrb	w4, [x19,490]
	.loc 1 2050 0
	ldrb	w14, [x19,2]
	.loc 1 2051 0
	ldrb	w13, [x19,484]
	.loc 1 2049 0
	strb	w0, [x29,56]
	.loc 1 2052 0
	strb	w12, [x29,59]
	.loc 1 2053 0
	strb	w11, [x29,60]
	.loc 1 2054 0
	strb	w10, [x29,61]
	.loc 1 2050 0
	strb	w14, [x29,57]
	.loc 1 2051 0
	strb	w13, [x29,58]
	.loc 1 2055 0
	strb	w9, [x29,62]
	.loc 1 2056 0
	strb	w5, [x29,63]
	.loc 1 2057 0
	strb	w4, [x29,64]
	.loc 1 2058 0
	ldp	x4, x5, [x6]
	stp	x4, x5, [x8]
	.loc 1 2060 0
	stp	xzr, xzr, [x6]
	.loc 1 2062 0
	ldrb	w9, [x19,498]
	.loc 1 2063 0
	ldrb	w8, [x19,499]
	.loc 1 2065 0
	ldrb	w4, [x19,501]
	.loc 1 2061 0
	strb	w0, [x29,56]
	.loc 1 2064 0
	ldrb	w5, [x19,500]
	.loc 1 2066 0
	ldrb	w0, [x19,502]
	.loc 1 2062 0
	strb	w9, [x29,57]
	.loc 1 2063 0
	strb	w8, [x29,58]
	.loc 1 2065 0
	strb	w4, [x29,60]
	.loc 1 2066 0
	strb	w0, [x29,61]
	.loc 1 2064 0
	strb	w5, [x29,59]
	.loc 1 2067 0
	ldrb	w5, [x19,503]
	.loc 1 2068 0
	ldrb	w4, [x19,504]
	.loc 1 2069 0
	ldrb	w0, [x19,505]
	strb	w0, [x29,64]
	.loc 1 2067 0
	strb	w5, [x29,62]
	.loc 1 2068 0
	strb	w4, [x29,63]
	.loc 1 2072 0
	ldp	x4, x5, [x6]
	stp	x4, x5, [x7]
	.loc 1 2074 0
	stp	xzr, xzr, [x6]
	.loc 1 2075 0
	ldrb	w0, [x19,1]
	.loc 1 2080 0
	ldrb	w8, [x19,494]
	.loc 1 2081 0
	ldrb	w7, [x19,495]
	.loc 1 2082 0
	ldrb	w5, [x19,496]
	.loc 1 2083 0
	ldrb	w4, [x19,497]
	.loc 1 2076 0
	ldrb	w12, [x19,3]
	.loc 1 2077 0
	ldrb	w11, [x19,491]
	.loc 1 2078 0
	ldrb	w10, [x19,492]
	.loc 1 2079 0
	ldrb	w9, [x19,493]
	.loc 1 2075 0
	strb	w0, [x29,56]
	.loc 1 2076 0
	strb	w12, [x29,57]
	.loc 1 2080 0
	strb	w8, [x29,61]
	.loc 1 2081 0
	strb	w7, [x29,62]
	.loc 1 2077 0
	strb	w11, [x29,58]
	.loc 1 2078 0
	strb	w10, [x29,59]
	.loc 1 2079 0
	strb	w9, [x29,60]
	.loc 1 2082 0
	strb	w5, [x29,63]
	.loc 1 2083 0
	strb	w4, [x29,64]
	.loc 1 2084 0
	ldp	x4, x5, [x6]
	stp	x4, x5, [x3]
	.loc 1 2086 0
	stp	xzr, xzr, [x6]
	.loc 1 2087 0
	strb	w0, [x29,56]
	.loc 1 2088 0
	ldrb	w0, [x19,506]
	strb	w0, [x29,57]
	.loc 1 2089 0
	ldrb	w9, [x19,507]
	.loc 1 2092 0
	ldrb	w5, [x19,510]
	.loc 1 2093 0
	ldrb	w4, [x19,511]
	.loc 1 2095 0
	ldrb	w0, [x19,513]
	.loc 1 2090 0
	ldrb	w8, [x19,508]
	.loc 1 2091 0
	ldrb	w7, [x19,509]
	.loc 1 2094 0
	ldrb	w3, [x19,512]
	.loc 1 2095 0
	strb	w0, [x29,64]
	.loc 1 2089 0
	strb	w9, [x29,58]
	.loc 1 2090 0
	strb	w8, [x29,59]
	.loc 1 2091 0
	strb	w7, [x29,60]
	.loc 1 2092 0
	strb	w5, [x29,61]
	.loc 1 2093 0
	strb	w4, [x29,62]
	.loc 1 2094 0
	strb	w3, [x29,63]
	.loc 1 2098 0
	ldp	x4, x5, [x6]
	stp	x4, x5, [x2]
	.loc 1 2100 0
	ldr	w0, [x1,68]
	cbnz	w0, .L561
	.loc 1 2119 0
	add	x0, x19, 4096
	ldr	x3, [x19,1152]
	add	x10, x19, 1163
	add	x8, x19, 1174
	add	x6, x19, 1185
	add	x5, x19, 1196
	str	x3, [x0,2]
	add	x4, x19, 1207
	add	x12, x0, 82
	.loc 1 2125 0
	add	x1, x0, 690
.LVL742:
	.loc 1 2119 0
	ldrh	w3, [x19,1160]
	mov	w9, 198
	strh	w3, [x0,10]
	.loc 1 2125 0
	add	x3, x0, 674
	.loc 1 2119 0
	ldrb	w2, [x19,1162]
	strb	w2, [x0,12]
	.loc 1 2125 0
	add	x2, x19, 550
	.loc 1 2119 0
	ldr	x7, [x10]
	str	x7, [x0,18]
	.loc 1 2125 0
	mov	w7, 0
	.loc 1 2119 0
	ldrh	w17, [x10,8]
	strh	w17, [x0,26]
	ldrb	w10, [x19,1173]
	strb	w10, [x0,28]
	ldr	x10, [x8]
	str	x10, [x0,34]
	ldrh	w10, [x19,1182]
	strh	w10, [x0,42]
	ldrb	w8, [x19,1184]
	strb	w8, [x0,44]
	ldr	x8, [x6]
	str	x8, [x0,50]
	ldrh	w8, [x6,8]
	strh	w8, [x0,58]
	ldrb	w6, [x19,1195]
	strb	w6, [x0,60]
	ldr	x6, [x5]
	str	x6, [x0,66]
	ldrh	w6, [x19,1204]
	strh	w6, [x0,74]
	ldrb	w5, [x19,1206]
	strb	w5, [x0,76]
	ldr	x5, [x4]
	str	x5, [x0,82]
	ldrh	w0, [x4,8]
	strh	w0, [x12,8]
	ldrb	w0, [x19,1217]
	strb	w0, [x12,10]
	.loc 1 2125 0
	ldr	x0, [x19,536]
	str	x0, [x3]
	ldr	w0, [x19,544]
	str	w0, [x3,8]
	ldrh	w0, [x19,548]
	strh	w0, [x3,12]
	ldr	x0, [x2]
	str	x0, [x1]
	ldr	w0, [x2,8]
	str	w0, [x1,8]
	ldrh	w0, [x19,562]
	strh	w0, [x1,12]
.L550:
	lsl	w0, w7, 8
	add	w0, w0, w7, lsl 5
	mul	w5, w7, w9
	sxtw	x0, w0
	add	x0, x0, 4096
	add	w6, w5, 66
	add	x0, x0, 98
	add	x0, x19, x0
.L553:
	add	x4, x0, 48
	.loc 1 2105 0
	mov	w2, w5
.L551:
	.loc 1 2134 0
	sxtw	x1, w2
	add	x0, x0, 16
	add	x1, x1, 560
	.loc 1 2132 0 discriminator 1
	cmp	x4, x0
	.loc 1 2134 0
	add	x1, x19, x1
	add	w2, w2, 66
	add	x3, x1, 4
	ldr	x1, [x1,4]
	str	x1, [x0,-16]
	ldrh	w1, [x3,8]
	strh	w1, [x0,-8]
	ldrb	w1, [x3,10]
	strb	w1, [x0,-6]
	.loc 1 2132 0 discriminator 1
	bne	.L551
	add	w5, w5, 11
	mov	x0, x4
	.loc 1 2130 0 discriminator 1
	cmp	w5, w6
	bne	.L553
	.loc 1 2128 0 discriminator 1
	cbnz	w7, .L549
	mov	w7, 1
	b	.L550
.L547:
	.loc 1 2110 0
	add	x0, x19, 3138
	add	x1, x19, 1218
	mov	x2, 960
	bl	memcpy
.LVL743:
.L549:
	.loc 1 2140 0
	add	x3, x19, 960
	add	x2, x19, 3010
	.loc 1 2141 0
	add	x1, x19, 1024
	add	x19, x19, 3074
.LVL744:
	.loc 1 2144 0
	mov	w0, 0
	.loc 1 2140 0
	ldp	x4, x5, [x3]
	stp	x4, x5, [x2]
	.loc 1 2144 0
	ldr	x5, [x29,72]
	.loc 1 2140 0
	ldp	x6, x7, [x3,16]
	stp	x6, x7, [x2,16]
	.loc 1 2144 0
	ldr	x4, [x20,#:lo12:__stack_chk_guard]
	.loc 1 2140 0
	ldp	x6, x7, [x3,32]
	stp	x6, x7, [x2,32]
	.loc 1 2144 0
	cmp	x5, x4
	.loc 1 2140 0
	ldp	x4, x5, [x3,48]
	stp	x4, x5, [x2,48]
	.loc 1 2141 0
	ldp	x2, x3, [x1]
	stp	x2, x3, [x19]
	ldp	x2, x3, [x1,16]
	stp	x2, x3, [x19,16]
	ldp	x2, x3, [x1,32]
	stp	x2, x3, [x19,32]
	ldp	x2, x3, [x1,48]
	stp	x2, x3, [x19,48]
	.loc 1 2144 0
	bne	.L562
	ldp	x19, x20, [sp,16]
	.cfi_remember_state
	.cfi_restore 20
	.cfi_restore 19
	ldp	x21, x22, [sp,32]
	.cfi_restore 22
	.cfi_restore 21
	ldp	x29, x30, [sp], 80
	.cfi_restore 30
	.cfi_restore 29
	.cfi_def_cfa 31, 0
	ret
.LVL745:
.L561:
	.cfi_restore_state
	.loc 1 2102 0
	add	x21, x19, 4096
	add	x22, x19, 8192
	add	x1, x22, 1308
.LVL746:
	mov	x2, 128
	add	x0, x21, 706
	bl	memcpy
.LVL747:
	.loc 1 2103 0
	add	x0, x21, 2370
	add	x1, x22, 3740
	mov	x2, 128
	bl	memcpy
.LVL748:
	.loc 1 2105 0
	mov	w7, 0
	mov	w9, 1152
	mov	x8, 9628
.L544:
	lsl	w0, w7, 10
	sub	w0, w0, w7, lsl 8
	smaddl	x6, w7, w9, x8
	sxtw	x5, w0
	add	x2, x5, 4096
	add	x6, x19, x6
	add	x0, x2, 834
	add	x5, x2, 1602
	add	x0, x19, x0
	add	x5, x19, x5
.L548:
	add	x4, x0, 256
	.loc 1 2033 0
	mov	x1, x6
.L545:
	add	x0, x0, 64
	add	x1, x1, 64
	.loc 1 2108 0
	ldp	x2, x3, [x1,-64]
	.loc 1 2107 0 discriminator 1
	cmp	x0, x4
	.loc 1 2108 0
	stp	x2, x3, [x0,-64]
	ldp	x2, x3, [x1,-48]
	stp	x2, x3, [x0,-48]
	ldp	x2, x3, [x1,-32]
	stp	x2, x3, [x0,-32]
	ldp	x2, x3, [x1,-16]
	stp	x2, x3, [x0,-16]
	.loc 1 2107 0 discriminator 1
	bne	.L545
	.loc 1 2106 0 discriminator 1
	cmp	x0, x5
	add	x6, x6, 384
	bne	.L548
	.loc 1 2105 0 discriminator 1
	cbnz	w7, .L547
	mov	w7, 1
	b	.L544
.LVL749:
.L562:
	.loc 1 2144 0
	bl	__stack_chk_fail
.LVL750:
	.cfi_endproc
.LFE2666:
	.size	VP6_CfgTable, .-VP6_CfgTable
	.align	2
	.global	VP6_BuildTables
	.type	VP6_BuildTables, %function
VP6_BuildTables:
.LFB2667:
	.loc 1 2150 0
	.cfi_startproc
.LVL751:
	stp	x29, x30, [sp, -48]!
	.cfi_def_cfa_offset 48
	.cfi_offset 29, -48
	.cfi_offset 30, -40
	.loc 1 2151 0
	cmp	x1, xzr
	.loc 1 2150 0
	add	x29, sp, 0
	.cfi_def_cfa_register 29
	str	x21, [sp,32]
	.cfi_offset 21, -16
	mov	x21, x2
	.loc 1 2151 0
	cset	w2, eq
.LVL752:
	.loc 1 2151 0 is_stmt 0 discriminator 1
	cmp	x21, xzr
	.loc 1 2150 0 is_stmt 1
	stp	x19, x20, [sp,16]
	.cfi_offset 19, -32
	.cfi_offset 20, -24
	.loc 1 2150 0
	mov	x20, x1
	.loc 1 2151 0 discriminator 1
	cset	w1, eq
.LVL753:
	orr	w1, w2, w1
	.loc 1 2150 0
	mov	x19, x0
	.loc 1 2151 0 discriminator 1
	cbnz	w1, .L574
	cbz	x0, .L574
.LBB419:
.LBB420:
	.loc 1 2156 0
	ldr	w1, [x20,20]
	cbz	w1, .L565
	.loc 1 2158 0
	mov	x1, x21
	mov	x2, x20
	bl	VP6_DecodeModeProbs
.LVL754:
	.loc 1 2159 0
	mov	x0, x19
	mov	x1, x21
	mov	x2, x20
	bl	VP6_ConfigureMvEntropyDecoder
.LVL755:
	.loc 1 2174 0
	ldr	w3, [x20,20]
	mov	x0, x19
	mov	x1, x21
	mov	x2, x20
	bl	VP6_ConfigureEntropyDecoder
.LVL756:
	.loc 1 2177 0
	ldr	w0, [x20,68]
	cbnz	w0, .L582
.L573:
	.loc 1 2182 0
	mov	x1, x20
	mov	x0, x19
	bl	VP6_CfgTable
.LVL757:
.LBE420:
.LBE419:
	.loc 1 2185 0
	ldr	x21, [sp,32]
	.cfi_remember_state
	.cfi_restore 21
.LVL758:
.LBB430:
.LBB427:
	.loc 1 2182 0
	mov	w0, 1
.LBE427:
.LBE430:
	.loc 1 2185 0
	ldp	x19, x20, [sp,16]
	.cfi_restore 20
	.cfi_restore 19
.LVL759:
	ldp	x29, x30, [sp], 48
	.cfi_restore 30
	.cfi_restore 29
	.cfi_def_cfa 31, 0
	ret
.LVL760:
.L565:
	.cfi_restore_state
.LBB431:
.LBB428:
	.loc 1 2163 0
	adrp	x10, .LANCHOR1
	add	x11, x0, 404
	add	x10, x10, :lo12:.LANCHOR1
	.loc 1 2165 0
	add	x16, x0, 484
	.loc 1 2163 0
	ldp	x6, x7, [x10,16]
	ldp	x4, x5, [x10,32]
	ldp	x0, x1, [x10,64]
.LVL761:
	ldp	x8, x9, [x10]
	ldp	x2, x3, [x10,48]
	stp	x6, x7, [x11,16]
	stp	x4, x5, [x11,32]
	stp	x0, x1, [x11,64]
	stp	x8, x9, [x11]
	stp	x2, x3, [x11,48]
	.loc 1 2164 0
	ldrh	w0, [x10,80]
	.loc 1 2167 0
	add	x1, x19, 498
	.loc 1 2164 0
	strh	w0, [x19,2]
	.loc 1 2168 0
	add	x0, x19, 1088
	.loc 1 2165 0
	ldr	x7, [x10,88]
.LBB421:
.LBB422:
	.loc 1 623 0
	mov	w4, 1
.LVL762:
.LBE422:
.LBE421:
	.loc 1 2165 0
	str	x7, [x16]
	ldrh	w5, [x10,100]
	strh	w5, [x19,496]
	ldr	w6, [x10,96]
	.loc 1 2166 0
	ldrh	w5, [x10,104]
	.loc 1 2165 0
	str	w6, [x19,492]
	.loc 1 2166 0
	strh	w5, [x19]
	add	x5, x19, 1089
	.loc 1 2167 0
	ldp	x2, x3, [x10,112]
	stp	x2, x3, [x1]
	.loc 1 2168 0
	ldp	x14, x15, [x10,128]
	ldp	x12, x13, [x10,144]
	ldp	x8, x9, [x10,160]
	ldp	x6, x7, [x10,176]
	stp	x14, x15, [x0]
	stp	x12, x13, [x0,16]
	stp	x8, x9, [x0,32]
	stp	x6, x7, [x0,48]
.LBB425:
.LBB423:
	.loc 1 631 0
	mov	w3, 0
.LVL763:
	.loc 1 627 0
	strb	wzr, [x19,960]
.L567:
	mov	x1, x5
.LBE423:
.LBE425:
.LBE428:
.LBE431:
	.loc 1 2150 0
	mov	w0, 1
	b	.L569
.L568:
.LBB432:
.LBB429:
.LBB426:
.LBB424:
	.loc 1 633 0 discriminator 2
	add	w0, w0, 1
	.loc 1 633 0 is_stmt 0 discriminator 1
	cmp	w0, 64
	beq	.L583
.L569:
	.loc 1 635 0 is_stmt 1
	ldrb	w2, [x1]
	add	x1, x1, 1
	cmp	w2, w3
	bne	.L568
	.loc 1 637 0
	add	x2, x19, x4, uxtw
	strb	w0, [x2,960]
	.loc 1 633 0 discriminator 2
	add	w0, w0, 1
	.loc 1 637 0
	add	w4, w4, 1
	.loc 1 633 0 discriminator 1
	cmp	w0, 64
	bne	.L569
.L583:
	.loc 1 631 0 discriminator 2
	add	w3, w3, 1
	.loc 1 631 0 is_stmt 0 discriminator 1
	cmp	w3, 16
	bne	.L567
	add	x7, x19, 64
	mov	x6, x19
.L570:
	mov	w5, w19
	sub	w4, w6, w19
.LVL764:
	.loc 1 631 0
	mov	x0, x19
	mov	w1, 0
.L571:
	.loc 1 651 0 is_stmt 1
	ldrb	w2, [x0,960]
	add	x0, x0, 1
	sub	w3, w0, w5
.LVL765:
	cmp	w1, w2
	csel	w1, w1, w2, cs
	.loc 1 649 0 discriminator 1
	cmp	w3, w4
	bls	.L571
	.loc 1 657 0
	uxtb	w1, w1
	strb	w1, [x6,1024]
	.loc 1 659 0
	ldr	w0, [x20,12]
	cmp	w0, 6
	bls	.L572
	.loc 1 661 0
	add	w1, w1, 1
	strb	w1, [x6,1024]
.L572:
	add	x6, x6, 1
	.loc 1 646 0 discriminator 1
	cmp	x6, x7
	bne	.L570
.LBE424:
.LBE426:
	.loc 1 2174 0
	ldr	w3, [x20,20]
	mov	x0, x19
	mov	x1, x21
	mov	x2, x20
	bl	VP6_ConfigureEntropyDecoder
.LVL766:
	.loc 1 2177 0
	ldr	w0, [x20,68]
	cbz	w0, .L573
.L582:
	.loc 1 2179 0
	mov	x0, x19
	bl	VP6_ConvertBoolToHuff
.LVL767:
	b	.L573
.LVL768:
.L574:
.LBE429:
.LBE432:
	.loc 1 2153 0
	mov	w0, 0
.LVL769:
	.loc 1 2185 0
	ldr	x21, [sp,32]
	.cfi_restore 21
.LVL770:
	ldp	x19, x20, [sp,16]
	.cfi_restore 19
	.cfi_restore 20
.LVL771:
	ldp	x29, x30, [sp], 48
	.cfi_restore 29
	.cfi_restore 30
	.cfi_def_cfa 31, 0
	ret
	.cfi_endproc
.LFE2667:
	.size	VP6_BuildTables, .-VP6_BuildTables
	.align	2
	.global	IsFrameSizeChanged
	.type	IsFrameSizeChanged, %function
IsFrameSizeChanged:
.LFB2668:
	.loc 1 2190 0
	.cfi_startproc
.LVL772:
	.loc 1 2191 0
	ldr	w3, [x0,12132]
	.loc 1 2194 0
	mov	w1, 1
	.loc 1 2191 0
	ldr	w2, [x0,12276]
	cmp	w3, w2
	bne	.L585
	.loc 1 2191 0 is_stmt 0 discriminator 1
	ldr	w1, [x0,12136]
	ldr	w0, [x0,12280]
.LVL773:
	cmp	w1, w0
	cset	w1, ne
.LVL774:
.L585:
	.loc 1 2198 0 is_stmt 1
	mov	w0, w1
.LVL775:
	ret
	.cfi_endproc
.LFE2668:
	.size	IsFrameSizeChanged, .-IsFrameSizeChanged
	.align	2
	.global	VP6DEC_Decode
	.type	VP6DEC_Decode, %function
VP6DEC_Decode:
.LFB2670:
	.loc 1 2227 0
	.cfi_startproc
.LVL776:
	stp	x29, x30, [sp, -96]!
	.cfi_def_cfa_offset 96
	.cfi_offset 29, -96
	.cfi_offset 30, -88
	add	x29, sp, 0
	.cfi_def_cfa_register 29
	stp	x19, x20, [sp,16]
	stp	x21, x22, [sp,32]
	stp	x23, x24, [sp,48]
	.cfi_offset 19, -80
	.cfi_offset 20, -72
	.cfi_offset 21, -64
	.cfi_offset 22, -56
	.cfi_offset 23, -48
	.cfi_offset 24, -40
	.loc 1 2227 0
	mov	x19, x0
	.loc 1 2235 0
	add	x20, x0, 272
	ldr	x0, [x1,64]
.LVL777:
	.loc 1 2227 0
	adrp	x21, __stack_chk_guard
	.loc 1 2229 0
	str	wzr, [x29,68]
.LVL778:
	.loc 1 2235 0
	str	x0, [x19,272]
	.loc 1 2227 0
	ldr	x2, [x21,#:lo12:__stack_chk_guard]
	.loc 1 2236 0
	ldr	w3, [x1,4]
	str	w3, [x20,8]
	.loc 1 2227 0
	str	x2, [x29,88]
	.loc 1 2237 0
	ldr	w2, [x1,8]
	.loc 1 2229 0
	str	wzr, [x29,72]
.LVL779:
	str	wzr, [x29,76]
.LVL780:
	.loc 1 2237 0
	str	w2, [x20,12]
	.loc 1 2239 0
	cbnz	w2, .L588
	.loc 1 2241 0
	add	x22, x19, 288
	mov	w1, 3
.LVL781:
	add	x0, x22, 8192
	strb	w1, [x0,3888]
.LVL782:
.L589:
	.loc 1 2325 0
	mov	x0, x19
	bl	VP6_DecodeDecide
.LVL783:
	.loc 1 2326 0
	cmp	w0, 1
	.loc 1 2325 0
	mov	w20, w0
	.loc 1 2326 0
	beq	.L603
	.loc 1 2328 0
	adrp	x1, .LC34
	mov	w0, 1
	add	x1, x1, :lo12:.LC34
	.loc 1 2329 0
	mov	w19, 0
.LVL784:
	.loc 1 2328 0
	bl	dprint_linux_kernel
.LVL785:
.L591:
	.loc 1 2371 0
	ldr	x2, [x29,88]
	mov	w0, w19
	ldr	x1, [x21,#:lo12:__stack_chk_guard]
	cmp	x2, x1
	bne	.L620
	ldp	x19, x20, [sp,16]
	.cfi_remember_state
	.cfi_restore 20
	.cfi_restore 19
.LVL786:
	ldp	x21, x22, [sp,32]
	.cfi_restore 22
	.cfi_restore 21
	ldp	x23, x24, [sp,48]
	.cfi_restore 24
	.cfi_restore 23
.LVL787:
	ldp	x29, x30, [sp], 96
	.cfi_restore 30
	.cfi_restore 29
	.cfi_def_cfa 31, 0
	ret
.LVL788:
.L588:
	.cfi_restore_state
	.loc 1 2244 0
	cmp	w2, 2
	ble	.L621
	.loc 1 2233 0
	add	x24, x19, 12288
	.loc 1 2250 0
	mov	x1, x0
.LVL789:
	.loc 1 2233 0
	add	x23, x24, 400
.LVL790:
	.loc 1 2232 0
	add	x22, x19, 288
	.loc 1 2250 0
	mov	x0, x23
	bl	BsInit
.LVL791:
	.loc 1 2251 0
	str	x20, [x19,264]
	.loc 1 2254 0
	mov	x0, x22
	mov	x1, x23
	bl	VP6_GetPictureHeader
.LVL792:
	cmp	w0, 1
	mov	w20, w0
	beq	.L592
	.loc 1 2256 0
	adrp	x1, .LC30
	mov	w0, 1
	add	x1, x1, :lo12:.LC30
	.loc 1 2257 0
	mov	w19, 0
.LVL793:
	.loc 1 2256 0
	bl	dprint_linux_kernel
.LVL794:
	.loc 1 2257 0
	b	.L591
.LVL795:
.L603:
	.loc 1 2332 0
	mov	x0, x19
	bl	VP6_GetImageBuffer
.LVL796:
	.loc 1 2333 0
	cmp	w0, 1
	.loc 1 2332 0
	mov	w23, w0
.LVL797:
	.loc 1 2333 0
	beq	.L604
	.loc 1 2335 0
	adrp	x1, .LC35
	mov	w0, w20
	add	x1, x1, :lo12:.LC35
	.loc 1 2336 0
	mov	w19, 0
.LVL798:
	.loc 1 2335 0
	bl	dprint_linux_kernel
.LVL799:
	.loc 1 2336 0
	b	.L591
.LVL800:
.L621:
	.loc 1 2246 0
	adrp	x1, .LC29
.LVL801:
	mov	w0, 1
	add	x1, x1, :lo12:.LC29
	.loc 1 2247 0
	mov	w19, 0
.LVL802:
	.loc 1 2246 0
	bl	dprint_linux_kernel
.LVL803:
	.loc 1 2247 0
	b	.L591
.LVL804:
.L592:
	.loc 1 2260 0
	add	x1, x22, 8192
	mov	x0, x22
	add	x1, x1, 4060
	mov	x2, x23
	bl	VP6_BuildTables
.LVL805:
	.loc 1 2261 0
	cmp	w0, 1
	bne	.L622
	.loc 1 2268 0
	ldr	w0, [x22,12076]
	cbz	w0, .L594
.LBB439:
.LBB440:
	.loc 1 2191 0
	ldr	w1, [x22,12132]
	ldr	w0, [x22,12276]
	cmp	w1, w0
	bne	.L594
	.loc 1 2191 0 is_stmt 0 discriminator 1
	ldr	w1, [x22,12136]
	ldr	w0, [x22,12280]
	cmp	w1, w0
	beq	.L589
.L594:
.LBE440:
.LBE439:
	.loc 1 2270 0 is_stmt 1
	adrp	x0, g_event_report
	ldr	x4, [x0,#:lo12:g_event_report]
	cbz	x4, .L596
.LBB441:
	.loc 1 2270 0 is_stmt 0 discriminator 1
	ldr	w8, [x22,12136]
	mov	w1, 2
	ldr	w7, [x22,12132]
	add	x2, x29, 80
	ldr	w6, [x22,12280]
	mov	w3, 8
	ldr	w5, [x22,12276]
	ldr	w0, [x19,13344]
	strh	w8, [x29,80]
	strh	w7, [x29,82]
	strh	w6, [x29,84]
	strh	w5, [x29,86]
	blr	x4
.LVL806:
.L596:
.LBE441:
	.loc 1 2272 0 is_stmt 1
	ldr	w0, [x19,13344]
	add	x1, x29, 68
	add	x2, x29, 72
	add	x3, x29, 76
	bl	VCTRL_GetChanImgNum
.LVL807:
	.loc 1 2274 0
	ldr	x0, [x19]
	ldr	w0, [x0,772]
	cmp	w0, 1
	beq	.L623
.L597:
	.loc 1 2290 0
	ldr	w0, [x19,13344]
	mov	w2, 1
	ldr	w1, [x22,12092]
	.loc 1 2292 0
	add	x24, x24, 440
	.loc 1 2290 0
	bl	FSP_ClearLogicFs
.LVL808:
	.loc 1 2290 0 is_stmt 0 discriminator 1
	ldr	w1, [x22,12096]
	mov	w2, 1
	ldr	w0, [x19,13344]
	bl	FSP_ClearLogicFs
.LVL809:
	.loc 1 2290 0
	str	wzr, [x22,12092]
	str	wzr, [x22,12096]
	.loc 1 2290 0 discriminator 2
	ldr	w0, [x19,13344]
	bl	FSP_GetNullLogicFs
.LVL810:
	.loc 1 2291 0 is_stmt 1
	str	wzr, [x22,12072]
	.loc 1 2290 0
	str	w0, [x22,12096]
	.loc 1 2292 0
	mov	x1, x24
	.loc 1 2290 0
	str	w0, [x22,12092]
	.loc 1 2292 0
	ldr	w0, [x19,13344]
	bl	FSP_ClearNotInVoQueue
.LVL811:
	.loc 1 2294 0
	ldr	w2, [x22,12280]
	ldr	w3, [x22,12276]
	cmp	w2, 512
	bhi	.L599
	.loc 1 2294 0 is_stmt 0 discriminator 1
	cmp	w3, 512
	bhi	.L599
	.loc 1 2303 0 is_stmt 1
	ldr	x0, [x19]
	ldr	w1, [x0,772]
	cbnz	w1, .L601
	.loc 1 2303 0 is_stmt 0 discriminator 1
	ldr	w0, [x0,28]
	cmp	w0, 25
	beq	.L624
.L601:
	.loc 1 2313 0 is_stmt 1
	mov	x0, x24
	bl	ResetVoQueue
.LVL812:
.L602:
	.loc 1 2316 0
	mov	x0, x19
	bl	VP6_ArrangeVHBMem
.LVL813:
	.loc 1 2317 0
	cmp	w0, 1
	beq	.L589
	.loc 1 2319 0
	adrp	x1, .LC33
	mov	w0, 1
	add	x1, x1, :lo12:.LC33
	.loc 1 2320 0
	mov	w19, 0
.LVL814:
	.loc 1 2319 0
	bl	dprint_linux_kernel
.LVL815:
	.loc 1 2320 0
	b	.L591
.LVL816:
.L604:
	.loc 1 2339 0
	ldr	w0, [x19,13344]
	mov	w2, w23
	ldr	w1, [x22,12088]
	bl	FSP_SetRef
.LVL817:
	.loc 1 2340 0
	ldr	w0, [x19,13344]
	ldr	w1, [x22,12088]
	bl	FSP_GetFsImagePtr
.LVL818:
	mov	x3, x0
.LVL819:
	.loc 1 2341 0
	cbz	x0, .L625
	.loc 1 2348 0
	ldr	x2, [x19]
	.loc 1 2357 0
	mov	x4, -1
	.loc 1 2358 0
	adrp	x1, .LC36
	mov	w0, 29
	add	x1, x1, :lo12:.LC36
	.loc 1 2348 0
	ldr	x2, [x2,48]
	str	x2, [x3,224]
	.loc 1 2349 0
	ldr	x2, [x19]
	ldr	x2, [x2,64]
	str	x2, [x3,232]
	.loc 1 2350 0
	ldr	x2, [x19]
	ldr	x2, [x2,80]
	str	x2, [x3,240]
	.loc 1 2351 0
	ldr	x2, [x19]
	ldr	w2, [x2,96]
	str	w2, [x3,8]
	.loc 1 2352 0
	ldr	x2, [x19]
	ldr	w2, [x2,100]
	str	w2, [x3,12]
	.loc 1 2353 0
	ldr	x2, [x19]
	ldr	w2, [x2,104]
	str	w2, [x3,16]
	.loc 1 2354 0
	ldr	x2, [x19]
	ldr	w2, [x2,120]
	str	w2, [x3,20]
	.loc 1 2356 0
	str	wzr, [x3,32]
	.loc 1 2357 0
	ldr	x2, [x19]
	str	x4, [x2,48]
	.loc 1 2358 0
	ldr	x2, [x3,224]
	ldr	x3, [x3,232]
.LVL820:
	bl	dprint_linux_kernel
.LVL821:
	.loc 1 2361 0
	mov	x0, x19
	bl	VP6_Set_DecParam
.LVL822:
	cmp	w0, 1
	mov	w19, w0
.LVL823:
	beq	.L606
	.loc 1 2363 0
	adrp	x1, .LC37
	mov	w0, w23
	add	x1, x1, :lo12:.LC37
	.loc 1 2364 0
	mov	w19, 0
	.loc 1 2363 0
	bl	dprint_linux_kernel
.LVL824:
	.loc 1 2364 0
	b	.L591
.LVL825:
.L623:
	.loc 1 2277 0
	ldr	w0, [x29,76]
.LVL826:
	cmp	w0, wzr
	ble	.L597
	.loc 1 2279 0
	mov	w19, -2
.LVL827:
	b	.L591
.LVL828:
.L606:
.LBB442:
.LBB443:
	.loc 1 2202 0
	add	x1, x22, 8192
	ldrb	w0, [x1,3888]
	cbz	w0, .L626
.LBB444:
	.loc 1 2216 0
	add	x0, x1, 3916
	mov	x2, 144
	add	x1, x1, 4060
	.loc 1 2213 0
	ldr	w23, [x22,12120]
	.loc 1 2214 0
	ldr	w20, [x22,12124]
	.loc 1 2216 0
	bl	memcpy
.LVL829:
	.loc 1 2220 0
	str	w23, [x22,12120]
.LVL830:
	.loc 1 2221 0
	str	w20, [x22,12124]
.L608:
.LBE444:
.LBE443:
.LBE442:
	.loc 1 2368 0
	adrp	x1, .LC38
	mov	w0, 22
	add	x1, x1, :lo12:.LC38
	bl	dprint_linux_kernel
.LVL831:
	.loc 1 2370 0
	b	.L591
.LVL832:
.L599:
	.loc 1 2297 0
	adrp	x1, .LC32
	mov	w0, 18
	add	x1, x1, :lo12:.LC32
	.loc 1 2300 0
	mov	w19, 0
.LVL833:
	.loc 1 2297 0
	bl	dprint_linux_kernel
.LVL834:
	.loc 1 2300 0
	b	.L591
.LVL835:
.L622:
	.loc 1 2263 0
	adrp	x1, .LC31
	mov	w0, w20
	add	x1, x1, :lo12:.LC31
	.loc 1 2264 0
	mov	w19, 0
.LVL836:
	.loc 1 2263 0
	bl	dprint_linux_kernel
.LVL837:
	.loc 1 2264 0
	b	.L591
.LVL838:
.L626:
.LBB446:
.LBB445:
	.loc 1 2204 0
	add	x0, x1, 3916
	mov	x2, 144
	add	x1, x1, 4060
	bl	memcpy
.LVL839:
	b	.L608
.LVL840:
.L625:
.LBE445:
.LBE446:
	.loc 1 2343 0
	adrp	x1, .LC4
	mov	w2, 2343
	add	x1, x1, :lo12:.LC4
	mov	w0, 22
.LVL841:
	.loc 1 2344 0
	mov	w19, 0
.LVL842:
	.loc 1 2343 0
	bl	dprint_linux_kernel
.LVL843:
	.loc 1 2344 0
	b	.L591
.LVL844:
.L624:
	.loc 1 2305 0
	ldr	w0, [x22,12076]
	cbnz	w0, .L602
	b	.L601
.LVL845:
.L620:
	.loc 1 2371 0
	bl	__stack_chk_fail
.LVL846:
	.cfi_endproc
.LFE2670:
	.size	VP6DEC_Decode, .-VP6DEC_Decode
	.align	2
	.global	VP6_SetImgFormat
	.type	VP6_SetImgFormat, %function
VP6_SetImgFormat:
.LFB2671:
	.loc 1 2377 0
	.cfi_startproc
.LVL847:
	stp	x29, x30, [sp, -48]!
	.cfi_def_cfa_offset 48
	.cfi_offset 29, -48
	.cfi_offset 30, -40
	add	x29, sp, 0
	.cfi_def_cfa_register 29
	str	x21, [sp,32]
	.cfi_offset 21, -16
	mov	x21, x0
	stp	x19, x20, [sp,16]
	.cfi_offset 19, -32
	.cfi_offset 20, -24
	.loc 1 2383 0
	add	x20, x0, 288
	ldr	w1, [x21,12376]
	ldr	w0, [x0,13344]
.LVL848:
	bl	FSP_GetFsImagePtr
.LVL849:
	mov	x19, x0
.LVL850:
	.loc 1 2384 0
	cbz	x0, .L627
	.loc 1 2388 0
	add	x2, x20, 8192
	.loc 1 2398 0
	mov	w3, 7200
	.loc 1 2402 0
	mov	w1, 0
	.loc 1 2398 0
	ldrb	w2, [x2,3888]
	and	w2, w2, 3
	.loc 1 2399 0
	str	w2, [x0,36]
	.loc 1 2398 0
	orr	w3, w2, w3
	.loc 1 2400 0
	str	w2, [x0,40]
	.loc 1 2396 0
	str	w3, [x0,44]
	.loc 1 2402 0
	bl	SetAspectRatio
.LVL851:
	.loc 1 2403 0
	ldr	w1, [x21,12568]
	lsl	w1, w1, 4
	str	w1, [x19,48]
	.loc 1 2404 0
	ldr	w0, [x21,12564]
	lsl	w0, w0, 4
	str	w0, [x19,52]
	.loc 1 2405 0
	ldr	x2, [x21]
	ldr	w2, [x2,28]
	cmp	w2, 25
	beq	.L633
.L629:
	.loc 1 2419 0
	lsr	w3, w1, 1
	.loc 1 2420 0
	lsr	w2, w0, 1
	.loc 1 2419 0
	str	w3, [x19,64]
	.loc 1 2420 0
	str	w2, [x19,68]
	.loc 1 2421 0
	str	w1, [x19,56]
	.loc 1 2422 0
	str	w0, [x19,60]
.L627:
	.loc 1 2425 0
	ldp	x19, x20, [sp,16]
	.cfi_remember_state
	.cfi_restore 20
	.cfi_restore 19
.LVL852:
	ldr	x21, [sp,32]
	.cfi_restore 21
.LVL853:
	ldp	x29, x30, [sp], 48
	.cfi_restore 30
	.cfi_restore 29
	.cfi_def_cfa 31, 0
	ret
.LVL854:
.L633:
	.cfi_restore_state
.LBB447:
	.loc 1 2407 0
	ldr	w4, [x19,76]
	.loc 1 2408 0
	lsr	w2, w0, 4
	.loc 1 2410 0
	ldr	w5, [x19,168]
	lsl	w3, w4, 4
	.loc 1 2411 0
	str	w5, [x19,136]
	.loc 1 2413 0
	add	w6, w5, w4
	.loc 1 2415 0
	str	w5, [x19,176]
	.loc 1 2410 0
	madd	w2, w3, w2, w5
	str	w2, [x19,172]
	.loc 1 2414 0
	add	w4, w2, w4
	.loc 1 2412 0
	str	w2, [x19,140]
	.loc 1 2413 0
	str	w6, [x19,144]
	.loc 1 2414 0
	str	w4, [x19,148]
	.loc 1 2416 0
	str	w2, [x19,180]
	b	.L629
.LBE447:
	.cfi_endproc
.LFE2671:
	.size	VP6_SetImgFormat, .-VP6_SetImgFormat
	.align	2
	.global	VP6DEC_VDMPostProc
	.type	VP6DEC_VDMPostProc, %function
VP6DEC_VDMPostProc:
.LFB2672:
	.loc 1 2431 0
	.cfi_startproc
.LVL855:
	stp	x29, x30, [sp, -48]!
	.cfi_def_cfa_offset 48
	.cfi_offset 29, -48
	.cfi_offset 30, -40
	.loc 1 2436 0
	mov	w2, w1
	.loc 1 2431 0
	add	x29, sp, 0
	.cfi_def_cfa_register 29
	stp	x21, x22, [sp,32]
	.cfi_offset 21, -16
	.cfi_offset 22, -8
	mov	w21, w1
	.loc 1 2436 0
	adrp	x1, .LC39
.LVL856:
	.loc 1 2431 0
	stp	x19, x20, [sp,16]
	.cfi_offset 19, -32
	.cfi_offset 20, -24
	.loc 1 2436 0
	add	x1, x1, :lo12:.LC39
	.loc 1 2431 0
	mov	x20, x0
	.loc 1 2436 0
	mov	w0, 22
.LVL857:
	.loc 1 2440 0
	add	x19, x20, 288
	.loc 1 2436 0
	bl	dprint_linux_kernel
.LVL858:
	.loc 1 2439 0
	mov	w0, 10
	mov	x1, x20
	bl	ReleasePacket
.LVL859:
	.loc 1 2440 0
	ldr	w0, [x20,13344]
	ldr	w1, [x19,12088]
	bl	FSP_GetFsImagePtr
.LVL860:
	.loc 1 2441 0
	cbz	x0, .L667
	.loc 1 2447 0
	tbnz	w21, #31, .L637
	.loc 1 2447 0 is_stmt 0 discriminator 1
	cmp	w21, 100
	mov	w2, 100
	csel	w2, w21, w2, le
	.loc 1 2447 0 discriminator 4
	str	w2, [x0,84]
	.loc 1 2448 0 is_stmt 1
	ldr	x0, [x20]
.LVL861:
	ldr	w3, [x0,4]
	cmp	w2, w3
	bhi	.L668
	.loc 1 2458 0
	mov	x0, x20
	bl	VP6_SetImgFormat
.LVL862:
	.loc 1 2462 0
	ldr	w0, [x19,12068]
	.loc 1 2460 0
	mov	w1, 1
	str	w1, [x19,12072]
	.loc 1 2462 0
	cmp	w0, 2
	beq	.L669
.L639:
	.loc 1 2469 0
	ldr	w1, [x19,12088]
	str	w1, [x19,12100]
.L640:
	.loc 1 2472 0
	cmn	w1, #1
	beq	.L641
	.loc 1 2474 0
	ldr	w0, [x20,13344]
	mov	w2, 1
	bl	FSP_SetDisplay
.LVL863:
	.loc 1 2475 0
	ldr	w0, [x20,13344]
	ldr	w1, [x19,12100]
	bl	FSP_GetFsImagePtr
.LVL864:
	mov	x22, x0
.LVL865:
	.loc 1 2476 0
	cbz	x0, .L670
	.loc 1 2481 0
	add	x3, x20, 12288
	ldr	w0, [x20,13344]
	mov	w1, 10
	mov	x2, x20
	add	x3, x3, 440
	mov	x4, x22
	bl	InsertImgToVoQueue
.LVL866:
	.loc 1 2482 0
	cmp	w0, 1
	.loc 1 2481 0
	mov	w21, w0
.LVL867:
	.loc 1 2482 0
	bne	.L671
.LVL868:
.L641:
	.loc 1 2495 0
	ldr	w2, [x19,12096]
	ldr	w0, [x19,12092]
	cmp	w2, w0
	beq	.L672
.L666:
	.loc 1 2504 0
	ldr	w1, [x19,12088]
	cmp	w2, w1
	beq	.L644
	.loc 1 2506 0
	ldr	w0, [x20,13344]
	mov	w1, w2
	mov	w2, 0
	bl	FSP_SetRef
.LVL869:
.L664:
	ldr	w1, [x19,12088]
.L644:
	.loc 1 2510 0
	str	w1, [x19,12096]
	.loc 1 2511 0
	mov	w2, 1
	ldr	w0, [x20,13344]
	bl	FSP_SetRef
.LVL870:
	.loc 1 2514 0
	add	x0, x19, 8192
	ldrb	w0, [x0,3888]
	cbnz	w0, .L673
	.loc 1 2516 0
	ldr	w2, [x19,12092]
	ldr	w1, [x19,12088]
	cmp	w2, w1
	beq	.L647
.L674:
	.loc 1 2518 0
	ldr	w0, [x20,13344]
	mov	w1, w2
	mov	w2, 0
	bl	FSP_SetRef
.LVL871:
	ldr	w1, [x19,12088]
.L647:
	.loc 1 2521 0
	str	w1, [x19,12092]
	.loc 1 2522 0
	mov	w2, 1
	ldr	w0, [x20,13344]
	bl	FSP_SetRef
.LVL872:
	.loc 1 2525 0
	mov	w0, 1
.L657:
	.loc 1 2526 0
	ldp	x19, x20, [sp,16]
	.cfi_remember_state
	.cfi_restore 20
	.cfi_restore 19
.LVL873:
	ldp	x21, x22, [sp,32]
	.cfi_restore 22
	.cfi_restore 21
.LVL874:
	ldp	x29, x30, [sp], 48
	.cfi_restore 30
	.cfi_restore 29
	.cfi_def_cfa 31, 0
	ret
.LVL875:
.L673:
	.cfi_restore_state
	.loc 1 2514 0 discriminator 1
	ldr	w1, [x19,12084]
	.loc 1 2525 0
	mov	w0, 1
	.loc 1 2514 0 discriminator 1
	cbz	w1, .L657
	.loc 1 2516 0
	ldr	w2, [x19,12092]
	ldr	w1, [x19,12088]
	cmp	w2, w1
	bne	.L674
	b	.L647
.LVL876:
.L637:
	.loc 1 2447 0 discriminator 4
	str	wzr, [x0,84]
	.loc 1 2458 0
	mov	x0, x20
.LVL877:
	bl	VP6_SetImgFormat
.LVL878:
	.loc 1 2462 0
	ldr	w0, [x19,12068]
	.loc 1 2460 0
	mov	w1, 1
	str	w1, [x19,12072]
	.loc 1 2462 0
	cmp	w0, 2
	bne	.L639
.L669:
	.loc 1 2462 0 is_stmt 0 discriminator 1
	add	x0, x19, 8192
	ldrb	w0, [x0,3888]
	cbz	w0, .L639
	.loc 1 2464 0 is_stmt 1
	mov	w0, -1
	str	w0, [x19,12100]
	.loc 1 2465 0
	ldr	w1, [x19,12088]
	mov	w2, 0
	ldr	w0, [x20,13344]
	bl	FSP_SetDisplay
.LVL879:
	ldr	w1, [x19,12100]
	b	.L640
.LVL880:
.L671:
	.loc 1 2484 0
	ldr	w0, [x20,13344]
	ldr	x1, [x22,248]
	bl	FreeUsdByDec
.LVL881:
	.loc 1 2485 0
	str	xzr, [x22,248]
	.loc 1 2486 0
	ldr	x1, [x22,256]
	ldr	w0, [x20,13344]
	bl	FreeUsdByDec
.LVL882:
	.loc 1 2487 0
	str	xzr, [x22,256]
	.loc 1 2488 0
	mov	w2, 0
	ldr	w0, [x20,13344]
	ldr	w1, [x19,12100]
	bl	FSP_SetDisplay
.LVL883:
	.loc 1 2489 0
	adrp	x1, .LC43
	mov	w0, 0
	add	x1, x1, :lo12:.LC43
	bl	dprint_linux_kernel
.LVL884:
	.loc 1 2490 0
	mov	w0, w21
	.loc 1 2526 0
	ldp	x19, x20, [sp,16]
	.cfi_remember_state
	.cfi_restore 19
	.cfi_restore 20
.LVL885:
	ldp	x21, x22, [sp,32]
	.cfi_restore 21
	.cfi_restore 22
.LVL886:
	ldp	x29, x30, [sp], 48
	.cfi_restore 29
	.cfi_restore 30
	.cfi_def_cfa 31, 0
	ret
.LVL887:
.L672:
	.cfi_restore_state
	.loc 1 2502 0
	ldr	w0, [x20,13344]
	mov	w1, w2
	bl	FSP_GetRef
.LVL888:
	cbnz	w0, .L664
	.loc 1 2504 0
	ldr	w2, [x19,12096]
	b	.L666
.LVL889:
.L668:
	.loc 1 2450 0
	adrp	x1, .LC41
	mov	w0, 1
	add	x1, x1, :lo12:.LC41
	bl	dprint_linux_kernel
.LVL890:
	.loc 1 2453 0
	ldr	w0, [x20,13344]
	mov	w2, 1
	ldr	w1, [x19,12092]
	bl	FSP_ClearLogicFs
.LVL891:
	.loc 1 2453 0 is_stmt 0 discriminator 1
	ldr	w1, [x19,12096]
	mov	w2, 1
	ldr	w0, [x20,13344]
	bl	FSP_ClearLogicFs
.LVL892:
	.loc 1 2453 0
	str	wzr, [x19,12092]
	str	wzr, [x19,12096]
	.loc 1 2453 0 discriminator 2
	ldr	w0, [x20,13344]
	bl	FSP_GetNullLogicFs
.LVL893:
	.loc 1 2454 0 is_stmt 1
	str	wzr, [x19,12072]
	.loc 1 2453 0 discriminator 2
	mov	w1, w0
	.loc 1 2455 0
	mov	w0, -1
	.loc 1 2453 0
	str	w1, [x19,12096]
	str	w1, [x19,12092]
	.loc 1 2455 0
	b	.L657
.LVL894:
.L670:
	.loc 1 2478 0
	adrp	x1, .LC42
	mov	w0, 22
.LVL895:
	add	x1, x1, :lo12:.LC42
	mov	x2, 0
	bl	dprint_linux_kernel
.LVL896:
	.loc 1 2479 0
	mov	w0, -1
	b	.L657
.LVL897:
.L667:
	.loc 1 2443 0
	adrp	x1, .LC40
	add	x1, x1, :lo12:.LC40
	bl	dprint_linux_kernel
.LVL898:
	.loc 1 2444 0
	mov	w0, -1
	b	.L657
	.cfi_endproc
.LFE2672:
	.size	VP6DEC_VDMPostProc, .-VP6DEC_VDMPostProc
	.align	2
	.global	VP6DEC_RecycleImage
	.type	VP6DEC_RecycleImage, %function
VP6DEC_RecycleImage:
.LFB2673:
	.loc 1 2532 0
	.cfi_startproc
.LVL899:
	stp	x29, x30, [sp, -32]!
	.cfi_def_cfa_offset 32
	.cfi_offset 29, -32
	.cfi_offset 30, -24
	add	x29, sp, 0
	.cfi_def_cfa_register 29
	stp	x19, x20, [sp,16]
	.cfi_offset 19, -16
	.cfi_offset 20, -8
	.loc 1 2535 0
	cbz	x0, .L677
	mov	x19, x0
	.loc 1 2540 0
	ldr	w0, [x0,13344]
.LVL900:
	mov	w2, 0
	mov	w20, w1
	bl	FSP_SetDisplay
.LVL901:
	.loc 1 2541 0
	ldr	w0, [x19,13344]
	mov	w1, w20
	bl	FSP_GetFsImagePtr
.LVL902:
	mov	x20, x0
.LVL903:
	.loc 1 2542 0
	cbz	x0, .L678
	.loc 1 2544 0
	ldr	w0, [x19,13344]
	ldr	x1, [x20,248]
	bl	FreeUsdByDec
.LVL904:
	.loc 1 2545 0
	str	xzr, [x20,248]
	.loc 1 2546 0
	ldr	x1, [x20,256]
	ldr	w0, [x19,13344]
	bl	FreeUsdByDec
.LVL905:
	.loc 1 2547 0
	str	xzr, [x20,256]
	.loc 1 2550 0
	mov	w0, 1
	.loc 1 2551 0
	ldp	x19, x20, [sp,16]
	.cfi_remember_state
	.cfi_restore 20
	.cfi_restore 19
.LVL906:
	ldp	x29, x30, [sp], 32
	.cfi_restore 30
	.cfi_restore 29
	.cfi_def_cfa 31, 0
	ret
.LVL907:
.L677:
	.cfi_restore_state
	.loc 1 2537 0
	mov	w0, 0
.LVL908:
	.loc 1 2551 0
	ldp	x19, x20, [sp,16]
	.cfi_remember_state
	.cfi_restore 19
	.cfi_restore 20
	ldp	x29, x30, [sp], 32
	.cfi_restore 29
	.cfi_restore 30
	.cfi_def_cfa 31, 0
	ret
.LVL909:
.L678:
	.cfi_restore_state
	.loc 1 2550 0
	mov	w0, 1
.LVL910:
	.loc 1 2551 0
	ldp	x19, x20, [sp,16]
	.cfi_restore 19
	.cfi_restore 20
.LVL911:
	ldp	x29, x30, [sp], 32
	.cfi_restore 29
	.cfi_restore 30
	.cfi_def_cfa 31, 0
	ret
	.cfi_endproc
.LFE2673:
	.size	VP6DEC_RecycleImage, .-VP6DEC_RecycleImage
	.align	2
	.global	VP6DEC_GetRemainImg
	.type	VP6DEC_GetRemainImg, %function
VP6DEC_GetRemainImg:
.LFB2674:
	.loc 1 2556 0
	.cfi_startproc
.LVL912:
	stp	x29, x30, [sp, -16]!
	.cfi_def_cfa_offset 16
	.cfi_offset 29, -16
	.cfi_offset 30, -8
	.loc 1 2559 0
	add	x0, x0, 12288
.LVL913:
	.loc 1 2556 0
	add	x29, sp, 0
	.cfi_def_cfa_register 29
	.loc 1 2559 0
	add	x0, x0, 440
	.loc 1 2556 0
	.loc 1 2559 0
	bl	GetVoLastImageID
.LVL914:
	.loc 1 2562 0
	ldp	x29, x30, [sp], 16
	.cfi_restore 30
	.cfi_restore 29
	.cfi_def_cfa 31, 0
	ret
	.cfi_endproc
.LFE2674:
	.size	VP6DEC_GetRemainImg, .-VP6DEC_GetRemainImg
	.align	2
	.global	VP6DEC_GetImageWidth
	.type	VP6DEC_GetImageWidth, %function
VP6DEC_GetImageWidth:
.LFB2675:
	.loc 1 2565 0
	.cfi_startproc
.LVL915:
	.loc 1 2568 0
	ldr	w0, [x0,12568]
.LVL916:
	.loc 1 2571 0
	lsl	w0, w0, 4
	ret
	.cfi_endproc
.LFE2675:
	.size	VP6DEC_GetImageWidth, .-VP6DEC_GetImageWidth
	.align	2
	.global	VP6DEC_GetImageHeight
	.type	VP6DEC_GetImageHeight, %function
VP6DEC_GetImageHeight:
.LFB2676:
	.loc 1 2574 0
	.cfi_startproc
.LVL917:
	.loc 1 2577 0
	ldr	w0, [x0,12564]
.LVL918:
	.loc 1 2580 0
	lsl	w0, w0, 4
	ret
	.cfi_endproc
.LFE2676:
	.size	VP6DEC_GetImageHeight, .-VP6DEC_GetImageHeight
	.global	DefaultScanBands
	.global	ZrlUpdateProbs
	.global	ScanBandUpdateProbs
	.global	ZeroRunProbDefaults
	.global	VP6_AcUpdateProbs
	.global	VP6_DcUpdateProbs
	.global	DefaultSignProbs
	.global	DefaultIsShortProbs
	.global	DefaultMvLongProbs
	.global	DefaultMvShortProbs
	.global	VP6_MvUpdateProbs
	.global	VP6_BaselineXmittedProbs
	.global	VP6_ModeVq
	.global	VP6_DcNodeEqs
	.section	.rodata
	.align	3
.LANCHOR0 = . + 0
	.type	VP6_DcNodeEqs, %object
	.size	VP6_DcNodeEqs, 120
VP6_DcNodeEqs:
	.word	122
	.word	133
	.word	133
	.word	51
	.word	142
	.word	-16
	.word	0
	.word	1
	.word	0
	.word	1
	.word	0
	.word	1
	.word	78
	.word	171
	.word	169
	.word	71
	.word	221
	.word	-30
	.word	139
	.word	117
	.word	214
	.word	44
	.word	246
	.word	-3
	.word	168
	.word	79
	.word	210
	.word	38
	.word	203
	.word	17
	.type	VP6_DcUpdateProbs, %object
	.size	VP6_DcUpdateProbs, 22
VP6_DcUpdateProbs:
	.byte	-110
	.byte	-1
	.byte	-75
	.byte	-49
	.byte	-24
	.byte	-13
	.byte	-18
	.byte	-5
	.byte	-12
	.byte	-6
	.byte	-7
	.byte	-77
	.byte	-1
	.byte	-42
	.byte	-16
	.byte	-6
	.byte	-1
	.byte	-12
	.byte	-1
	.byte	-1
	.byte	-1
	.byte	-1
	.zero	2
	.type	ZeroRunProbDefaults, %object
	.size	ZeroRunProbDefaults, 28
ZeroRunProbDefaults:
	.byte	-58
	.byte	-59
	.byte	-60
	.byte	-110
	.byte	-58
	.byte	-52
	.byte	-87
	.byte	-114
	.byte	-126
	.byte	-120
	.byte	-107
	.byte	-107
	.byte	-65
	.byte	-7
	.byte	-121
	.byte	-55
	.byte	-75
	.byte	-102
	.byte	98
	.byte	117
	.byte	-124
	.byte	126
	.byte	-110
	.byte	-87
	.byte	-72
	.byte	-16
	.byte	-10
	.byte	-2
	.zero	4
	.type	ScanBandUpdateProbs, %object
	.size	ScanBandUpdateProbs, 64
ScanBandUpdateProbs:
	.byte	-1
	.byte	-124
	.byte	-124
	.byte	-97
	.byte	-103
	.byte	-105
	.byte	-95
	.byte	-86
	.byte	-92
	.byte	-94
	.byte	-120
	.byte	110
	.byte	103
	.byte	114
	.byte	-127
	.byte	118
	.byte	124
	.byte	125
	.byte	-124
	.byte	-120
	.byte	114
	.byte	110
	.byte	-114
	.byte	-121
	.byte	-122
	.byte	123
	.byte	-113
	.byte	126
	.byte	-103
	.byte	-73
	.byte	-90
	.byte	-95
	.byte	-85
	.byte	-76
	.byte	-77
	.byte	-92
	.byte	-53
	.byte	-38
	.byte	-31
	.byte	-39
	.byte	-41
	.byte	-50
	.byte	-53
	.byte	-39
	.byte	-27
	.byte	-15
	.byte	-8
	.byte	-13
	.byte	-3
	.byte	-1
	.byte	-3
	.byte	-1
	.byte	-1
	.byte	-1
	.byte	-1
	.byte	-1
	.byte	-1
	.byte	-1
	.byte	-1
	.byte	-1
	.byte	-1
	.byte	-1
	.byte	-1
	.byte	-1
	.type	ZrlUpdateProbs, %object
	.size	ZrlUpdateProbs, 28
ZrlUpdateProbs:
	.byte	-37
	.byte	-10
	.byte	-18
	.byte	-7
	.byte	-24
	.byte	-17
	.byte	-7
	.byte	-1
	.byte	-8
	.byte	-3
	.byte	-17
	.byte	-12
	.byte	-15
	.byte	-8
	.byte	-58
	.byte	-24
	.byte	-5
	.byte	-3
	.byte	-37
	.byte	-15
	.byte	-3
	.byte	-1
	.byte	-8
	.byte	-7
	.byte	-12
	.byte	-18
	.byte	-5
	.byte	-1
	.zero	4
	.type	VP6_AcUpdateProbs, %object
	.size	VP6_AcUpdateProbs, 396
VP6_AcUpdateProbs:
	.byte	-29
	.byte	-10
	.byte	-26
	.byte	-9
	.byte	-12
	.byte	-1
	.byte	-1
	.byte	-1
	.byte	-1
	.byte	-1
	.byte	-1
	.byte	-1
	.byte	-1
	.byte	-47
	.byte	-25
	.byte	-25
	.byte	-7
	.byte	-7
	.byte	-3
	.byte	-1
	.byte	-1
	.byte	-1
	.byte	-1
	.byte	-1
	.byte	-31
	.byte	-14
	.byte	-15
	.byte	-5
	.byte	-3
	.byte	-1
	.byte	-1
	.byte	-1
	.byte	-1
	.byte	-1
	.byte	-1
	.byte	-15
	.byte	-3
	.byte	-4
	.byte	-1
	.byte	-1
	.byte	-1
	.byte	-1
	.byte	-1
	.byte	-1
	.byte	-1
	.byte	-1
	.byte	-8
	.byte	-1
	.byte	-1
	.byte	-1
	.byte	-1
	.byte	-1
	.byte	-1
	.byte	-1
	.byte	-1
	.byte	-1
	.byte	-1
	.byte	-1
	.byte	-1
	.byte	-1
	.byte	-1
	.byte	-1
	.byte	-1
	.byte	-1
	.byte	-1
	.byte	-1
	.byte	-16
	.byte	-1
	.byte	-8
	.byte	-1
	.byte	-1
	.byte	-1
	.byte	-1
	.byte	-1
	.byte	-1
	.byte	-1
	.byte	-1
	.byte	-1
	.byte	-1
	.byte	-16
	.byte	-3
	.byte	-1
	.byte	-1
	.byte	-1
	.byte	-1
	.byte	-1
	.byte	-1
	.byte	-1
	.byte	-1
	.byte	-1
	.byte	-1
	.byte	-1
	.byte	-1
	.byte	-1
	.byte	-1
	.byte	-1
	.byte	-1
	.byte	-1
	.byte	-1
	.byte	-1
	.byte	-1
	.byte	-1
	.byte	-1
	.byte	-1
	.byte	-1
	.byte	-1
	.byte	-1
	.byte	-1
	.byte	-1
	.byte	-1
	.byte	-1
	.byte	-1
	.byte	-1
	.byte	-1
	.byte	-1
	.byte	-1
	.byte	-1
	.byte	-1
	.byte	-1
	.byte	-1
	.byte	-1
	.byte	-1
	.byte	-1
	.byte	-1
	.byte	-1
	.byte	-1
	.byte	-1
	.byte	-1
	.byte	-1
	.byte	-1
	.byte	-1
	.byte	-1
	.byte	-50
	.byte	-53
	.byte	-29
	.byte	-17
	.byte	-9
	.byte	-1
	.byte	-3
	.byte	-1
	.byte	-1
	.byte	-1
	.byte	-1
	.byte	-49
	.byte	-57
	.byte	-36
	.byte	-20
	.byte	-13
	.byte	-4
	.byte	-4
	.byte	-1
	.byte	-1
	.byte	-1
	.byte	-1
	.byte	-44
	.byte	-37
	.byte	-26
	.byte	-13
	.byte	-12
	.byte	-3
	.byte	-4
	.byte	-1
	.byte	-1
	.byte	-1
	.byte	-1
	.byte	-20
	.byte	-19
	.byte	-9
	.byte	-4
	.byte	-3
	.byte	-1
	.byte	-1
	.byte	-1
	.byte	-1
	.byte	-1
	.byte	-1
	.byte	-16
	.byte	-16
	.byte	-8
	.byte	-1
	.byte	-1
	.byte	-1
	.byte	-1
	.byte	-1
	.byte	-1
	.byte	-1
	.byte	-1
	.byte	-1
	.byte	-1
	.byte	-1
	.byte	-1
	.byte	-1
	.byte	-1
	.byte	-1
	.byte	-1
	.byte	-1
	.byte	-1
	.byte	-1
	.byte	-26
	.byte	-23
	.byte	-7
	.byte	-1
	.byte	-1
	.byte	-1
	.byte	-1
	.byte	-1
	.byte	-1
	.byte	-1
	.byte	-1
	.byte	-18
	.byte	-18
	.byte	-6
	.byte	-1
	.byte	-1
	.byte	-1
	.byte	-1
	.byte	-1
	.byte	-1
	.byte	-1
	.byte	-1
	.byte	-8
	.byte	-5
	.byte	-1
	.byte	-1
	.byte	-1
	.byte	-1
	.byte	-1
	.byte	-1
	.byte	-1
	.byte	-1
	.byte	-1
	.byte	-1
	.byte	-1
	.byte	-1
	.byte	-1
	.byte	-1
	.byte	-1
	.byte	-1
	.byte	-1
	.byte	-1
	.byte	-1
	.byte	-1
	.byte	-1
	.byte	-1
	.byte	-1
	.byte	-1
	.byte	-1
	.byte	-1
	.byte	-1
	.byte	-1
	.byte	-1
	.byte	-1
	.byte	-1
	.byte	-1
	.byte	-1
	.byte	-1
	.byte	-1
	.byte	-1
	.byte	-1
	.byte	-1
	.byte	-1
	.byte	-1
	.byte	-1
	.byte	-1
	.byte	-31
	.byte	-17
	.byte	-29
	.byte	-25
	.byte	-12
	.byte	-3
	.byte	-13
	.byte	-1
	.byte	-1
	.byte	-3
	.byte	-1
	.byte	-24
	.byte	-22
	.byte	-32
	.byte	-28
	.byte	-14
	.byte	-7
	.byte	-14
	.byte	-4
	.byte	-5
	.byte	-5
	.byte	-1
	.byte	-21
	.byte	-7
	.byte	-18
	.byte	-16
	.byte	-5
	.byte	-1
	.byte	-7
	.byte	-1
	.byte	-3
	.byte	-3
	.byte	-1
	.byte	-7
	.byte	-3
	.byte	-5
	.byte	-6
	.byte	-1
	.byte	-1
	.byte	-1
	.byte	-1
	.byte	-1
	.byte	-1
	.byte	-1
	.byte	-5
	.byte	-6
	.byte	-7
	.byte	-1
	.byte	-1
	.byte	-1
	.byte	-1
	.byte	-1
	.byte	-1
	.byte	-1
	.byte	-1
	.byte	-1
	.byte	-1
	.byte	-1
	.byte	-1
	.byte	-1
	.byte	-1
	.byte	-1
	.byte	-1
	.byte	-1
	.byte	-1
	.byte	-1
	.byte	-13
	.byte	-12
	.byte	-6
	.byte	-6
	.byte	-1
	.byte	-1
	.byte	-1
	.byte	-1
	.byte	-1
	.byte	-1
	.byte	-1
	.byte	-7
	.byte	-8
	.byte	-6
	.byte	-3
	.byte	-1
	.byte	-1
	.byte	-1
	.byte	-1
	.byte	-1
	.byte	-1
	.byte	-1
	.byte	-3
	.byte	-1
	.byte	-1
	.byte	-1
	.byte	-1
	.byte	-1
	.byte	-1
	.byte	-1
	.byte	-1
	.byte	-1
	.byte	-1
	.byte	-1
	.byte	-1
	.byte	-1
	.byte	-1
	.byte	-1
	.byte	-1
	.byte	-1
	.byte	-1
	.byte	-1
	.byte	-1
	.byte	-1
	.byte	-1
	.byte	-1
	.byte	-1
	.byte	-1
	.byte	-1
	.byte	-1
	.byte	-1
	.byte	-1
	.byte	-1
	.byte	-1
	.byte	-1
	.byte	-1
	.byte	-1
	.byte	-1
	.byte	-1
	.byte	-1
	.byte	-1
	.byte	-1
	.byte	-1
	.byte	-1
	.byte	-1
	.byte	-1
	.zero	4
	.type	VP6_ModeVq, %object
	.size	VP6_ModeVq, 960
VP6_ModeVq:
	.byte	9
	.byte	15
	.byte	32
	.byte	25
	.byte	7
	.byte	19
	.byte	9
	.byte	21
	.byte	1
	.byte	12
	.byte	14
	.byte	12
	.byte	3
	.byte	18
	.byte	14
	.byte	23
	.byte	3
	.byte	10
	.byte	0
	.byte	4
	.byte	48
	.byte	39
	.byte	1
	.byte	2
	.byte	11
	.byte	27
	.byte	29
	.byte	44
	.byte	7
	.byte	27
	.byte	1
	.byte	4
	.byte	0
	.byte	3
	.byte	1
	.byte	6
	.byte	1
	.byte	2
	.byte	0
	.byte	0
	.byte	21
	.byte	32
	.byte	1
	.byte	2
	.byte	4
	.byte	10
	.byte	32
	.byte	43
	.byte	6
	.byte	23
	.byte	2
	.byte	3
	.byte	1
	.byte	19
	.byte	1
	.byte	6
	.byte	12
	.byte	21
	.byte	0
	.byte	7
	.byte	69
	.byte	83
	.byte	0
	.byte	0
	.byte	0
	.byte	2
	.byte	10
	.byte	29
	.byte	3
	.byte	12
	.byte	0
	.byte	1
	.byte	0
	.byte	3
	.byte	0
	.byte	3
	.byte	2
	.byte	2
	.byte	0
	.byte	0
	.byte	11
	.byte	20
	.byte	1
	.byte	4
	.byte	18
	.byte	36
	.byte	43
	.byte	48
	.byte	13
	.byte	35
	.byte	0
	.byte	2
	.byte	0
	.byte	5
	.byte	3
	.byte	12
	.byte	1
	.byte	2
	.byte	0
	.byte	0
	.byte	70
	.byte	44
	.byte	0
	.byte	1
	.byte	2
	.byte	10
	.byte	37
	.byte	46
	.byte	8
	.byte	26
	.byte	0
	.byte	2
	.byte	0
	.byte	2
	.byte	0
	.byte	2
	.byte	0
	.byte	1
	.byte	0
	.byte	0
	.byte	8
	.byte	15
	.byte	0
	.byte	1
	.byte	8
	.byte	21
	.byte	74
	.byte	53
	.byte	22
	.byte	42
	.byte	0
	.byte	1
	.byte	0
	.byte	2
	.byte	0
	.byte	3
	.byte	1
	.byte	2
	.byte	0
	.byte	0
	.byte	-115
	.byte	42
	.byte	0
	.byte	0
	.byte	1
	.byte	4
	.byte	11
	.byte	24
	.byte	1
	.byte	11
	.byte	0
	.byte	1
	.byte	0
	.byte	1
	.byte	0
	.byte	2
	.byte	0
	.byte	0
	.byte	0
	.byte	0
	.byte	8
	.byte	19
	.byte	4
	.byte	10
	.byte	24
	.byte	45
	.byte	21
	.byte	37
	.byte	9
	.byte	29
	.byte	0
	.byte	3
	.byte	1
	.byte	7
	.byte	11
	.byte	25
	.byte	0
	.byte	2
	.byte	0
	.byte	1
	.byte	46
	.byte	42
	.byte	0
	.byte	1
	.byte	2
	.byte	10
	.byte	54
	.byte	51
	.byte	10
	.byte	30
	.byte	0
	.byte	2
	.byte	0
	.byte	2
	.byte	0
	.byte	1
	.byte	0
	.byte	1
	.byte	0
	.byte	0
	.byte	28
	.byte	32
	.byte	0
	.byte	0
	.byte	3
	.byte	10
	.byte	75
	.byte	51
	.byte	14
	.byte	33
	.byte	0
	.byte	1
	.byte	0
	.byte	2
	.byte	0
	.byte	1
	.byte	1
	.byte	2
	.byte	0
	.byte	0
	.byte	100
	.byte	46
	.byte	0
	.byte	1
	.byte	3
	.byte	9
	.byte	21
	.byte	37
	.byte	5
	.byte	20
	.byte	0
	.byte	1
	.byte	0
	.byte	2
	.byte	1
	.byte	2
	.byte	0
	.byte	1
	.byte	0
	.byte	0
	.byte	27
	.byte	29
	.byte	0
	.byte	1
	.byte	9
	.byte	25
	.byte	53
	.byte	51
	.byte	12
	.byte	34
	.byte	0
	.byte	1
	.byte	0
	.byte	3
	.byte	1
	.byte	5
	.byte	0
	.byte	2
	.byte	0
	.byte	0
	.byte	80
	.byte	38
	.byte	0
	.byte	0
	.byte	1
	.byte	4
	.byte	69
	.byte	33
	.byte	5
	.byte	16
	.byte	0
	.byte	1
	.byte	0
	.byte	1
	.byte	0
	.byte	0
	.byte	0
	.byte	1
	.byte	0
	.byte	0
	.byte	16
	.byte	20
	.byte	0
	.byte	0
	.byte	2
	.byte	8
	.byte	104
	.byte	49
	.byte	15
	.byte	33
	.byte	0
	.byte	1
	.byte	0
	.byte	1
	.byte	0
	.byte	1
	.byte	1
	.byte	1
	.byte	0
	.byte	0
	.byte	-62
	.byte	16
	.byte	0
	.byte	0
	.byte	1
	.byte	1
	.byte	1
	.byte	9
	.byte	1
	.byte	3
	.byte	0
	.byte	0
	.byte	0
	.byte	1
	.byte	0
	.byte	1
	.byte	0
	.byte	0
	.byte	0
	.byte	0
	.byte	41
	.byte	22
	.byte	1
	.byte	0
	.byte	1
	.byte	31
	.byte	0
	.byte	0
	.byte	0
	.byte	0
	.byte	0
	.byte	1
	.byte	1
	.byte	7
	.byte	0
	.byte	1
	.byte	98
	.byte	25
	.byte	4
	.byte	10
	.byte	123
	.byte	37
	.byte	6
	.byte	4
	.byte	1
	.byte	27
	.byte	0
	.byte	0
	.byte	0
	.byte	0
	.byte	5
	.byte	8
	.byte	1
	.byte	7
	.byte	0
	.byte	1
	.byte	12
	.byte	10
	.byte	0
	.byte	2
	.byte	26
	.byte	14
	.byte	14
	.byte	12
	.byte	0
	.byte	24
	.byte	0
	.byte	0
	.byte	0
	.byte	0
	.byte	55
	.byte	17
	.byte	1
	.byte	9
	.byte	0
	.byte	36
	.byte	5
	.byte	7
	.byte	1
	.byte	3
	.byte	-47
	.byte	5
	.byte	0
	.byte	0
	.byte	0
	.byte	27
	.byte	0
	.byte	0
	.byte	0
	.byte	0
	.byte	0
	.byte	1
	.byte	0
	.byte	1
	.byte	0
	.byte	1
	.byte	0
	.byte	0
	.byte	0
	.byte	0
	.byte	2
	.byte	5
	.byte	4
	.byte	5
	.byte	0
	.byte	121
	.byte	0
	.byte	0
	.byte	0
	.byte	0
	.byte	0
	.byte	3
	.byte	2
	.byte	4
	.byte	1
	.byte	4
	.byte	2
	.byte	2
	.byte	0
	.byte	1
	.byte	-81
	.byte	5
	.byte	0
	.byte	1
	.byte	0
	.byte	48
	.byte	0
	.byte	0
	.byte	0
	.byte	0
	.byte	0
	.byte	2
	.byte	0
	.byte	1
	.byte	0
	.byte	2
	.byte	0
	.byte	1
	.byte	0
	.byte	0
	.byte	83
	.byte	5
	.byte	2
	.byte	3
	.byte	0
	.byte	102
	.byte	0
	.byte	0
	.byte	0
	.byte	0
	.byte	1
	.byte	3
	.byte	0
	.byte	2
	.byte	0
	.byte	1
	.byte	0
	.byte	0
	.byte	0
	.byte	0
	.byte	-23
	.byte	6
	.byte	0
	.byte	0
	.byte	0
	.byte	8
	.byte	0
	.byte	0
	.byte	0
	.byte	0
	.byte	0
	.byte	1
	.byte	0
	.byte	1
	.byte	0
	.byte	0
	.byte	0
	.byte	1
	.byte	0
	.byte	0
	.byte	34
	.byte	16
	.byte	112
	.byte	21
	.byte	1
	.byte	28
	.byte	0
	.byte	0
	.byte	0
	.byte	0
	.byte	6
	.byte	8
	.byte	1
	.byte	7
	.byte	0
	.byte	3
	.byte	2
	.byte	5
	.byte	0
	.byte	2
	.byte	-97
	.byte	35
	.byte	2
	.byte	2
	.byte	0
	.byte	25
	.byte	0
	.byte	0
	.byte	0
	.byte	0
	.byte	3
	.byte	6
	.byte	0
	.byte	5
	.byte	0
	.byte	1
	.byte	4
	.byte	4
	.byte	0
	.byte	1
	.byte	75
	.byte	39
	.byte	5
	.byte	7
	.byte	2
	.byte	48
	.byte	0
	.byte	0
	.byte	0
	.byte	0
	.byte	3
	.byte	11
	.byte	2
	.byte	16
	.byte	1
	.byte	4
	.byte	7
	.byte	10
	.byte	0
	.byte	2
	.byte	-44
	.byte	21
	.byte	0
	.byte	1
	.byte	0
	.byte	9
	.byte	0
	.byte	0
	.byte	0
	.byte	0
	.byte	1
	.byte	2
	.byte	0
	.byte	2
	.byte	0
	.byte	0
	.byte	2
	.byte	2
	.byte	0
	.byte	0
	.byte	4
	.byte	2
	.byte	0
	.byte	0
	.byte	0
	.byte	-84
	.byte	0
	.byte	0
	.byte	0
	.byte	0
	.byte	0
	.byte	1
	.byte	0
	.byte	2
	.byte	0
	.byte	0
	.byte	2
	.byte	0
	.byte	0
	.byte	0
	.byte	-69
	.byte	22
	.byte	1
	.byte	1
	.byte	0
	.byte	17
	.byte	0
	.byte	0
	.byte	0
	.byte	0
	.byte	3
	.byte	6
	.byte	0
	.byte	4
	.byte	0
	.byte	1
	.byte	4
	.byte	4
	.byte	0
	.byte	1
	.byte	-123
	.byte	6
	.byte	1
	.byte	2
	.byte	1
	.byte	70
	.byte	0
	.byte	0
	.byte	0
	.byte	0
	.byte	0
	.byte	2
	.byte	0
	.byte	4
	.byte	0
	.byte	3
	.byte	1
	.byte	1
	.byte	0
	.byte	0
	.byte	-5
	.byte	1
	.byte	0
	.byte	0
	.byte	0
	.byte	2
	.byte	0
	.byte	0
	.byte	0
	.byte	0
	.byte	0
	.byte	0
	.byte	0
	.byte	0
	.byte	0
	.byte	0
	.byte	0
	.byte	0
	.byte	0
	.byte	0
	.byte	2
	.byte	3
	.byte	2
	.byte	3
	.byte	0
	.byte	2
	.byte	0
	.byte	2
	.byte	0
	.byte	0
	.byte	11
	.byte	4
	.byte	1
	.byte	4
	.byte	0
	.byte	2
	.byte	3
	.byte	2
	.byte	0
	.byte	4
	.byte	49
	.byte	46
	.byte	3
	.byte	4
	.byte	7
	.byte	31
	.byte	42
	.byte	41
	.byte	0
	.byte	0
	.byte	2
	.byte	6
	.byte	1
	.byte	7
	.byte	1
	.byte	4
	.byte	2
	.byte	4
	.byte	0
	.byte	1
	.byte	26
	.byte	25
	.byte	1
	.byte	1
	.byte	2
	.byte	10
	.byte	67
	.byte	39
	.byte	0
	.byte	0
	.byte	1
	.byte	1
	.byte	0
	.byte	14
	.byte	0
	.byte	2
	.byte	31
	.byte	26
	.byte	1
	.byte	6
	.byte	103
	.byte	46
	.byte	1
	.byte	2
	.byte	2
	.byte	10
	.byte	33
	.byte	42
	.byte	0
	.byte	0
	.byte	1
	.byte	4
	.byte	0
	.byte	3
	.byte	0
	.byte	1
	.byte	1
	.byte	3
	.byte	0
	.byte	0
	.byte	14
	.byte	31
	.byte	9
	.byte	13
	.byte	14
	.byte	54
	.byte	22
	.byte	29
	.byte	0
	.byte	0
	.byte	2
	.byte	6
	.byte	4
	.byte	18
	.byte	6
	.byte	13
	.byte	1
	.byte	5
	.byte	0
	.byte	1
	.byte	85
	.byte	39
	.byte	0
	.byte	0
	.byte	1
	.byte	9
	.byte	69
	.byte	40
	.byte	0
	.byte	0
	.byte	0
	.byte	1
	.byte	0
	.byte	3
	.byte	0
	.byte	1
	.byte	2
	.byte	3
	.byte	0
	.byte	0
	.byte	31
	.byte	28
	.byte	0
	.byte	0
	.byte	3
	.byte	14
	.byte	-126
	.byte	34
	.byte	0
	.byte	0
	.byte	0
	.byte	1
	.byte	0
	.byte	3
	.byte	0
	.byte	1
	.byte	3
	.byte	3
	.byte	0
	.byte	1
	.byte	-85
	.byte	25
	.byte	0
	.byte	0
	.byte	1
	.byte	5
	.byte	25
	.byte	21
	.byte	0
	.byte	0
	.byte	0
	.byte	1
	.byte	0
	.byte	1
	.byte	0
	.byte	0
	.byte	0
	.byte	0
	.byte	0
	.byte	0
	.byte	17
	.byte	21
	.byte	68
	.byte	29
	.byte	6
	.byte	15
	.byte	13
	.byte	22
	.byte	0
	.byte	0
	.byte	6
	.byte	12
	.byte	3
	.byte	14
	.byte	4
	.byte	10
	.byte	1
	.byte	7
	.byte	0
	.byte	3
	.byte	51
	.byte	39
	.byte	0
	.byte	1
	.byte	2
	.byte	12
	.byte	91
	.byte	44
	.byte	0
	.byte	0
	.byte	0
	.byte	2
	.byte	0
	.byte	3
	.byte	0
	.byte	1
	.byte	2
	.byte	3
	.byte	0
	.byte	1
	.byte	81
	.byte	25
	.byte	0
	.byte	0
	.byte	2
	.byte	9
	.byte	106
	.byte	26
	.byte	0
	.byte	0
	.byte	0
	.byte	1
	.byte	0
	.byte	1
	.byte	0
	.byte	1
	.byte	1
	.byte	1
	.byte	0
	.byte	0
	.byte	-116
	.byte	37
	.byte	0
	.byte	1
	.byte	1
	.byte	8
	.byte	24
	.byte	33
	.byte	0
	.byte	0
	.byte	1
	.byte	2
	.byte	0
	.byte	2
	.byte	0
	.byte	1
	.byte	1
	.byte	2
	.byte	0
	.byte	0
	.byte	14
	.byte	23
	.byte	1
	.byte	3
	.byte	11
	.byte	53
	.byte	90
	.byte	31
	.byte	0
	.byte	0
	.byte	0
	.byte	3
	.byte	1
	.byte	5
	.byte	2
	.byte	6
	.byte	1
	.byte	2
	.byte	0
	.byte	0
	.byte	123
	.byte	29
	.byte	0
	.byte	0
	.byte	1
	.byte	7
	.byte	57
	.byte	30
	.byte	0
	.byte	0
	.byte	0
	.byte	1
	.byte	0
	.byte	1
	.byte	0
	.byte	1
	.byte	0
	.byte	1
	.byte	0
	.byte	0
	.byte	13
	.byte	14
	.byte	0
	.byte	0
	.byte	4
	.byte	20
	.byte	-81
	.byte	20
	.byte	0
	.byte	0
	.byte	0
	.byte	1
	.byte	0
	.byte	1
	.byte	0
	.byte	1
	.byte	1
	.byte	1
	.byte	0
	.byte	0
	.byte	-54
	.byte	23
	.byte	0
	.byte	0
	.byte	1
	.byte	3
	.byte	2
	.byte	9
	.byte	0
	.byte	0
	.byte	0
	.byte	1
	.byte	0
	.byte	1
	.byte	0
	.byte	1
	.byte	0
	.byte	0
	.byte	0
	.byte	0
	.type	VP6_MvUpdateProbs, %object
	.size	VP6_MvUpdateProbs, 34
VP6_MvUpdateProbs:
	.byte	-19
	.byte	-10
	.byte	-3
	.byte	-3
	.byte	-2
	.byte	-2
	.byte	-2
	.byte	-2
	.byte	-2
	.byte	-2
	.byte	-2
	.byte	-2
	.byte	-2
	.byte	-2
	.byte	-6
	.byte	-6
	.byte	-4
	.byte	-25
	.byte	-13
	.byte	-11
	.byte	-3
	.byte	-2
	.byte	-2
	.byte	-2
	.byte	-2
	.byte	-2
	.byte	-2
	.byte	-2
	.byte	-2
	.byte	-2
	.byte	-2
	.byte	-5
	.byte	-5
	.byte	-2
	.zero	6
	.type	VP6_LoopFilterLimitValues, %object
	.size	VP6_LoopFilterLimitValues, 64
VP6_LoopFilterLimitValues:
	.byte	14
	.byte	14
	.byte	13
	.byte	13
	.byte	12
	.byte	12
	.byte	10
	.byte	10
	.byte	10
	.byte	10
	.byte	8
	.byte	8
	.byte	8
	.byte	8
	.byte	8
	.byte	8
	.byte	8
	.byte	8
	.byte	8
	.byte	8
	.byte	8
	.byte	8
	.byte	8
	.byte	8
	.byte	8
	.byte	8
	.byte	8
	.byte	8
	.byte	8
	.byte	8
	.byte	8
	.byte	8
	.byte	8
	.byte	8
	.byte	8
	.byte	8
	.byte	7
	.byte	7
	.byte	7
	.byte	7
	.byte	7
	.byte	7
	.byte	6
	.byte	6
	.byte	6
	.byte	6
	.byte	6
	.byte	6
	.byte	5
	.byte	5
	.byte	5
	.byte	5
	.byte	4
	.byte	4
	.byte	4
	.byte	4
	.byte	4
	.byte	4
	.byte	4
	.byte	3
	.byte	3
	.byte	3
	.byte	3
	.byte	2
	.type	DcQuantTab, %object
	.size	DcQuantTab, 128
DcQuantTab:
	.hword	188
	.hword	188
	.hword	188
	.hword	188
	.hword	180
	.hword	172
	.hword	172
	.hword	172
	.hword	172
	.hword	172
	.hword	168
	.hword	164
	.hword	164
	.hword	160
	.hword	160
	.hword	160
	.hword	160
	.hword	140
	.hword	140
	.hword	140
	.hword	140
	.hword	132
	.hword	132
	.hword	132
	.hword	132
	.hword	128
	.hword	128
	.hword	128
	.hword	108
	.hword	108
	.hword	104
	.hword	104
	.hword	100
	.hword	100
	.hword	96
	.hword	96
	.hword	92
	.hword	92
	.hword	76
	.hword	76
	.hword	76
	.hword	76
	.hword	72
	.hword	72
	.hword	68
	.hword	64
	.hword	64
	.hword	64
	.hword	64
	.hword	64
	.hword	60
	.hword	44
	.hword	44
	.hword	44
	.hword	40
	.hword	40
	.hword	36
	.hword	32
	.hword	28
	.hword	20
	.hword	12
	.hword	12
	.hword	8
	.hword	8
	.type	AcQuantTab, %object
	.size	AcQuantTab, 128
AcQuantTab:
	.hword	376
	.hword	368
	.hword	360
	.hword	352
	.hword	344
	.hword	328
	.hword	312
	.hword	296
	.hword	280
	.hword	264
	.hword	248
	.hword	232
	.hword	216
	.hword	212
	.hword	208
	.hword	204
	.hword	200
	.hword	196
	.hword	192
	.hword	188
	.hword	184
	.hword	180
	.hword	176
	.hword	172
	.hword	168
	.hword	160
	.hword	156
	.hword	148
	.hword	144
	.hword	140
	.hword	136
	.hword	132
	.hword	128
	.hword	124
	.hword	120
	.hword	116
	.hword	112
	.hword	108
	.hword	104
	.hword	100
	.hword	96
	.hword	92
	.hword	88
	.hword	84
	.hword	80
	.hword	76
	.hword	72
	.hword	68
	.hword	64
	.hword	60
	.hword	56
	.hword	52
	.hword	48
	.hword	44
	.hword	40
	.hword	36
	.hword	32
	.hword	28
	.hword	24
	.hword	20
	.hword	16
	.hword	12
	.hword	8
	.hword	4
	.type	__FUNCTION__.42582, %object
	.size	__FUNCTION__.42582, 17
__FUNCTION__.42582:
	.string	"VP6_DecodeDecide"
	.align	3
.LANCHOR1 = . + 0
	.type	VP6_BaselineXmittedProbs, %object
	.size	VP6_BaselineXmittedProbs, 80
VP6_BaselineXmittedProbs:
	.byte	42
	.byte	2
	.byte	7
	.byte	42
	.byte	22
	.byte	3
	.byte	2
	.byte	5
	.byte	1
	.byte	0
	.byte	69
	.byte	1
	.byte	1
	.byte	44
	.byte	6
	.byte	1
	.byte	0
	.byte	1
	.byte	0
	.byte	0
	.byte	8
	.byte	1
	.byte	8
	.byte	0
	.byte	0
	.byte	2
	.byte	1
	.byte	0
	.byte	1
	.byte	0
	.byte	-27
	.byte	1
	.byte	0
	.byte	0
	.byte	0
	.byte	1
	.byte	0
	.byte	0
	.byte	1
	.byte	0
	.byte	35
	.byte	1
	.byte	6
	.byte	34
	.byte	0
	.byte	2
	.byte	1
	.byte	1
	.byte	1
	.byte	0
	.byte	122
	.byte	1
	.byte	1
	.byte	46
	.byte	0
	.byte	1
	.byte	0
	.byte	0
	.byte	1
	.byte	0
	.byte	64
	.byte	0
	.byte	64
	.byte	64
	.byte	64
	.byte	0
	.byte	0
	.byte	0
	.byte	0
	.byte	0
	.byte	64
	.byte	0
	.byte	64
	.byte	64
	.byte	64
	.byte	0
	.byte	0
	.byte	0
	.byte	0
	.byte	0
	.type	DefaultIsShortProbs, %object
	.size	DefaultIsShortProbs, 2
DefaultIsShortProbs:
	.byte	-94
	.byte	-92
	.zero	6
	.type	DefaultMvShortProbs, %object
	.size	DefaultMvShortProbs, 14
DefaultMvShortProbs:
	.byte	-31
	.byte	-110
	.byte	-84
	.byte	-109
	.byte	-42
	.byte	39
	.byte	-100
	.byte	-52
	.byte	-86
	.byte	119
	.byte	-21
	.byte	-116
	.byte	-26
	.byte	-28
	.zero	2
	.type	DefaultSignProbs, %object
	.size	DefaultSignProbs, 2
DefaultSignProbs:
	.byte	-128
	.byte	-128
	.zero	6
	.type	DefaultMvLongProbs, %object
	.size	DefaultMvLongProbs, 16
DefaultMvLongProbs:
	.byte	-9
	.byte	-46
	.byte	-121
	.byte	68
	.byte	-118
	.byte	-36
	.byte	-17
	.byte	-10
	.byte	-12
	.byte	-72
	.byte	-55
	.byte	44
	.byte	-83
	.byte	-35
	.byte	-17
	.byte	-3
	.type	DefaultScanBands, %object
	.size	DefaultScanBands, 64
DefaultScanBands:
	.byte	0
	.byte	0
	.byte	1
	.byte	1
	.byte	1
	.byte	2
	.byte	2
	.byte	2
	.byte	2
	.byte	2
	.byte	2
	.byte	3
	.byte	3
	.byte	4
	.byte	4
	.byte	4
	.byte	5
	.byte	5
	.byte	5
	.byte	5
	.byte	6
	.byte	6
	.byte	7
	.byte	7
	.byte	7
	.byte	7
	.byte	7
	.byte	8
	.byte	8
	.byte	9
	.byte	9
	.byte	9
	.byte	9
	.byte	9
	.byte	9
	.byte	10
	.byte	10
	.byte	11
	.byte	11
	.byte	11
	.byte	11
	.byte	11
	.byte	11
	.byte	12
	.byte	12
	.byte	12
	.byte	12
	.byte	12
	.byte	12
	.byte	13
	.byte	13
	.byte	13
	.byte	13
	.byte	13
	.byte	14
	.byte	14
	.byte	14
	.byte	14
	.byte	15
	.byte	15
	.byte	15
	.byte	15
	.byte	15
	.byte	15
	.section	.rodata.str1.8,"aMS",%progbits,1
	.align	3
.LC0:
	.string	"image_size_in_mb abnormal(%d x %d)\n"
	.zero	4
.LC1:
	.string	"vp6 actual frame size(%dx%d) exeed max config(%dx%d)\n"
	.zero	2
.LC2:
	.string	"FSP_ConfigInstance fail!\n"
	.zero	6
.LC3:
	.string	"get frame store fail!\n"
	.zero	1
.LC4:
	.string	"line: %d, pImage is NULL!\n"
	.zero	5
.LC5:
	.string	"get image buffer ok: LogicFsID = %d\n"
	.zero	3
.LC6:
	.string	"decode %pK, disp %pK, tf %pK\n"
	.zero	2
.LC7:
	.string	"enter VP6_ConvertBoolToHuff\n"
	.zero	3
.LC8:
	.string	"leave VP6_ConvertBoolToHuff\n"
	.zero	3
.LC9:
	.string	"enter VP6_IntraFrmHeader\n"
	.zero	6
.LC10:
	.string	"error: Vp3VersionNo %d > CURRENT_DECODE_VERSION(8)\n"
	.zero	4
.LC11:
	.string	"error: bitstream error!\n"
	.zero	7
.LC12:
	.string	"We have a new size image!\n The old size is %d x %d, and the new is %d x %d\n"
	.zero	4
.LC13:
	.string	"leave VP6_IntraFrmHeader\n"
	.zero	6
.LC14:
	.string	"VP6_InterFrmHeader VersionNo fault,old:%d,new:%d\n"
	.zero	6
.LC15:
	.string	"[ERR]VP6_GetPictureHeader invalid param!\n"
	.zero	6
.LC16:
	.string	"VP6_GetPictureHeader enter!\n"
	.zero	3
.LC17:
	.string	"VP6_GetPictureHeader leave!\n"
	.zero	3
.LC18:
	.string	"-1 == VCTRL_GetChanIDByCtx() Err! \n"
	.zero	4
.LC19:
	.string	"ERROR: No Img buffer is allocated\n"
	.zero	5
.LC20:
	.string	"----------------- vp6 Imode -> %d ------------------\n"
	.zero	2
.LC21:
	.string	"-----I_MODE, but FrameType is %d-----\n"
	.zero	1
.LC22:
	.string	"-----cur framtype is %s, but refnum=%d-----\n"
	.zero	3
.LC23:
	.string	"P-frm"
	.zero	2
.LC24:
	.string	"error: DecMode illegal\n"
.LC25:
	.string	"%s %d NULL == pFwdImg!!\n"
	.zero	7
.LC26:
	.string	"dec P frame, fwd ref err(%d) > ref_thr(%d)\n"
	.zero	4
.LC27:
	.string	"VP6_Set_DecParam but logic fs is null!\n"
.LC28:
	.string	"Decord FS is NULL!\n"
	.zero	4
.LC29:
	.string	"Error! Truncated packet\n"
	.zero	7
.LC30:
	.string	"[ERR]VP6_GetPictureHeader Error!\n"
	.zero	6
.LC31:
	.string	"[ERR] VP6_DecodeDecide Error!\n"
	.zero	1
.LC32:
	.string	"pic width/height to large,MbWidth = %d, MbHeight = %d"
	.zero	2
.LC33:
	.string	"VP6_ArrangeVHBMem err\n"
	.zero	1
.LC34:
	.string	"VP6_DecodeDecide err\n"
	.zero	2
.LC35:
	.string	"VP6DEC_GetImageBuffer err\n"
	.zero	5
.LC36:
	.string	"dec_pts: %lld Usertag = %lld\n"
	.zero	2
.LC37:
	.string	"VP6_PrePare_decode Error!\n"
	.zero	5
.LC38:
	.string	"leave VP6DEC_Decode\n"
	.zero	3
.LC39:
	.string	"ErrRatio = %d\n"
	.zero	1
.LC40:
	.string	"pCurImg is null\n"
	.zero	7
.LC41:
	.string	"err_level(%d) over ref_thr(%d)\n"
.LC42:
	.string	"line: %d pToQueImg is null!\n"
	.zero	3
.LC43:
	.string	"insert img to Voqueue failed!\n"
	.text
.Letext0:
	.file 2 "/mnt/disk/jenkins/ci/workspace/chipset_release_960_xloader/opensource/component_code/vendor/huawei/extra/build/build_script/kirin_kernel_release/kernel/drivers/vcodec/hi_vcodec/vdec/include/hi_type.h"
	.file 3 "/mnt/disk/jenkins/ci/workspace/chipset_release_960_xloader/opensource/component_code/vendor/huawei/extra/build/build_script/kirin_kernel_release/kernel/drivers/vcodec/hi_vcodec/vdec/vfmw/vfmw_v4.0/vfmw.h"
	.file 4 "/mnt/disk/jenkins/ci/workspace/chipset_release_960_xloader/opensource/component_code/vendor/huawei/extra/build/build_script/kirin_kernel_release/kernel/include/uapi/asm-generic/int-ll64.h"
	.file 5 "/mnt/disk/jenkins/ci/workspace/chipset_release_960_xloader/opensource/component_code/vendor/huawei/extra/build/build_script/kirin_kernel_release/kernel/include/asm-generic/int-ll64.h"
	.file 6 "/mnt/disk/jenkins/ci/workspace/chipset_release_960_xloader/opensource/component_code/vendor/huawei/extra/build/build_script/kirin_kernel_release/kernel/include/uapi/asm-generic/posix_types.h"
	.file 7 "/mnt/disk/jenkins/ci/workspace/chipset_release_960_xloader/opensource/component_code/vendor/huawei/extra/build/build_script/kirin_kernel_release/kernel/include/linux/export.h"
	.file 8 "/mnt/disk/jenkins/ci/workspace/chipset_release_960_xloader/opensource/component_code/vendor/huawei/extra/build/build_script/kirin_kernel_release/kernel/include/linux/types.h"
	.file 9 "/mnt/disk/jenkins/ci/workspace/chipset_release_960_xloader/opensource/component_code/vendor/huawei/extra/build/build_script/kirin_kernel_release/kernel/include/asm-generic/bug.h"
	.file 10 "/mnt/disk/jenkins/ci/workspace/chipset_release_960_xloader/opensource/component_code/vendor/huawei/extra/build/build_script/kirin_kernel_release/kernel/include/linux/restart_block.h"
	.file 11 "/mnt/disk/jenkins/ci/workspace/chipset_release_960_xloader/opensource/component_code/vendor/huawei/extra/build/build_script/kirin_kernel_release/kernel/include/uapi/linux/time.h"
	.file 12 "/mnt/disk/jenkins/ci/workspace/chipset_release_960_xloader/opensource/component_code/vendor/huawei/extra/build/build_script/kirin_kernel_release/kernel/arch/arm64/include/asm/compat.h"
	.file 13 "/mnt/disk/jenkins/ci/workspace/chipset_release_960_xloader/opensource/component_code/vendor/huawei/extra/build/build_script/kirin_kernel_release/kernel/include/uapi/asm-generic/poll.h"
	.file 14 "/mnt/disk/jenkins/ci/workspace/chipset_release_960_xloader/opensource/component_code/vendor/huawei/extra/build/build_script/kirin_kernel_release/kernel/arch/arm64/include/asm/thread_info.h"
	.file 15 "/mnt/disk/jenkins/ci/workspace/chipset_release_960_xloader/opensource/component_code/vendor/huawei/extra/build/build_script/kirin_kernel_release/kernel/arch/arm64/include/uapi/asm/ptrace.h"
	.file 16 "/mnt/disk/jenkins/ci/workspace/chipset_release_960_xloader/opensource/component_code/vendor/huawei/extra/build/build_script/kirin_kernel_release/kernel/arch/arm64/include/asm/ptrace.h"
	.file 17 "/mnt/disk/jenkins/ci/workspace/chipset_release_960_xloader/opensource/component_code/vendor/huawei/extra/build/build_script/kirin_kernel_release/kernel/arch/arm64/include/asm/spinlock_types.h"
	.file 18 "/mnt/disk/jenkins/ci/workspace/chipset_release_960_xloader/opensource/component_code/vendor/huawei/extra/build/build_script/kirin_kernel_release/kernel/include/linux/spinlock_types.h"
	.file 19 "/mnt/disk/jenkins/ci/workspace/chipset_release_960_xloader/opensource/component_code/vendor/huawei/extra/build/build_script/kirin_kernel_release/kernel/include/linux/rwlock_types.h"
	.file 20 "/mnt/disk/jenkins/ci/workspace/chipset_release_960_xloader/opensource/component_code/vendor/huawei/extra/build/build_script/kirin_kernel_release/kernel/arch/arm64/include/asm/fpsimd.h"
	.file 21 "/mnt/disk/jenkins/ci/workspace/chipset_release_960_xloader/opensource/component_code/vendor/huawei/extra/build/build_script/kirin_kernel_release/kernel/include/linux/jump_label.h"
	.file 22 "/mnt/disk/jenkins/ci/workspace/chipset_release_960_xloader/opensource/component_code/vendor/huawei/extra/build/build_script/kirin_kernel_release/kernel/include/asm-generic/atomic-long.h"
	.file 23 "/mnt/disk/jenkins/ci/workspace/chipset_release_960_xloader/opensource/component_code/vendor/huawei/extra/build/build_script/kirin_kernel_release/kernel/arch/arm64/include/asm/hw_breakpoint.h"
	.file 24 "/mnt/disk/jenkins/ci/workspace/chipset_release_960_xloader/opensource/component_code/vendor/huawei/extra/build/build_script/kirin_kernel_release/kernel/arch/arm64/include/asm/processor.h"
	.file 25 "/mnt/disk/jenkins/ci/workspace/chipset_release_960_xloader/opensource/component_code/vendor/huawei/extra/build/build_script/kirin_kernel_release/kernel/include/linux/perf_event.h"
	.file 26 "/mnt/disk/jenkins/ci/workspace/chipset_release_960_xloader/opensource/component_code/vendor/huawei/extra/build/build_script/kirin_kernel_release/kernel/include/linux/wait.h"
	.file 27 "/mnt/disk/jenkins/ci/workspace/chipset_release_960_xloader/opensource/component_code/vendor/huawei/extra/build/build_script/kirin_kernel_release/kernel/include/linux/seqlock.h"
	.file 28 "/mnt/disk/jenkins/ci/workspace/chipset_release_960_xloader/opensource/component_code/vendor/huawei/extra/build/build_script/kirin_kernel_release/kernel/include/linux/nodemask.h"
	.file 29 "/mnt/disk/jenkins/ci/workspace/chipset_release_960_xloader/opensource/component_code/vendor/huawei/extra/build/build_script/kirin_kernel_release/kernel/include/linux/cpumask.h"
	.file 30 "/mnt/disk/jenkins/ci/workspace/chipset_release_960_xloader/opensource/component_code/vendor/huawei/extra/build/build_script/kirin_kernel_release/kernel/include/linux/completion.h"
	.file 31 "/mnt/disk/jenkins/ci/workspace/chipset_release_960_xloader/opensource/component_code/vendor/huawei/extra/build/build_script/kirin_kernel_release/kernel/include/linux/time64.h"
	.file 32 "/mnt/disk/jenkins/ci/workspace/chipset_release_960_xloader/opensource/component_code/vendor/huawei/extra/build/build_script/kirin_kernel_release/kernel/include/linux/ktime.h"
	.file 33 "/mnt/disk/jenkins/ci/workspace/chipset_release_960_xloader/opensource/component_code/vendor/huawei/extra/build/build_script/kirin_kernel_release/kernel/include/linux/rbtree.h"
	.file 34 "/mnt/disk/jenkins/ci/workspace/chipset_release_960_xloader/opensource/component_code/vendor/huawei/extra/build/build_script/kirin_kernel_release/kernel/include/linux/osq_lock.h"
	.file 35 "/mnt/disk/jenkins/ci/workspace/chipset_release_960_xloader/opensource/component_code/vendor/huawei/extra/build/build_script/kirin_kernel_release/kernel/include/linux/rwsem.h"
	.file 36 "/mnt/disk/jenkins/ci/workspace/chipset_release_960_xloader/opensource/component_code/vendor/huawei/extra/build/build_script/kirin_kernel_release/kernel/include/linux/sched.h"
	.file 37 "/mnt/disk/jenkins/ci/workspace/chipset_release_960_xloader/opensource/component_code/vendor/huawei/extra/build/build_script/kirin_kernel_release/kernel/include/linux/mm_types.h"
	.file 38 "/mnt/disk/jenkins/ci/workspace/chipset_release_960_xloader/opensource/component_code/vendor/huawei/extra/build/build_script/kirin_kernel_release/kernel/include/linux/lockdep.h"
	.file 39 "/mnt/disk/jenkins/ci/workspace/chipset_release_960_xloader/opensource/component_code/vendor/huawei/extra/build/build_script/kirin_kernel_release/kernel/include/linux/uprobes.h"
	.file 40 "/mnt/disk/jenkins/ci/workspace/chipset_release_960_xloader/opensource/component_code/vendor/huawei/extra/build/build_script/kirin_kernel_release/kernel/include/linux/timer.h"
	.file 41 "/mnt/disk/jenkins/ci/workspace/chipset_release_960_xloader/opensource/component_code/vendor/huawei/extra/build/build_script/kirin_kernel_release/kernel/include/linux/uidgid.h"
	.file 42 "/mnt/disk/jenkins/ci/workspace/chipset_release_960_xloader/opensource/component_code/vendor/huawei/extra/build/build_script/kirin_kernel_release/kernel/include/linux/sysctl.h"
	.file 43 "/mnt/disk/jenkins/ci/workspace/chipset_release_960_xloader/opensource/component_code/vendor/huawei/extra/build/build_script/kirin_kernel_release/kernel/include/linux/workqueue.h"
	.file 44 "/mnt/disk/jenkins/ci/workspace/chipset_release_960_xloader/opensource/component_code/vendor/huawei/extra/build/build_script/kirin_kernel_release/kernel/arch/arm64/include/asm/pgtable-types.h"
	.file 45 "/mnt/disk/jenkins/ci/workspace/chipset_release_960_xloader/opensource/component_code/vendor/huawei/extra/build/build_script/kirin_kernel_release/kernel/arch/arm64/include/asm/page.h"
	.file 46 "/mnt/disk/jenkins/ci/workspace/chipset_release_960_xloader/opensource/component_code/vendor/huawei/extra/build/build_script/kirin_kernel_release/kernel/include/linux/llist.h"
	.file 47 "/mnt/disk/jenkins/ci/workspace/chipset_release_960_xloader/opensource/component_code/vendor/huawei/extra/build/build_script/kirin_kernel_release/kernel/arch/arm64/include/asm/smp.h"
	.file 48 "/mnt/disk/jenkins/ci/workspace/chipset_release_960_xloader/opensource/component_code/vendor/huawei/extra/build/build_script/kirin_kernel_release/kernel/arch/arm64/include/asm/mmu.h"
	.file 49 "/mnt/disk/jenkins/ci/workspace/chipset_release_960_xloader/opensource/component_code/vendor/huawei/extra/build/build_script/kirin_kernel_release/kernel/include/linux/fs.h"
	.file 50 "/mnt/disk/jenkins/ci/workspace/chipset_release_960_xloader/opensource/component_code/vendor/huawei/extra/build/build_script/kirin_kernel_release/kernel/include/linux/mm.h"
	.file 51 "/mnt/disk/jenkins/ci/workspace/chipset_release_960_xloader/opensource/component_code/vendor/huawei/extra/build/build_script/kirin_kernel_release/kernel/include/linux/user_namespace.h"
	.file 52 "/mnt/disk/jenkins/ci/workspace/chipset_release_960_xloader/opensource/component_code/vendor/huawei/extra/build/build_script/kirin_kernel_release/kernel/include/linux/mmzone.h"
	.file 53 "/mnt/disk/jenkins/ci/workspace/chipset_release_960_xloader/opensource/component_code/vendor/huawei/extra/build/build_script/kirin_kernel_release/kernel/include/linux/mutex.h"
	.file 54 "/mnt/disk/jenkins/ci/workspace/chipset_release_960_xloader/opensource/component_code/vendor/huawei/extra/build/build_script/kirin_kernel_release/kernel/include/linux/percpu-refcount.h"
	.file 55 "/mnt/disk/jenkins/ci/workspace/chipset_release_960_xloader/opensource/component_code/vendor/huawei/extra/build/build_script/kirin_kernel_release/kernel/include/linux/shrinker.h"
	.file 56 "/mnt/disk/jenkins/ci/workspace/chipset_release_960_xloader/opensource/component_code/vendor/huawei/extra/build/build_script/kirin_kernel_release/kernel/include/uapi/linux/resource.h"
	.file 57 "/mnt/disk/jenkins/ci/workspace/chipset_release_960_xloader/opensource/component_code/vendor/huawei/extra/build/build_script/kirin_kernel_release/kernel/include/linux/tracepoint-defs.h"
	.file 58 "/mnt/disk/jenkins/ci/workspace/chipset_release_960_xloader/opensource/component_code/vendor/huawei/extra/build/build_script/kirin_kernel_release/kernel/include/linux/vmstat.h"
	.file 59 "/mnt/disk/jenkins/ci/workspace/chipset_release_960_xloader/opensource/component_code/vendor/huawei/extra/build/build_script/kirin_kernel_release/kernel/include/linux/capability.h"
	.file 60 "/mnt/disk/jenkins/ci/workspace/chipset_release_960_xloader/opensource/component_code/vendor/huawei/extra/build/build_script/kirin_kernel_release/kernel/include/linux/plist.h"
	.file 61 "/mnt/disk/jenkins/ci/workspace/chipset_release_960_xloader/opensource/component_code/vendor/huawei/extra/build/build_script/kirin_kernel_release/kernel/include/asm-generic/cputime_jiffies.h"
	.file 62 "/mnt/disk/jenkins/ci/workspace/chipset_release_960_xloader/opensource/component_code/vendor/huawei/extra/build/build_script/kirin_kernel_release/kernel/include/uapi/asm-generic/signal.h"
	.file 63 "/mnt/disk/jenkins/ci/workspace/chipset_release_960_xloader/opensource/component_code/vendor/huawei/extra/build/build_script/kirin_kernel_release/kernel/include/uapi/asm-generic/signal-defs.h"
	.file 64 "/mnt/disk/jenkins/ci/workspace/chipset_release_960_xloader/opensource/component_code/vendor/huawei/extra/build/build_script/kirin_kernel_release/kernel/include/uapi/asm-generic/siginfo.h"
	.file 65 "/mnt/disk/jenkins/ci/workspace/chipset_release_960_xloader/opensource/component_code/vendor/huawei/extra/build/build_script/kirin_kernel_release/kernel/include/linux/signal.h"
	.file 66 "/mnt/disk/jenkins/ci/workspace/chipset_release_960_xloader/opensource/component_code/vendor/huawei/extra/build/build_script/kirin_kernel_release/kernel/include/linux/pid.h"
	.file 67 "/mnt/disk/jenkins/ci/workspace/chipset_release_960_xloader/opensource/component_code/vendor/huawei/extra/build/build_script/kirin_kernel_release/kernel/include/linux/pid_namespace.h"
	.file 68 "/mnt/disk/jenkins/ci/workspace/chipset_release_960_xloader/opensource/component_code/vendor/huawei/extra/build/build_script/kirin_kernel_release/kernel/include/linux/seccomp.h"
	.file 69 "/mnt/disk/jenkins/ci/workspace/chipset_release_960_xloader/opensource/component_code/vendor/huawei/extra/build/build_script/kirin_kernel_release/kernel/include/linux/timerqueue.h"
	.file 70 "/mnt/disk/jenkins/ci/workspace/chipset_release_960_xloader/opensource/component_code/vendor/huawei/extra/build/build_script/kirin_kernel_release/kernel/include/linux/hrtimer.h"
	.file 71 "/mnt/disk/jenkins/ci/workspace/chipset_release_960_xloader/opensource/component_code/vendor/huawei/extra/build/build_script/kirin_kernel_release/kernel/include/linux/task_io_accounting.h"
	.file 72 "/mnt/disk/jenkins/ci/workspace/chipset_release_960_xloader/opensource/component_code/vendor/huawei/extra/build/build_script/kirin_kernel_release/kernel/include/linux/assoc_array.h"
	.file 73 "/mnt/disk/jenkins/ci/workspace/chipset_release_960_xloader/opensource/component_code/vendor/huawei/extra/build/build_script/kirin_kernel_release/kernel/include/linux/key.h"
	.file 74 "/mnt/disk/jenkins/ci/workspace/chipset_release_960_xloader/opensource/component_code/vendor/huawei/extra/build/build_script/kirin_kernel_release/kernel/include/linux/cred.h"
	.file 75 "/mnt/disk/jenkins/ci/workspace/chipset_release_960_xloader/opensource/component_code/vendor/huawei/extra/build/build_script/kirin_kernel_release/kernel/include/linux/idr.h"
	.file 76 "/mnt/disk/jenkins/ci/workspace/chipset_release_960_xloader/opensource/component_code/vendor/huawei/extra/build/build_script/kirin_kernel_release/kernel/include/linux/rcu_sync.h"
	.file 77 "/mnt/disk/jenkins/ci/workspace/chipset_release_960_xloader/opensource/component_code/vendor/huawei/extra/build/build_script/kirin_kernel_release/kernel/include/linux/percpu-rwsem.h"
	.file 78 "/mnt/disk/jenkins/ci/workspace/chipset_release_960_xloader/opensource/component_code/vendor/huawei/extra/build/build_script/kirin_kernel_release/kernel/include/linux/bpf-cgroup.h"
	.file 79 "/mnt/disk/jenkins/ci/workspace/chipset_release_960_xloader/opensource/component_code/vendor/huawei/extra/build/build_script/kirin_kernel_release/kernel/include/linux/cgroup-defs.h"
	.file 80 "/mnt/disk/jenkins/ci/workspace/chipset_release_960_xloader/opensource/component_code/vendor/huawei/extra/build/build_script/kirin_kernel_release/kernel/include/linux/kernfs.h"
	.file 81 "/mnt/disk/jenkins/ci/workspace/chipset_release_960_xloader/opensource/component_code/vendor/huawei/extra/build/build_script/kirin_kernel_release/kernel/include/linux/seq_file.h"
	.file 82 "/mnt/disk/jenkins/ci/workspace/chipset_release_960_xloader/opensource/component_code/vendor/huawei/extra/build/build_script/kirin_kernel_release/kernel/include/uapi/linux/taskstats.h"
	.file 83 "/mnt/disk/jenkins/ci/workspace/chipset_release_960_xloader/opensource/component_code/vendor/huawei/extra/build/build_script/kirin_kernel_release/kernel/include/linux/nsproxy.h"
	.file 84 "/mnt/disk/jenkins/ci/workspace/chipset_release_960_xloader/opensource/component_code/vendor/huawei/extra/build/build_script/kirin_kernel_release/kernel/include/linux/compat.h"
	.file 85 "/mnt/disk/jenkins/ci/workspace/chipset_release_960_xloader/opensource/component_code/vendor/huawei/extra/build/build_script/kirin_kernel_release/kernel/include/linux/stat.h"
	.file 86 "/mnt/disk/jenkins/ci/workspace/chipset_release_960_xloader/opensource/component_code/vendor/huawei/extra/build/build_script/kirin_kernel_release/kernel/include/uapi/linux/elf.h"
	.file 87 "/mnt/disk/jenkins/ci/workspace/chipset_release_960_xloader/opensource/component_code/vendor/huawei/extra/build/build_script/kirin_kernel_release/kernel/include/linux/kobject_ns.h"
	.file 88 "/mnt/disk/jenkins/ci/workspace/chipset_release_960_xloader/opensource/component_code/vendor/huawei/extra/build/build_script/kirin_kernel_release/kernel/include/linux/sysfs.h"
	.file 89 "/mnt/disk/jenkins/ci/workspace/chipset_release_960_xloader/opensource/component_code/vendor/huawei/extra/build/build_script/kirin_kernel_release/kernel/include/linux/kobject.h"
	.file 90 "/mnt/disk/jenkins/ci/workspace/chipset_release_960_xloader/opensource/component_code/vendor/huawei/extra/build/build_script/kirin_kernel_release/kernel/include/linux/kref.h"
	.file 91 "/mnt/disk/jenkins/ci/workspace/chipset_release_960_xloader/opensource/component_code/vendor/huawei/extra/build/build_script/kirin_kernel_release/kernel/include/linux/moduleparam.h"
	.file 92 "/mnt/disk/jenkins/ci/workspace/chipset_release_960_xloader/opensource/component_code/vendor/huawei/extra/build/build_script/kirin_kernel_release/kernel/include/linux/module.h"
	.file 93 "/mnt/disk/jenkins/ci/workspace/chipset_release_960_xloader/opensource/component_code/vendor/huawei/extra/build/build_script/kirin_kernel_release/kernel/include/linux/rbtree_latch.h"
	.file 94 "/mnt/disk/jenkins/ci/workspace/chipset_release_960_xloader/opensource/component_code/vendor/huawei/extra/build/build_script/kirin_kernel_release/kernel/arch/arm64/include/asm/module.h"
	.file 95 "/mnt/disk/jenkins/ci/workspace/chipset_release_960_xloader/opensource/component_code/vendor/huawei/extra/build/build_script/kirin_kernel_release/kernel/arch/arm64/include/asm/uaccess.h"
	.file 96 "/mnt/disk/jenkins/ci/workspace/chipset_release_960_xloader/opensource/component_code/vendor/huawei/extra/build/build_script/kirin_kernel_release/kernel/include/linux/trace_events.h"
	.file 97 "/mnt/disk/jenkins/ci/workspace/chipset_release_960_xloader/opensource/component_code/vendor/huawei/extra/build/build_script/kirin_kernel_release/kernel/include/linux/tracepoint.h"
	.file 98 "/mnt/disk/jenkins/ci/workspace/chipset_release_960_xloader/opensource/component_code/vendor/huawei/extra/build/build_script/kirin_kernel_release/kernel/include/linux/percpu_counter.h"
	.file 99 "/mnt/disk/jenkins/ci/workspace/chipset_release_960_xloader/opensource/component_code/vendor/huawei/extra/build/build_script/kirin_kernel_release/kernel/include/linux/quota.h"
	.file 100 "/mnt/disk/jenkins/ci/workspace/chipset_release_960_xloader/opensource/component_code/vendor/huawei/extra/build/build_script/kirin_kernel_release/kernel/include/linux/projid.h"
	.file 101 "/mnt/disk/jenkins/ci/workspace/chipset_release_960_xloader/opensource/component_code/vendor/huawei/extra/build/build_script/kirin_kernel_release/kernel/include/linux/path.h"
	.file 102 "/mnt/disk/jenkins/ci/workspace/chipset_release_960_xloader/opensource/component_code/vendor/huawei/extra/build/build_script/kirin_kernel_release/kernel/include/linux/list_bl.h"
	.file 103 "/mnt/disk/jenkins/ci/workspace/chipset_release_960_xloader/opensource/component_code/vendor/huawei/extra/build/build_script/kirin_kernel_release/kernel/include/linux/lockref.h"
	.file 104 "/mnt/disk/jenkins/ci/workspace/chipset_release_960_xloader/opensource/component_code/vendor/huawei/extra/build/build_script/kirin_kernel_release/kernel/include/linux/dcache.h"
	.file 105 "/mnt/disk/jenkins/ci/workspace/chipset_release_960_xloader/opensource/component_code/vendor/huawei/extra/build/build_script/kirin_kernel_release/kernel/include/linux/list_lru.h"
	.file 106 "/mnt/disk/jenkins/ci/workspace/chipset_release_960_xloader/opensource/component_code/vendor/huawei/extra/build/build_script/kirin_kernel_release/kernel/include/linux/radix-tree.h"
	.file 107 "/mnt/disk/jenkins/ci/workspace/chipset_release_960_xloader/opensource/component_code/vendor/huawei/extra/build/build_script/kirin_kernel_release/kernel/include/uapi/linux/fiemap.h"
	.file 108 "/mnt/disk/jenkins/ci/workspace/chipset_release_960_xloader/opensource/component_code/vendor/huawei/extra/build/build_script/kirin_kernel_release/kernel/include/linux/migrate_mode.h"
	.file 109 "/mnt/disk/jenkins/ci/workspace/chipset_release_960_xloader/opensource/component_code/vendor/huawei/extra/build/build_script/kirin_kernel_release/kernel/include/linux/bvec.h"
	.file 110 "/mnt/disk/jenkins/ci/workspace/chipset_release_960_xloader/opensource/component_code/vendor/huawei/extra/build/build_script/kirin_kernel_release/kernel/include/linux/delayed_call.h"
	.file 111 "/mnt/disk/jenkins/ci/workspace/chipset_release_960_xloader/opensource/component_code/vendor/huawei/extra/build/build_script/kirin_kernel_release/kernel/include/linux/uio.h"
	.file 112 "/mnt/disk/jenkins/ci/workspace/chipset_release_960_xloader/opensource/component_code/vendor/huawei/extra/build/build_script/kirin_kernel_release/kernel/include/linux/nfs_fs_i.h"
	.file 113 "/mnt/disk/jenkins/ci/workspace/chipset_release_960_xloader/opensource/component_code/vendor/huawei/extra/build/build_script/kirin_kernel_release/kernel/include/linux/poll.h"
	.file 114 "/mnt/disk/jenkins/ci/workspace/chipset_release_960_xloader/opensource/component_code/vendor/huawei/extra/build/build_script/kirin_kernel_release/kernel/include/linux/seq_buf.h"
	.file 115 "/mnt/disk/jenkins/ci/workspace/chipset_release_960_xloader/opensource/component_code/vendor/huawei/extra/build/build_script/kirin_kernel_release/kernel/include/linux/trace_seq.h"
	.file 116 "/mnt/disk/jenkins/ci/workspace/chipset_release_960_xloader/opensource/component_code/vendor/huawei/extra/build/build_script/kirin_kernel_release/kernel/include/uapi/linux/perf_event.h"
	.file 117 "/mnt/disk/jenkins/ci/workspace/chipset_release_960_xloader/opensource/component_code/vendor/huawei/extra/build/build_script/kirin_kernel_release/kernel/include/asm-generic/local.h"
	.file 118 "/mnt/disk/jenkins/ci/workspace/chipset_release_960_xloader/opensource/component_code/vendor/huawei/extra/build/build_script/kirin_kernel_release/kernel/include/asm-generic/local64.h"
	.file 119 "/mnt/disk/jenkins/ci/workspace/chipset_release_960_xloader/opensource/component_code/vendor/huawei/extra/build/build_script/kirin_kernel_release/kernel/include/linux/cgroup.h"
	.file 120 "/mnt/disk/jenkins/ci/workspace/chipset_release_960_xloader/opensource/component_code/vendor/huawei/extra/build/build_script/kirin_kernel_release/kernel/include/linux/ns_common.h"
	.file 121 "/mnt/disk/jenkins/ci/workspace/chipset_release_960_xloader/opensource/component_code/vendor/huawei/extra/build/build_script/kirin_kernel_release/kernel/include/uapi/linux/uio.h"
	.file 122 "/mnt/disk/jenkins/ci/workspace/chipset_release_960_xloader/opensource/component_code/vendor/huawei/extra/build/build_script/kirin_kernel_release/kernel/include/linux/ftrace.h"
	.file 123 "/mnt/disk/jenkins/ci/workspace/chipset_release_960_xloader/opensource/component_code/vendor/huawei/extra/build/build_script/kirin_kernel_release/kernel/include/linux/klist.h"
	.file 124 "/mnt/disk/jenkins/ci/workspace/chipset_release_960_xloader/opensource/component_code/vendor/huawei/extra/build/build_script/kirin_kernel_release/kernel/include/linux/pinctrl/devinfo.h"
	.file 125 "/mnt/disk/jenkins/ci/workspace/chipset_release_960_xloader/opensource/component_code/vendor/huawei/extra/build/build_script/kirin_kernel_release/kernel/include/linux/pm.h"
	.file 126 "/mnt/disk/jenkins/ci/workspace/chipset_release_960_xloader/opensource/component_code/vendor/huawei/extra/build/build_script/kirin_kernel_release/kernel/include/linux/device.h"
	.file 127 "/mnt/disk/jenkins/ci/workspace/chipset_release_960_xloader/opensource/component_code/vendor/huawei/extra/build/build_script/kirin_kernel_release/kernel/include/linux/pm_wakeup.h"
	.file 128 "/mnt/disk/jenkins/ci/workspace/chipset_release_960_xloader/opensource/component_code/vendor/huawei/extra/build/build_script/kirin_kernel_release/kernel/arch/arm64/include/asm/device.h"
	.file 129 "/mnt/disk/jenkins/ci/workspace/chipset_release_960_xloader/opensource/component_code/vendor/huawei/extra/build/build_script/kirin_kernel_release/kernel/include/linux/irq_work.h"
	.file 130 "/mnt/disk/jenkins/ci/workspace/chipset_release_960_xloader/opensource/component_code/vendor/huawei/extra/build/build_script/kirin_kernel_release/kernel/include/linux/perf_regs.h"
	.file 131 "/mnt/disk/jenkins/ci/workspace/chipset_release_960_xloader/opensource/component_code/vendor/huawei/extra/build/build_script/kirin_kernel_release/kernel/include/linux/interrupt.h"
	.file 132 "/mnt/disk/jenkins/ci/workspace/chipset_release_960_xloader/opensource/component_code/vendor/huawei/extra/build/build_script/kirin_kernel_release/kernel/drivers/vcodec/hi_vcodec/vdec/vfmw/vfmw_v4.0/firmware/driver/HiSCDV200/scd_drv.h"
	.file 133 "/mnt/disk/jenkins/ci/workspace/chipset_release_960_xloader/opensource/component_code/vendor/huawei/extra/build/build_script/kirin_kernel_release/kernel/drivers/vcodec/hi_vcodec/vdec/vfmw/vfmw_v4.0/firmware/common/decparam.h"
	.file 134 "/mnt/disk/jenkins/ci/workspace/chipset_release_960_xloader/opensource/component_code/vendor/huawei/extra/build/build_script/kirin_kernel_release/kernel/drivers/vcodec/hi_vcodec/vdec/vfmw/vfmw_v4.0/firmware/common/public.h"
	.file 135 "/mnt/disk/jenkins/ci/workspace/chipset_release_960_xloader/opensource/component_code/vendor/huawei/extra/build/build_script/kirin_kernel_release/kernel/drivers/vcodec/hi_vcodec/vdec/vfmw/vfmw_v4.0/firmware/common/bitstream.h"
	.file 136 "/mnt/disk/jenkins/ci/workspace/chipset_release_960_xloader/opensource/component_code/vendor/huawei/extra/build/build_script/kirin_kernel_release/kernel/drivers/vcodec/hi_vcodec/vdec/vfmw/vfmw_v4.0/firmware/common/syn_cmn.h"
	.file 137 "/mnt/disk/jenkins/ci/workspace/chipset_release_960_xloader/opensource/component_code/vendor/huawei/extra/build/build_script/kirin_kernel_release/kernel/drivers/vcodec/hi_vcodec/vdec/vfmw/vfmw_v4.0/firmware/common/syntax/hevc.h"
	.file 138 "/mnt/disk/jenkins/ci/workspace/chipset_release_960_xloader/opensource/component_code/vendor/huawei/extra/build/build_script/kirin_kernel_release/kernel/drivers/vcodec/hi_vcodec/vdec/vfmw/vfmw_v4.0/firmware/common/syntax/vp6.h"
	.file 139 "/mnt/disk/jenkins/ci/workspace/chipset_release_960_xloader/opensource/component_code/vendor/huawei/extra/build/build_script/kirin_kernel_release/kernel/drivers/vcodec/hi_vcodec/vdec/vfmw/vfmw_v4.0/firmware/common/syntax/vp8.h"
	.file 140 "/mnt/disk/jenkins/ci/workspace/chipset_release_960_xloader/opensource/component_code/vendor/huawei/extra/build/build_script/kirin_kernel_release/kernel/drivers/vcodec/hi_vcodec/vdec/vfmw/vfmw_v4.0/firmware/common/fsp.h"
	.file 141 "/mnt/disk/jenkins/ci/workspace/chipset_release_960_xloader/opensource/component_code/vendor/huawei/extra/build/build_script/kirin_kernel_release/kernel/arch/arm64/include/asm/cachetype.h"
	.file 142 "/mnt/disk/jenkins/ci/workspace/chipset_release_960_xloader/opensource/component_code/vendor/huawei/extra/build/build_script/kirin_kernel_release/kernel/include/linux/printk.h"
	.file 143 "/mnt/disk/jenkins/ci/workspace/chipset_release_960_xloader/opensource/component_code/vendor/huawei/extra/build/build_script/kirin_kernel_release/kernel/include/linux/kernel.h"
	.file 144 "/mnt/disk/jenkins/ci/workspace/chipset_release_960_xloader/opensource/component_code/vendor/huawei/extra/build/build_script/kirin_kernel_release/kernel/arch/arm64/include/asm/stack_pointer.h"
	.file 145 "/mnt/disk/jenkins/ci/workspace/chipset_release_960_xloader/opensource/component_code/vendor/huawei/extra/build/build_script/kirin_kernel_release/kernel/arch/arm64/include/asm/hwcap.h"
	.file 146 "/mnt/disk/jenkins/ci/workspace/chipset_release_960_xloader/opensource/component_code/vendor/huawei/extra/build/build_script/kirin_kernel_release/kernel/arch/arm64/include/asm/cpufeature.h"
	.file 147 "/mnt/disk/jenkins/ci/workspace/chipset_release_960_xloader/opensource/component_code/vendor/huawei/extra/build/build_script/kirin_kernel_release/kernel/arch/arm64/include/asm/virt.h"
	.file 148 "/mnt/disk/jenkins/ci/workspace/chipset_release_960_xloader/opensource/component_code/vendor/huawei/extra/build/build_script/kirin_kernel_release/kernel/include/linux/jiffies.h"
	.file 149 "/mnt/disk/jenkins/ci/workspace/chipset_release_960_xloader/opensource/component_code/vendor/huawei/extra/build/build_script/kirin_kernel_release/kernel/include/linux/highuid.h"
	.file 150 "/mnt/disk/jenkins/ci/workspace/chipset_release_960_xloader/opensource/component_code/vendor/huawei/extra/build/build_script/kirin_kernel_release/kernel/arch/arm64/include/asm/memory.h"
	.file 151 "/mnt/disk/jenkins/ci/workspace/chipset_release_960_xloader/opensource/component_code/vendor/huawei/extra/build/build_script/kirin_kernel_release/kernel/include/asm-generic/percpu.h"
	.file 152 "/mnt/disk/jenkins/ci/workspace/chipset_release_960_xloader/opensource/component_code/vendor/huawei/extra/build/build_script/kirin_kernel_release/kernel/include/linux/debug_locks.h"
	.file 153 "/mnt/disk/jenkins/ci/workspace/chipset_release_960_xloader/opensource/component_code/vendor/huawei/extra/build/build_script/kirin_kernel_release/kernel/include/asm-generic/pgtable.h"
	.file 154 "/mnt/disk/jenkins/ci/workspace/chipset_release_960_xloader/opensource/component_code/vendor/huawei/extra/build/build_script/kirin_kernel_release/kernel/arch/arm64/include/asm/irq.h"
	.file 155 "/mnt/disk/jenkins/ci/workspace/chipset_release_960_xloader/opensource/component_code/vendor/huawei/extra/build/build_script/kirin_kernel_release/kernel/arch/arm64/include/asm/hardirq.h"
	.file 156 "/mnt/disk/jenkins/ci/workspace/chipset_release_960_xloader/opensource/component_code/vendor/huawei/extra/build/build_script/kirin_kernel_release/kernel/include/linux/slab.h"
	.file 157 "/mnt/disk/jenkins/ci/workspace/chipset_release_960_xloader/opensource/component_code/vendor/huawei/extra/build/build_script/kirin_kernel_release/kernel/drivers/vcodec/hi_vcodec/vdec/vfmw/vfmw_v4.0/firmware/common/syntax/syntax.h"
	.file 158 "/mnt/disk/jenkins/ci/workspace/chipset_release_960_xloader/opensource/component_code/vendor/huawei/extra/build/build_script/kirin_kernel_release/kernel/drivers/vcodec/hi_vcodec/vdec/vfmw/vfmw_v4.0/firmware/common/vfmw_ctrl.h"
	.file 159 "/mnt/disk/jenkins/ci/workspace/chipset_release_960_xloader/opensource/component_code/vendor/huawei/extra/build/build_script/kirin_kernel_release/kernel/drivers/vcodec/hi_vcodec/vdec/vfmw/vfmw_v4.0/firmware/common/mem_manage.h"
	.section	.note.GNU-stack,"",%progbits
