	.cpu generic+fp+simd
	.file	"vfmw.c"
	.text
.Ltext0:
	.cfi_sections	.debug_frame
	.align	2
	.global	VDM_OpenHardware
	.type	VDM_OpenHardware, %function
VDM_OpenHardware:
.LFB2638:
	.file 1 "/mnt/disk/jenkins/ci/workspace/chipset_release_960_xloader/opensource/component_code/vendor/huawei/extra/build/build_script/kirin_kernel_release/kernel/drivers/vcodec/hi_vcodec/vdec/vfmw/vfmw_v4.0/firmware/product/HiVCodecV100/vfmw.c"
	.loc 1 59 0
	.cfi_startproc
.LVL0:
	.loc 1 65 0
	ret
	.cfi_endproc
.LFE2638:
	.size	VDM_OpenHardware, .-VDM_OpenHardware
	.align	2
	.global	VDM_CloseHardware
	.type	VDM_CloseHardware, %function
VDM_CloseHardware:
.LFB2639:
	.loc 1 68 0
	.cfi_startproc
.LVL1:
	.loc 1 70 0
	ret
	.cfi_endproc
.LFE2639:
	.size	VDM_CloseHardware, .-VDM_CloseHardware
	.align	2
	.global	SCD_OpenHardware
	.type	SCD_OpenHardware, %function
SCD_OpenHardware:
.LFB2640:
	.loc 1 73 0
	.cfi_startproc
	.loc 1 75 0
	ret
	.cfi_endproc
.LFE2640:
	.size	SCD_OpenHardware, .-SCD_OpenHardware
	.align	2
	.global	SCD_CloseHardware
	.type	SCD_CloseHardware, %function
SCD_CloseHardware:
.LFB2641:
	.loc 1 78 0
	.cfi_startproc
	.loc 1 80 0
	ret
	.cfi_endproc
.LFE2641:
	.size	SCD_CloseHardware, .-SCD_CloseHardware
	.align	2
	.global	BPD_OpenHardware
	.type	BPD_OpenHardware, %function
BPD_OpenHardware:
.LFB2642:
	.loc 1 83 0
	.cfi_startproc
	.loc 1 85 0
	ret
	.cfi_endproc
.LFE2642:
	.size	BPD_OpenHardware, .-BPD_OpenHardware
	.align	2
	.global	BPD_CloseHardware
	.type	BPD_CloseHardware, %function
BPD_CloseHardware:
.LFB2643:
	.loc 1 88 0
	.cfi_startproc
	.loc 1 90 0
	ret
	.cfi_endproc
.LFE2643:
	.size	BPD_CloseHardware, .-BPD_CloseHardware
	.align	2
	.global	VDEC_GetHalMemSize
	.type	VDEC_GetHalMemSize, %function
VDEC_GetHalMemSize:
.LFB2644:
	.loc 1 96 0
	.cfi_startproc
.LVL2:
	stp	x29, x30, [sp, -32]!
	.cfi_def_cfa_offset 32
	.cfi_offset 29, -32
	.cfi_offset 30, -24
	add	x29, sp, 0
	.cfi_def_cfa_register 29
	str	x19, [sp,16]
	.cfi_offset 19, -16
	.loc 1 96 0
	mov	x19, x0
	.loc 1 99 0
	bl	VDMHAL_IMP_GetHalMemSize
.LVL3:
	.loc 1 100 0
	cmp	w0, wzr
	ble	.L11
	.loc 1 108 0
	add	w1, w0, 61440
	.loc 1 110 0
	mov	w0, 0
.LVL4:
	.loc 1 108 0
	str	w1, [x19,12]
.L9:
	.loc 1 111 0
	ldr	x19, [sp,16]
	.cfi_remember_state
	.cfi_restore 19
.LVL5:
	ldp	x29, x30, [sp], 32
	.cfi_restore 30
	.cfi_restore 29
	.cfi_def_cfa 31, 0
	ret
.LVL6:
.L11:
	.cfi_restore_state
.LBB4:
.LBB5:
	.loc 1 102 0
	adrp	x1, .LC0
	adrp	x2, .LANCHOR0
	mov	w0, 1
.LVL7:
	add	x1, x1, :lo12:.LC0
	add	x2, x2, :lo12:.LANCHOR0
	bl	dprint_linux_kernel
.LVL8:
	mov	w0, -1
	b	.L9
.LBE5:
.LBE4:
	.cfi_endproc
.LFE2644:
	.size	VDEC_GetHalMemSize, .-VDEC_GetHalMemSize
	.align	2
	.global	VDEC_OpenModule
	.type	VDEC_OpenModule, %function
VDEC_OpenModule:
.LFB2645:
	.loc 1 117 0
	.cfi_startproc
	stp	x29, x30, [sp, -16]!
	.cfi_def_cfa_offset 16
	.cfi_offset 29, -16
	.cfi_offset 30, -8
	add	x29, sp, 0
	.cfi_def_cfa_register 29
	.loc 1 119 0
	bl	OSAL_InitInterface
.LVL9:
	.loc 1 125 0
	adrp	x1, .LANCHOR1+40
	mov	w0, 0
	ldr	x1, [x1,#:lo12:.LANCHOR1+40]
	blr	x1
.LVL10:
	.loc 1 126 0
	ldp	x29, x30, [sp], 16
	.cfi_restore 30
	.cfi_restore 29
	.cfi_def_cfa 31, 0
	ret
	.cfi_endproc
.LFE2645:
	.size	VDEC_OpenModule, .-VDEC_OpenModule
	.align	2
	.global	VDEC_ExitModule
	.type	VDEC_ExitModule, %function
VDEC_ExitModule:
.LFB2646:
	.loc 1 133 0
	.cfi_startproc
	.loc 1 139 0
	ret
	.cfi_endproc
.LFE2646:
	.size	VDEC_ExitModule, .-VDEC_ExitModule
	.align	2
	.global	VDEC_SpinLockInit
	.type	VDEC_SpinLockInit, %function
VDEC_SpinLockInit:
.LFB2647:
	.loc 1 145 0
	.cfi_startproc
	stp	x29, x30, [sp, -32]!
	.cfi_def_cfa_offset 32
	.cfi_offset 29, -32
	.cfi_offset 30, -24
	.loc 1 146 0
	mov	w0, 0
	.loc 1 145 0
	add	x29, sp, 0
	.cfi_def_cfa_register 29
	str	x19, [sp,16]
	.cfi_offset 19, -16
	.loc 1 146 0
	adrp	x19, .LANCHOR1
	add	x19, x19, :lo12:.LANCHOR1
	ldr	x1, [x19,16]
	blr	x1
.LVL11:
	.loc 1 147 0
	ldr	x1, [x19,16]
	mov	w0, 1
	blr	x1
.LVL12:
	.loc 1 148 0
	ldr	x1, [x19,16]
	mov	w0, 2
	blr	x1
.LVL13:
	.loc 1 149 0
	ldr	x1, [x19,16]
	mov	w0, 3
	blr	x1
.LVL14:
	.loc 1 150 0
	ldr	x1, [x19,16]
	mov	w0, 4
	blr	x1
.LVL15:
	.loc 1 153 0
	ldr	x19, [sp,16]
	.cfi_restore 19
	ldp	x29, x30, [sp], 32
	.cfi_restore 30
	.cfi_restore 29
	.cfi_def_cfa 31, 0
	ret
	.cfi_endproc
.LFE2647:
	.size	VDEC_SpinLockInit, .-VDEC_SpinLockInit
	.align	2
	.global	VDEC_Init
	.type	VDEC_Init, %function
VDEC_Init:
.LFB2648:
	.loc 1 160 0
	.cfi_startproc
.LVL16:
	stp	x29, x30, [sp, -48]!
	.cfi_def_cfa_offset 48
	.cfi_offset 29, -48
	.cfi_offset 30, -40
	add	x29, sp, 0
	.cfi_def_cfa_register 29
	stp	x19, x20, [sp,16]
	.cfi_offset 19, -32
	.cfi_offset 20, -24
	.loc 1 163 0
	adrp	x20, .LANCHOR1
	.loc 1 160 0
	str	x21, [sp,32]
	.cfi_offset 21, -16
	.loc 1 163 0
	add	x20, x20, :lo12:.LANCHOR1
	.loc 1 160 0
	mov	x21, x0
	.loc 1 163 0
	mov	w0, 0
.LVL17:
	ldr	x1, [x20,48]
	blr	x1
.LVL18:
	.loc 1 165 0
	cbz	x21, .L21
	.loc 1 173 0
	ldr	w0, [x20,224]
	cmp	w0, 1
	beq	.L22
	.loc 1 181 0
	bl	VFMW_IsDtsDataValid
.LVL19:
	.loc 1 182 0
	cbnz	w0, .L23
	.loc 1 188 0
	adrp	x0, VDM_OpenHardware
	add	x19, x20, 232
	add	x0, x0, :lo12:VDM_OpenHardware
	str	x0, [x20,232]
	.loc 1 189 0
	adrp	x0, VDM_CloseHardware
	add	x0, x0, :lo12:VDM_CloseHardware
	str	x0, [x19,8]
	.loc 1 190 0
	adrp	x0, SCD_OpenHardware
	add	x0, x0, :lo12:SCD_OpenHardware
	str	x0, [x19,16]
	.loc 1 191 0
	adrp	x0, SCD_CloseHardware
	add	x0, x0, :lo12:SCD_CloseHardware
	str	x0, [x19,24]
	.loc 1 192 0
	adrp	x0, BPD_OpenHardware
	add	x0, x0, :lo12:BPD_OpenHardware
	str	x0, [x19,32]
	.loc 1 193 0
	adrp	x0, BPD_CloseHardware
	add	x0, x0, :lo12:BPD_CloseHardware
	str	x0, [x19,40]
	.loc 1 194 0
	adrp	x0, VDMHAL_IMP_GetHalMemSize
	add	x0, x0, :lo12:VDMHAL_IMP_GetHalMemSize
	str	x0, [x19,56]
	.loc 1 195 0
	adrp	x0, VDMHAL_IMP_OpenHAL
	add	x0, x0, :lo12:VDMHAL_IMP_OpenHAL
	str	x0, [x19,64]
	.loc 1 196 0
	adrp	x0, VDMHAL_IMP_CloseHAL
	add	x0, x0, :lo12:VDMHAL_IMP_CloseHAL
	str	x0, [x19,72]
	.loc 1 197 0
	adrp	x0, VDMHAL_IMP_ArrangeMem
	add	x0, x0, :lo12:VDMHAL_IMP_ArrangeMem
	str	x0, [x19,80]
	.loc 1 198 0
	adrp	x0, VDMHAL_IMP_ResetVdm
	add	x0, x0, :lo12:VDMHAL_IMP_ResetVdm
	str	x0, [x19,88]
	.loc 1 199 0
	adrp	x0, VDMHAL_IMP_GlbReset
	add	x0, x0, :lo12:VDMHAL_IMP_GlbReset
	str	x0, [x19,96]
	.loc 1 200 0
	adrp	x0, VDMHAL_IMP_ClearIntState
	add	x0, x0, :lo12:VDMHAL_IMP_ClearIntState
	str	x0, [x19,104]
	.loc 1 201 0
	adrp	x0, VDMHAL_IMP_CheckReg
	add	x0, x0, :lo12:VDMHAL_IMP_CheckReg
	str	x0, [x19,112]
	.loc 1 202 0
	adrp	x0, VDMHAL_IMP_StartHwRepair
	add	x0, x0, :lo12:VDMHAL_IMP_StartHwRepair
	str	x0, [x19,120]
	.loc 1 203 0
	adrp	x0, VDMHAL_IMP_StartHwDecode
	add	x0, x0, :lo12:VDMHAL_IMP_StartHwDecode
	str	x0, [x19,128]
	.loc 1 204 0
	adrp	x0, VDMHAL_IMP_PrepareDec
	add	x0, x0, :lo12:VDMHAL_IMP_PrepareDec
	str	x0, [x19,136]
	.loc 1 205 0
	adrp	x0, VDMHAL_IMP_IsVdmReady
	add	x0, x0, :lo12:VDMHAL_IMP_IsVdmReady
	str	x0, [x19,144]
	.loc 1 206 0
	adrp	x0, VDMHAL_IMP_IsVdmRun
	add	x0, x0, :lo12:VDMHAL_IMP_IsVdmRun
	str	x0, [x19,152]
	.loc 1 207 0
	adrp	x0, VDMHAL_IMP_PrepareRepair
	add	x0, x0, :lo12:VDMHAL_IMP_PrepareRepair
	str	x0, [x19,160]
	.loc 1 208 0
	adrp	x0, VDMHAL_IMP_MakeDecReport
	add	x0, x0, :lo12:VDMHAL_IMP_MakeDecReport
	str	x0, [x19,168]
	.loc 1 209 0
	adrp	x0, VDMHAL_IMP_BackupInfo
	add	x0, x0, :lo12:VDMHAL_IMP_BackupInfo
	str	x0, [x19,176]
	.loc 1 210 0
	adrp	x0, VDMHAL_IMP_GetCharacter
	add	x0, x0, :lo12:VDMHAL_IMP_GetCharacter
	str	x0, [x19,48]
	.loc 1 211 0
	adrp	x0, VDMHAL_IMP_WriteScdEMARID
	add	x0, x0, :lo12:VDMHAL_IMP_WriteScdEMARID
	str	x0, [x19,184]
	.loc 1 213 0
	bl	VDEC_SpinLockInit
.LVL20:
	.loc 1 215 0
	ldr	x0, [x19,48]
	blr	x0
.LVL21:
	.loc 1 216 0
	add	x0, x21, 32
	bl	MEM_ManagerWithOperation
.LVL22:
	.loc 1 218 0
	mov	x0, x21
	bl	VCTRL_OpenVfmw
.LVL23:
	.loc 1 219 0
	cbz	w0, .L24
	.loc 1 230 0
	ldr	x1, [x20,56]
	mov	w0, 0
	.loc 1 226 0
	str	wzr, [x20,224]
	.loc 1 227 0
	str	wzr, [x20,228]
	.loc 1 230 0
	blr	x1
.LVL24:
	.loc 1 232 0 discriminator 2
	mov	w0, -1
.L17:
	.loc 1 233 0
	ldp	x19, x20, [sp,16]
	.cfi_remember_state
	.cfi_restore 20
	.cfi_restore 19
	ldr	x21, [sp,32]
	.cfi_restore 21
.LVL25:
	ldp	x29, x30, [sp], 48
	.cfi_restore 30
	.cfi_restore 29
	.cfi_def_cfa 31, 0
	ret
.LVL26:
.L24:
	.cfi_restore_state
	.loc 1 230 0
	ldr	x2, [x20,56]
	.loc 1 221 0
	mov	w1, 1
	str	w1, [x20,224]
	.loc 1 222 0
	str	w1, [x20,228]
	.loc 1 230 0
	blr	x2
.LVL27:
	.loc 1 233 0
	ldr	x21, [sp,32]
	.cfi_remember_state
	.cfi_restore 21
.LVL28:
	.loc 1 232 0 discriminator 1
	mov	w0, 0
	.loc 1 233 0
	ldp	x19, x20, [sp,16]
	.cfi_restore 19
	.cfi_restore 20
	ldp	x29, x30, [sp], 48
	.cfi_restore 29
	.cfi_restore 30
	.cfi_def_cfa 31, 0
	ret
.LVL29:
.L22:
	.cfi_restore_state
	.loc 1 175 0
	ldr	w2, [x20,228]
	.loc 1 176 0
	add	x1, x21, 32
	ldr	w0, [x21,4]
	.loc 1 175 0
	add	w2, w2, 1
	str	w2, [x20,228]
	.loc 1 176 0
	bl	VCTRL_SetCallBack
.LVL30:
	.loc 1 177 0
	ldr	x1, [x20,56]
	mov	w0, 0
	blr	x1
.LVL31:
	.loc 1 233 0
	ldr	x21, [sp,32]
	.cfi_remember_state
	.cfi_restore 21
.LVL32:
	.loc 1 178 0
	mov	w0, 0
	.loc 1 233 0
	ldp	x19, x20, [sp,16]
	.cfi_restore 19
	.cfi_restore 20
	ldp	x29, x30, [sp], 48
	.cfi_restore 29
	.cfi_restore 30
	.cfi_def_cfa 31, 0
	ret
.LVL33:
.L23:
	.cfi_restore_state
	.loc 1 184 0
	adrp	x2, .LANCHOR0
	adrp	x1, .LC2
	add	x2, x2, :lo12:.LANCHOR0
	mov	w0, 0
	add	x1, x1, :lo12:.LC2
	add	x2, x2, 24
	bl	dprint_linux_kernel
.LVL34:
	.loc 1 185 0
	mov	w0, -1
	b	.L17
.L21:
	.loc 1 167 0
	adrp	x1, .LC1
	mov	w0, 1
	add	x1, x1, :lo12:.LC1
	bl	dprint_linux_kernel
.LVL35:
	.loc 1 168 0
	ldr	x1, [x20,56]
	mov	w0, 0
	blr	x1
.LVL36:
	.loc 1 169 0
	mov	w0, -1
	b	.L17
	.cfi_endproc
.LFE2648:
	.size	VDEC_Init, .-VDEC_Init
	.align	2
	.global	VDEC_Exit
	.type	VDEC_Exit, %function
VDEC_Exit:
.LFB2649:
	.loc 1 239 0
	.cfi_startproc
.LVL37:
	stp	x29, x30, [sp, -32]!
	.cfi_def_cfa_offset 32
	.cfi_offset 29, -32
	.cfi_offset 30, -24
	.loc 1 241 0
	mov	w0, 0
.LVL38:
	.loc 1 239 0
	add	x29, sp, 0
	.cfi_def_cfa_register 29
	stp	x19, x20, [sp,16]
	.cfi_offset 19, -16
	.cfi_offset 20, -8
	.loc 1 241 0
	adrp	x19, .LANCHOR1
	add	x19, x19, :lo12:.LANCHOR1
	ldr	x1, [x19,48]
	blr	x1
.LVL39:
	.loc 1 243 0
	ldr	w0, [x19,228]
	subs	w0, w0, #1
	csel	w0, w0, wzr, pl
	str	w0, [x19,228]
	.loc 1 244 0
	cbz	w0, .L26
	.loc 1 246 0
	ldr	x1, [x19,56]
	mov	w0, 0
	blr	x1
.LVL40:
	.loc 1 247 0
	mov	w0, 0
	.loc 1 257 0
	ldp	x19, x20, [sp,16]
	.cfi_remember_state
	.cfi_restore 20
	.cfi_restore 19
	ldp	x29, x30, [sp], 32
	.cfi_restore 30
	.cfi_restore 29
	.cfi_def_cfa 31, 0
	ret
.L26:
	.cfi_restore_state
	.loc 1 250 0
	bl	VCTRL_CloseVfmw
.LVL41:
	.loc 1 253 0
	str	wzr, [x19,224]
	.loc 1 255 0
	ldr	x1, [x19,56]
	.loc 1 250 0
	mov	w20, w0
.LVL42:
	.loc 1 255 0
	mov	w0, 0
	blr	x1
.LVL43:
	.loc 1 256 0
	cmp	w20, wzr
	csetm	w0, ne
	.loc 1 257 0
	ldp	x19, x20, [sp,16]
	.cfi_restore 19
	.cfi_restore 20
.LVL44:
	ldp	x29, x30, [sp], 32
	.cfi_restore 29
	.cfi_restore 30
	.cfi_def_cfa 31, 0
	ret
	.cfi_endproc
.LFE2649:
	.size	VDEC_Exit, .-VDEC_Exit
	.align	2
	.global	VDEC_Control
	.type	VDEC_Control, %function
VDEC_Control:
.LFB2652:
	.loc 1 557 0
	.cfi_startproc
.LVL45:
	stp	x29, x30, [sp, -144]!
	.cfi_def_cfa_offset 144
	.cfi_offset 29, -144
	.cfi_offset 30, -136
.LBB11:
.LBB12:
	.loc 1 263 0 discriminator 1
	cmp	w1, 17
.LBE12:
.LBE11:
	.loc 1 557 0
	add	x29, sp, 0
	.cfi_def_cfa_register 29
	stp	x19, x20, [sp,16]
	.cfi_offset 19, -128
	.cfi_offset 20, -120
	adrp	x20, __stack_chk_guard
	str	x23, [sp,48]
	stp	x21, x22, [sp,32]
	.cfi_offset 23, -96
	.cfi_offset 21, -112
	.cfi_offset 22, -104
	.loc 1 557 0
	mov	w22, w0
	mov	w19, w1
	ldr	x0, [x20,#:lo12:__stack_chk_guard]
.LVL46:
	mov	x21, x2
	str	x0, [x29,136]
.LBB16:
.LBB13:
	.loc 1 263 0 discriminator 1
	beq	.L29
	.loc 1 263 0 is_stmt 0
	adrp	x0, .LANCHOR1+224
	ldr	w0, [x0,#:lo12:.LANCHOR1+224]
	.loc 1 263 0 discriminator 1
	cmp	w0, 1
	bne	.L108
.L29:
	.loc 1 269 0 is_stmt 1
	sub	w0, w19, #1
	cmp	w0, 51
	bls	.L109
.L31:
	.loc 1 302 0
	adrp	x1, .LC5
	mov	w2, 302
	add	x1, x1, :lo12:.LC5
	mov	w3, w19
.LVL47:
	mov	w0, 0
	bl	dprint_linux_kernel
.LVL48:
.L30:
.LBE13:
.LBE16:
	.loc 1 563 0
	adrp	x1, .LC12
	mov	w0, 0
	add	x1, x1, :lo12:.LC12
	mov	w2, w19
	bl	dprint_linux_kernel
.LVL49:
	.loc 1 564 0
	mov	w0, -1
.LVL50:
.L68:
	.loc 1 575 0
	ldr	x2, [x29,136]
	ldr	x1, [x20,#:lo12:__stack_chk_guard]
	cmp	x2, x1
	bne	.L110
	ldp	x19, x20, [sp,16]
	.cfi_remember_state
	.cfi_restore 20
	.cfi_restore 19
.LVL51:
	ldp	x21, x22, [sp,32]
	.cfi_restore 22
	.cfi_restore 21
.LVL52:
	ldr	x23, [sp,48]
	.cfi_restore 23
	ldp	x29, x30, [sp], 144
	.cfi_restore 30
	.cfi_restore 29
	.cfi_def_cfa 31, 0
	ret
.LVL53:
.L109:
	.cfi_restore_state
.LBB17:
.LBB14:
	.loc 1 269 0
	adrp	x1, .L33
	add	x1, x1, :lo12:.L33
	ldrb	w1, [x1,w0,uxtw]
	adr	x2, .Lrtx33
	add	x1, x2, w1, sxtb #2
	br	x1
.Lrtx33:
	.section	.rodata
	.align	0
	.align	2
.L33:
	.byte	(.L32 - .Lrtx33) / 4
	.byte	(.L31 - .Lrtx33) / 4
	.byte	(.L31 - .Lrtx33) / 4
	.byte	(.L32 - .Lrtx33) / 4
	.byte	(.L32 - .Lrtx33) / 4
	.byte	(.L34 - .Lrtx33) / 4
	.byte	(.L34 - .Lrtx33) / 4
	.byte	(.L32 - .Lrtx33) / 4
	.byte	(.L32 - .Lrtx33) / 4
	.byte	(.L34 - .Lrtx33) / 4
	.byte	(.L34 - .Lrtx33) / 4
	.byte	(.L34 - .Lrtx33) / 4
	.byte	(.L34 - .Lrtx33) / 4
	.byte	(.L32 - .Lrtx33) / 4
	.byte	(.L32 - .Lrtx33) / 4
	.byte	(.L31 - .Lrtx33) / 4
	.byte	(.L32 - .Lrtx33) / 4
	.byte	(.L32 - .Lrtx33) / 4
	.byte	(.L32 - .Lrtx33) / 4
	.byte	(.L31 - .Lrtx33) / 4
	.byte	(.L31 - .Lrtx33) / 4
	.byte	(.L34 - .Lrtx33) / 4
	.byte	(.L34 - .Lrtx33) / 4
	.byte	(.L31 - .Lrtx33) / 4
	.byte	(.L31 - .Lrtx33) / 4
	.byte	(.L31 - .Lrtx33) / 4
	.byte	(.L31 - .Lrtx33) / 4
	.byte	(.L31 - .Lrtx33) / 4
	.byte	(.L31 - .Lrtx33) / 4
	.byte	(.L31 - .Lrtx33) / 4
	.byte	(.L31 - .Lrtx33) / 4
	.byte	(.L31 - .Lrtx33) / 4
	.byte	(.L31 - .Lrtx33) / 4
	.byte	(.L31 - .Lrtx33) / 4
	.byte	(.L31 - .Lrtx33) / 4
	.byte	(.L31 - .Lrtx33) / 4
	.byte	(.L31 - .Lrtx33) / 4
	.byte	(.L31 - .Lrtx33) / 4
	.byte	(.L31 - .Lrtx33) / 4
	.byte	(.L31 - .Lrtx33) / 4
	.byte	(.L31 - .Lrtx33) / 4
	.byte	(.L31 - .Lrtx33) / 4
	.byte	(.L31 - .Lrtx33) / 4
	.byte	(.L31 - .Lrtx33) / 4
	.byte	(.L31 - .Lrtx33) / 4
	.byte	(.L31 - .Lrtx33) / 4
	.byte	(.L31 - .Lrtx33) / 4
	.byte	(.L31 - .Lrtx33) / 4
	.byte	(.L31 - .Lrtx33) / 4
	.byte	(.L31 - .Lrtx33) / 4
	.byte	(.L32 - .Lrtx33) / 4
	.byte	(.L34 - .Lrtx33) / 4
	.text
.L32:
	.loc 1 294 0
	cbz	x21, .L73
	cbz	w3, .L73
.L34:
.LBE14:
.LBE17:
.LBB18:
.LBB19:
	.loc 1 327 0
	cmp	w0, 51
	bls	.L111
.LVL54:
.L67:
.LBE19:
.LBE18:
	.loc 1 570 0
	adrp	x1, .LC11
	mov	w0, 0
	add	x1, x1, :lo12:.LC11
	mov	w2, w19
	bl	dprint_linux_kernel
.LVL55:
	.loc 1 571 0
	mov	w0, -1
	b	.L68
.LVL56:
.L111:
.LBB26:
.LBB21:
	.loc 1 327 0
	adrp	x1, .L69
	add	x1, x1, :lo12:.L69
	ldrh	w0, [x1,w0,uxtw #1]
	adr	x1, .Lrtx69
	add	x0, x1, w0, sxth #2
	br	x0
.Lrtx69:
	.section	.rodata
	.align	0
	.align	2
.L69:
	.2byte	(.L36 - .Lrtx69) / 4
	.2byte	(.L67 - .Lrtx69) / 4
	.2byte	(.L67 - .Lrtx69) / 4
	.2byte	(.L38 - .Lrtx69) / 4
	.2byte	(.L41 - .Lrtx69) / 4
	.2byte	(.L46 - .Lrtx69) / 4
	.2byte	(.L48 - .Lrtx69) / 4
	.2byte	(.L49 - .Lrtx69) / 4
	.2byte	(.L50 - .Lrtx69) / 4
	.2byte	(.L51 - .Lrtx69) / 4
	.2byte	(.L52 - .Lrtx69) / 4
	.2byte	(.L53 - .Lrtx69) / 4
	.2byte	(.L55 - .Lrtx69) / 4
	.2byte	(.L57 - .Lrtx69) / 4
	.2byte	(.L58 - .Lrtx69) / 4
	.2byte	(.L67 - .Lrtx69) / 4
	.2byte	(.L59 - .Lrtx69) / 4
	.2byte	(.L60 - .Lrtx69) / 4
	.2byte	(.L43 - .Lrtx69) / 4
	.2byte	(.L67 - .Lrtx69) / 4
	.2byte	(.L67 - .Lrtx69) / 4
	.2byte	(.L56 - .Lrtx69) / 4
	.2byte	(.L62 - .Lrtx69) / 4
	.2byte	(.L67 - .Lrtx69) / 4
	.2byte	(.L67 - .Lrtx69) / 4
	.2byte	(.L67 - .Lrtx69) / 4
	.2byte	(.L67 - .Lrtx69) / 4
	.2byte	(.L67 - .Lrtx69) / 4
	.2byte	(.L67 - .Lrtx69) / 4
	.2byte	(.L67 - .Lrtx69) / 4
	.2byte	(.L67 - .Lrtx69) / 4
	.2byte	(.L67 - .Lrtx69) / 4
	.2byte	(.L67 - .Lrtx69) / 4
	.2byte	(.L67 - .Lrtx69) / 4
	.2byte	(.L67 - .Lrtx69) / 4
	.2byte	(.L67 - .Lrtx69) / 4
	.2byte	(.L67 - .Lrtx69) / 4
	.2byte	(.L67 - .Lrtx69) / 4
	.2byte	(.L67 - .Lrtx69) / 4
	.2byte	(.L67 - .Lrtx69) / 4
	.2byte	(.L67 - .Lrtx69) / 4
	.2byte	(.L67 - .Lrtx69) / 4
	.2byte	(.L67 - .Lrtx69) / 4
	.2byte	(.L67 - .Lrtx69) / 4
	.2byte	(.L67 - .Lrtx69) / 4
	.2byte	(.L67 - .Lrtx69) / 4
	.2byte	(.L67 - .Lrtx69) / 4
	.2byte	(.L67 - .Lrtx69) / 4
	.2byte	(.L67 - .Lrtx69) / 4
	.2byte	(.L67 - .Lrtx69) / 4
	.2byte	(.L63 - .Lrtx69) / 4
	.2byte	(.L66 - .Lrtx69) / 4
	.text
.L73:
.LBE21:
.LBE26:
.LBB27:
.LBB15:
	.loc 1 296 0
	adrp	x1, .LC4
	mov	w2, 296
	add	x1, x1, :lo12:.LC4
	mov	w0, 0
	bl	dprint_linux_kernel
.LVL57:
	b	.L30
.LVL58:
.L108:
	.loc 1 265 0
	adrp	x1, .LC3
	mov	w0, 0
	add	x1, x1, :lo12:.LC3
	bl	dprint_linux_kernel
.LVL59:
	b	.L30
.LVL60:
.L51:
.LBE15:
.LBE27:
.LBB28:
.LBB22:
	.loc 1 415 0
	adrp	x19, .LANCHOR1
.LVL61:
	mov	w0, 0
	add	x19, x19, :lo12:.LANCHOR1
	ldr	x1, [x19,24]
	blr	x1
.LVL62:
	.loc 1 416 0
	mov	w0, w22
	mov	x1, x21
	bl	VCTRL_GetChanState
.LVL63:
	.loc 1 417 0
	ldr	x1, [x19,32]
	mov	w0, 0
	blr	x1
.LVL64:
.L37:
	mov	w0, 0
	b	.L68
.LVL65:
.L52:
	.loc 1 421 0
	adrp	x21, .LANCHOR1
.LVL66:
	mov	w0, 0
	add	x21, x21, :lo12:.LANCHOR1
	ldr	x1, [x21,24]
	blr	x1
.LVL67:
	.loc 1 422 0
	mov	w0, w22
	bl	VCTRL_StartChan
.LVL68:
.L101:
	.loc 1 446 0
	cmp	w0, wzr
	.loc 1 447 0
	ldr	x1, [x21,32]
	.loc 1 446 0
	csetm	w22, ne
.LVL69:
	.loc 1 447 0
	mov	w0, 0
	blr	x1
.LVL70:
.LBE22:
.LBE28:
	.loc 1 568 0
	cbnz	w22, .L67
.LVL71:
.L106:
.LBB29:
.LBB23:
	mov	w0, 0
	b	.L68
.LVL72:
.L53:
	.loc 1 428 0
	mov	w0, w22
	bl	VCTRL_StopChanWithCheck
.LVL73:
	.loc 1 429 0
	cbz	w0, .L37
	.loc 1 432 0
	adrp	x1, .LC10
	mov	w2, w22
	add	x1, x1, :lo12:.LC10
	mov	w0, 0
	bl	dprint_linux_kernel
.LVL74:
	b	.L67
.LVL75:
.L55:
	.loc 1 437 0
	adrp	x21, .LANCHOR1
.LVL76:
	mov	w0, 0
	add	x21, x21, :lo12:.LANCHOR1
	ldr	x1, [x21,24]
	blr	x1
.LVL77:
	.loc 1 438 0
	mov	w0, w22
	bl	VCTRL_ResetChan
.LVL78:
	b	.L101
.LVL79:
.L57:
	.loc 1 451 0
	adrp	x23, .LANCHOR1
	mov	w0, 0
	add	x23, x23, :lo12:.LANCHOR1
	ldr	x1, [x23,24]
	blr	x1
.LVL80:
	.loc 1 452 0
	mov	w0, w22
	mov	x1, x21
	bl	VCTRL_SetStreamInterface
.LVL81:
.L100:
	.loc 1 499 0
	cmp	w0, wzr
	.loc 1 500 0
	ldr	x1, [x23,32]
	.loc 1 499 0
	csetm	w22, ne
.LVL82:
	.loc 1 500 0
	mov	w0, 0
	blr	x1
.LVL83:
.LBE23:
.LBE29:
	.loc 1 568 0
	cbz	w22, .L106
	b	.L67
.LVL84:
.L58:
.LBB30:
.LBB24:
	.loc 1 458 0
	adrp	x19, .LANCHOR1
.LVL85:
	mov	w0, 0
	add	x19, x19, :lo12:.LANCHOR1
	ldr	x1, [x19,24]
	blr	x1
.LVL86:
	.loc 1 460 0
	str	w22, [x21]
	.loc 1 461 0
	adrp	x0, VCTRL_GetChanImage
	.loc 1 462 0
	adrp	x1, VCTRL_ReleaseChanImage
	.loc 1 461 0
	add	x0, x0, :lo12:VCTRL_GetChanImage
	.loc 1 462 0
	add	x1, x1, :lo12:VCTRL_ReleaseChanImage
	.loc 1 461 0
	str	x0, [x21,8]
	.loc 1 464 0
	mov	w0, 0
	.loc 1 462 0
	str	x1, [x21,16]
	.loc 1 464 0
	ldr	x1, [x19,32]
	blr	x1
.LVL87:
	mov	w0, 0
	b	.L68
.LVL88:
.L59:
	.loc 1 468 0
	mov	x0, x21
	bl	VDEC_GetHalMemSize
.LVL89:
	cbnz	w0, .L67
	mov	w0, 0
	b	.L68
.LVL90:
.L60:
	.loc 1 480 0
	adrp	x23, .LANCHOR1
	mov	w0, 0
	add	x1, x23, :lo12:.LANCHOR1
	.loc 1 491 0
	mov	w22, -1
.LVL91:
	.loc 1 480 0
	ldr	x1, [x1,24]
	blr	x1
.LVL92:
	.loc 1 481 0
	ldr	w0, [x21]
	add	x1, x29, 88
	add	x2, x29, 104
	bl	VCTRL_GetChanMemSize
.LVL93:
	cbnz	w0, .L61
.LBB20:
	.loc 1 484 0
	ldr	w0, [x29,104]
	.loc 1 487 0
	mov	w22, 0
	.loc 1 484 0
	ldr	w2, [x29,88]
	.loc 1 485 0
	ldr	w1, [x29,92]
	.loc 1 484 0
	add	w2, w2, w0
	.loc 1 485 0
	ldr	w0, [x29,108]
	.loc 1 484 0
	str	w2, [x21]
	.loc 1 485 0
	add	w1, w1, w0
	.loc 1 486 0
	ldr	w2, [x29,96]
	ldr	w0, [x29,112]
	.loc 1 485 0
	str	w1, [x21,4]
	.loc 1 486 0
	add	w0, w2, w0
	str	w0, [x21,8]
.L61:
.LBE20:
	.loc 1 493 0
	add	x23, x23, :lo12:.LANCHOR1
	mov	w0, 0
	ldr	x1, [x23,32]
	blr	x1
.LVL94:
.LBE24:
.LBE30:
	.loc 1 568 0
	cbz	w22, .L106
	b	.L67
.LVL95:
.L46:
.LBB31:
.LBB25:
	.loc 1 388 0
	mov	w0, w22
	bl	VCTRL_DestroyChan
.LVL96:
	.loc 1 389 0
	cbnz	w0, .L67
	mov	w0, 0
	b	.L68
.LVL97:
.L48:
	.loc 1 393 0
	mov	w0, w22
	bl	VCTRL_DestroyChanWithOption
.LVL98:
	.loc 1 394 0
	cbnz	w0, .L67
	mov	w0, 0
	b	.L68
.LVL99:
.L49:
	.loc 1 398 0
	adrp	x23, .LANCHOR1
	mov	w0, 0
	add	x23, x23, :lo12:.LANCHOR1
	ldr	x1, [x23,24]
	blr	x1
.LVL100:
	.loc 1 399 0
	mov	w0, w22
	mov	x1, x21
	bl	VCTRL_GetChanCfg
.LVL101:
	b	.L100
.LVL102:
.L50:
	.loc 1 405 0
	adrp	x23, .LANCHOR1
	mov	w0, 0
	add	x23, x23, :lo12:.LANCHOR1
	ldr	x1, [x23,24]
	blr	x1
.LVL103:
	.loc 1 406 0
	mov	w0, w22
	mov	x1, x21
	bl	VCTRL_ConfigChan
.LVL104:
	b	.L100
.LVL105:
.L38:
	.loc 1 338 0
	mov	x1, x21
	ldr	w0, [x1],4
	bl	VCTRL_CreateChan
.LVL106:
	.loc 1 339 0
	tbnz	w0, #31, .L67
	.loc 1 358 0
	str	w0, [x21]
.L112:
	mov	w0, 0
	b	.L68
.LVL107:
.L41:
	.loc 1 354 0
	ldr	x1, [x21,8]
	mov	w2, 2
	ldr	w0, [x21]
	mov	w3, 0
.LVL108:
	bl	VCTRL_CreateChanWithOption
.LVL109:
	.loc 1 355 0
	tbnz	w0, #31, .L67
	.loc 1 358 0
	str	w0, [x21]
	b	.L112
.LVL110:
.L66:
	.loc 1 537 0
	adrp	x19, .LANCHOR1
.LVL111:
	mov	w0, 0
	add	x19, x19, :lo12:.LANCHOR1
	ldr	x1, [x19,24]
	blr	x1
.LVL112:
	.loc 1 538 0
	mov	w0, w22
	mov	w1, 2
	bl	VCTRL_SetChanFsPartitionState
.LVL113:
	.loc 1 539 0
	adrp	x1, .LC9
	mov	w0, 31
	add	x1, x1, :lo12:.LC9
	bl	dprint_linux_kernel
.LVL114:
	.loc 1 540 0
	ldr	x1, [x19,32]
	mov	w0, 0
	blr	x1
.LVL115:
	mov	w0, 0
	b	.L68
.LVL116:
.L43:
	.loc 1 370 0
	adrp	x23, .LANCHOR1
	.loc 1 369 0
	ldr	x1, [x21,8]
	.loc 1 370 0
	add	x2, x23, :lo12:.LANCHOR1
	mov	w0, 0
	.loc 1 369 0
	str	x1, [x29,72]
	.loc 1 382 0
	mov	w22, -1
.LVL117:
	.loc 1 370 0
	ldr	x2, [x2,24]
	blr	x2
.LVL118:
	.loc 1 371 0
	ldr	w0, [x21]
	add	x2, x29, 120
	ldr	x1, [x29,72]
	mov	w3, 1
	bl	VCTRL_GetChanMemSizeWithOption
.LVL119:
	.loc 1 372 0
	cbnz	w0, .L61
	.loc 1 375 0
	ldr	w0, [x29,120]
	.loc 1 378 0
	mov	w22, 0
	.loc 1 375 0
	str	w0, [x21]
	.loc 1 376 0
	ldr	w0, [x29,124]
	str	w0, [x21,4]
	.loc 1 377 0
	ldr	w0, [x29,128]
	str	w0, [x21,8]
	b	.L61
.LVL120:
.L56:
	.loc 1 444 0
	adrp	x21, .LANCHOR1
.LVL121:
	mov	w0, 0
	add	x21, x21, :lo12:.LANCHOR1
	ldr	x1, [x21,24]
	blr	x1
.LVL122:
	.loc 1 445 0
	mov	w0, w22
	bl	VCTRL_ReleaseStream
.LVL123:
	b	.L101
.LVL124:
.L62:
	.loc 1 497 0
	adrp	x23, .LANCHOR1
	mov	w0, 0
	add	x23, x23, :lo12:.LANCHOR1
	ldr	x1, [x23,24]
	blr	x1
.LVL125:
	.loc 1 498 0
	mov	w0, w22
	mov	x1, x21
	bl	VCTRL_ResetChanWithOption
.LVL126:
	b	.L100
.LVL127:
.L63:
	.loc 1 505 0
	mov	w1, 1
	mov	w0, w22
	bl	VCTRT_SetChanCtrlState
.LVL128:
	.loc 1 508 0
	adrp	x1, .LC6
	add	x1, x1, :lo12:.LC6
	.loc 1 506 0
	cbnz	w0, .L102
	.loc 1 514 0
	mov	w0, w22
	mov	x1, x21
	bl	VCTRL_SetFsParamToChan
.LVL129:
	.loc 1 515 0
	cbnz	w0, .L113
	.loc 1 524 0
	mov	w0, w22
	mov	w1, 0
	bl	VCTRT_SetChanCtrlState
.LVL130:
	.loc 1 525 0
	cbz	w0, .L37
	.loc 1 527 0
	adrp	x1, .LC8
	add	x1, x1, :lo12:.LC8
.L102:
	adrp	x2, .LANCHOR0
	mov	w0, 1
	add	x2, x2, :lo12:.LANCHOR0
	add	x2, x2, 40
	bl	dprint_linux_kernel
.LVL131:
	b	.L67
.LVL132:
.L36:
	.loc 1 331 0
	adrp	x19, .LANCHOR1
.LVL133:
	mov	w0, 0
	add	x19, x19, :lo12:.LANCHOR1
	ldr	x1, [x19,24]
	blr	x1
.LVL134:
	.loc 1 332 0
	mov	x0, x21
	bl	VCTRL_GetVdecCapability
.LVL135:
	.loc 1 333 0
	ldr	x1, [x19,32]
	mov	w0, 0
	blr	x1
.LVL136:
	mov	w0, 0
	b	.L68
.LVL137:
.L113:
	.loc 1 517 0
	adrp	x2, .LANCHOR0
	adrp	x1, .LC7
	add	x2, x2, :lo12:.LANCHOR0
	add	x1, x1, :lo12:.LC7
	add	x2, x2, 40
	mov	w0, 1
	bl	dprint_linux_kernel
.LVL138:
	.loc 1 518 0
	mov	w0, w22
	mov	w1, 0
	bl	VCTRT_SetChanCtrlState
.LVL139:
	b	.L67
.LVL140:
.L110:
.LBE25:
.LBE31:
	.loc 1 575 0
	bl	__stack_chk_fail
.LVL141:
	.cfi_endproc
.LFE2652:
	.size	VDEC_Control, .-VDEC_Control
	.align	2
	.global	VDEC_Suspend
	.type	VDEC_Suspend, %function
VDEC_Suspend:
.LFB2653:
	.loc 1 578 0
	.cfi_startproc
.LVL142:
	stp	x29, x30, [sp, -16]!
	.cfi_def_cfa_offset 16
	.cfi_offset 29, -16
	.cfi_offset 30, -8
	add	x29, sp, 0
	.cfi_def_cfa_register 29
	.loc 1 579 0
	bl	VCTRL_Suspend
.LVL143:
	.loc 1 580 0
	adrp	x1, .LC13
	mov	w0, 0
	add	x1, x1, :lo12:.LC13
	bl	dprint_linux_kernel
.LVL144:
	.loc 1 582 0
	mov	w0, 0
	ldp	x29, x30, [sp], 16
	.cfi_restore 30
	.cfi_restore 29
	.cfi_def_cfa 31, 0
	ret
	.cfi_endproc
.LFE2653:
	.size	VDEC_Suspend, .-VDEC_Suspend
	.align	2
	.global	VDEC_Resume
	.type	VDEC_Resume, %function
VDEC_Resume:
.LFB2654:
	.loc 1 585 0
	.cfi_startproc
.LVL145:
	stp	x29, x30, [sp, -16]!
	.cfi_def_cfa_offset 16
	.cfi_offset 29, -16
	.cfi_offset 30, -8
	add	x29, sp, 0
	.cfi_def_cfa_register 29
	.loc 1 586 0
	bl	VCTRL_Resume
.LVL146:
	.loc 1 587 0
	adrp	x1, .LC14
	mov	w0, 0
	add	x1, x1, :lo12:.LC14
	bl	dprint_linux_kernel
.LVL147:
	.loc 1 589 0
	mov	w0, 0
	ldp	x29, x30, [sp], 16
	.cfi_restore 30
	.cfi_restore 29
	.cfi_def_cfa 31, 0
	ret
	.cfi_endproc
.LFE2654:
	.size	VDEC_Resume, .-VDEC_Resume
	.global	g_vfmw_osal_fun_ptr
	.global	g_vdm_hal_fun_ptr
	.global	g_VfmwInitCount
	.global	g_VfmwEnableFlag
	.section	.rodata
	.align	3
.LANCHOR0 = . + 0
	.type	__func__.42599, %object
	.size	__func__.42599, 19
__func__.42599:
	.string	"VDEC_GetHalMemSize"
	.zero	5
	.type	__func__.42613, %object
	.size	__func__.42613, 10
__func__.42613:
	.string	"VDEC_Init"
	.zero	6
	.type	__func__.42680, %object
	.size	__func__.42680, 20
__func__.42680:
	.string	"VDEC_ProcessCommand"
	.section	.rodata.str1.8,"aMS",%progbits,1
	.align	3
.LC0:
	.string	"%s GetHalMemSize failed!\n"
	.zero	6
.LC1:
	.string	"VDEC_InitWithOperation has NULL parameter, error!\n"
	.zero	5
.LC2:
	.string	"%s: Dts data invalid!\n"
	.zero	1
.LC3:
	.string	"VFMW has been destroyed, so any operation is unuseful!\n"
.LC4:
	.string	"vfmw.c,L%d: pArgs is NULL!\n"
	.zero	4
.LC5:
	.string	"vfmw.c,L%d: unsupport cmd id %d\n"
	.zero	7
.LC6:
	.string	"%s set chan ctrl state CHAN_FRAME_STORE_ALLOC failed!\n"
	.zero	1
.LC7:
	.string	"%s set fs param to chan failed!\n"
	.zero	7
.LC8:
	.string	"%s set chan ctrl state CHAN_NORMAL failed!\n"
	.zero	4
.LC9:
	.string	"DFS, set decoding thread state to success!\n "
	.zero	3
.LC10:
	.string	"Stop chan %d failed!\n"
	.zero	2
.LC11:
	.string	"VDEC_ProcessCommand failed! eCmdID = %d.\n"
	.zero	6
.LC12:
	.string	"VDEC_CheckParam failed! eCmdID = %d.\n"
	.zero	2
.LC13:
	.string	"VDEC_Suspend OK !\n"
	.zero	5
.LC14:
	.string	"VDEC_Resume OK !\n"
	.bss
	.align	3
.LANCHOR1 = . + 0
	.type	g_vfmw_osal_fun_ptr, %object
	.size	g_vfmw_osal_fun_ptr, 224
g_vfmw_osal_fun_ptr:
	.zero	224
	.type	g_VfmwEnableFlag, %object
	.size	g_VfmwEnableFlag, 4
g_VfmwEnableFlag:
	.zero	4
	.type	g_VfmwInitCount, %object
	.size	g_VfmwInitCount, 4
g_VfmwInitCount:
	.zero	4
	.type	g_vdm_hal_fun_ptr, %object
	.size	g_vdm_hal_fun_ptr, 192
g_vdm_hal_fun_ptr:
	.zero	192
	.text
.Letext0:
	.file 2 "/mnt/disk/jenkins/ci/workspace/chipset_release_960_xloader/opensource/component_code/vendor/huawei/extra/build/build_script/kirin_kernel_release/kernel/drivers/vcodec/hi_vcodec/vdec/include/hi_type.h"
	.file 3 "/mnt/disk/jenkins/ci/workspace/chipset_release_960_xloader/opensource/component_code/vendor/huawei/extra/build/build_script/kirin_kernel_release/kernel/drivers/vcodec/hi_vcodec/vdec/vfmw/vfmw_v4.0/vfmw.h"
	.file 4 "/mnt/disk/jenkins/ci/workspace/chipset_release_960_xloader/opensource/component_code/vendor/huawei/extra/build/build_script/kirin_kernel_release/kernel/include/uapi/asm-generic/int-ll64.h"
	.file 5 "/mnt/disk/jenkins/ci/workspace/chipset_release_960_xloader/opensource/component_code/vendor/huawei/extra/build/build_script/kirin_kernel_release/kernel/include/asm-generic/int-ll64.h"
	.file 6 "/mnt/disk/jenkins/ci/workspace/chipset_release_960_xloader/opensource/component_code/vendor/huawei/extra/build/build_script/kirin_kernel_release/kernel/include/uapi/asm-generic/posix_types.h"
	.file 7 "/mnt/disk/jenkins/ci/workspace/chipset_release_960_xloader/opensource/component_code/vendor/huawei/extra/build/build_script/kirin_kernel_release/kernel/include/linux/export.h"
	.file 8 "/mnt/disk/jenkins/ci/workspace/chipset_release_960_xloader/opensource/component_code/vendor/huawei/extra/build/build_script/kirin_kernel_release/kernel/include/linux/types.h"
	.file 9 "/mnt/disk/jenkins/ci/workspace/chipset_release_960_xloader/opensource/component_code/vendor/huawei/extra/build/build_script/kirin_kernel_release/kernel/include/asm-generic/bug.h"
	.file 10 "/mnt/disk/jenkins/ci/workspace/chipset_release_960_xloader/opensource/component_code/vendor/huawei/extra/build/build_script/kirin_kernel_release/kernel/include/linux/restart_block.h"
	.file 11 "/mnt/disk/jenkins/ci/workspace/chipset_release_960_xloader/opensource/component_code/vendor/huawei/extra/build/build_script/kirin_kernel_release/kernel/include/uapi/linux/time.h"
	.file 12 "/mnt/disk/jenkins/ci/workspace/chipset_release_960_xloader/opensource/component_code/vendor/huawei/extra/build/build_script/kirin_kernel_release/kernel/arch/arm64/include/asm/compat.h"
	.file 13 "/mnt/disk/jenkins/ci/workspace/chipset_release_960_xloader/opensource/component_code/vendor/huawei/extra/build/build_script/kirin_kernel_release/kernel/include/uapi/asm-generic/poll.h"
	.file 14 "/mnt/disk/jenkins/ci/workspace/chipset_release_960_xloader/opensource/component_code/vendor/huawei/extra/build/build_script/kirin_kernel_release/kernel/arch/arm64/include/asm/thread_info.h"
	.file 15 "/mnt/disk/jenkins/ci/workspace/chipset_release_960_xloader/opensource/component_code/vendor/huawei/extra/build/build_script/kirin_kernel_release/kernel/arch/arm64/include/uapi/asm/ptrace.h"
	.file 16 "/mnt/disk/jenkins/ci/workspace/chipset_release_960_xloader/opensource/component_code/vendor/huawei/extra/build/build_script/kirin_kernel_release/kernel/arch/arm64/include/asm/ptrace.h"
	.file 17 "/mnt/disk/jenkins/ci/workspace/chipset_release_960_xloader/opensource/component_code/vendor/huawei/extra/build/build_script/kirin_kernel_release/kernel/arch/arm64/include/asm/spinlock_types.h"
	.file 18 "/mnt/disk/jenkins/ci/workspace/chipset_release_960_xloader/opensource/component_code/vendor/huawei/extra/build/build_script/kirin_kernel_release/kernel/include/linux/spinlock_types.h"
	.file 19 "/mnt/disk/jenkins/ci/workspace/chipset_release_960_xloader/opensource/component_code/vendor/huawei/extra/build/build_script/kirin_kernel_release/kernel/include/linux/rwlock_types.h"
	.file 20 "/mnt/disk/jenkins/ci/workspace/chipset_release_960_xloader/opensource/component_code/vendor/huawei/extra/build/build_script/kirin_kernel_release/kernel/arch/arm64/include/asm/fpsimd.h"
	.file 21 "/mnt/disk/jenkins/ci/workspace/chipset_release_960_xloader/opensource/component_code/vendor/huawei/extra/build/build_script/kirin_kernel_release/kernel/include/linux/jump_label.h"
	.file 22 "/mnt/disk/jenkins/ci/workspace/chipset_release_960_xloader/opensource/component_code/vendor/huawei/extra/build/build_script/kirin_kernel_release/kernel/include/asm-generic/atomic-long.h"
	.file 23 "/mnt/disk/jenkins/ci/workspace/chipset_release_960_xloader/opensource/component_code/vendor/huawei/extra/build/build_script/kirin_kernel_release/kernel/arch/arm64/include/asm/hw_breakpoint.h"
	.file 24 "/mnt/disk/jenkins/ci/workspace/chipset_release_960_xloader/opensource/component_code/vendor/huawei/extra/build/build_script/kirin_kernel_release/kernel/arch/arm64/include/asm/processor.h"
	.file 25 "/mnt/disk/jenkins/ci/workspace/chipset_release_960_xloader/opensource/component_code/vendor/huawei/extra/build/build_script/kirin_kernel_release/kernel/include/linux/perf_event.h"
	.file 26 "/mnt/disk/jenkins/ci/workspace/chipset_release_960_xloader/opensource/component_code/vendor/huawei/extra/build/build_script/kirin_kernel_release/kernel/include/linux/wait.h"
	.file 27 "/mnt/disk/jenkins/ci/workspace/chipset_release_960_xloader/opensource/component_code/vendor/huawei/extra/build/build_script/kirin_kernel_release/kernel/include/linux/seqlock.h"
	.file 28 "/mnt/disk/jenkins/ci/workspace/chipset_release_960_xloader/opensource/component_code/vendor/huawei/extra/build/build_script/kirin_kernel_release/kernel/include/linux/nodemask.h"
	.file 29 "/mnt/disk/jenkins/ci/workspace/chipset_release_960_xloader/opensource/component_code/vendor/huawei/extra/build/build_script/kirin_kernel_release/kernel/include/linux/cpumask.h"
	.file 30 "/mnt/disk/jenkins/ci/workspace/chipset_release_960_xloader/opensource/component_code/vendor/huawei/extra/build/build_script/kirin_kernel_release/kernel/include/linux/completion.h"
	.file 31 "/mnt/disk/jenkins/ci/workspace/chipset_release_960_xloader/opensource/component_code/vendor/huawei/extra/build/build_script/kirin_kernel_release/kernel/include/linux/time64.h"
	.file 32 "/mnt/disk/jenkins/ci/workspace/chipset_release_960_xloader/opensource/component_code/vendor/huawei/extra/build/build_script/kirin_kernel_release/kernel/include/linux/ktime.h"
	.file 33 "/mnt/disk/jenkins/ci/workspace/chipset_release_960_xloader/opensource/component_code/vendor/huawei/extra/build/build_script/kirin_kernel_release/kernel/include/linux/rbtree.h"
	.file 34 "/mnt/disk/jenkins/ci/workspace/chipset_release_960_xloader/opensource/component_code/vendor/huawei/extra/build/build_script/kirin_kernel_release/kernel/include/linux/osq_lock.h"
	.file 35 "/mnt/disk/jenkins/ci/workspace/chipset_release_960_xloader/opensource/component_code/vendor/huawei/extra/build/build_script/kirin_kernel_release/kernel/include/linux/rwsem.h"
	.file 36 "/mnt/disk/jenkins/ci/workspace/chipset_release_960_xloader/opensource/component_code/vendor/huawei/extra/build/build_script/kirin_kernel_release/kernel/include/linux/sched.h"
	.file 37 "/mnt/disk/jenkins/ci/workspace/chipset_release_960_xloader/opensource/component_code/vendor/huawei/extra/build/build_script/kirin_kernel_release/kernel/include/linux/mm_types.h"
	.file 38 "/mnt/disk/jenkins/ci/workspace/chipset_release_960_xloader/opensource/component_code/vendor/huawei/extra/build/build_script/kirin_kernel_release/kernel/include/linux/lockdep.h"
	.file 39 "/mnt/disk/jenkins/ci/workspace/chipset_release_960_xloader/opensource/component_code/vendor/huawei/extra/build/build_script/kirin_kernel_release/kernel/include/linux/uprobes.h"
	.file 40 "/mnt/disk/jenkins/ci/workspace/chipset_release_960_xloader/opensource/component_code/vendor/huawei/extra/build/build_script/kirin_kernel_release/kernel/include/linux/timer.h"
	.file 41 "/mnt/disk/jenkins/ci/workspace/chipset_release_960_xloader/opensource/component_code/vendor/huawei/extra/build/build_script/kirin_kernel_release/kernel/include/linux/uidgid.h"
	.file 42 "/mnt/disk/jenkins/ci/workspace/chipset_release_960_xloader/opensource/component_code/vendor/huawei/extra/build/build_script/kirin_kernel_release/kernel/include/linux/sysctl.h"
	.file 43 "/mnt/disk/jenkins/ci/workspace/chipset_release_960_xloader/opensource/component_code/vendor/huawei/extra/build/build_script/kirin_kernel_release/kernel/include/linux/workqueue.h"
	.file 44 "/mnt/disk/jenkins/ci/workspace/chipset_release_960_xloader/opensource/component_code/vendor/huawei/extra/build/build_script/kirin_kernel_release/kernel/arch/arm64/include/asm/pgtable-types.h"
	.file 45 "/mnt/disk/jenkins/ci/workspace/chipset_release_960_xloader/opensource/component_code/vendor/huawei/extra/build/build_script/kirin_kernel_release/kernel/arch/arm64/include/asm/page.h"
	.file 46 "/mnt/disk/jenkins/ci/workspace/chipset_release_960_xloader/opensource/component_code/vendor/huawei/extra/build/build_script/kirin_kernel_release/kernel/include/linux/llist.h"
	.file 47 "/mnt/disk/jenkins/ci/workspace/chipset_release_960_xloader/opensource/component_code/vendor/huawei/extra/build/build_script/kirin_kernel_release/kernel/arch/arm64/include/asm/smp.h"
	.file 48 "/mnt/disk/jenkins/ci/workspace/chipset_release_960_xloader/opensource/component_code/vendor/huawei/extra/build/build_script/kirin_kernel_release/kernel/arch/arm64/include/asm/mmu.h"
	.file 49 "/mnt/disk/jenkins/ci/workspace/chipset_release_960_xloader/opensource/component_code/vendor/huawei/extra/build/build_script/kirin_kernel_release/kernel/include/linux/fs.h"
	.file 50 "/mnt/disk/jenkins/ci/workspace/chipset_release_960_xloader/opensource/component_code/vendor/huawei/extra/build/build_script/kirin_kernel_release/kernel/include/linux/mm.h"
	.file 51 "/mnt/disk/jenkins/ci/workspace/chipset_release_960_xloader/opensource/component_code/vendor/huawei/extra/build/build_script/kirin_kernel_release/kernel/include/linux/user_namespace.h"
	.file 52 "/mnt/disk/jenkins/ci/workspace/chipset_release_960_xloader/opensource/component_code/vendor/huawei/extra/build/build_script/kirin_kernel_release/kernel/include/linux/mmzone.h"
	.file 53 "/mnt/disk/jenkins/ci/workspace/chipset_release_960_xloader/opensource/component_code/vendor/huawei/extra/build/build_script/kirin_kernel_release/kernel/include/linux/mutex.h"
	.file 54 "/mnt/disk/jenkins/ci/workspace/chipset_release_960_xloader/opensource/component_code/vendor/huawei/extra/build/build_script/kirin_kernel_release/kernel/include/linux/percpu-refcount.h"
	.file 55 "/mnt/disk/jenkins/ci/workspace/chipset_release_960_xloader/opensource/component_code/vendor/huawei/extra/build/build_script/kirin_kernel_release/kernel/include/linux/shrinker.h"
	.file 56 "/mnt/disk/jenkins/ci/workspace/chipset_release_960_xloader/opensource/component_code/vendor/huawei/extra/build/build_script/kirin_kernel_release/kernel/include/uapi/linux/resource.h"
	.file 57 "/mnt/disk/jenkins/ci/workspace/chipset_release_960_xloader/opensource/component_code/vendor/huawei/extra/build/build_script/kirin_kernel_release/kernel/include/linux/tracepoint-defs.h"
	.file 58 "/mnt/disk/jenkins/ci/workspace/chipset_release_960_xloader/opensource/component_code/vendor/huawei/extra/build/build_script/kirin_kernel_release/kernel/include/linux/vmstat.h"
	.file 59 "/mnt/disk/jenkins/ci/workspace/chipset_release_960_xloader/opensource/component_code/vendor/huawei/extra/build/build_script/kirin_kernel_release/kernel/include/linux/capability.h"
	.file 60 "/mnt/disk/jenkins/ci/workspace/chipset_release_960_xloader/opensource/component_code/vendor/huawei/extra/build/build_script/kirin_kernel_release/kernel/include/linux/plist.h"
	.file 61 "/mnt/disk/jenkins/ci/workspace/chipset_release_960_xloader/opensource/component_code/vendor/huawei/extra/build/build_script/kirin_kernel_release/kernel/include/asm-generic/cputime_jiffies.h"
	.file 62 "/mnt/disk/jenkins/ci/workspace/chipset_release_960_xloader/opensource/component_code/vendor/huawei/extra/build/build_script/kirin_kernel_release/kernel/include/uapi/asm-generic/signal.h"
	.file 63 "/mnt/disk/jenkins/ci/workspace/chipset_release_960_xloader/opensource/component_code/vendor/huawei/extra/build/build_script/kirin_kernel_release/kernel/include/uapi/asm-generic/signal-defs.h"
	.file 64 "/mnt/disk/jenkins/ci/workspace/chipset_release_960_xloader/opensource/component_code/vendor/huawei/extra/build/build_script/kirin_kernel_release/kernel/include/uapi/asm-generic/siginfo.h"
	.file 65 "/mnt/disk/jenkins/ci/workspace/chipset_release_960_xloader/opensource/component_code/vendor/huawei/extra/build/build_script/kirin_kernel_release/kernel/include/linux/signal.h"
	.file 66 "/mnt/disk/jenkins/ci/workspace/chipset_release_960_xloader/opensource/component_code/vendor/huawei/extra/build/build_script/kirin_kernel_release/kernel/include/linux/pid.h"
	.file 67 "/mnt/disk/jenkins/ci/workspace/chipset_release_960_xloader/opensource/component_code/vendor/huawei/extra/build/build_script/kirin_kernel_release/kernel/include/linux/pid_namespace.h"
	.file 68 "/mnt/disk/jenkins/ci/workspace/chipset_release_960_xloader/opensource/component_code/vendor/huawei/extra/build/build_script/kirin_kernel_release/kernel/include/linux/seccomp.h"
	.file 69 "/mnt/disk/jenkins/ci/workspace/chipset_release_960_xloader/opensource/component_code/vendor/huawei/extra/build/build_script/kirin_kernel_release/kernel/include/linux/timerqueue.h"
	.file 70 "/mnt/disk/jenkins/ci/workspace/chipset_release_960_xloader/opensource/component_code/vendor/huawei/extra/build/build_script/kirin_kernel_release/kernel/include/linux/hrtimer.h"
	.file 71 "/mnt/disk/jenkins/ci/workspace/chipset_release_960_xloader/opensource/component_code/vendor/huawei/extra/build/build_script/kirin_kernel_release/kernel/include/linux/task_io_accounting.h"
	.file 72 "/mnt/disk/jenkins/ci/workspace/chipset_release_960_xloader/opensource/component_code/vendor/huawei/extra/build/build_script/kirin_kernel_release/kernel/include/linux/assoc_array.h"
	.file 73 "/mnt/disk/jenkins/ci/workspace/chipset_release_960_xloader/opensource/component_code/vendor/huawei/extra/build/build_script/kirin_kernel_release/kernel/include/linux/key.h"
	.file 74 "/mnt/disk/jenkins/ci/workspace/chipset_release_960_xloader/opensource/component_code/vendor/huawei/extra/build/build_script/kirin_kernel_release/kernel/include/linux/cred.h"
	.file 75 "/mnt/disk/jenkins/ci/workspace/chipset_release_960_xloader/opensource/component_code/vendor/huawei/extra/build/build_script/kirin_kernel_release/kernel/include/linux/idr.h"
	.file 76 "/mnt/disk/jenkins/ci/workspace/chipset_release_960_xloader/opensource/component_code/vendor/huawei/extra/build/build_script/kirin_kernel_release/kernel/include/linux/rcu_sync.h"
	.file 77 "/mnt/disk/jenkins/ci/workspace/chipset_release_960_xloader/opensource/component_code/vendor/huawei/extra/build/build_script/kirin_kernel_release/kernel/include/linux/percpu-rwsem.h"
	.file 78 "/mnt/disk/jenkins/ci/workspace/chipset_release_960_xloader/opensource/component_code/vendor/huawei/extra/build/build_script/kirin_kernel_release/kernel/include/linux/bpf-cgroup.h"
	.file 79 "/mnt/disk/jenkins/ci/workspace/chipset_release_960_xloader/opensource/component_code/vendor/huawei/extra/build/build_script/kirin_kernel_release/kernel/include/linux/cgroup-defs.h"
	.file 80 "/mnt/disk/jenkins/ci/workspace/chipset_release_960_xloader/opensource/component_code/vendor/huawei/extra/build/build_script/kirin_kernel_release/kernel/include/linux/kernfs.h"
	.file 81 "/mnt/disk/jenkins/ci/workspace/chipset_release_960_xloader/opensource/component_code/vendor/huawei/extra/build/build_script/kirin_kernel_release/kernel/include/linux/seq_file.h"
	.file 82 "/mnt/disk/jenkins/ci/workspace/chipset_release_960_xloader/opensource/component_code/vendor/huawei/extra/build/build_script/kirin_kernel_release/kernel/include/uapi/linux/taskstats.h"
	.file 83 "/mnt/disk/jenkins/ci/workspace/chipset_release_960_xloader/opensource/component_code/vendor/huawei/extra/build/build_script/kirin_kernel_release/kernel/include/linux/nsproxy.h"
	.file 84 "/mnt/disk/jenkins/ci/workspace/chipset_release_960_xloader/opensource/component_code/vendor/huawei/extra/build/build_script/kirin_kernel_release/kernel/include/linux/compat.h"
	.file 85 "/mnt/disk/jenkins/ci/workspace/chipset_release_960_xloader/opensource/component_code/vendor/huawei/extra/build/build_script/kirin_kernel_release/kernel/include/linux/stat.h"
	.file 86 "/mnt/disk/jenkins/ci/workspace/chipset_release_960_xloader/opensource/component_code/vendor/huawei/extra/build/build_script/kirin_kernel_release/kernel/include/uapi/linux/elf.h"
	.file 87 "/mnt/disk/jenkins/ci/workspace/chipset_release_960_xloader/opensource/component_code/vendor/huawei/extra/build/build_script/kirin_kernel_release/kernel/include/linux/kobject_ns.h"
	.file 88 "/mnt/disk/jenkins/ci/workspace/chipset_release_960_xloader/opensource/component_code/vendor/huawei/extra/build/build_script/kirin_kernel_release/kernel/include/linux/sysfs.h"
	.file 89 "/mnt/disk/jenkins/ci/workspace/chipset_release_960_xloader/opensource/component_code/vendor/huawei/extra/build/build_script/kirin_kernel_release/kernel/include/linux/kobject.h"
	.file 90 "/mnt/disk/jenkins/ci/workspace/chipset_release_960_xloader/opensource/component_code/vendor/huawei/extra/build/build_script/kirin_kernel_release/kernel/include/linux/kref.h"
	.file 91 "/mnt/disk/jenkins/ci/workspace/chipset_release_960_xloader/opensource/component_code/vendor/huawei/extra/build/build_script/kirin_kernel_release/kernel/include/linux/moduleparam.h"
	.file 92 "/mnt/disk/jenkins/ci/workspace/chipset_release_960_xloader/opensource/component_code/vendor/huawei/extra/build/build_script/kirin_kernel_release/kernel/include/linux/module.h"
	.file 93 "/mnt/disk/jenkins/ci/workspace/chipset_release_960_xloader/opensource/component_code/vendor/huawei/extra/build/build_script/kirin_kernel_release/kernel/include/linux/rbtree_latch.h"
	.file 94 "/mnt/disk/jenkins/ci/workspace/chipset_release_960_xloader/opensource/component_code/vendor/huawei/extra/build/build_script/kirin_kernel_release/kernel/arch/arm64/include/asm/module.h"
	.file 95 "/mnt/disk/jenkins/ci/workspace/chipset_release_960_xloader/opensource/component_code/vendor/huawei/extra/build/build_script/kirin_kernel_release/kernel/arch/arm64/include/asm/uaccess.h"
	.file 96 "/mnt/disk/jenkins/ci/workspace/chipset_release_960_xloader/opensource/component_code/vendor/huawei/extra/build/build_script/kirin_kernel_release/kernel/include/linux/trace_events.h"
	.file 97 "/mnt/disk/jenkins/ci/workspace/chipset_release_960_xloader/opensource/component_code/vendor/huawei/extra/build/build_script/kirin_kernel_release/kernel/include/linux/tracepoint.h"
	.file 98 "/mnt/disk/jenkins/ci/workspace/chipset_release_960_xloader/opensource/component_code/vendor/huawei/extra/build/build_script/kirin_kernel_release/kernel/include/linux/percpu_counter.h"
	.file 99 "/mnt/disk/jenkins/ci/workspace/chipset_release_960_xloader/opensource/component_code/vendor/huawei/extra/build/build_script/kirin_kernel_release/kernel/include/linux/quota.h"
	.file 100 "/mnt/disk/jenkins/ci/workspace/chipset_release_960_xloader/opensource/component_code/vendor/huawei/extra/build/build_script/kirin_kernel_release/kernel/include/linux/projid.h"
	.file 101 "/mnt/disk/jenkins/ci/workspace/chipset_release_960_xloader/opensource/component_code/vendor/huawei/extra/build/build_script/kirin_kernel_release/kernel/include/linux/path.h"
	.file 102 "/mnt/disk/jenkins/ci/workspace/chipset_release_960_xloader/opensource/component_code/vendor/huawei/extra/build/build_script/kirin_kernel_release/kernel/include/linux/list_bl.h"
	.file 103 "/mnt/disk/jenkins/ci/workspace/chipset_release_960_xloader/opensource/component_code/vendor/huawei/extra/build/build_script/kirin_kernel_release/kernel/include/linux/lockref.h"
	.file 104 "/mnt/disk/jenkins/ci/workspace/chipset_release_960_xloader/opensource/component_code/vendor/huawei/extra/build/build_script/kirin_kernel_release/kernel/include/linux/dcache.h"
	.file 105 "/mnt/disk/jenkins/ci/workspace/chipset_release_960_xloader/opensource/component_code/vendor/huawei/extra/build/build_script/kirin_kernel_release/kernel/include/linux/list_lru.h"
	.file 106 "/mnt/disk/jenkins/ci/workspace/chipset_release_960_xloader/opensource/component_code/vendor/huawei/extra/build/build_script/kirin_kernel_release/kernel/include/linux/radix-tree.h"
	.file 107 "/mnt/disk/jenkins/ci/workspace/chipset_release_960_xloader/opensource/component_code/vendor/huawei/extra/build/build_script/kirin_kernel_release/kernel/include/uapi/linux/fiemap.h"
	.file 108 "/mnt/disk/jenkins/ci/workspace/chipset_release_960_xloader/opensource/component_code/vendor/huawei/extra/build/build_script/kirin_kernel_release/kernel/include/linux/migrate_mode.h"
	.file 109 "/mnt/disk/jenkins/ci/workspace/chipset_release_960_xloader/opensource/component_code/vendor/huawei/extra/build/build_script/kirin_kernel_release/kernel/include/linux/bvec.h"
	.file 110 "/mnt/disk/jenkins/ci/workspace/chipset_release_960_xloader/opensource/component_code/vendor/huawei/extra/build/build_script/kirin_kernel_release/kernel/include/linux/delayed_call.h"
	.file 111 "/mnt/disk/jenkins/ci/workspace/chipset_release_960_xloader/opensource/component_code/vendor/huawei/extra/build/build_script/kirin_kernel_release/kernel/include/linux/uio.h"
	.file 112 "/mnt/disk/jenkins/ci/workspace/chipset_release_960_xloader/opensource/component_code/vendor/huawei/extra/build/build_script/kirin_kernel_release/kernel/include/linux/nfs_fs_i.h"
	.file 113 "/mnt/disk/jenkins/ci/workspace/chipset_release_960_xloader/opensource/component_code/vendor/huawei/extra/build/build_script/kirin_kernel_release/kernel/include/linux/poll.h"
	.file 114 "/mnt/disk/jenkins/ci/workspace/chipset_release_960_xloader/opensource/component_code/vendor/huawei/extra/build/build_script/kirin_kernel_release/kernel/include/linux/seq_buf.h"
	.file 115 "/mnt/disk/jenkins/ci/workspace/chipset_release_960_xloader/opensource/component_code/vendor/huawei/extra/build/build_script/kirin_kernel_release/kernel/include/linux/trace_seq.h"
	.file 116 "/mnt/disk/jenkins/ci/workspace/chipset_release_960_xloader/opensource/component_code/vendor/huawei/extra/build/build_script/kirin_kernel_release/kernel/include/uapi/linux/perf_event.h"
	.file 117 "/mnt/disk/jenkins/ci/workspace/chipset_release_960_xloader/opensource/component_code/vendor/huawei/extra/build/build_script/kirin_kernel_release/kernel/include/asm-generic/local.h"
	.file 118 "/mnt/disk/jenkins/ci/workspace/chipset_release_960_xloader/opensource/component_code/vendor/huawei/extra/build/build_script/kirin_kernel_release/kernel/include/asm-generic/local64.h"
	.file 119 "/mnt/disk/jenkins/ci/workspace/chipset_release_960_xloader/opensource/component_code/vendor/huawei/extra/build/build_script/kirin_kernel_release/kernel/include/linux/cgroup.h"
	.file 120 "/mnt/disk/jenkins/ci/workspace/chipset_release_960_xloader/opensource/component_code/vendor/huawei/extra/build/build_script/kirin_kernel_release/kernel/include/linux/ns_common.h"
	.file 121 "/mnt/disk/jenkins/ci/workspace/chipset_release_960_xloader/opensource/component_code/vendor/huawei/extra/build/build_script/kirin_kernel_release/kernel/include/uapi/linux/uio.h"
	.file 122 "/mnt/disk/jenkins/ci/workspace/chipset_release_960_xloader/opensource/component_code/vendor/huawei/extra/build/build_script/kirin_kernel_release/kernel/include/linux/ftrace.h"
	.file 123 "/mnt/disk/jenkins/ci/workspace/chipset_release_960_xloader/opensource/component_code/vendor/huawei/extra/build/build_script/kirin_kernel_release/kernel/include/linux/klist.h"
	.file 124 "/mnt/disk/jenkins/ci/workspace/chipset_release_960_xloader/opensource/component_code/vendor/huawei/extra/build/build_script/kirin_kernel_release/kernel/include/linux/pinctrl/devinfo.h"
	.file 125 "/mnt/disk/jenkins/ci/workspace/chipset_release_960_xloader/opensource/component_code/vendor/huawei/extra/build/build_script/kirin_kernel_release/kernel/include/linux/pm.h"
	.file 126 "/mnt/disk/jenkins/ci/workspace/chipset_release_960_xloader/opensource/component_code/vendor/huawei/extra/build/build_script/kirin_kernel_release/kernel/include/linux/device.h"
	.file 127 "/mnt/disk/jenkins/ci/workspace/chipset_release_960_xloader/opensource/component_code/vendor/huawei/extra/build/build_script/kirin_kernel_release/kernel/include/linux/pm_wakeup.h"
	.file 128 "/mnt/disk/jenkins/ci/workspace/chipset_release_960_xloader/opensource/component_code/vendor/huawei/extra/build/build_script/kirin_kernel_release/kernel/arch/arm64/include/asm/device.h"
	.file 129 "/mnt/disk/jenkins/ci/workspace/chipset_release_960_xloader/opensource/component_code/vendor/huawei/extra/build/build_script/kirin_kernel_release/kernel/include/linux/irq_work.h"
	.file 130 "/mnt/disk/jenkins/ci/workspace/chipset_release_960_xloader/opensource/component_code/vendor/huawei/extra/build/build_script/kirin_kernel_release/kernel/include/linux/perf_regs.h"
	.file 131 "/mnt/disk/jenkins/ci/workspace/chipset_release_960_xloader/opensource/component_code/vendor/huawei/extra/build/build_script/kirin_kernel_release/kernel/include/linux/interrupt.h"
	.file 132 "/mnt/disk/jenkins/ci/workspace/chipset_release_960_xloader/opensource/component_code/vendor/huawei/extra/build/build_script/kirin_kernel_release/kernel/drivers/vcodec/hi_vcodec/vdec/vfmw/vfmw_v4.0/firmware/osal/vfmw_osal_ext.h"
	.file 133 "/mnt/disk/jenkins/ci/workspace/chipset_release_960_xloader/opensource/component_code/vendor/huawei/extra/build/build_script/kirin_kernel_release/kernel/drivers/vcodec/hi_vcodec/vdec/vfmw/vfmw_v4.0/firmware/common/vdm_drv.h"
	.file 134 "/mnt/disk/jenkins/ci/workspace/chipset_release_960_xloader/opensource/component_code/vendor/huawei/extra/build/build_script/kirin_kernel_release/kernel/drivers/vcodec/hi_vcodec/vdec/vfmw/vfmw_v4.0/firmware/common/vdm_hal.h"
	.file 135 "/mnt/disk/jenkins/ci/workspace/chipset_release_960_xloader/opensource/component_code/vendor/huawei/extra/build/build_script/kirin_kernel_release/kernel/drivers/vcodec/hi_vcodec/vdec/vfmw/vfmw_v4.0/firmware/common/public.h"
	.file 136 "/mnt/disk/jenkins/ci/workspace/chipset_release_960_xloader/opensource/component_code/vendor/huawei/extra/build/build_script/kirin_kernel_release/kernel/drivers/vcodec/hi_vcodec/vdec/vfmw/vfmw_v4.0/firmware/common/fsp.h"
	.file 137 "/mnt/disk/jenkins/ci/workspace/chipset_release_960_xloader/opensource/component_code/vendor/huawei/extra/build/build_script/kirin_kernel_release/kernel/drivers/vcodec/hi_vcodec/vdec/vfmw/vfmw_v4.0/firmware/common/syntax/hevc.h"
	.file 138 "/mnt/disk/jenkins/ci/workspace/chipset_release_960_xloader/opensource/component_code/vendor/huawei/extra/build/build_script/kirin_kernel_release/kernel/drivers/vcodec/hi_vcodec/vdec/vfmw/vfmw_v4.0/firmware/common/syntax/vp8.h"
	.file 139 "/mnt/disk/jenkins/ci/workspace/chipset_release_960_xloader/opensource/component_code/vendor/huawei/extra/build/build_script/kirin_kernel_release/kernel/drivers/vcodec/hi_vcodec/vdec/vfmw/vfmw_v4.0/firmware/common/vfmw_ctrl.h"
	.file 140 "/mnt/disk/jenkins/ci/workspace/chipset_release_960_xloader/opensource/component_code/vendor/huawei/extra/build/build_script/kirin_kernel_release/kernel/arch/arm64/include/asm/cachetype.h"
	.file 141 "/mnt/disk/jenkins/ci/workspace/chipset_release_960_xloader/opensource/component_code/vendor/huawei/extra/build/build_script/kirin_kernel_release/kernel/include/linux/printk.h"
	.file 142 "/mnt/disk/jenkins/ci/workspace/chipset_release_960_xloader/opensource/component_code/vendor/huawei/extra/build/build_script/kirin_kernel_release/kernel/include/linux/kernel.h"
	.file 143 "/mnt/disk/jenkins/ci/workspace/chipset_release_960_xloader/opensource/component_code/vendor/huawei/extra/build/build_script/kirin_kernel_release/kernel/arch/arm64/include/asm/stack_pointer.h"
	.file 144 "/mnt/disk/jenkins/ci/workspace/chipset_release_960_xloader/opensource/component_code/vendor/huawei/extra/build/build_script/kirin_kernel_release/kernel/arch/arm64/include/asm/hwcap.h"
	.file 145 "/mnt/disk/jenkins/ci/workspace/chipset_release_960_xloader/opensource/component_code/vendor/huawei/extra/build/build_script/kirin_kernel_release/kernel/arch/arm64/include/asm/cpufeature.h"
	.file 146 "/mnt/disk/jenkins/ci/workspace/chipset_release_960_xloader/opensource/component_code/vendor/huawei/extra/build/build_script/kirin_kernel_release/kernel/arch/arm64/include/asm/virt.h"
	.file 147 "/mnt/disk/jenkins/ci/workspace/chipset_release_960_xloader/opensource/component_code/vendor/huawei/extra/build/build_script/kirin_kernel_release/kernel/include/linux/jiffies.h"
	.file 148 "/mnt/disk/jenkins/ci/workspace/chipset_release_960_xloader/opensource/component_code/vendor/huawei/extra/build/build_script/kirin_kernel_release/kernel/include/linux/highuid.h"
	.file 149 "/mnt/disk/jenkins/ci/workspace/chipset_release_960_xloader/opensource/component_code/vendor/huawei/extra/build/build_script/kirin_kernel_release/kernel/arch/arm64/include/asm/memory.h"
	.file 150 "/mnt/disk/jenkins/ci/workspace/chipset_release_960_xloader/opensource/component_code/vendor/huawei/extra/build/build_script/kirin_kernel_release/kernel/include/asm-generic/percpu.h"
	.file 151 "/mnt/disk/jenkins/ci/workspace/chipset_release_960_xloader/opensource/component_code/vendor/huawei/extra/build/build_script/kirin_kernel_release/kernel/include/linux/debug_locks.h"
	.file 152 "/mnt/disk/jenkins/ci/workspace/chipset_release_960_xloader/opensource/component_code/vendor/huawei/extra/build/build_script/kirin_kernel_release/kernel/include/asm-generic/pgtable.h"
	.file 153 "/mnt/disk/jenkins/ci/workspace/chipset_release_960_xloader/opensource/component_code/vendor/huawei/extra/build/build_script/kirin_kernel_release/kernel/arch/arm64/include/asm/irq.h"
	.file 154 "/mnt/disk/jenkins/ci/workspace/chipset_release_960_xloader/opensource/component_code/vendor/huawei/extra/build/build_script/kirin_kernel_release/kernel/arch/arm64/include/asm/hardirq.h"
	.file 155 "/mnt/disk/jenkins/ci/workspace/chipset_release_960_xloader/opensource/component_code/vendor/huawei/extra/build/build_script/kirin_kernel_release/kernel/include/linux/slab.h"
	.file 156 "/mnt/disk/jenkins/ci/workspace/chipset_release_960_xloader/opensource/component_code/vendor/huawei/extra/build/build_script/kirin_kernel_release/kernel/drivers/vcodec/hi_vcodec/vdec/vfmw/vfmw_v4.0/firmware/driver/HiVDHV400R004/vdm_hal_api.h"
	.file 157 "/mnt/disk/jenkins/ci/workspace/chipset_release_960_xloader/opensource/component_code/vendor/huawei/extra/build/build_script/kirin_kernel_release/kernel/drivers/vcodec/hi_vcodec/vdec/vfmw/vfmw_v4.0/scene/kirin/vfmw_dts.h"
	.file 158 "/mnt/disk/jenkins/ci/workspace/chipset_release_960_xloader/opensource/component_code/vendor/huawei/extra/build/build_script/kirin_kernel_release/kernel/drivers/vcodec/hi_vcodec/vdec/vfmw/vfmw_v4.0/firmware/common/mem_manage.h"
	.file 159 "/mnt/disk/jenkins/ci/workspace/chipset_release_960_xloader/opensource/component_code/vendor/huawei/extra/build/build_script/kirin_kernel_release/kernel/drivers/vcodec/hi_vcodec/vdec/vfmw/vfmw_v4.0/firmware/osal/linux_kernel/linux_kernel_osal.h"
	.section	.note.GNU-stack,"",%progbits
