	.cpu generic+fp+simd
	.file	"drv_venc.c"
	.text
.Ltext0:
	.cfi_sections	.debug_frame
	.align	2
	.global	VENC_DRV_BoardInit
	.type	VENC_DRV_BoardInit, %function
VENC_DRV_BoardInit:
.LFB2711:
	.file 1 "/mnt/disk/jenkins/ci/workspace/chipset_release_960_xloader/opensource/component_code/vendor/huawei/extra/build/build_script/kirin_kernel_release/kernel/drivers/vcodec/hi_vcodec/venc/drv/venc/drv_venc.c"
	.loc 1 96 0
	.cfi_startproc
	stp	x29, x30, [sp, -64]!
	.cfi_def_cfa_offset 64
	.cfi_offset 29, -64
	.cfi_offset 30, -56
	.loc 1 99 0
	adrp	x4, .LC1
	mov	w0, 4
	.loc 1 96 0
	add	x29, sp, 0
	.cfi_def_cfa_register 29
	stp	x23, x24, [sp,48]
	.cfi_offset 23, -16
	.cfi_offset 24, -8
	.loc 1 99 0
	adrp	x23, .LANCHOR0
	adrp	x24, .LC0
	.loc 1 96 0
	stp	x19, x20, [sp,16]
	.cfi_offset 19, -48
	.cfi_offset 20, -40
	.loc 1 99 0
	add	x20, x23, :lo12:.LANCHOR0
	mov	w2, 99
	.loc 1 96 0
	stp	x21, x22, [sp,32]
	.cfi_offset 21, -32
	.cfi_offset 22, -24
	.loc 1 99 0
	add	x22, x24, :lo12:.LC0
	add	x21, x20, 24
	mov	x1, x22
	mov	x3, x20
	add	x4, x4, :lo12:.LC1
	mov	x5, x21
	bl	HI_PRINT
.LVL0:
	.loc 1 101 0
	adrp	x0, .LANCHOR1
	add	x19, x0, :lo12:.LANCHOR1
	str	wzr, [x0,#:lo12:.LANCHOR1]
	.loc 1 102 0
	mov	x0, 4294967295
	str	x0, [x19,8]
	.loc 1 109 0
	bl	Venc_Regulator_Enable
.LVL1:
	.loc 1 110 0
	cbnz	w0, .L7
	add	x21, x19, 208
.LBB15:
	.loc 1 119 0 discriminator 1
	adrp	x20, .LC3
	add	x19, x19, 16
	add	x20, x20, :lo12:.LC3
	mov	x22, x21
.L4:
	mov	x0, x19
	mov	x1, x20
	mov	x2, x22
	add	x19, x19, 24
	bl	__raw_spin_lock_init
.LVL2:
.LBE15:
	.loc 1 116 0 discriminator 1
	cmp	x19, x21
	bne	.L4
	.loc 1 122 0
	add	x3, x23, :lo12:.LANCHOR0
	adrp	x4, .LC4
	add	x1, x24, :lo12:.LC0
	mov	w0, 4
	mov	w2, 122
	add	x4, x4, :lo12:.LC4
	add	x5, x3, 24
	bl	HI_PRINT
.LVL3:
	.loc 1 123 0
	ldp	x19, x20, [sp,16]
	.cfi_remember_state
	.cfi_restore 20
	.cfi_restore 19
	ldp	x21, x22, [sp,32]
	.cfi_restore 22
	.cfi_restore 21
	ldp	x23, x24, [sp,48]
	.cfi_restore 24
	.cfi_restore 23
	ldp	x29, x30, [sp], 64
	.cfi_restore 30
	.cfi_restore 29
	.cfi_def_cfa 31, 0
	ret
.L7:
	.cfi_restore_state
	.loc 1 112 0
	adrp	x4, .LC2
	mov	x1, x22
	mov	x3, x20
	mov	x5, x21
	mov	w0, 3
	mov	w2, 112
	add	x4, x4, :lo12:.LC2
	bl	HI_PRINT
.LVL4:
	.loc 1 123 0
	ldp	x19, x20, [sp,16]
	.cfi_restore 19
	.cfi_restore 20
	ldp	x21, x22, [sp,32]
	.cfi_restore 21
	.cfi_restore 22
	ldp	x23, x24, [sp,48]
	.cfi_restore 23
	.cfi_restore 24
	ldp	x29, x30, [sp], 64
	.cfi_restore 29
	.cfi_restore 30
	.cfi_def_cfa 31, 0
	ret
	.cfi_endproc
.LFE2711:
	.size	VENC_DRV_BoardInit, .-VENC_DRV_BoardInit
	.align	2
	.global	VENC_DRV_BoardDeinit
	.type	VENC_DRV_BoardDeinit, %function
VENC_DRV_BoardDeinit:
.LFB2712:
	.loc 1 126 0
	.cfi_startproc
	stp	x29, x30, [sp, -48]!
	.cfi_def_cfa_offset 48
	.cfi_offset 29, -48
	.cfi_offset 30, -40
	.loc 1 127 0
	adrp	x4, .LC5
	mov	w2, 127
	.loc 1 126 0
	add	x29, sp, 0
	.cfi_def_cfa_register 29
	stp	x19, x20, [sp,16]
	.cfi_offset 19, -32
	.cfi_offset 20, -24
	.loc 1 127 0
	adrp	x19, .LANCHOR0
	adrp	x20, .LC0
	add	x19, x19, :lo12:.LANCHOR0
	.loc 1 126 0
	str	x21, [sp,32]
	.cfi_offset 21, -16
	.loc 1 127 0
	add	x20, x20, :lo12:.LC0
	add	x21, x19, 48
	add	x19, x19, 72
	mov	x1, x20
	mov	x3, x21
	mov	x5, x19
	add	x4, x4, :lo12:.LC5
	mov	w0, 4
	bl	HI_PRINT
.LVL5:
	.loc 1 129 0
	mov	w0, 1
	bl	Venc_Regulator_Disable
.LVL6:
	.loc 1 131 0
	adrp	x4, .LC4
	mov	x1, x20
	mov	x3, x21
	mov	x5, x19
	mov	w0, 4
	mov	w2, 131
	add	x4, x4, :lo12:.LC4
	bl	HI_PRINT
.LVL7:
	.loc 1 132 0
	ldr	x21, [sp,32]
	.cfi_restore 21
	ldp	x19, x20, [sp,16]
	.cfi_restore 20
	.cfi_restore 19
	ldp	x29, x30, [sp], 48
	.cfi_restore 30
	.cfi_restore 29
	.cfi_def_cfa 31, 0
	ret
	.cfi_endproc
.LFE2712:
	.size	VENC_DRV_BoardDeinit, .-VENC_DRV_BoardDeinit
	.align	2
	.global	VENC_DRV_CreateChn
	.type	VENC_DRV_CreateChn, %function
VENC_DRV_CreateChn:
.LFB2713:
	.loc 1 137 0
	.cfi_startproc
.LVL8:
	sub	sp, sp, #400
	.cfi_def_cfa_offset 400
	stp	x29, x30, [sp,32]
	.cfi_offset 29, -368
	.cfi_offset 30, -360
	add	x29, sp, 32
	.cfi_def_cfa 29, 368
	stp	x21, x22, [sp,64]
	.cfi_offset 21, -336
	.cfi_offset 22, -328
	mov	x21, x0
	adrp	x0, __stack_chk_guard
.LVL9:
	stp	x27, x28, [sp,112]
	stp	x23, x24, [sp,80]
	.cfi_offset 27, -288
	.cfi_offset 28, -280
	.cfi_offset 23, -320
	.cfi_offset 24, -312
	.loc 1 140 0
	add	x27, x29, 232
	.loc 1 141 0
	add	x23, x29, 296
	.loc 1 137 0
	ldr	x0, [x0,#:lo12:__stack_chk_guard]
	mov	x28, x1
	stp	x25, x26, [sp,96]
	stp	x19, x20, [sp,48]
	.cfi_offset 25, -304
	.cfi_offset 26, -296
	.cfi_offset 19, -352
	.cfi_offset 20, -344
	.loc 1 140 0
	stp	xzr, xzr, [x27]
	stp	xzr, xzr, [x27,16]
	stp	xzr, xzr, [x27,32]
	.loc 1 137 0
	str	x0, [x29,360]
	mov	x26, x2
	.loc 1 140 0
	stp	xzr, xzr, [x27,48]
	.loc 1 141 0
	stp	xzr, xzr, [x23]
	stp	xzr, xzr, [x23,16]
	stp	xzr, xzr, [x23,32]
	stp	xzr, xzr, [x23,48]
	.loc 1 145 0
	stp	xzr, xzr, [x29,176]
	stp	xzr, xzr, [x29,192]
	stp	xzr, xzr, [x29,208]
	str	xzr, [x29,224]
	.loc 1 146 0
	stp	xzr, xzr, [x29,128]
	stp	xzr, xzr, [x29,144]
	stp	xzr, xzr, [x29,160]
	.loc 1 137 0
	str	x3, [x29,112]
	.loc 1 147 0
	cbz	x21, .L44
	.loc 1 148 0
	cbz	x1, .L45
	.loc 1 149 0
	cbz	x2, .L46
	.loc 1 151 0
	adrp	x19, .LANCHOR0
	ldr	w6, [x1]
	adrp	x22, .LC0
	add	x3, x19, :lo12:.LANCHOR0
.LVL10:
	adrp	x4, .LC10
	mov	w0, 4
	add	x1, x22, :lo12:.LC0
	mov	w2, 151
	add	x3, x3, 96
	add	x4, x4, :lo12:.LC10
	mov	x5, x21
	.loc 1 155 0
	adrp	x20, .LANCHOR1
	.loc 1 151 0
	bl	HI_PRINT
.LVL11:
	.loc 1 155 0
	add	x0, x20, :lo12:.LANCHOR1
	mov	x1, 4294967295
	add	x0, x0, 208
	ldr	x2, [x0,24]
	cmp	x2, x1
	beq	.L26
	ldr	x2, [x0,768]
	cmp	x2, x1
	beq	.L27
	ldr	x2, [x0,1512]
	cmp	x2, x1
	beq	.L28
	ldr	x2, [x0,2256]
	cmp	x2, x1
	beq	.L29
	ldr	x2, [x0,3000]
	cmp	x2, x1
	beq	.L30
	ldr	x2, [x0,3744]
	cmp	x2, x1
	beq	.L31
	ldr	x0, [x0,4488]
	cmp	x0, x1
	beq	.L32
	add	x0, x20, :lo12:.LANCHOR1
	ldr	x1, [x0,5440]
	mov	x0, 4294967295
	cmp	x1, x0
	beq	.L33
	.loc 1 163 0
	add	x5, x19, :lo12:.LANCHOR0
	adrp	x4, .LC11
	mov	w0, 1
	add	x3, x5, 96
	add	x1, x22, :lo12:.LC0
	mov	w2, 163
	add	x4, x4, :lo12:.LC11
	add	x5, x5, 120
	bl	HI_PRINT
.LVL12:
	.loc 1 164 0
	mov	w0, 6
.L11:
	.loc 1 324 0
	adrp	x1, __stack_chk_guard
	ldr	x2, [x29,360]
	ldr	x1, [x1,#:lo12:__stack_chk_guard]
	cmp	x2, x1
	bne	.L47
	sub	sp, x29, #32
	.cfi_remember_state
	.cfi_def_cfa 31, 400
	ldp	x19, x20, [sp,48]
	.cfi_restore 20
	.cfi_restore 19
	ldp	x21, x22, [sp,64]
	.cfi_restore 22
	.cfi_restore 21
.LVL13:
	ldp	x23, x24, [sp,80]
	.cfi_restore 24
	.cfi_restore 23
	ldp	x25, x26, [sp,96]
	.cfi_restore 26
	.cfi_restore 25
.LVL14:
	ldp	x27, x28, [sp,112]
	.cfi_restore 28
	.cfi_restore 27
.LVL15:
	ldp	x29, x30, [sp,32]
	.cfi_restore 30
	.cfi_restore 29
	add	sp, sp, 400
	.cfi_def_cfa_offset 0
	ret
.LVL16:
.L26:
	.cfi_restore_state
	.loc 1 153 0
	str	wzr, [x29,120]
.LVL17:
.L14:
	.loc 1 167 0
	ldr	w6, [x28]
	cmp	w6, 4
	beq	.L17
	cmp	w6, 36
	bne	.L48
	.loc 1 171 0
	ldr	w1, [x28,4]
	.loc 1 172 0
	ldr	w0, [x28,48]
.LVL18:
	.loc 1 170 0
	str	wzr, [x29,176]
	.loc 1 171 0
	str	w1, [x29,180]
	.loc 1 172 0
	str	w0, [x29,224]
	.loc 1 173 0
	str	wzr, [x29,228]
.L16:
	.loc 1 186 0
	ldr	w11, [x28,16]
	.loc 1 194 0
	mov	x0, x21
	.loc 1 187 0
	ldr	w9, [x28,20]
	.loc 1 194 0
	add	x1, x29, 176
	.loc 1 188 0
	ldr	w8, [x28,28]
	.loc 1 194 0
	mov	x3, x28
	.loc 1 189 0
	ldrb	w7, [x28,64]
	.loc 1 190 0
	ldr	w6, [x28,24]
	.loc 1 191 0
	ldr	w5, [x28,60]
	.loc 1 192 0
	ldr	w4, [x28,32]
	.loc 1 194 0
	ldr	w2, [x29,120]
	.loc 1 186 0
	str	w11, [x29,184]
	.loc 1 187 0
	str	w9, [x29,188]
	.loc 1 188 0
	str	w8, [x29,192]
	.loc 1 189 0
	str	w7, [x29,200]
	.loc 1 190 0
	str	w6, [x29,204]
	.loc 1 191 0
	str	w5, [x29,208]
	.loc 1 192 0
	str	w4, [x29,212]
	.loc 1 194 0
	bl	VENC_DRV_EflCreateVenc
.LVL19:
	mov	w24, w0
	.loc 1 195 0
	cbnz	w0, .L49
	.loc 1 201 0
	ldr	w9, [x28,36]
	.loc 1 202 0
	ldr	w5, [x28,44]
	.loc 1 203 0
	ldr	w8, [x28,40]
	.loc 1 204 0
	ldr	w7, [x28,52]
	.loc 1 205 0
	ldr	w6, [x28,56]
	.loc 1 206 0
	ldr	w4, [x28,16]
	.loc 1 207 0
	ldr	w3, [x28,20]
	.loc 1 208 0
	ldr	w2, [x28,48]
	.loc 1 209 0
	ldr	w1, [x28,296]
	.loc 1 210 0
	ldr	w0, [x28,348]
	.loc 1 201 0
	str	w9, [x29,128]
	.loc 1 202 0
	str	w5, [x29,136]
	.loc 1 203 0
	str	w8, [x29,132]
	.loc 1 204 0
	str	w7, [x29,140]
	.loc 1 205 0
	str	w6, [x29,144]
	.loc 1 206 0
	str	w4, [x29,152]
	.loc 1 207 0
	str	w3, [x29,156]
	.loc 1 208 0
	str	w2, [x29,148]
	.loc 1 209 0
	str	w1, [x29,160]
	.loc 1 210 0
	str	w0, [x29,172]
	.loc 1 212 0
	cbnz	w0, .L20
	.loc 1 214 0
	mov	w0, 10
	str	w0, [x29,164]
	.loc 1 215 0
	mov	w0, 5
	str	w0, [x29,168]
.L21:
	.loc 1 229 0
	add	x7, x19, :lo12:.LANCHOR0
	add	x25, x22, :lo12:.LC0
	add	x24, x7, 96
	adrp	x4, .LC14
	mov	w0, 4
	mov	x1, x25
	mov	w2, 229
	mov	x3, x24
	add	x4, x4, :lo12:.LC14
	str	x7, [x29,104]
	bl	HI_PRINT
.LVL20:
	.loc 1 230 0
	ldr	w5, [x29,148]
	adrp	x4, .LC15
	mov	w0, 4
	mov	x1, x25
	mov	w2, 230
	mov	x3, x24
	add	x4, x4, :lo12:.LC15
	bl	HI_PRINT
.LVL21:
	.loc 1 231 0
	ldr	w5, [x29,128]
	adrp	x4, .LC16
	mov	w0, 4
	mov	x1, x25
	mov	w2, 231
	mov	x3, x24
	add	x4, x4, :lo12:.LC16
	bl	HI_PRINT
.LVL22:
	.loc 1 232 0
	ldr	w5, [x29,144]
	adrp	x4, .LC17
	mov	w0, 4
	mov	x1, x25
	mov	w2, 232
	mov	x3, x24
	add	x4, x4, :lo12:.LC17
	bl	HI_PRINT
.LVL23:
	.loc 1 233 0
	ldr	w5, [x29,140]
	adrp	x4, .LC18
	mov	w0, 4
	mov	x1, x25
	mov	w2, 233
	mov	x3, x24
	add	x4, x4, :lo12:.LC18
	bl	HI_PRINT
.LVL24:
	.loc 1 234 0
	ldr	w5, [x29,160]
	adrp	x4, .LC19
	mov	w0, 4
	mov	x1, x25
	mov	w2, 234
	mov	x3, x24
	add	x4, x4, :lo12:.LC19
	bl	HI_PRINT
.LVL25:
	.loc 1 236 0
	ldr	x0, [x21]
	add	x1, x29, 128
	bl	VENC_DRV_EflRcAttrInit
.LVL26:
	.loc 1 237 0
	ldr	x7, [x29,104]
	cbnz	w0, .L50
	.loc 1 259 0
	ldrsw	x14, [x29,120]
.LVL27:
	add	x0, x20, :lo12:.LANCHOR1
	add	x0, x0, 208
	.loc 1 257 0
	ldr	x1, [x21]
	.loc 1 259 0
	lsl	x3, x14, 5
	.loc 1 257 0
	str	x1, [x26]
	.loc 1 259 0
	sub	x3, x3, x14, lsl 3
	str	x7, [x29,96]
	ldr	x9, [x21]
	.loc 1 283 0
	mov	x1, x28
	.loc 1 259 0
	add	x0, x0, x3, lsl 5
	.loc 1 261 0
	ldr	x7, [x29,112]
.LVL28:
	.loc 1 259 0
	sub	x26, x0, x3
.LVL29:
	.loc 1 283 0
	mov	x2, 352
	.loc 1 275 0
	mov	w3, 1
	.loc 1 283 0
	add	x0, x26, 52
	.loc 1 259 0
	str	x14, [x29,104]
	str	x9, [x26,24]
	.loc 1 260 0
	mov	x9, 4294967295
	.loc 1 261 0
	str	x7, [x26,528]
	.loc 1 260 0
	str	x9, [x26,16]
	.loc 1 275 0
	str	w3, [x26,8]
	.loc 1 263 0
	str	wzr, [x26,480]
	.loc 1 264 0
	str	wzr, [x26,484]
	.loc 1 265 0
	str	wzr, [x26,488]
	.loc 1 266 0
	str	wzr, [x26,492]
	.loc 1 267 0
	str	wzr, [x26,496]
	.loc 1 268 0
	str	wzr, [x26,500]
	.loc 1 269 0
	str	wzr, [x26,504]
	.loc 1 270 0
	str	wzr, [x26,508]
	.loc 1 271 0
	str	wzr, [x26,512]
	.loc 1 272 0
	str	wzr, [x26,516]
	.loc 1 273 0
	str	wzr, [x26,520]
	.loc 1 274 0
	str	wzr, [x26,524]
	.loc 1 276 0
	str	wzr, [x26,4]
	.loc 1 277 0
	str	wzr, [x26,728]
	.loc 1 278 0
	str	wzr, [x26,724]
	.loc 1 279 0
	str	wzr, [x26,732]
	.loc 1 280 0
	str	wzr, [x26,720]
	.loc 1 281 0
	str	xzr, [x26,584]
	.loc 1 283 0
	bl	memcpy
.LVL30:
	.loc 1 284 0
	str	wzr, [x26,120]
	.loc 1 286 0
	adrp	x2, .LC22
	ldr	w3, [x29,120]
	mov	x0, x27
	mov	x1, 64
	add	x2, x2, :lo12:.LC22
	bl	snprintf
.LVL31:
	.loc 1 287 0
	cmp	w0, 64
	ldr	x14, [x29,104]
.LVL32:
	beq	.L23
	.loc 1 289 0
	ldr	x7, [x29,96]
	adrp	x4, .LC23
	mov	w0, 4
	mov	x1, x25
	mov	w2, 289
	mov	x3, x24
	add	x4, x4, :lo12:.LC23
	add	x5, x7, 120
	str	x14, [x29,112]
	bl	HI_PRINT
.LVL33:
	ldr	x14, [x29,112]
.LVL34:
.L23:
	.loc 1 291 0
	lsl	x15, x14, 5
	add	x2, x20, :lo12:.LANCHOR1
	sub	x15, x15, x14, lsl 3
	add	x2, x2, 208
	ldp	x8, x9, [x27]
	add	x2, x2, x15, lsl 5
	.loc 1 292 0
	ldr	w3, [x29,120]
	.loc 1 291 0
	sub	x15, x2, x15
	.loc 1 292 0
	adrp	x2, .LC24
	.loc 1 291 0
	add	x15, x15, 592
	.loc 1 292 0
	mov	x0, x23
	.loc 1 291 0
	ldp	x6, x7, [x27,16]
	ldp	x4, x5, [x27,32]
	ldp	x10, x11, [x27,48]
	.loc 1 292 0
	mov	x1, 64
	add	x2, x2, :lo12:.LC24
	.loc 1 291 0
	stp	x8, x9, [x15]
	stp	x6, x7, [x15,16]
	stp	x4, x5, [x15,32]
	stp	x10, x11, [x15,48]
	str	x14, [x29,112]
	.loc 1 292 0
	bl	snprintf
.LVL35:
	.loc 1 293 0
	cmp	w0, 64
	ldr	x14, [x29,112]
.LVL36:
	beq	.L24
	.loc 1 295 0
	add	x5, x19, :lo12:.LANCHOR0
	adrp	x4, .LC23
	add	x3, x5, 96
	mov	w0, 4
	add	x1, x22, :lo12:.LC0
	mov	w2, 295
	add	x4, x4, :lo12:.LC23
	add	x5, x5, 120
	str	x14, [x29,120]
	bl	HI_PRINT
.LVL37:
	ldr	x14, [x29,120]
.LVL38:
.L24:
	.loc 1 297 0
	lsl	x1, x14, 5
	add	x0, x20, :lo12:.LANCHOR1
	sub	x14, x1, x14, lsl 3
.LVL39:
	add	x0, x0, 208
	ldp	x4, x5, [x23]
	add	x0, x0, x14, lsl 5
	.loc 1 315 0
	add	x1, x22, :lo12:.LC0
	.loc 1 297 0
	sub	x0, x0, x14
	add	x0, x0, 656
	ldp	x2, x3, [x23,16]
	ldp	x6, x7, [x23,32]
	ldp	x8, x9, [x23,48]
	stp	x4, x5, [x0]
	stp	x2, x3, [x0,16]
	stp	x6, x7, [x0,32]
	stp	x8, x9, [x0,48]
	.loc 1 315 0
	ldr	w4, [x29,128]
	add	x3, x19, :lo12:.LANCHOR0
	ldr	w6, [x28,16]
	mov	w0, 3
	ldr	w7, [x28,20]
	add	x3, x3, 96
	str	w4, [sp,8]
	mov	x5, x21
	ldr	w4, [x29,148]
	ldr	w2, [x29,136]
	str	w4, [sp,16]
	adrp	x4, .LC25
	str	w2, [sp]
	add	x4, x4, :lo12:.LC25
	mov	w2, 316
	bl	HI_PRINT
.LVL40:
	.loc 1 317 0
	mov	w0, 0
	b	.L11
.LVL41:
.L50:
	.loc 1 239 0
	add	x19, x7, 120
	adrp	x4, .LC20
	mov	w6, w0
	mov	x1, x25
	mov	w2, 239
	mov	x3, x24
	add	x4, x4, :lo12:.LC20
	mov	x5, x19
	mov	w0, 1
	bl	HI_PRINT
.LVL42:
	.loc 1 320 0
	ldr	x0, [x21]
	bl	VENC_DRV_EflDestroyVenc
.LVL43:
	.loc 1 322 0
	adrp	x4, .LC21
	mov	w0, 1
	mov	x1, x25
	mov	w2, 322
	mov	x3, x24
	add	x4, x4, :lo12:.LC21
	mov	x5, x19
	mov	x6, x21
	bl	HI_PRINT
.LVL44:
	.loc 1 323 0
	mov	w0, 5
	b	.L11
.LVL45:
.L48:
	.loc 1 182 0
	add	x5, x19, :lo12:.LANCHOR0
	adrp	x4, .LC12
	mov	w0, 1
.LVL46:
	add	x3, x5, 96
	add	x1, x22, :lo12:.LC0
	mov	w2, 182
	add	x4, x4, :lo12:.LC12
	add	x5, x5, 120
	bl	HI_PRINT
.LVL47:
	.loc 1 183 0
	mov	w0, 5
	b	.L11
.LVL48:
.L17:
	.loc 1 177 0
	ldr	w1, [x28,4]
	.loc 1 176 0
	mov	w2, 1
	.loc 1 178 0
	ldr	w0, [x28,48]
.LVL49:
	.loc 1 176 0
	str	w2, [x29,176]
	.loc 1 177 0
	str	w1, [x29,180]
	.loc 1 178 0
	str	w0, [x29,224]
	.loc 1 179 0
	str	wzr, [x29,228]
	.loc 1 180 0
	b	.L16
.L20:
	.loc 1 217 0
	cmp	w0, 1
	bne	.L21
	.loc 1 219 0
	mov	w0, 3
	str	w0, [x29,164]
	.loc 1 220 0
	mov	w0, 2
	str	w0, [x29,168]
	b	.L21
.L49:
	.loc 1 197 0
	add	x3, x19, :lo12:.LANCHOR0
	adrp	x4, .LC13
	ldr	w6, [x29,120]
	mov	w0, 1
	add	x1, x22, :lo12:.LC0
	mov	w2, 197
	add	x3, x3, 96
	add	x4, x4, :lo12:.LC13
	mov	x5, x21
	bl	HI_PRINT
.LVL50:
	.loc 1 198 0
	mov	w0, w24
	b	.L11
.L27:
	.loc 1 153 0 discriminator 2
	mov	w0, 1
.LVL51:
	str	w0, [x29,120]
	b	.L14
.LVL52:
.L28:
	mov	w0, 2
.LVL53:
	str	w0, [x29,120]
	b	.L14
.LVL54:
.L29:
	mov	w0, 3
.LVL55:
	str	w0, [x29,120]
	b	.L14
.LVL56:
.L30:
	mov	w0, 4
.LVL57:
	str	w0, [x29,120]
	b	.L14
.LVL58:
.L31:
	mov	w0, 5
.LVL59:
	str	w0, [x29,120]
	b	.L14
.LVL60:
.L32:
	mov	w0, 6
.LVL61:
	str	w0, [x29,120]
	b	.L14
.LVL62:
.L33:
	mov	w0, 7
.LVL63:
	str	w0, [x29,120]
	b	.L14
.LVL64:
.L47:
	.loc 1 324 0
	bl	__stack_chk_fail
.LVL65:
.L44:
	.loc 1 147 0 discriminator 1
	adrp	x0, .LC6
	adrp	x1, .LC7
	add	x0, x0, :lo12:.LC6
	add	x1, x1, :lo12:.LC7
	bl	printk
.LVL66:
	mov	w0, 11
	.loc 1 147 0 is_stmt 0
	b	.L11
.LVL67:
.L45:
	.loc 1 148 0 is_stmt 1 discriminator 1
	adrp	x0, .LC6
	adrp	x1, .LC8
.LVL68:
	add	x0, x0, :lo12:.LC6
	add	x1, x1, :lo12:.LC8
	bl	printk
.LVL69:
	mov	w0, 11
	.loc 1 148 0 is_stmt 0
	b	.L11
.LVL70:
.L46:
	.loc 1 149 0 is_stmt 1 discriminator 1
	adrp	x0, .LC6
	adrp	x1, .LC9
.LVL71:
	add	x0, x0, :lo12:.LC6
	add	x1, x1, :lo12:.LC9
	bl	printk
.LVL72:
	mov	w0, 11
	.loc 1 149 0 is_stmt 0
	b	.L11
	.cfi_endproc
.LFE2713:
	.size	VENC_DRV_CreateChn, .-VENC_DRV_CreateChn
	.align	2
	.global	VENC_DRV_DestroyChn
	.type	VENC_DRV_DestroyChn, %function
VENC_DRV_DestroyChn:
.LFB2714:
	.loc 1 327 0 is_stmt 1
	.cfi_startproc
.LVL73:
	stp	x29, x30, [sp, -96]!
	.cfi_def_cfa_offset 96
	.cfi_offset 29, -96
	.cfi_offset 30, -88
	mov	x1, 4294967295
	add	x29, sp, 0
	.cfi_def_cfa_register 29
	stp	x19, x20, [sp,16]
	.cfi_offset 19, -80
	.cfi_offset 20, -72
	.loc 1 333 0 discriminator 6
	adrp	x19, .LANCHOR1
	cmp	x0, x1
	add	x2, x19, :lo12:.LANCHOR1
	cset	w1, ne
	.loc 1 327 0
	stp	x21, x22, [sp,32]
	stp	x23, x24, [sp,48]
	stp	x25, x26, [sp,64]
	stp	x27, x28, [sp,80]
	.cfi_offset 21, -64
	.cfi_offset 22, -56
	.cfi_offset 23, -48
	.cfi_offset 24, -40
	.cfi_offset 25, -32
	.cfi_offset 26, -24
	.cfi_offset 27, -16
	.cfi_offset 28, -8
	.loc 1 333 0 discriminator 6
	ldr	x2, [x2,232]
	.loc 1 333 0 is_stmt 0 discriminator 2
	cmp	x2, x0
	bne	.L73
	cbnz	w1, .L65
.L73:
	.loc 1 333 0 discriminator 6
	add	x2, x19, :lo12:.LANCHOR1
	ldr	x2, [x2,976]
	.loc 1 333 0 discriminator 2
	cmp	x2, x0
	bne	.L74
	cbnz	w1, .L66
.L74:
	.loc 1 333 0 discriminator 6
	add	x2, x19, :lo12:.LANCHOR1
	ldr	x2, [x2,1720]
	.loc 1 333 0 discriminator 2
	cmp	x2, x0
	bne	.L75
	cbnz	w1, .L67
.L75:
	.loc 1 333 0 discriminator 6
	add	x2, x19, :lo12:.LANCHOR1
	ldr	x2, [x2,2464]
	.loc 1 333 0 discriminator 2
	cmp	x2, x0
	bne	.L76
	cbnz	w1, .L68
.L76:
	.loc 1 333 0 discriminator 6
	add	x2, x19, :lo12:.LANCHOR1
	ldr	x2, [x2,3208]
	.loc 1 333 0 discriminator 2
	cmp	x2, x0
	bne	.L77
	cbnz	w1, .L69
.L77:
	.loc 1 333 0 discriminator 6
	add	x2, x19, :lo12:.LANCHOR1
	ldr	x2, [x2,3952]
	.loc 1 333 0 discriminator 2
	cmp	x2, x0
	bne	.L78
	cbnz	w1, .L70
.L78:
	.loc 1 333 0 discriminator 6
	add	x2, x19, :lo12:.LANCHOR1
	ldr	x2, [x2,4696]
	.loc 1 333 0 discriminator 2
	cmp	x2, x0
	bne	.L79
	cbnz	w1, .L71
.L79:
	.loc 1 333 0 discriminator 6
	add	x2, x19, :lo12:.LANCHOR1
	ldr	x2, [x2,5440]
	.loc 1 333 0 discriminator 2
	cmp	x2, x0
	bne	.L80
	cbnz	w1, .L72
.L80:
	.loc 1 334 0 is_stmt 1 discriminator 1
	mov	w0, 3
.LVL74:
.L105:
	.loc 1 377 0
	ldp	x19, x20, [sp,16]
	.cfi_remember_state
	.cfi_restore 20
	.cfi_restore 19
.LVL75:
	ldp	x21, x22, [sp,32]
	.cfi_restore 22
	.cfi_restore 21
.LVL76:
	ldp	x23, x24, [sp,48]
	.cfi_restore 24
	.cfi_restore 23
	ldp	x25, x26, [sp,64]
	.cfi_restore 26
	.cfi_restore 25
	ldp	x27, x28, [sp,80]
	.cfi_restore 28
	.cfi_restore 27
	ldp	x29, x30, [sp], 96
	.cfi_restore 30
	.cfi_restore 29
	.cfi_def_cfa 31, 0
	ret
.LVL77:
.L65:
	.cfi_restore_state
	.loc 1 333 0
	mov	x22, 0
.L52:
	.loc 1 335 0
	adrp	x23, .LANCHOR0
	adrp	x24, .LC0
	add	x5, x23, :lo12:.LANCHOR0
	add	x27, x24, :lo12:.LC0
	add	x28, x5, 144
	adrp	x4, .LC29
	mov	x6, x0
	mov	w2, 335
	mov	x3, x28
	add	x4, x4, :lo12:.LC29
	add	x5, x5, 168
	mov	x1, x27
.LBB16:
.LBB17:
	.file 2 "/mnt/disk/jenkins/ci/workspace/chipset_release_960_xloader/opensource/component_code/vendor/huawei/extra/build/build_script/kirin_kernel_release/kernel/include/linux/spinlock.h"
	.loc 2 291 0
	add	x21, x19, :lo12:.LANCHOR1
	mov	x20, x0
.LVL78:
	lsl	x26, x22, 5
.LBE17:
.LBE16:
	.loc 1 335 0
	mov	w0, 4
.LVL79:
.LBB20:
.LBB18:
	.loc 2 291 0
	sub	x26, x26, x22, lsl 3
	add	x25, x21, 16
.LBE18:
.LBE20:
	.loc 1 335 0
	bl	HI_PRINT
.LVL80:
.LBB21:
.LBB19:
	.loc 2 291 0
	add	x25, x25, x26
.LBE19:
.LBE21:
	.loc 1 337 0 discriminator 1
	mov	x0, x25
	bl	_raw_spin_lock_irqsave
.LVL81:
	mov	x1, x0
.LBB22:
.LBB23:
	.loc 2 362 0
	mov	x0, x25
	bl	_raw_spin_unlock_irqrestore
.LVL82:
.LBE23:
.LBE22:
	.loc 1 342 0
	add	x0, x21, 208
	add	x0, x0, x26, lsl 5
	sub	x0, x0, x26
	ldr	w0, [x0,4]
	cbnz	w0, .L107
.L64:
	.loc 1 357 0
	mov	x0, x20
	bl	VENC_DRV_EflDestroyVenc
.LVL83:
	mov	w21, w0
.LVL84:
	.loc 1 359 0
	cbnz	w0, .L108
	.loc 1 365 0 discriminator 1
	mov	x0, x25
	.loc 1 366 0
	add	x19, x19, :lo12:.LANCHOR1
	add	x19, x19, 208
	.loc 1 365 0 discriminator 1
	bl	_raw_spin_lock_irqsave
.LVL85:
	mov	x1, x0
	.loc 1 366 0
	lsl	x0, x22, 5
	mov	x2, 4294967295
	sub	x22, x0, x22, lsl 3
.LVL86:
.LBB24:
.LBB25:
	.loc 2 362 0
	mov	x0, x25
.LBE25:
.LBE24:
	.loc 1 366 0
	add	x19, x19, x22, lsl 5
	sub	x22, x19, x22
	str	x2, [x22,16]
	.loc 1 367 0
	str	x2, [x22,24]
	.loc 1 368 0
	mov	w2, 1
	.loc 1 369 0
	str	wzr, [x22,4]
	.loc 1 368 0
	str	w2, [x22,8]
.LBB27:
.LBB26:
	.loc 2 362 0
	bl	_raw_spin_unlock_irqrestore
.LVL87:
.LBE26:
.LBE27:
	.loc 1 375 0
	add	x3, x23, :lo12:.LANCHOR0
	adrp	x4, .LC28
	add	x1, x24, :lo12:.LC0
	mov	x5, x20
	mov	w0, 3
	mov	w2, 375
	add	x3, x3, 144
	add	x4, x4, :lo12:.LC28
	bl	HI_PRINT
.LVL88:
	.loc 1 376 0
	mov	w0, 0
	.loc 1 377 0
	ldp	x19, x20, [sp,16]
	.cfi_remember_state
	.cfi_restore 19
	.cfi_restore 20
.LVL89:
	ldp	x21, x22, [sp,32]
	.cfi_restore 21
	.cfi_restore 22
.LVL90:
	ldp	x23, x24, [sp,48]
	.cfi_restore 23
	.cfi_restore 24
	ldp	x25, x26, [sp,64]
	.cfi_restore 25
	.cfi_restore 26
	ldp	x27, x28, [sp,80]
	.cfi_restore 27
	.cfi_restore 28
	ldp	x29, x30, [sp], 96
	.cfi_restore 29
	.cfi_restore 30
	.cfi_def_cfa 31, 0
	ret
.LVL91:
.L66:
	.cfi_restore_state
	.loc 1 333 0 discriminator 4
	mov	x22, 1
	b	.L52
.L67:
	mov	x22, 2
	b	.L52
.L68:
	mov	x22, 3
	b	.L52
.L69:
	mov	x22, 4
	b	.L52
.L70:
	mov	x22, 5
	b	.L52
.L71:
	mov	x22, 6
	b	.L52
.L72:
	mov	x22, 7
	b	.L52
.LVL92:
.L108:
	.loc 1 361 0
	add	x5, x23, :lo12:.LANCHOR0
	adrp	x4, .LC27
	mov	w0, 1
.LVL93:
	add	x3, x5, 144
	add	x1, x24, :lo12:.LC0
	mov	w2, 361
	add	x4, x4, :lo12:.LC27
	add	x5, x5, 168
	mov	x6, x20
	bl	HI_PRINT
.LVL94:
	.loc 1 362 0
	mov	w0, w21
	b	.L105
.LVL95:
.L107:
	.loc 1 344 0
	adrp	x4, .LC26
	mov	w0, 2
	mov	x1, x27
	mov	w2, 344
	mov	x3, x28
	add	x4, x4, :lo12:.LC26
	bl	HI_PRINT
.LVL96:
	.loc 1 345 0
	mov	x0, x20
	bl	VENC_DRV_EflStopVenc
.LVL97:
	b	.L64
	.cfi_endproc
.LFE2714:
	.size	VENC_DRV_DestroyChn, .-VENC_DRV_DestroyChn
	.align	2
	.global	VENC_DRV_StartReceivePic
	.type	VENC_DRV_StartReceivePic, %function
VENC_DRV_StartReceivePic:
.LFB2715:
	.loc 1 380 0
	.cfi_startproc
.LVL98:
	stp	x29, x30, [sp, -112]!
	.cfi_def_cfa_offset 112
	.cfi_offset 29, -112
	.cfi_offset 30, -104
	mov	x1, 4294967295
	add	x29, sp, 0
	.cfi_def_cfa_register 29
	stp	x19, x20, [sp,16]
	.cfi_offset 19, -96
	.cfi_offset 20, -88
	.loc 1 383 0 discriminator 6
	adrp	x19, .LANCHOR1
	cmp	x0, x1
	add	x2, x19, :lo12:.LANCHOR1
	cset	w1, ne
	.loc 1 380 0
	stp	x21, x22, [sp,32]
	stp	x23, x24, [sp,48]
	stp	x25, x26, [sp,64]
	stp	x27, x28, [sp,80]
	.cfi_offset 21, -80
	.cfi_offset 22, -72
	.cfi_offset 23, -64
	.cfi_offset 24, -56
	.cfi_offset 25, -48
	.cfi_offset 26, -40
	.cfi_offset 27, -32
	.cfi_offset 28, -24
	.loc 1 383 0 discriminator 6
	ldr	x2, [x2,232]
	.loc 1 383 0 is_stmt 0 discriminator 2
	cmp	x2, x0
	bne	.L132
	cbnz	w1, .L122
.L132:
	.loc 1 383 0 discriminator 6
	add	x2, x19, :lo12:.LANCHOR1
	ldr	x2, [x2,976]
	.loc 1 383 0 discriminator 2
	cmp	x2, x0
	bne	.L133
	cbnz	w1, .L123
.L133:
	.loc 1 383 0 discriminator 6
	add	x2, x19, :lo12:.LANCHOR1
	ldr	x2, [x2,1720]
	.loc 1 383 0 discriminator 2
	cmp	x2, x0
	bne	.L134
	cbnz	w1, .L124
.L134:
	.loc 1 383 0 discriminator 6
	add	x2, x19, :lo12:.LANCHOR1
	ldr	x2, [x2,2464]
	.loc 1 383 0 discriminator 2
	cmp	x2, x0
	bne	.L135
	cbnz	w1, .L125
.L135:
	.loc 1 383 0 discriminator 6
	add	x2, x19, :lo12:.LANCHOR1
	ldr	x2, [x2,3208]
	.loc 1 383 0 discriminator 2
	cmp	x2, x0
	bne	.L136
	cbnz	w1, .L126
.L136:
	.loc 1 383 0 discriminator 6
	add	x2, x19, :lo12:.LANCHOR1
	ldr	x2, [x2,3952]
	.loc 1 383 0 discriminator 2
	cmp	x2, x0
	bne	.L137
	cbnz	w1, .L127
.L137:
	.loc 1 383 0 discriminator 6
	add	x2, x19, :lo12:.LANCHOR1
	ldr	x2, [x2,4696]
	.loc 1 383 0 discriminator 2
	cmp	x2, x0
	bne	.L138
	cbnz	w1, .L128
.L138:
	.loc 1 383 0 discriminator 6
	add	x2, x19, :lo12:.LANCHOR1
	ldr	x2, [x2,5440]
	.loc 1 383 0 discriminator 2
	cmp	x2, x0
	bne	.L139
	cbnz	w1, .L129
.L139:
	.loc 1 384 0 is_stmt 1 discriminator 1
	mov	w0, 3
.LVL99:
.L156:
	.loc 1 408 0
	ldp	x19, x20, [sp,16]
	.cfi_remember_state
	.cfi_restore 20
	.cfi_restore 19
.LVL100:
	ldp	x21, x22, [sp,32]
	.cfi_restore 22
	.cfi_restore 21
	ldp	x23, x24, [sp,48]
	.cfi_restore 24
	.cfi_restore 23
	ldp	x25, x26, [sp,64]
	.cfi_restore 26
	.cfi_restore 25
	ldp	x27, x28, [sp,80]
	.cfi_restore 28
	.cfi_restore 27
	ldp	x29, x30, [sp], 112
	.cfi_restore 30
	.cfi_restore 29
	.cfi_def_cfa 31, 0
	ret
.LVL101:
.L122:
	.cfi_restore_state
	.loc 1 383 0
	mov	w24, 0
.LVL102:
.L110:
	.loc 1 386 0
	adrp	x22, .LANCHOR0
	adrp	x23, .LC0
	add	x21, x22, :lo12:.LANCHOR0
	mov	x20, x0
	add	x25, x21, 192
	add	x26, x23, :lo12:.LC0
	add	x21, x21, 224
	adrp	x4, .LC32
	mov	w0, 4
.LVL103:
	mov	x1, x26
	mov	w2, 386
	mov	x3, x25
	add	x4, x4, :lo12:.LC32
	mov	x5, x21
	mov	x6, x20
	.loc 1 388 0
	add	x19, x19, :lo12:.LANCHOR1
	add	x19, x19, 208
	.loc 1 386 0
	bl	HI_PRINT
.LVL104:
	.loc 1 388 0
	uxtw	x0, w24
.LVL105:
	lsl	x1, x0, 5
	sub	x1, x1, x0, lsl 3
	.loc 1 390 0
	mov	w0, 0
.LVL106:
	.loc 1 388 0
	lsl	x28, x1, 5
	sub	x28, x28, x1
	add	x1, x19, x28
	ldr	w2, [x1,4]
	cmp	w2, 1
	beq	.L156
	.loc 1 393 0
	mov	x0, x20
	str	x1, [x29,104]
	bl	VENC_DRV_EflStartVenc
.LVL107:
	mov	w27, w0
.LVL108:
	.loc 1 394 0
	ldr	x1, [x29,104]
	cbz	w0, .L167
	.loc 1 403 0
	mov	w27, 18
.LVL109:
.L120:
	.loc 1 406 0
	add	x3, x22, :lo12:.LANCHOR0
	adrp	x4, .LC31
	add	x1, x23, :lo12:.LC0
	mov	x5, x20
	mov	w0, 3
	mov	w2, 406
	add	x3, x3, 192
	add	x4, x4, :lo12:.LC31
	bl	HI_PRINT
.LVL110:
	.loc 1 407 0
	mov	w0, w27
	.loc 1 408 0
	ldp	x19, x20, [sp,16]
	.cfi_remember_state
	.cfi_restore 19
	.cfi_restore 20
.LVL111:
	ldp	x21, x22, [sp,32]
	.cfi_restore 21
	.cfi_restore 22
	ldp	x23, x24, [sp,48]
	.cfi_restore 23
	.cfi_restore 24
.LVL112:
	ldp	x25, x26, [sp,64]
	.cfi_restore 25
	.cfi_restore 26
	ldp	x27, x28, [sp,80]
	.cfi_restore 27
	.cfi_restore 28
.LVL113:
	ldp	x29, x30, [sp], 112
	.cfi_restore 29
	.cfi_restore 30
	.cfi_def_cfa 31, 0
	ret
.LVL114:
.L123:
	.cfi_restore_state
	.loc 1 383 0 discriminator 4
	mov	w24, 1
.LVL115:
	b	.L110
.LVL116:
.L124:
	mov	w24, 2
.LVL117:
	b	.L110
.LVL118:
.L125:
	mov	w24, 3
.LVL119:
	b	.L110
.LVL120:
.L126:
	mov	w24, 4
.LVL121:
	b	.L110
.LVL122:
.L127:
	mov	w24, 5
.LVL123:
	b	.L110
.LVL124:
.L129:
	mov	w24, 7
.LVL125:
	b	.L110
.LVL126:
.L128:
	mov	w24, 6
.LVL127:
	b	.L110
.LVL128:
.L167:
	.loc 1 397 0
	add	x0, x28, 464
.LVL129:
	.loc 1 396 0
	mov	w2, 1
	.loc 1 397 0
	add	x0, x19, x0
	.loc 1 396 0
	str	w2, [x1,4]
	.loc 1 397 0
	bl	do_gettimeofday
.LVL130:
	.loc 1 398 0
	adrp	x4, .LC30
	mov	x1, x26
	mov	w2, 398
	mov	x3, x25
	add	x4, x4, :lo12:.LC30
	mov	x5, x21
.LVL131:
	mov	w6, w24
	mov	x7, x20
	mov	w0, 4
	bl	HI_PRINT
.LVL132:
	.loc 1 399 0
	mov	x0, x20
	bl	VENC_DRV_EflRequestIframe
.LVL133:
	b	.L120
	.cfi_endproc
.LFE2715:
	.size	VENC_DRV_StartReceivePic, .-VENC_DRV_StartReceivePic
	.align	2
	.global	VENC_DRV_StopReceivePic
	.type	VENC_DRV_StopReceivePic, %function
VENC_DRV_StopReceivePic:
.LFB2716:
	.loc 1 411 0
	.cfi_startproc
.LVL134:
	stp	x29, x30, [sp, -64]!
	.cfi_def_cfa_offset 64
	.cfi_offset 29, -64
	.cfi_offset 30, -56
	.loc 1 414 0
	adrp	x4, .LC33
	mov	w2, 414
	.loc 1 411 0
	add	x29, sp, 0
	.cfi_def_cfa_register 29
	stp	x21, x22, [sp,32]
	.cfi_offset 21, -32
	.cfi_offset 22, -24
	.loc 1 414 0
	adrp	x21, .LANCHOR0
	adrp	x22, .LC0
	.loc 1 411 0
	stp	x19, x20, [sp,16]
	.loc 1 414 0
	add	x5, x21, :lo12:.LANCHOR0
	.cfi_offset 19, -48
	.cfi_offset 20, -40
	.loc 1 411 0
	mov	x20, x0
	.loc 1 414 0
	add	x1, x22, :lo12:.LC0
	mov	w0, 4
.LVL135:
	add	x3, x5, 256
	add	x4, x4, :lo12:.LC33
	add	x5, x5, 280
	mov	x6, x20
	.loc 1 411 0
	stp	x23, x24, [sp,48]
	.cfi_offset 23, -16
	.cfi_offset 24, -8
	.loc 1 414 0
	bl	HI_PRINT
.LVL136:
	.loc 1 416 0 discriminator 6
	adrp	x0, .LANCHOR1
	mov	x1, 4294967295
	add	x2, x0, :lo12:.LANCHOR1
	cmp	x20, x1
	cset	w1, ne
	ldr	x2, [x2,232]
	.loc 1 416 0 is_stmt 0 discriminator 2
	cmp	x20, x2
	bne	.L190
	cbnz	w1, .L182
.L190:
	.loc 1 416 0 discriminator 6
	add	x2, x0, :lo12:.LANCHOR1
	ldr	x2, [x2,976]
	.loc 1 416 0 discriminator 2
	cmp	x20, x2
	bne	.L191
	cbnz	w1, .L183
.L191:
	.loc 1 416 0 discriminator 6
	add	x2, x0, :lo12:.LANCHOR1
	ldr	x2, [x2,1720]
	.loc 1 416 0 discriminator 2
	cmp	x20, x2
	bne	.L192
	cbnz	w1, .L184
.L192:
	.loc 1 416 0 discriminator 6
	add	x2, x0, :lo12:.LANCHOR1
	ldr	x2, [x2,2464]
	.loc 1 416 0 discriminator 2
	cmp	x20, x2
	bne	.L193
	cbnz	w1, .L185
.L193:
	.loc 1 416 0 discriminator 6
	add	x2, x0, :lo12:.LANCHOR1
	ldr	x2, [x2,3208]
	.loc 1 416 0 discriminator 2
	cmp	x20, x2
	bne	.L194
	cbnz	w1, .L186
.L194:
	.loc 1 416 0 discriminator 6
	add	x2, x0, :lo12:.LANCHOR1
	ldr	x2, [x2,3952]
	.loc 1 416 0 discriminator 2
	cmp	x20, x2
	bne	.L195
	cbnz	w1, .L187
.L195:
	.loc 1 416 0 discriminator 6
	add	x2, x0, :lo12:.LANCHOR1
	ldr	x2, [x2,4696]
	.loc 1 416 0 discriminator 2
	cmp	x20, x2
	bne	.L196
	cbnz	w1, .L188
.L196:
	.loc 1 416 0 discriminator 6
	add	x2, x0, :lo12:.LANCHOR1
	ldr	x2, [x2,5440]
	.loc 1 416 0 discriminator 2
	cmp	x20, x2
	bne	.L197
	cbnz	w1, .L189
.L197:
	.loc 1 417 0 is_stmt 1 discriminator 1
	mov	w0, 3
	.loc 1 438 0
	ldp	x19, x20, [sp,16]
	.cfi_remember_state
	.cfi_restore 20
	.cfi_restore 19
.LVL137:
	ldp	x21, x22, [sp,32]
	.cfi_restore 22
	.cfi_restore 21
	ldp	x23, x24, [sp,48]
	.cfi_restore 24
	.cfi_restore 23
	ldp	x29, x30, [sp], 64
	.cfi_restore 30
	.cfi_restore 29
	.cfi_def_cfa 31, 0
	ret
.LVL138:
.L182:
	.cfi_restore_state
	.loc 1 416 0
	mov	w24, 0
.LVL139:
.L169:
	.loc 1 419 0
	uxtw	x19, w24
.LVL140:
	add	x0, x0, :lo12:.LANCHOR1
	lsl	x1, x19, 5
	add	x0, x0, 208
	sub	x19, x1, x19, lsl 3
.LVL141:
	add	x0, x0, x19, lsl 5
	sub	x19, x0, x19
	ldr	w0, [x19,4]
	cbz	w0, .L225
	.loc 1 429 0
	mov	x0, x20
	bl	VENC_DRV_EflStopVenc
.LVL142:
	mov	w23, w0
.LVL143:
	.loc 1 430 0
	cbz	w0, .L226
.LVL144:
.L179:
	.loc 1 436 0
	add	x3, x21, :lo12:.LANCHOR0
	adrp	x4, .LC36
	add	x1, x22, :lo12:.LC0
	mov	x5, x20
	mov	w0, 4
	mov	w2, 436
	add	x3, x3, 256
	add	x4, x4, :lo12:.LC36
	bl	HI_PRINT
.LVL145:
	.loc 1 429 0
	mov	w0, w23
	.loc 1 438 0
	ldp	x19, x20, [sp,16]
	.cfi_remember_state
	.cfi_restore 19
	.cfi_restore 20
.LVL146:
	ldp	x21, x22, [sp,32]
	.cfi_restore 21
	.cfi_restore 22
	ldp	x23, x24, [sp,48]
	.cfi_restore 23
	.cfi_restore 24
.LVL147:
	ldp	x29, x30, [sp], 64
	.cfi_restore 29
	.cfi_restore 30
	.cfi_def_cfa 31, 0
	ret
.LVL148:
.L183:
	.cfi_restore_state
	.loc 1 416 0 discriminator 4
	mov	w24, 1
.LVL149:
	b	.L169
.LVL150:
.L184:
	mov	w24, 2
.LVL151:
	b	.L169
.LVL152:
.L185:
	mov	w24, 3
.LVL153:
	b	.L169
.LVL154:
.L186:
	mov	w24, 4
.LVL155:
	b	.L169
.LVL156:
.L187:
	mov	w24, 5
.LVL157:
	b	.L169
.LVL158:
.L188:
	mov	w24, 6
.LVL159:
	b	.L169
.LVL160:
.L189:
	mov	w24, 7
.LVL161:
	b	.L169
.LVL162:
.L225:
.LBB28:
	.loc 1 423 0
	ldr	x0, [x20,1528]
	mov	w1, 2
	movk	w1, 0xa, lsl 16
	mov	w2, 0
	mov	x3, 0
	bl	VENC_DRV_EflPutMsg_OMX
.LVL163:
	.loc 1 424 0
	ldr	w19, [x20,1332]
	.loc 1 425 0
	add	x5, x21, :lo12:.LANCHOR0
	adrp	x4, .LC34
	add	x1, x22, :lo12:.LC0
	add	x3, x5, 256
	mov	x6, x20
	.loc 1 424 0
	add	w19, w19, 1
	.loc 1 425 0
	mov	w0, 4
	.loc 1 424 0
	str	w19, [x20,1332]
	.loc 1 425 0
	mov	w2, 425
	add	x4, x4, :lo12:.LC34
	add	x5, x5, 280
	bl	HI_PRINT
.LVL164:
	.loc 1 426 0
	mov	w0, 0
.LBE28:
	.loc 1 438 0
	ldp	x19, x20, [sp,16]
	.cfi_remember_state
	.cfi_restore 19
	.cfi_restore 20
.LVL165:
	ldp	x21, x22, [sp,32]
	.cfi_restore 21
	.cfi_restore 22
	ldp	x23, x24, [sp,48]
	.cfi_restore 23
	.cfi_restore 24
	ldp	x29, x30, [sp], 64
	.cfi_restore 29
	.cfi_restore 30
	.cfi_def_cfa 31, 0
	ret
.LVL166:
.L226:
	.cfi_restore_state
	.loc 1 433 0
	add	x5, x21, :lo12:.LANCHOR0
	adrp	x4, .LC35
	add	x3, x5, 256
	mov	w0, 3
.LVL167:
	add	x1, x22, :lo12:.LC0
	mov	w2, 433
	add	x4, x4, :lo12:.LC35
	add	x5, x5, 280
.LVL168:
	mov	w6, w24
	mov	x7, x20
	.loc 1 432 0
	str	wzr, [x19,4]
	.loc 1 433 0
	bl	HI_PRINT
.LVL169:
	b	.L179
	.cfi_endproc
.LFE2716:
	.size	VENC_DRV_StopReceivePic, .-VENC_DRV_StopReceivePic
	.align	2
	.global	VENC_DRV_SetAttr
	.type	VENC_DRV_SetAttr, %function
VENC_DRV_SetAttr:
.LFB2717:
	.loc 1 441 0
	.cfi_startproc
.LVL170:
	sub	sp, sp, #176
	.cfi_def_cfa_offset 176
	.loc 1 452 0
	adrp	x4, .LC37
	add	x4, x4, :lo12:.LC37
	.loc 1 441 0
	stp	x29, x30, [sp,16]
	.cfi_offset 29, -160
	.cfi_offset 30, -152
	add	x29, sp, 16
	.cfi_def_cfa 29, 160
	stp	x23, x24, [sp,64]
	.cfi_offset 23, -112
	.cfi_offset 24, -104
	adrp	x23, __stack_chk_guard
	.loc 1 452 0
	adrp	x24, .LANCHOR0
	.loc 1 441 0
	stp	x21, x22, [sp,48]
	.cfi_offset 21, -128
	.cfi_offset 22, -120
	.loc 1 450 0
	add	x22, x29, 104
	.loc 1 452 0
	add	x5, x24, :lo12:.LANCHOR0
	.loc 1 441 0
	stp	x19, x20, [sp,32]
	stp	x25, x26, [sp,80]
	stp	x27, x28, [sp,96]
	.cfi_offset 19, -144
	.cfi_offset 20, -136
	.cfi_offset 25, -96
	.cfi_offset 26, -88
	.cfi_offset 27, -80
	.cfi_offset 28, -72
	.loc 1 441 0
	mov	x19, x0
	ldr	x7, [x23,#:lo12:__stack_chk_guard]
	.loc 1 452 0
	adrp	x25, .LC0
	mov	w0, 3
.LVL171:
	add	x3, x5, 304
	.loc 1 441 0
	mov	x21, x1
	mov	x26, x2
	.loc 1 452 0
	add	x1, x25, :lo12:.LC0
.LVL172:
	mov	w2, 452
.LVL173:
	add	x5, x5, 328
	mov	x6, x19
	.loc 1 454 0 discriminator 6
	adrp	x20, .LANCHOR1
	.loc 1 450 0
	stp	xzr, xzr, [x22]
	stp	xzr, xzr, [x22,16]
	stp	xzr, xzr, [x22,32]
	.loc 1 441 0
	str	x7, [x29,152]
	.loc 1 452 0
	bl	HI_PRINT
.LVL174:
	.loc 1 454 0 discriminator 6
	add	x0, x20, :lo12:.LANCHOR1
	mov	x1, 4294967295
	cmp	x19, x1
	ldr	x1, [x0,232]
	cset	w0, ne
	.loc 1 454 0 is_stmt 0 discriminator 2
	cmp	x19, x1
	bne	.L307
	cbnz	w0, .L285
.L307:
	.loc 1 454 0 discriminator 6
	add	x1, x20, :lo12:.LANCHOR1
	ldr	x1, [x1,976]
	.loc 1 454 0 discriminator 2
	cmp	x19, x1
	bne	.L308
	cbnz	w0, .L286
.L308:
	.loc 1 454 0 discriminator 6
	add	x1, x20, :lo12:.LANCHOR1
	ldr	x1, [x1,1720]
	.loc 1 454 0 discriminator 2
	cmp	x19, x1
	bne	.L309
	cbnz	w0, .L287
.L309:
	.loc 1 454 0 discriminator 6
	add	x1, x20, :lo12:.LANCHOR1
	ldr	x1, [x1,2464]
	.loc 1 454 0 discriminator 2
	cmp	x19, x1
	bne	.L310
	cbnz	w0, .L288
.L310:
	.loc 1 454 0 discriminator 6
	add	x1, x20, :lo12:.LANCHOR1
	ldr	x1, [x1,3208]
	.loc 1 454 0 discriminator 2
	cmp	x19, x1
	bne	.L311
	cbnz	w0, .L289
.L311:
	.loc 1 454 0 discriminator 6
	add	x1, x20, :lo12:.LANCHOR1
	ldr	x1, [x1,3952]
	.loc 1 454 0 discriminator 2
	cmp	x19, x1
	bne	.L312
	cbnz	w0, .L290
.L312:
	.loc 1 454 0 discriminator 6
	add	x1, x20, :lo12:.LANCHOR1
	ldr	x1, [x1,4696]
	.loc 1 454 0 discriminator 2
	cmp	x19, x1
	bne	.L313
	cbnz	w0, .L291
.L313:
	.loc 1 454 0 discriminator 6
	add	x1, x20, :lo12:.LANCHOR1
	ldr	x1, [x1,5440]
	.loc 1 454 0 discriminator 2
	cmp	x19, x1
	bne	.L268
	cbnz	w0, .L292
.LVL175:
.L268:
	.loc 1 455 0 is_stmt 1 discriminator 1
	mov	w0, 3
.LVL176:
.L237:
	.loc 1 660 0
	ldr	x2, [x29,152]
	ldr	x1, [x23,#:lo12:__stack_chk_guard]
	cmp	x2, x1
	bne	.L376
	sub	sp, x29, #16
	.cfi_remember_state
	.cfi_def_cfa 31, 176
	ldp	x19, x20, [sp,32]
	.cfi_restore 20
	.cfi_restore 19
.LVL177:
	ldp	x21, x22, [sp,48]
	.cfi_restore 22
	.cfi_restore 21
.LVL178:
	ldp	x23, x24, [sp,64]
	.cfi_restore 24
	.cfi_restore 23
	ldp	x25, x26, [sp,80]
	.cfi_restore 26
	.cfi_restore 25
.LVL179:
	ldp	x27, x28, [sp,96]
	.cfi_restore 28
	.cfi_restore 27
.LVL180:
	ldp	x29, x30, [sp,16]
	.cfi_restore 30
	.cfi_restore 29
	add	sp, sp, 176
	.cfi_def_cfa_offset 0
	ret
.LVL181:
.L285:
	.cfi_restore_state
	.loc 1 454 0
	mov	w28, 0
.LVL182:
.L228:
	.loc 1 456 0
	cbz	x21, .L377
	.loc 1 457 0
	ldr	x2, [x19]
	cbz	x2, .L378
	.loc 1 462 0
	uxtw	x27, w28
.LVL183:
	add	x0, x20, :lo12:.LANCHOR1
	lsl	x1, x27, 5
	add	x0, x0, 208
	sub	x1, x1, x27, lsl 3
	ldr	w8, [x21,32]
	add	x0, x0, x1, lsl 5
	sub	x0, x0, x1
	ldr	w7, [x0,84]
	cmp	w7, w8
	beq	.L379
	.loc 1 468 0
	ldr	w1, [x0,4]
	cbnz	w1, .L278
.LVL184:
.L247:
	.loc 1 483 0
	add	x3, x24, :lo12:.LANCHOR0
.LVL185:
	adrp	x4, .LC39
	mov	w0, 1
	add	x1, x25, :lo12:.LC0
	mov	w5, w7
	mov	w6, w8
	mov	w2, 484
	add	x3, x3, 304
	add	x4, x4, :lo12:.LC39
	bl	HI_PRINT
.LVL186:
	lsl	x1, x27, 5
	add	x0, x20, :lo12:.LANCHOR1
	sub	x1, x1, x27, lsl 3
	add	x0, x0, 208
	ldr	w6, [x21,28]
	add	x0, x0, x1, lsl 5
	sub	x0, x0, x1
	ldr	w5, [x0,80]
.LVL187:
.L248:
	.loc 1 487 0
	cmp	w6, w5
	beq	.L365
.L282:
	.loc 1 489 0
	add	x3, x24, :lo12:.LANCHOR0
.LVL188:
	adrp	x4, .LC40
	mov	w0, 1
	add	x1, x25, :lo12:.LC0
	mov	w2, 490
	add	x3, x3, 304
	add	x4, x4, :lo12:.LC40
	bl	HI_PRINT
.LVL189:
.L365:
	ldr	w6, [x21,24]
.L249:
	.loc 1 493 0
	lsl	x1, x27, 5
	add	x0, x20, :lo12:.LANCHOR1
	sub	x1, x1, x27, lsl 3
	add	x0, x0, 208
	add	x0, x0, x1, lsl 5
	sub	x0, x0, x1
	ldr	w5, [x0,76]
	cmp	w5, w6
	beq	.L250
	.loc 1 495 0
	add	x3, x24, :lo12:.LANCHOR0
.LVL190:
	adrp	x4, .LC41
	mov	w0, 1
	add	x1, x25, :lo12:.LC0
	mov	w2, 496
	add	x3, x3, 304
	add	x4, x4, :lo12:.LC41
	bl	HI_PRINT
.LVL191:
.L250:
	.loc 1 499 0
	lsl	x1, x27, 5
	add	x0, x20, :lo12:.LANCHOR1
	sub	x1, x1, x27, lsl 3
	add	x0, x0, 208
	add	x0, x0, x1, lsl 5
	sub	x0, x0, x1
	ldr	w1, [x0,4]
	cbnz	w1, .L380
.L369:
	.loc 1 514 0
	mov	w0, 7
	b	.L237
.LVL192:
.L286:
	.loc 1 454 0 discriminator 4
	mov	w28, 1
.LVL193:
	b	.L228
.LVL194:
.L287:
	mov	w28, 2
.LVL195:
	b	.L228
.LVL196:
.L289:
	mov	w28, 4
.LVL197:
	b	.L228
.LVL198:
.L288:
	mov	w28, 3
.LVL199:
	b	.L228
.LVL200:
.L290:
	mov	w28, 5
.LVL201:
	b	.L228
.LVL202:
.L292:
	mov	w28, 7
.LVL203:
	b	.L228
.LVL204:
.L291:
	mov	w28, 6
.LVL205:
	b	.L228
.LVL206:
.L380:
	.loc 1 501 0
	ldr	w5, [x0,52]
	ldr	w6, [x21]
	cmp	w5, w6
	beq	.L252
	.loc 1 503 0
	add	x3, x24, :lo12:.LANCHOR0
.LVL207:
	adrp	x4, .LC42
	mov	w0, 1
	add	x1, x25, :lo12:.LC0
	mov	w2, 504
	add	x3, x3, 304
	add	x4, x4, :lo12:.LC42
	bl	HI_PRINT
.LVL208:
.L252:
	.loc 1 507 0
	lsl	x0, x27, 5
	add	x19, x20, :lo12:.LANCHOR1
.LVL209:
	sub	x0, x0, x27, lsl 3
	add	x19, x19, 208
	ldr	w6, [x21,4]
	add	x19, x19, x0, lsl 5
	sub	x0, x19, x0
	add	x0, x0, 48
	ldr	w5, [x0,8]
	cmp	w5, w6
	beq	.L369
	.loc 1 508 0
	ldr	w7, [x0,4]
	cmp	w7, 4
	bne	.L369
	.loc 1 510 0
	add	x3, x24, :lo12:.LANCHOR0
.LVL210:
	adrp	x4, .LC43
	mov	w0, 1
	str	w7, [sp]
	add	x1, x25, :lo12:.LC0
	mov	w2, 511
	add	x3, x3, 304
	add	x4, x4, :lo12:.LC43
	bl	HI_PRINT
.LVL211:
	.loc 1 514 0
	mov	w0, 7
	b	.L237
.LVL212:
.L278:
	.loc 1 470 0
	ldr	w0, [x0,52]
	ldr	w1, [x21]
	cmp	w0, w1
	bne	.L247
	.loc 1 474 0
	cmp	w0, 4
	.loc 1 470 0
	mov	w3, 1
.LVL213:
	.loc 1 474 0
	beq	.L283
.L244:
	.loc 1 481 0
	cmp	w7, w8
	bne	.L247
	ldr	w1, [x21,28]
.L279:
	lsl	x2, x27, 5
	add	x0, x20, :lo12:.LANCHOR1
	sub	x2, x2, x27, lsl 3
	add	x0, x0, 208
	mov	w6, w1
	add	x0, x0, x2, lsl 5
	sub	x0, x0, x2
	ldr	w5, [x0,80]
	b	.L248
.LVL214:
.L379:
	.loc 1 463 0
	ldr	w1, [x21,28]
	ldr	w5, [x0,80]
	mov	w6, w1
	cmp	w5, w1
	beq	.L381
	.loc 1 468 0
	ldr	w0, [x0,4]
	cbz	w0, .L282
.L306:
	mov	w3, 1
.LVL215:
.L275:
	.loc 1 470 0
	lsl	x4, x27, 5
	add	x0, x20, :lo12:.LANCHOR1
	sub	x4, x4, x27, lsl 3
	add	x0, x0, 208
	ldr	w6, [x21]
	add	x0, x0, x4, lsl 5
	sub	x0, x0, x4
	ldr	w5, [x0,52]
	cmp	w5, w6
	bne	.L279
	.loc 1 474 0
	cmp	w5, 4
	beq	.L283
	.loc 1 479 0
	cbnz	w3, .L244
	.loc 1 517 0
	and	w0, w5, -33
	cmp	w0, 4
	bne	.L276
.L366:
	ldr	w0, [x21,4]
.L254:
	.loc 1 538 0
	cbnz	w0, .L256
	.loc 1 540 0
	mov	w0, 1
	str	w0, [x2,152]
	.loc 1 541 0
	mov	w1, 5
	ldr	x0, [x19]
	str	w1, [x0,816]
.L257:
	.loc 1 555 0
	ldr	w0, [x21]
	cmp	w0, 4
	beq	.L382
.L259:
	.loc 1 572 0
	lsl	x0, x27, 5
	add	x1, x20, :lo12:.LANCHOR1
	sub	x0, x0, x27, lsl 3
	add	x1, x1, 208
	ldr	w3, [x21,36]
.LVL216:
	add	x2, x1, x0, lsl 5
	sub	x0, x2, x0
	add	x2, x0, 80
	ldr	w4, [x2,8]
	cmp	w4, w3
	beq	.L261
	ldr	w5, [x21,44]
	ldr	w7, [x21,40]
	ldr	w8, [x21,48]
	ldr	w6, [x21,296]
.L262:
	.loc 1 594 0
	lsl	x2, x27, 5
	add	x0, x20, :lo12:.LANCHOR1
	sub	x2, x2, x27, lsl 3
	add	x0, x0, 208
	.loc 1 588 0
	ldr	x4, [x19]
	.loc 1 594 0
	mov	x1, x22
	add	x0, x0, x2, lsl 5
	.loc 1 590 0
	ldr	w9, [x21,16]
	.loc 1 594 0
	sub	x0, x0, x2
	.loc 1 591 0
	ldr	w2, [x21,20]
	.loc 1 588 0
	ldr	w10, [x4,1580]
	.loc 1 589 0
	ldr	w4, [x4,1584]
	.loc 1 594 0
	ldr	x0, [x0,24]
	.loc 1 592 0
	str	w6, [x29,136]
	.loc 1 580 0
	str	w3, [x29,104]
	.loc 1 581 0
	str	w5, [x29,112]
	.loc 1 582 0
	str	w7, [x29,108]
	.loc 1 583 0
	str	w8, [x29,124]
	.loc 1 588 0
	str	w10, [x29,116]
	.loc 1 589 0
	str	w4, [x29,120]
	.loc 1 590 0
	str	w9, [x29,128]
	.loc 1 591 0
	str	w2, [x29,132]
	.loc 1 594 0
	bl	VENC_DRV_EflRcSetAttr
.LVL217:
	mov	w6, w0
.LVL218:
	.loc 1 595 0
	cbnz	w0, .L383
.L265:
	.loc 1 604 0
	lsl	x1, x27, 5
	add	x0, x20, :lo12:.LANCHOR1
	sub	x1, x1, x27, lsl 3
	add	x0, x0, 208
	ldrb	w2, [x21,64]
	add	x0, x0, x1, lsl 5
	sub	x0, x0, x1
	ldrb	w0, [x0,116]
	cmp	w0, w2
	beq	.L266
.LBB29:
	.loc 1 607 0 discriminator 4
	adrp	x1, .LANCHOR2
	add	x0, x1, :lo12:.LANCHOR2
	ldrsb	w3, [x1,#:lo12:.LANCHOR2]
	cmp	w28, w3
	beq	.L296
	ldrsb	w3, [x0,1]
	cmp	w28, w3
	beq	.L297
	ldrsb	w3, [x0,2]
	cmp	w28, w3
	beq	.L298
	ldrsb	w3, [x0,3]
	cmp	w28, w3
	beq	.L299
	ldrsb	w3, [x0,4]
	cmp	w28, w3
	beq	.L300
	ldrsb	w3, [x0,5]
	cmp	w28, w3
	beq	.L301
	ldrsb	w3, [x0,6]
	cmp	w28, w3
	beq	.L302
	ldrsb	w0, [x0,7]
	cmp	w28, w0
	bne	.L268
	.loc 1 607 0 is_stmt 0 discriminator 2
	mov	x0, 7
.L267:
	.loc 1 609 0 is_stmt 1
	add	x1, x1, :lo12:.LANCHOR2
.LVL219:
	add	x1, x1, x0
	strb	w2, [x1,8]
	.loc 1 610 0
	bl	VENC_DRV_EflSortPriority
.LVL220:
.L266:
.LBE29:
	.loc 1 614 0
	lsl	x0, x27, 5
	add	x20, x20, :lo12:.LANCHOR1
	sub	x0, x0, x27, lsl 3
	add	x20, x20, 208
	ldr	w1, [x21,48]
	.loc 1 628 0
	add	x22, x24, :lo12:.LANCHOR0
	.loc 1 614 0
	add	x27, x20, x0, lsl 5
	.loc 1 628 0
	add	x22, x22, 304
	.loc 1 614 0
	sub	x27, x27, x0
	.loc 1 628 0
	add	x20, x25, :lo12:.LC0
	.loc 1 615 0
	add	x28, x27, 112
.LVL221:
	.loc 1 616 0
	add	x6, x27, 80
.LVL222:
	.loc 1 614 0
	add	x5, x27, 96
	.loc 1 622 0
	add	x26, x27, 48
.LVL223:
	.loc 1 614 0
	str	w1, [x27,100]
	.loc 1 624 0
	add	x27, x27, 64
	.loc 1 628 0
	adrp	x4, .LC46
	mov	w0, 3
	.loc 1 615 0
	ldrb	w2, [x21,64]
	.loc 1 628 0
	mov	x1, x20
	.loc 1 615 0
	strb	w2, [x28,4]
	.loc 1 628 0
	mov	x3, x22
	mov	w2, 628
	add	x4, x4, :lo12:.LC46
	.loc 1 616 0
	ldr	w7, [x21,36]
	str	w7, [x6,8]
	.loc 1 617 0
	ldr	w7, [x21,44]
	str	w7, [x6,16]
	.loc 1 618 0
	ldr	w7, [x21,40]
	str	w7, [x6,12]
	.loc 1 619 0
	ldr	x6, [x19]
	ldr	w6, [x6,1580]
	str	w6, [x5,8]
	.loc 1 620 0
	ldr	x6, [x19]
	ldr	w6, [x6,1584]
	str	w6, [x5,12]
	.loc 1 621 0
	ldr	w6, [x21,60]
	str	w6, [x5,16]
	.loc 1 622 0
	ldr	w5, [x21,4]
	str	w5, [x26,8]
	.loc 1 623 0
	ldr	w5, [x21]
	str	w5, [x26,4]
	.loc 1 624 0
	ldr	w5, [x21,28]
	str	w5, [x27,16]
	.loc 1 625 0
	ldr	w5, [x21,20]
	str	w5, [x27,8]
	.loc 1 626 0
	ldr	w5, [x21,16]
	str	w5, [x27,4]
	.loc 1 628 0
	ldr	w5, [x21,8]
	bl	HI_PRINT
.LVL224:
	.loc 1 629 0
	ldr	w5, [x21,72]
	adrp	x4, .LC47
	mov	w0, 3
	mov	x1, x20
	mov	w2, 629
	mov	x3, x22
	add	x4, x4, :lo12:.LC47
	bl	HI_PRINT
.LVL225:
	.loc 1 630 0
	ldr	w5, [x21,76]
	adrp	x4, .LC48
	mov	w0, 3
	mov	x1, x20
	mov	w2, 630
	mov	x3, x22
	add	x4, x4, :lo12:.LC48
	bl	HI_PRINT
.LVL226:
	.loc 1 632 0
	ldr	w0, [x21,8]
	str	w0, [x26,12]
	.loc 1 633 0
	ldr	w0, [x21,72]
	str	w0, [x28,12]
	.loc 1 634 0
	ldr	w0, [x21,76]
	str	w0, [x28,16]
	.loc 1 636 0
	ldr	w0, [x21,332]
	str	w0, [x19,7028]
	.loc 1 642 0
	ldr	w0, [x21,60]
	str	w0, [x19,7036]
	.loc 1 644 0
	ldr	w0, [x21]
	cmp	w0, 36
	beq	.L384
.L269:
	.loc 1 658 0
	add	x5, x24, :lo12:.LANCHOR0
	adrp	x4, .LC50
	mov	w0, 3
	add	x3, x5, 304
	add	x1, x25, :lo12:.LC0
	mov	w2, 658
	add	x4, x4, :lo12:.LC50
	add	x5, x5, 328
	mov	x6, x19
	bl	HI_PRINT
.LVL227:
	.loc 1 659 0
	mov	w0, 0
	b	.L237
.LVL228:
.L276:
	.loc 1 519 0
	add	x3, x24, :lo12:.LANCHOR0
.LVL229:
	adrp	x4, .LC44
	mov	w0, 1
	add	x1, x25, :lo12:.LC0
	mov	w2, 519
	add	x3, x3, 304
	add	x4, x4, :lo12:.LC44
	bl	HI_PRINT
.LVL230:
	.loc 1 520 0
	mov	w0, 7
	b	.L237
.LVL231:
.L256:
	.loc 1 543 0
	cmp	w0, 1
	beq	.L385
	.loc 1 548 0
	cmp	w0, 3
	bne	.L257
	.loc 1 550 0
	str	wzr, [x2,152]
	.loc 1 551 0
	mov	w1, 15
	ldr	x0, [x19]
	str	w1, [x0,816]
	b	.L257
.LVL232:
.L261:
	.loc 1 573 0
	ldr	w4, [x2,16]
	ldr	w5, [x21,44]
	cmp	w4, w5
	beq	.L263
	ldr	w7, [x21,40]
	ldr	w8, [x21,48]
	ldr	w6, [x21,296]
	b	.L262
.LVL233:
.L283:
	.loc 1 474 0 discriminator 1
	lsl	x4, x27, 5
	add	x1, x20, :lo12:.LANCHOR1
	sub	x4, x4, x27, lsl 3
	add	x1, x1, 208
	ldr	w0, [x21,4]
	add	x1, x1, x4, lsl 5
	sub	x1, x1, x4
	ldr	w1, [x1,56]
	cmp	w1, w0
	bne	.L244
	.loc 1 479 0
	cbz	w3, .L254
	b	.L244
.L382:
	.loc 1 555 0 discriminator 1
	lsl	x1, x27, 5
	add	x0, x20, :lo12:.LANCHOR1
	sub	x1, x1, x27, lsl 3
	add	x0, x0, 208
	ldr	w2, [x21,4]
	add	x0, x0, x1, lsl 5
	sub	x0, x0, x1
	ldr	w0, [x0,56]
	cmp	w0, w2
	beq	.L259
	.loc 1 558 0
	ldr	x0, [x19]
	cmp	w2, wzr
	.loc 1 557 0
	str	w2, [x19,2584]
	.loc 1 558 0
	cset	w2, eq
	.loc 1 559 0
	mov	w1, 41984
	.loc 1 558 0
	str	w2, [x0,164]
	.loc 1 559 0
	movk	w1, 0x1f, lsl 16
	ldr	w0, [x21,20]
	ldr	w2, [x21,16]
	mul	w0, w0, w2
	cmp	w0, w1
	bls	.L260
	.loc 1 561 0
	ldr	x0, [x19]
	mov	w1, 1
	str	w1, [x0,164]
.L260:
	.loc 1 565 0
	mov	x0, x19
	bl	VENC_DRV_EflFlushStrmHeader
.LVL234:
	.loc 1 566 0
	mov	w0, 1
	str	w0, [x19,1376]
	b	.L259
.L381:
	.loc 1 464 0
	ldr	w3, [x0,76]
	ldr	w6, [x21,24]
	cmp	w3, w6
	beq	.L386
	.loc 1 468 0
	ldr	w0, [x0,4]
	cbnz	w0, .L306
	b	.L249
.L263:
	.loc 1 574 0
	ldr	w2, [x2,12]
	ldr	w7, [x21,40]
	cmp	w2, w7
	beq	.L264
	ldr	w8, [x21,48]
	ldr	w6, [x21,296]
	b	.L262
.LVL235:
.L385:
	.loc 1 545 0
	str	w0, [x2,152]
	.loc 1 546 0
	mov	w1, 5
	ldr	x0, [x19]
	str	w1, [x0,816]
	b	.L257
.LVL236:
.L384:
	.loc 1 646 0
	ldr	w1, [x21,44]
	cmp	w1, 239
	bhi	.L387
	.loc 1 648 0
	cmp	w1, 119
	bls	.L269
	ldr	w0, [x27,8]
	.loc 1 648 0 is_stmt 0 discriminator 1
	mov	w1, 41983
	ldr	w2, [x27,4]
	movk	w1, 0x1f, lsl 16
	mul	w0, w0, w2
	cmp	w0, w1
	bls	.L269
.L271:
	.loc 1 650 0 is_stmt 1
	add	x5, x24, :lo12:.LANCHOR0
	adrp	x4, .LC49
	add	x1, x25, :lo12:.LC0
	add	x3, x5, 304
	mov	w0, 3
	mov	w2, 650
	add	x4, x4, :lo12:.LC49
	add	x5, x5, 328
	bl	HI_PRINT
.LVL237:
	.loc 1 651 0
	ldr	x2, [x19]
	.loc 1 653 0
	mov	w1, 1
	.loc 1 651 0
	ldr	w0, [x2,816]
	and	w0, w0, 14
	str	w0, [x2,816]
	.loc 1 652 0
	ldr	x0, [x19]
	str	wzr, [x0,172]
	.loc 1 653 0
	ldr	x0, [x19]
	bl	check_enc_para
.LVL238:
	b	.L269
.LVL239:
.L386:
	.loc 1 468 0
	ldr	w3, [x0,4]
	cbz	w3, .L388
	.loc 1 444 0
	mov	w3, 0
.LVL240:
	b	.L275
.LVL241:
.L388:
	ldr	w5, [x21]
	.loc 1 517 0
	and	w1, w5, -33
	cmp	w1, 4
	bne	.L276
	.loc 1 524 0
	ldr	w0, [x0,52]
	cmp	w0, w5
	beq	.L366
	.loc 1 526 0
	cbz	x26, .L389
	.loc 1 527 0
	cmp	w5, 4
	.loc 1 535 0
	mov	w1, 1
	.loc 1 527 0
	cset	w0, eq
	.loc 1 535 0
	str	w1, [x19,1376]
	str	w0, [x19,872]
	ldr	w0, [x21,4]
	b	.L254
.L264:
	.loc 1 575 0
	add	x0, x0, 96
	ldr	w8, [x21,48]
	ldr	w2, [x0,4]
	cmp	w2, w8
	beq	.L390
.L368:
	ldr	w6, [x21,296]
	b	.L262
.L390:
	.loc 1 576 0
	ldr	w2, [x0,8]
	ldr	w0, [x21,52]
	cmp	w2, w0
	bne	.L368
	.loc 1 577 0
	mov	x0, 744
	ldr	w2, [x21,56]
	nop // between mem op and mult-accumulate
	madd	x1, x27, x0, x1
	ldr	w0, [x1,108]
	cmp	w0, w2
	bne	.L368
	.loc 1 578 0
	ldr	w0, [x1,348]
	ldr	w6, [x21,296]
	cmp	w0, w6
	bne	.L262
	b	.L265
.LVL242:
.L387:
	.loc 1 646 0 discriminator 1
	ldr	w0, [x27,8]
	mov	w2, 4095
	ldr	w3, [x27,4]
	movk	w2, 0xe, lsl 16
	mul	w0, w0, w3
	cmp	w0, w2
	bhi	.L271
	.loc 1 647 0 discriminator 1
	mov	w2, 56319
	movk	w2, 0x5, lsl 16
	cmp	w0, w2
	bls	.L269
	cmp	w1, 359
	bhi	.L271
	b	.L269
.LVL243:
.L298:
.LBB30:
	.loc 1 607 0 discriminator 2
	mov	x0, 2
	b	.L267
.L297:
	mov	x0, 1
	b	.L267
.L296:
	.loc 1 607 0 is_stmt 0 discriminator 4
	mov	x0, 0
	b	.L267
.L299:
	.loc 1 607 0 discriminator 2
	mov	x0, 3
	b	.L267
.L302:
	mov	x0, 6
	b	.L267
.L301:
	mov	x0, 5
	b	.L267
.L300:
	mov	x0, 4
	b	.L267
.LVL244:
.L383:
.LBE30:
	.loc 1 597 0 is_stmt 1
	add	x5, x24, :lo12:.LANCHOR0
	adrp	x4, .LC45
	mov	w0, 1
.LVL245:
	add	x3, x5, 304
	add	x1, x25, :lo12:.LC0
	mov	w2, 597
	add	x4, x4, :lo12:.LC45
	add	x5, x5, 328
	bl	HI_PRINT
.LVL246:
	.loc 1 598 0
	mov	w0, -1
	b	.L237
.L389:
	.loc 1 526 0 discriminator 1
	adrp	x0, .LC6
	adrp	x1, .LC9
	add	x0, x0, :lo12:.LC6
	add	x1, x1, :lo12:.LC9
	bl	printk
.LVL247:
	mov	w0, 11
	.loc 1 526 0 is_stmt 0
	b	.L237
.LVL248:
.L376:
	.loc 1 660 0 is_stmt 1
	bl	__stack_chk_fail
.LVL249:
.L378:
	.loc 1 457 0 discriminator 1
	adrp	x0, .LC6
	adrp	x1, .LC38
	add	x0, x0, :lo12:.LC6
	add	x1, x1, :lo12:.LC38
	bl	printk
.LVL250:
	mov	w0, 11
	.loc 1 457 0 is_stmt 0
	b	.L237
.L377:
	.loc 1 456 0 is_stmt 1 discriminator 1
	adrp	x0, .LC6
	adrp	x1, .LC8
	add	x0, x0, :lo12:.LC6
	add	x1, x1, :lo12:.LC8
	bl	printk
.LVL251:
	mov	w0, 11
	.loc 1 456 0 is_stmt 0
	b	.L237
	.cfi_endproc
.LFE2717:
	.size	VENC_DRV_SetAttr, .-VENC_DRV_SetAttr
	.align	2
	.global	VENC_DRV_GetAttr
	.type	VENC_DRV_GetAttr, %function
VENC_DRV_GetAttr:
.LFB2718:
	.loc 1 663 0 is_stmt 1
	.cfi_startproc
.LVL252:
	stp	x29, x30, [sp, -48]!
	.cfi_def_cfa_offset 48
	.cfi_offset 29, -48
	.cfi_offset 30, -40
	.loc 1 667 0
	adrp	x4, .LC33
	mov	w2, 667
	.loc 1 663 0
	add	x29, sp, 0
	.cfi_def_cfa_register 29
	stp	x19, x20, [sp,16]
	.cfi_offset 19, -32
	.cfi_offset 20, -24
	.loc 1 667 0
	adrp	x20, .LANCHOR0
	.loc 1 663 0
	mov	x19, x0
	stp	x21, x22, [sp,32]
	.cfi_offset 21, -16
	.cfi_offset 22, -8
	.loc 1 667 0
	add	x5, x20, :lo12:.LANCHOR0
	adrp	x21, .LC0
	mov	w0, 3
.LVL253:
	add	x3, x5, 352
	.loc 1 663 0
	mov	x22, x1
	.loc 1 667 0
	add	x4, x4, :lo12:.LC33
	add	x1, x21, :lo12:.LC0
.LVL254:
	add	x5, x5, 376
	mov	x6, x19
	bl	HI_PRINT
.LVL255:
	.loc 1 668 0 discriminator 6
	adrp	x0, .LANCHOR1
	mov	x1, 4294967295
	add	x2, x0, :lo12:.LANCHOR1
	cmp	x19, x1
	cset	w1, ne
	ldr	x2, [x2,232]
	.loc 1 668 0 is_stmt 0 discriminator 2
	cmp	x19, x2
	bne	.L412
	cbnz	w1, .L404
.L412:
	.loc 1 668 0 discriminator 6
	add	x2, x0, :lo12:.LANCHOR1
	ldr	x2, [x2,976]
	.loc 1 668 0 discriminator 2
	cmp	x19, x2
	bne	.L413
	cbnz	w1, .L405
.L413:
	.loc 1 668 0 discriminator 6
	add	x2, x0, :lo12:.LANCHOR1
	ldr	x2, [x2,1720]
	.loc 1 668 0 discriminator 2
	cmp	x19, x2
	bne	.L414
	cbnz	w1, .L406
.L414:
	.loc 1 668 0 discriminator 6
	add	x2, x0, :lo12:.LANCHOR1
	ldr	x2, [x2,2464]
	.loc 1 668 0 discriminator 2
	cmp	x19, x2
	bne	.L415
	cbnz	w1, .L407
.L415:
	.loc 1 668 0 discriminator 6
	add	x2, x0, :lo12:.LANCHOR1
	ldr	x2, [x2,3208]
	.loc 1 668 0 discriminator 2
	cmp	x19, x2
	bne	.L416
	cbnz	w1, .L408
.L416:
	.loc 1 668 0 discriminator 6
	add	x2, x0, :lo12:.LANCHOR1
	ldr	x2, [x2,3952]
	.loc 1 668 0 discriminator 2
	cmp	x19, x2
	bne	.L417
	cbnz	w1, .L409
.L417:
	.loc 1 668 0 discriminator 6
	add	x2, x0, :lo12:.LANCHOR1
	ldr	x2, [x2,4696]
	.loc 1 668 0 discriminator 2
	cmp	x19, x2
	bne	.L418
	cbnz	w1, .L410
.L418:
	.loc 1 668 0 discriminator 6
	add	x2, x0, :lo12:.LANCHOR1
	ldr	x2, [x2,5440]
	.loc 1 668 0 discriminator 2
	cmp	x19, x2
	bne	.L419
	cbnz	w1, .L411
.L419:
	.loc 1 669 0 is_stmt 1 discriminator 1
	mov	w0, 3
.L444:
	.loc 1 676 0
	ldp	x19, x20, [sp,16]
	.cfi_remember_state
	.cfi_restore 20
	.cfi_restore 19
.LVL256:
	ldp	x21, x22, [sp,32]
	.cfi_restore 22
	.cfi_restore 21
.LVL257:
	ldp	x29, x30, [sp], 48
	.cfi_restore 30
	.cfi_restore 29
	.cfi_def_cfa 31, 0
	ret
.LVL258:
.L404:
	.cfi_restore_state
	.loc 1 668 0
	mov	x2, 0
.L392:
	.loc 1 670 0
	cbz	x22, .L447
.LVL259:
	.loc 1 673 0
	lsl	x3, x2, 5
	add	x0, x0, :lo12:.LANCHOR1
	sub	x3, x3, x2, lsl 3
	add	x1, x0, 208
	mov	x2, 352
.LVL260:
	mov	x0, x22
	add	x1, x1, x3, lsl 5
	sub	x1, x1, x3
	add	x1, x1, 52
	bl	memcpy
.LVL261:
	.loc 1 674 0
	add	x5, x20, :lo12:.LANCHOR0
	adrp	x4, .LC50
	add	x1, x21, :lo12:.LC0
	add	x3, x5, 352
	mov	x6, x19
	mov	w0, 3
	mov	w2, 674
	add	x4, x4, :lo12:.LC50
	add	x5, x5, 376
	bl	HI_PRINT
.LVL262:
	.loc 1 675 0
	mov	w0, 0
	.loc 1 676 0
	ldp	x19, x20, [sp,16]
	.cfi_remember_state
	.cfi_restore 19
	.cfi_restore 20
.LVL263:
	ldp	x21, x22, [sp,32]
	.cfi_restore 21
	.cfi_restore 22
.LVL264:
	ldp	x29, x30, [sp], 48
	.cfi_restore 29
	.cfi_restore 30
	.cfi_def_cfa 31, 0
	ret
.LVL265:
.L405:
	.cfi_restore_state
	.loc 1 668 0 discriminator 4
	mov	x2, 1
	b	.L392
.L406:
	mov	x2, 2
	b	.L392
.L407:
	mov	x2, 3
	b	.L392
.L408:
	mov	x2, 4
	b	.L392
.L409:
	mov	x2, 5
	b	.L392
.L411:
	mov	x2, 7
	b	.L392
.L410:
	mov	x2, 6
	b	.L392
.L447:
	.loc 1 670 0 discriminator 1
	adrp	x0, .LC6
	adrp	x1, .LC8
	add	x0, x0, :lo12:.LC6
	add	x1, x1, :lo12:.LC8
	bl	printk
.LVL266:
	mov	w0, 11
	.loc 1 670 0 is_stmt 0
	b	.L444
	.cfi_endproc
.LFE2718:
	.size	VENC_DRV_GetAttr, .-VENC_DRV_GetAttr
	.align	2
	.global	VENC_DRV_RequestIFrame
	.type	VENC_DRV_RequestIFrame, %function
VENC_DRV_RequestIFrame:
.LFB2719:
	.loc 1 679 0 is_stmt 1
	.cfi_startproc
.LVL267:
	stp	x29, x30, [sp, -48]!
	.cfi_def_cfa_offset 48
	.cfi_offset 29, -48
	.cfi_offset 30, -40
	.loc 1 684 0
	adrp	x4, .LC33
	mov	w2, 684
	.loc 1 679 0
	add	x29, sp, 0
	.cfi_def_cfa_register 29
	stp	x19, x20, [sp,16]
	.cfi_offset 19, -32
	.cfi_offset 20, -24
	.loc 1 684 0
	adrp	x20, .LANCHOR0
	.loc 1 679 0
	mov	x19, x0
	str	x21, [sp,32]
	.cfi_offset 21, -16
	.loc 1 684 0
	add	x5, x20, :lo12:.LANCHOR0
	adrp	x21, .LC0
	mov	w0, 3
.LVL268:
	add	x1, x21, :lo12:.LC0
	add	x3, x5, 400
	add	x4, x4, :lo12:.LC33
	add	x5, x5, 424
	mov	x6, x19
	bl	HI_PRINT
.LVL269:
	.loc 1 685 0 discriminator 6
	adrp	x1, .LANCHOR1
	mov	x2, 4294967295
	add	x0, x1, :lo12:.LANCHOR1
	cmp	x19, x2
	cset	w2, ne
	ldr	x0, [x0,232]
	.loc 1 685 0 is_stmt 0 discriminator 2
	cmp	x19, x0
	bne	.L461
	cbnz	w2, .L449
.L461:
	.loc 1 685 0 discriminator 6
	add	x0, x1, :lo12:.LANCHOR1
	ldr	x0, [x0,976]
	.loc 1 685 0 discriminator 2
	cmp	x19, x0
	bne	.L462
	cbnz	w2, .L449
.L462:
	.loc 1 685 0 discriminator 6
	add	x0, x1, :lo12:.LANCHOR1
	ldr	x0, [x0,1720]
	.loc 1 685 0 discriminator 2
	cmp	x19, x0
	bne	.L463
	cbnz	w2, .L449
.L463:
	.loc 1 685 0 discriminator 6
	add	x0, x1, :lo12:.LANCHOR1
	ldr	x0, [x0,2464]
	.loc 1 685 0 discriminator 2
	cmp	x19, x0
	bne	.L464
	cbnz	w2, .L449
.L464:
	.loc 1 685 0 discriminator 6
	add	x0, x1, :lo12:.LANCHOR1
	ldr	x0, [x0,3208]
	.loc 1 685 0 discriminator 2
	cmp	x19, x0
	bne	.L465
	cbnz	w2, .L449
.L465:
	.loc 1 685 0 discriminator 6
	add	x0, x1, :lo12:.LANCHOR1
	ldr	x0, [x0,3952]
	.loc 1 685 0 discriminator 2
	cmp	x19, x0
	bne	.L466
	cbnz	w2, .L449
.L466:
	.loc 1 685 0 discriminator 6
	add	x0, x1, :lo12:.LANCHOR1
	ldr	x0, [x0,4696]
	.loc 1 685 0 discriminator 2
	cmp	x19, x0
	bne	.L467
	cbnz	w2, .L449
.L467:
	.loc 1 685 0 discriminator 6
	add	x1, x1, :lo12:.LANCHOR1
	ldr	x0, [x1,5440]
	.loc 1 685 0 discriminator 2
	cmp	x19, x0
	bne	.L468
	cbnz	w2, .L449
.L468:
	.loc 1 686 0 is_stmt 1 discriminator 1
	mov	w0, 3
.L493:
	.loc 1 698 0
	ldp	x19, x20, [sp,16]
	.cfi_remember_state
	.cfi_restore 20
	.cfi_restore 19
.LVL270:
	ldr	x21, [sp,32]
	.cfi_restore 21
	ldp	x29, x30, [sp], 48
	.cfi_restore 30
	.cfi_restore 29
	.cfi_def_cfa 31, 0
	ret
.LVL271:
.L449:
	.cfi_restore_state
	.loc 1 689 0
	bl	VENC_DRV_EflRequestIframe
.LVL272:
	mov	w6, w0
.LVL273:
	.loc 1 690 0
	cbnz	w0, .L496
	.loc 1 696 0
	add	x5, x20, :lo12:.LANCHOR0
	adrp	x4, .LC50
	add	x1, x21, :lo12:.LC0
	add	x3, x5, 400
	mov	x6, x19
	mov	w0, 3
.LVL274:
	mov	w2, 696
	add	x4, x4, :lo12:.LC50
	add	x5, x5, 424
	bl	HI_PRINT
.LVL275:
	.loc 1 698 0
	ldr	x21, [sp,32]
	.cfi_remember_state
	.cfi_restore 21
	.loc 1 697 0
	mov	w0, 0
	.loc 1 698 0
	ldp	x19, x20, [sp,16]
	.cfi_restore 19
	.cfi_restore 20
.LVL276:
	ldp	x29, x30, [sp], 48
	.cfi_restore 29
	.cfi_restore 30
	.cfi_def_cfa 31, 0
	ret
.LVL277:
.L496:
	.cfi_restore_state
	.loc 1 692 0
	add	x5, x20, :lo12:.LANCHOR0
	adrp	x4, .LC51
	mov	w0, 1
.LVL278:
	add	x3, x5, 400
	add	x1, x21, :lo12:.LC0
	mov	w2, 692
	add	x4, x4, :lo12:.LC51
	add	x5, x5, 424
	bl	HI_PRINT
.LVL279:
	.loc 1 693 0
	mov	w0, -1
	b	.L493
	.cfi_endproc
.LFE2719:
	.size	VENC_DRV_RequestIFrame, .-VENC_DRV_RequestIFrame
	.global	b_Regular_down_flag
	.global	cur_handle_num
	.global	h_pre_enc_handle
	.global	pre_enc_protocol
	.global	PriorityTab
	.global	g_SendFrame_Lock
	.global	g_stVencChn
	.section	.rodata
	.align	3
.LANCHOR0 = . + 0
	.type	__FUNCTION__.45993, %object
	.size	__FUNCTION__.45993, 19
__FUNCTION__.45993:
	.string	"VENC_DRV_BoardInit"
	.zero	5
	.type	__func__.45994, %object
	.size	__func__.45994, 19
__func__.45994:
	.string	"VENC_DRV_BoardInit"
	.zero	5
	.type	__FUNCTION__.46002, %object
	.size	__FUNCTION__.46002, 21
__FUNCTION__.46002:
	.string	"VENC_DRV_BoardDeinit"
	.zero	3
	.type	__func__.46003, %object
	.size	__func__.46003, 21
__func__.46003:
	.string	"VENC_DRV_BoardDeinit"
	.zero	3
	.type	__FUNCTION__.46016, %object
	.size	__FUNCTION__.46016, 19
__FUNCTION__.46016:
	.string	"VENC_DRV_CreateChn"
	.zero	5
	.type	__func__.46020, %object
	.size	__func__.46020, 19
__func__.46020:
	.string	"VENC_DRV_CreateChn"
	.zero	5
	.type	__FUNCTION__.46036, %object
	.size	__FUNCTION__.46036, 20
__FUNCTION__.46036:
	.string	"VENC_DRV_DestroyChn"
	.zero	4
	.type	__func__.46037, %object
	.size	__func__.46037, 20
__func__.46037:
	.string	"VENC_DRV_DestroyChn"
	.zero	4
	.type	__FUNCTION__.46052, %object
	.size	__FUNCTION__.46052, 25
__FUNCTION__.46052:
	.string	"VENC_DRV_StartReceivePic"
	.zero	7
	.type	__func__.46053, %object
	.size	__func__.46053, 25
__func__.46053:
	.string	"VENC_DRV_StartReceivePic"
	.zero	7
	.type	__FUNCTION__.46059, %object
	.size	__FUNCTION__.46059, 24
__FUNCTION__.46059:
	.string	"VENC_DRV_StopReceivePic"
	.type	__func__.46060, %object
	.size	__func__.46060, 24
__func__.46060:
	.string	"VENC_DRV_StopReceivePic"
	.type	__FUNCTION__.46076, %object
	.size	__FUNCTION__.46076, 17
__FUNCTION__.46076:
	.string	"VENC_DRV_SetAttr"
	.zero	7
	.type	__func__.46077, %object
	.size	__func__.46077, 17
__func__.46077:
	.string	"VENC_DRV_SetAttr"
	.zero	7
	.type	__FUNCTION__.46091, %object
	.size	__FUNCTION__.46091, 17
__FUNCTION__.46091:
	.string	"VENC_DRV_GetAttr"
	.zero	7
	.type	__func__.46092, %object
	.size	__func__.46092, 17
__func__.46092:
	.string	"VENC_DRV_GetAttr"
	.zero	7
	.type	__FUNCTION__.46102, %object
	.size	__FUNCTION__.46102, 23
__FUNCTION__.46102:
	.string	"VENC_DRV_RequestIFrame"
	.zero	1
	.type	__func__.46103, %object
	.size	__func__.46103, 23
__func__.46103:
	.string	"VENC_DRV_RequestIFrame"
	.data
	.align	3
.LANCHOR2 = . + 0
	.type	PriorityTab, %object
	.size	PriorityTab, 16
PriorityTab:
	.byte	-1
	.byte	-1
	.byte	-1
	.byte	-1
	.byte	-1
	.byte	-1
	.byte	-1
	.byte	-1
	.zero	8
	.section	.rodata.str1.8,"aMS",%progbits,1
	.align	3
.LC0:
	.string	"/mnt/disk/jenkins/ci/workspace/chipset_release_960_xloader/opensource/component_code/vendor/huawei/extra/build/build_script/kirin_kernel_release/kernel/drivers/vcodec/hi_vcodec/venc/drv/venc/drv_venc.c"
	.zero	6
.LC1:
	.string	"enter %s()\n"
	.zero	4
.LC2:
	.string	"%s, enable regulator failed!\n"
	.zero	2
.LC3:
	.string	"&(&g_SendFrame_Lock[i])->rlock"
	.zero	1
.LC4:
	.string	"exit %s ()\n"
	.zero	4
.LC5:
	.string	"enter %s ()\n"
	.zero	3
.LC6:
	.string	"PTR '%s' is NULL.\n"
	.zero	5
.LC7:
	.string	"phVencChn"
	.zero	6
.LC8:
	.string	"pstAttr"
.LC9:
	.string	"pstVeInfo"
	.zero	6
.LC10:
	.string	"enter,phVencChn:0x%x, pstAttr->enVencType:%d\n"
	.zero	2
.LC11:
	.string	"%s, Not have free handle! \n"
	.zero	4
.LC12:
	.string	"%s, Not recognise VencType:%d! \n"
	.zero	7
.LC13:
	.string	"channel:0x%x create  failed,i:%d\n"
	.zero	6
.LC14:
	.string	"stRcAttrCfg.InFrmRate:%d\n"
	.zero	6
.LC15:
	.string	"stRcAttrCfg.Gop:%d\n"
	.zero	4
.LC16:
	.string	"stRcAttrCfg.BitRate:%d\n"
.LC17:
	.string	"stRcAttrCfg.MinQp:%d\n"
	.zero	2
.LC18:
	.string	"stRcAttrCfg.MaxQp:%d\n"
	.zero	2
.LC19:
	.string	"stRcAttrCfg.SkipFrameEn:%d\n"
	.zero	4
.LC20:
	.string	"%s, set rc err:%#x.\n"
	.zero	3
.LC21:
	.string	"exit %s, phVencChn:0x%x\n"
	.zero	7
.LC22:
	.string	"venc_proc_chn%02d.yuv"
	.zero	2
.LC23:
	.string	"%s, Snprintf failed!\n"
	.zero	2
.LC24:
	.string	"venc_proc_chn%02d.h264"
	.zero	1
.LC25:
	.string	"create channel success phVencChn = 0x%x, width = %d,  height = %d, frameRate = %d, biteRate = %d, Gop = %d\n"
	.zero	4
.LC26:
	.string	"Destroy channel when VENC is run.\n"
	.zero	5
.LC27:
	.string	"%s, destroy channel failed,hVencChn:0x%x\n"
	.zero	6
.LC28:
	.string	"destroy channel success, hVencChn:0x%x\n"
.LC29:
	.string	"enter %s, VencChn:0x%x \n"
	.zero	7
.LC30:
	.string	"%s, start Chn %d/%#x. OK\n"
	.zero	6
.LC31:
	.string	"start receive picture, EncHandle : 0x%x!!\n"
	.zero	5
.LC32:
	.string	"enter %s,EncHandle:0x%x\n"
	.zero	7
.LC33:
	.string	"enter %s, EncHandle:0x%x\n"
	.zero	6
.LC34:
	.string	"Channel already disable, send back the VENC_MSG_RESP_STOP_DONE\n"
.LC35:
	.string	"%s, stop Chn %d/%#x. OK\n"
	.zero	7
.LC36:
	.string	"venc drv stop receive picture, EncHandle:0x%x\n"
	.zero	1
.LC37:
	.string	"enter %s, ,EncHandle:0x%x\n"
	.zero	5
.LC38:
	.string	"pstEncChnPara->pstCfg_EncPara"
	.zero	2
.LC39:
	.string	"VENC not support this active change bSlcSplitEn:(%d -> %d)!\n"
	.zero	3
.LC40:
	.string	"VENC not support this active change u32RotationAngle:(%d -> %d)!\n"
	.zero	6
.LC41:
	.string	"VENC not support this active change u32StrmBufSize:(%d -> %d)!\n"
.LC42:
	.string	"VENC not support this active change enVencType:(%d -> %d)!\n"
	.zero	4
.LC43:
	.string	"VENC not support this active change enVencProfile:(%d -> %d)! enVencType(%d,%d)\n"
	.zero	7
.LC44:
	.string	"VENC not support creat this VencType:%d\n"
	.zero	7
.LC45:
	.string	"%s, config venc Rate Control Attribute err:%#x.\n"
	.zero	7
.LC46:
	.string	"enVencHevcProfile:%d\n"
	.zero	2
.LC47:
	.string	"h264Level:%d\n"
	.zero	2
.LC48:
	.string	"h265Level:%d\n"
	.zero	2
.LC49:
	.string	"%s, High FrameRate Mode!\n"
	.zero	6
.LC50:
	.string	"exit %s, EncHandle:0x%x\n"
	.zero	7
.LC51:
	.string	"%s, request IFrame err:%#x.\n"
	.bss
	.align	3
.LANCHOR1 = . + 0
	.type	pre_enc_protocol, %object
	.size	pre_enc_protocol, 4
pre_enc_protocol:
	.zero	4
	.zero	4
	.type	h_pre_enc_handle, %object
	.size	h_pre_enc_handle, 8
h_pre_enc_handle:
	.zero	8
	.type	g_SendFrame_Lock, %object
	.size	g_SendFrame_Lock, 192
g_SendFrame_Lock:
	.zero	192
	.type	__key.45995, %object
	.size	__key.45995, 0
__key.45995:
	.type	g_stVencChn, %object
	.size	g_stVencChn, 5952
g_stVencChn:
	.zero	5952
	.type	b_Regular_down_flag, %object
	.size	b_Regular_down_flag, 4
b_Regular_down_flag:
	.zero	4
	.type	cur_handle_num, %object
	.size	cur_handle_num, 4
cur_handle_num:
	.zero	4
	.text
.Letext0:
	.file 3 "/mnt/disk/jenkins/ci/workspace/chipset_release_960_xloader/opensource/component_code/vendor/huawei/extra/build/build_script/kirin_kernel_release/kernel/include/uapi/asm-generic/int-ll64.h"
	.file 4 "/mnt/disk/jenkins/ci/workspace/chipset_release_960_xloader/opensource/component_code/vendor/huawei/extra/build/build_script/kirin_kernel_release/kernel/include/asm-generic/int-ll64.h"
	.file 5 "/mnt/disk/jenkins/ci/workspace/chipset_release_960_xloader/opensource/component_code/vendor/huawei/extra/build/build_script/kirin_kernel_release/kernel/include/uapi/asm-generic/posix_types.h"
	.file 6 "/mnt/disk/jenkins/ci/workspace/chipset_release_960_xloader/opensource/component_code/vendor/huawei/extra/build/build_script/kirin_kernel_release/kernel/include/linux/types.h"
	.file 7 "/mnt/disk/jenkins/ci/workspace/chipset_release_960_xloader/opensource/component_code/vendor/huawei/extra/build/build_script/kirin_kernel_release/kernel/include/linux/jump_label.h"
	.file 8 "/mnt/disk/jenkins/ci/workspace/chipset_release_960_xloader/opensource/component_code/vendor/huawei/extra/build/build_script/kirin_kernel_release/kernel/include/asm-generic/atomic-long.h"
	.file 9 "/mnt/disk/jenkins/ci/workspace/chipset_release_960_xloader/opensource/component_code/vendor/huawei/extra/build/build_script/kirin_kernel_release/kernel/include/linux/restart_block.h"
	.file 10 "/mnt/disk/jenkins/ci/workspace/chipset_release_960_xloader/opensource/component_code/vendor/huawei/extra/build/build_script/kirin_kernel_release/kernel/include/uapi/linux/time.h"
	.file 11 "/mnt/disk/jenkins/ci/workspace/chipset_release_960_xloader/opensource/component_code/vendor/huawei/extra/build/build_script/kirin_kernel_release/kernel/arch/arm64/include/asm/compat.h"
	.file 12 "/mnt/disk/jenkins/ci/workspace/chipset_release_960_xloader/opensource/component_code/vendor/huawei/extra/build/build_script/kirin_kernel_release/kernel/arch/arm64/include/asm/thread_info.h"
	.file 13 "/mnt/disk/jenkins/ci/workspace/chipset_release_960_xloader/opensource/component_code/vendor/huawei/extra/build/build_script/kirin_kernel_release/kernel/arch/arm64/include/uapi/asm/ptrace.h"
	.file 14 "/mnt/disk/jenkins/ci/workspace/chipset_release_960_xloader/opensource/component_code/vendor/huawei/extra/build/build_script/kirin_kernel_release/kernel/arch/arm64/include/asm/spinlock_types.h"
	.file 15 "/mnt/disk/jenkins/ci/workspace/chipset_release_960_xloader/opensource/component_code/vendor/huawei/extra/build/build_script/kirin_kernel_release/kernel/include/linux/spinlock_types.h"
	.file 16 "/mnt/disk/jenkins/ci/workspace/chipset_release_960_xloader/opensource/component_code/vendor/huawei/extra/build/build_script/kirin_kernel_release/kernel/include/linux/rwlock_types.h"
	.file 17 "/mnt/disk/jenkins/ci/workspace/chipset_release_960_xloader/opensource/component_code/vendor/huawei/extra/build/build_script/kirin_kernel_release/kernel/arch/arm64/include/asm/fpsimd.h"
	.file 18 "/mnt/disk/jenkins/ci/workspace/chipset_release_960_xloader/opensource/component_code/vendor/huawei/extra/build/build_script/kirin_kernel_release/kernel/arch/arm64/include/asm/processor.h"
	.file 19 "/mnt/disk/jenkins/ci/workspace/chipset_release_960_xloader/opensource/component_code/vendor/huawei/extra/build/build_script/kirin_kernel_release/kernel/include/linux/wait.h"
	.file 20 "/mnt/disk/jenkins/ci/workspace/chipset_release_960_xloader/opensource/component_code/vendor/huawei/extra/build/build_script/kirin_kernel_release/kernel/include/linux/cpumask.h"
	.file 21 "/mnt/disk/jenkins/ci/workspace/chipset_release_960_xloader/opensource/component_code/vendor/huawei/extra/build/build_script/kirin_kernel_release/kernel/include/linux/seqlock.h"
	.file 22 "/mnt/disk/jenkins/ci/workspace/chipset_release_960_xloader/opensource/component_code/vendor/huawei/extra/build/build_script/kirin_kernel_release/kernel/include/linux/completion.h"
	.file 23 "/mnt/disk/jenkins/ci/workspace/chipset_release_960_xloader/opensource/component_code/vendor/huawei/extra/build/build_script/kirin_kernel_release/kernel/include/linux/time64.h"
	.file 24 "/mnt/disk/jenkins/ci/workspace/chipset_release_960_xloader/opensource/component_code/vendor/huawei/extra/build/build_script/kirin_kernel_release/kernel/include/linux/ktime.h"
	.file 25 "/mnt/disk/jenkins/ci/workspace/chipset_release_960_xloader/opensource/component_code/vendor/huawei/extra/build/build_script/kirin_kernel_release/kernel/include/linux/list_bl.h"
	.file 26 "/mnt/disk/jenkins/ci/workspace/chipset_release_960_xloader/opensource/component_code/vendor/huawei/extra/build/build_script/kirin_kernel_release/kernel/include/linux/lockref.h"
	.file 27 "/mnt/disk/jenkins/ci/workspace/chipset_release_960_xloader/opensource/component_code/vendor/huawei/extra/build/build_script/kirin_kernel_release/kernel/include/linux/dcache.h"
	.file 28 "/mnt/disk/jenkins/ci/workspace/chipset_release_960_xloader/opensource/component_code/vendor/huawei/extra/build/build_script/kirin_kernel_release/kernel/include/linux/fs.h"
	.file 29 "/mnt/disk/jenkins/ci/workspace/chipset_release_960_xloader/opensource/component_code/vendor/huawei/extra/build/build_script/kirin_kernel_release/kernel/include/linux/path.h"
	.file 30 "/mnt/disk/jenkins/ci/workspace/chipset_release_960_xloader/opensource/component_code/vendor/huawei/extra/build/build_script/kirin_kernel_release/kernel/include/linux/capability.h"
	.file 31 "/mnt/disk/jenkins/ci/workspace/chipset_release_960_xloader/opensource/component_code/vendor/huawei/extra/build/build_script/kirin_kernel_release/kernel/include/linux/plist.h"
	.file 32 "/mnt/disk/jenkins/ci/workspace/chipset_release_960_xloader/opensource/component_code/vendor/huawei/extra/build/build_script/kirin_kernel_release/kernel/include/linux/rbtree.h"
	.file 33 "/mnt/disk/jenkins/ci/workspace/chipset_release_960_xloader/opensource/component_code/vendor/huawei/extra/build/build_script/kirin_kernel_release/kernel/include/linux/nodemask.h"
	.file 34 "/mnt/disk/jenkins/ci/workspace/chipset_release_960_xloader/opensource/component_code/vendor/huawei/extra/build/build_script/kirin_kernel_release/kernel/include/linux/osq_lock.h"
	.file 35 "/mnt/disk/jenkins/ci/workspace/chipset_release_960_xloader/opensource/component_code/vendor/huawei/extra/build/build_script/kirin_kernel_release/kernel/include/linux/rwsem.h"
	.file 36 "/mnt/disk/jenkins/ci/workspace/chipset_release_960_xloader/opensource/component_code/vendor/huawei/extra/build/build_script/kirin_kernel_release/kernel/include/linux/sched.h"
	.file 37 "/mnt/disk/jenkins/ci/workspace/chipset_release_960_xloader/opensource/component_code/vendor/huawei/extra/build/build_script/kirin_kernel_release/kernel/include/linux/mm_types.h"
	.file 38 "/mnt/disk/jenkins/ci/workspace/chipset_release_960_xloader/opensource/component_code/vendor/huawei/extra/build/build_script/kirin_kernel_release/kernel/include/linux/lockdep.h"
	.file 39 "/mnt/disk/jenkins/ci/workspace/chipset_release_960_xloader/opensource/component_code/vendor/huawei/extra/build/build_script/kirin_kernel_release/kernel/include/linux/uprobes.h"
	.file 40 "/mnt/disk/jenkins/ci/workspace/chipset_release_960_xloader/opensource/component_code/vendor/huawei/extra/build/build_script/kirin_kernel_release/kernel/include/linux/timer.h"
	.file 41 "/mnt/disk/jenkins/ci/workspace/chipset_release_960_xloader/opensource/component_code/vendor/huawei/extra/build/build_script/kirin_kernel_release/kernel/include/linux/uidgid.h"
	.file 42 "/mnt/disk/jenkins/ci/workspace/chipset_release_960_xloader/opensource/component_code/vendor/huawei/extra/build/build_script/kirin_kernel_release/kernel/include/linux/workqueue.h"
	.file 43 "/mnt/disk/jenkins/ci/workspace/chipset_release_960_xloader/opensource/component_code/vendor/huawei/extra/build/build_script/kirin_kernel_release/kernel/arch/arm64/include/asm/pgtable-types.h"
	.file 44 "/mnt/disk/jenkins/ci/workspace/chipset_release_960_xloader/opensource/component_code/vendor/huawei/extra/build/build_script/kirin_kernel_release/kernel/arch/arm64/include/asm/page.h"
	.file 45 "/mnt/disk/jenkins/ci/workspace/chipset_release_960_xloader/opensource/component_code/vendor/huawei/extra/build/build_script/kirin_kernel_release/kernel/include/linux/llist.h"
	.file 46 "/mnt/disk/jenkins/ci/workspace/chipset_release_960_xloader/opensource/component_code/vendor/huawei/extra/build/build_script/kirin_kernel_release/kernel/arch/arm64/include/asm/smp.h"
	.file 47 "/mnt/disk/jenkins/ci/workspace/chipset_release_960_xloader/opensource/component_code/vendor/huawei/extra/build/build_script/kirin_kernel_release/kernel/arch/arm64/include/asm/mmu.h"
	.file 48 "/mnt/disk/jenkins/ci/workspace/chipset_release_960_xloader/opensource/component_code/vendor/huawei/extra/build/build_script/kirin_kernel_release/kernel/include/linux/mm.h"
	.file 49 "/mnt/disk/jenkins/ci/workspace/chipset_release_960_xloader/opensource/component_code/vendor/huawei/extra/build/build_script/kirin_kernel_release/kernel/include/asm-generic/cputime_jiffies.h"
	.file 50 "/mnt/disk/jenkins/ci/workspace/chipset_release_960_xloader/opensource/component_code/vendor/huawei/extra/build/build_script/kirin_kernel_release/kernel/include/uapi/asm-generic/signal.h"
	.file 51 "/mnt/disk/jenkins/ci/workspace/chipset_release_960_xloader/opensource/component_code/vendor/huawei/extra/build/build_script/kirin_kernel_release/kernel/include/uapi/asm-generic/signal-defs.h"
	.file 52 "/mnt/disk/jenkins/ci/workspace/chipset_release_960_xloader/opensource/component_code/vendor/huawei/extra/build/build_script/kirin_kernel_release/kernel/include/uapi/asm-generic/siginfo.h"
	.file 53 "/mnt/disk/jenkins/ci/workspace/chipset_release_960_xloader/opensource/component_code/vendor/huawei/extra/build/build_script/kirin_kernel_release/kernel/include/linux/signal.h"
	.file 54 "/mnt/disk/jenkins/ci/workspace/chipset_release_960_xloader/opensource/component_code/vendor/huawei/extra/build/build_script/kirin_kernel_release/kernel/include/linux/pid.h"
	.file 55 "/mnt/disk/jenkins/ci/workspace/chipset_release_960_xloader/opensource/component_code/vendor/huawei/extra/build/build_script/kirin_kernel_release/kernel/include/linux/mmzone.h"
	.file 56 "/mnt/disk/jenkins/ci/workspace/chipset_release_960_xloader/opensource/component_code/vendor/huawei/extra/build/build_script/kirin_kernel_release/kernel/include/linux/mutex.h"
	.file 57 "/mnt/disk/jenkins/ci/workspace/chipset_release_960_xloader/opensource/component_code/vendor/huawei/extra/build/build_script/kirin_kernel_release/kernel/include/linux/seccomp.h"
	.file 58 "/mnt/disk/jenkins/ci/workspace/chipset_release_960_xloader/opensource/component_code/vendor/huawei/extra/build/build_script/kirin_kernel_release/kernel/include/uapi/linux/resource.h"
	.file 59 "/mnt/disk/jenkins/ci/workspace/chipset_release_960_xloader/opensource/component_code/vendor/huawei/extra/build/build_script/kirin_kernel_release/kernel/include/linux/timerqueue.h"
	.file 60 "/mnt/disk/jenkins/ci/workspace/chipset_release_960_xloader/opensource/component_code/vendor/huawei/extra/build/build_script/kirin_kernel_release/kernel/include/linux/hrtimer.h"
	.file 61 "/mnt/disk/jenkins/ci/workspace/chipset_release_960_xloader/opensource/component_code/vendor/huawei/extra/build/build_script/kirin_kernel_release/kernel/include/linux/task_io_accounting.h"
	.file 62 "/mnt/disk/jenkins/ci/workspace/chipset_release_960_xloader/opensource/component_code/vendor/huawei/extra/build/build_script/kirin_kernel_release/kernel/include/linux/assoc_array.h"
	.file 63 "/mnt/disk/jenkins/ci/workspace/chipset_release_960_xloader/opensource/component_code/vendor/huawei/extra/build/build_script/kirin_kernel_release/kernel/include/linux/key.h"
	.file 64 "/mnt/disk/jenkins/ci/workspace/chipset_release_960_xloader/opensource/component_code/vendor/huawei/extra/build/build_script/kirin_kernel_release/kernel/include/linux/cred.h"
	.file 65 "/mnt/disk/jenkins/ci/workspace/chipset_release_960_xloader/opensource/component_code/vendor/huawei/extra/build/build_script/kirin_kernel_release/kernel/include/linux/idr.h"
	.file 66 "/mnt/disk/jenkins/ci/workspace/chipset_release_960_xloader/opensource/component_code/vendor/huawei/extra/build/build_script/kirin_kernel_release/kernel/include/linux/percpu-refcount.h"
	.file 67 "/mnt/disk/jenkins/ci/workspace/chipset_release_960_xloader/opensource/component_code/vendor/huawei/extra/build/build_script/kirin_kernel_release/kernel/include/linux/rcu_sync.h"
	.file 68 "/mnt/disk/jenkins/ci/workspace/chipset_release_960_xloader/opensource/component_code/vendor/huawei/extra/build/build_script/kirin_kernel_release/kernel/include/linux/percpu-rwsem.h"
	.file 69 "/mnt/disk/jenkins/ci/workspace/chipset_release_960_xloader/opensource/component_code/vendor/huawei/extra/build/build_script/kirin_kernel_release/kernel/include/linux/bpf-cgroup.h"
	.file 70 "/mnt/disk/jenkins/ci/workspace/chipset_release_960_xloader/opensource/component_code/vendor/huawei/extra/build/build_script/kirin_kernel_release/kernel/include/linux/cgroup-defs.h"
	.file 71 "/mnt/disk/jenkins/ci/workspace/chipset_release_960_xloader/opensource/component_code/vendor/huawei/extra/build/build_script/kirin_kernel_release/kernel/include/linux/kernfs.h"
	.file 72 "/mnt/disk/jenkins/ci/workspace/chipset_release_960_xloader/opensource/component_code/vendor/huawei/extra/build/build_script/kirin_kernel_release/kernel/include/linux/seq_file.h"
	.file 73 "/mnt/disk/jenkins/ci/workspace/chipset_release_960_xloader/opensource/component_code/vendor/huawei/extra/build/build_script/kirin_kernel_release/kernel/include/linux/stat.h"
	.file 74 "/mnt/disk/jenkins/ci/workspace/chipset_release_960_xloader/opensource/component_code/vendor/huawei/extra/build/build_script/kirin_kernel_release/kernel/include/linux/shrinker.h"
	.file 75 "/mnt/disk/jenkins/ci/workspace/chipset_release_960_xloader/opensource/component_code/vendor/huawei/extra/build/build_script/kirin_kernel_release/kernel/include/linux/list_lru.h"
	.file 76 "/mnt/disk/jenkins/ci/workspace/chipset_release_960_xloader/opensource/component_code/vendor/huawei/extra/build/build_script/kirin_kernel_release/kernel/include/linux/radix-tree.h"
	.file 77 "/mnt/disk/jenkins/ci/workspace/chipset_release_960_xloader/opensource/component_code/vendor/huawei/extra/build/build_script/kirin_kernel_release/kernel/include/uapi/linux/fiemap.h"
	.file 78 "/mnt/disk/jenkins/ci/workspace/chipset_release_960_xloader/opensource/component_code/vendor/huawei/extra/build/build_script/kirin_kernel_release/kernel/include/linux/migrate_mode.h"
	.file 79 "/mnt/disk/jenkins/ci/workspace/chipset_release_960_xloader/opensource/component_code/vendor/huawei/extra/build/build_script/kirin_kernel_release/kernel/include/linux/delayed_call.h"
	.file 80 "/mnt/disk/jenkins/ci/workspace/chipset_release_960_xloader/opensource/component_code/vendor/huawei/extra/build/build_script/kirin_kernel_release/kernel/include/linux/percpu_counter.h"
	.file 81 "/mnt/disk/jenkins/ci/workspace/chipset_release_960_xloader/opensource/component_code/vendor/huawei/extra/build/build_script/kirin_kernel_release/kernel/include/linux/quota.h"
	.file 82 "/mnt/disk/jenkins/ci/workspace/chipset_release_960_xloader/opensource/component_code/vendor/huawei/extra/build/build_script/kirin_kernel_release/kernel/include/linux/projid.h"
	.file 83 "/mnt/disk/jenkins/ci/workspace/chipset_release_960_xloader/opensource/component_code/vendor/huawei/extra/build/build_script/kirin_kernel_release/kernel/include/linux/nfs_fs_i.h"
	.file 84 "/mnt/disk/jenkins/ci/workspace/chipset_release_960_xloader/opensource/component_code/vendor/huawei/extra/build/build_script/kirin_kernel_release/kernel/include/linux/kobject_ns.h"
	.file 85 "/mnt/disk/jenkins/ci/workspace/chipset_release_960_xloader/opensource/component_code/vendor/huawei/extra/build/build_script/kirin_kernel_release/kernel/include/linux/sysfs.h"
	.file 86 "/mnt/disk/jenkins/ci/workspace/chipset_release_960_xloader/opensource/component_code/vendor/huawei/extra/build/build_script/kirin_kernel_release/kernel/include/linux/kobject.h"
	.file 87 "/mnt/disk/jenkins/ci/workspace/chipset_release_960_xloader/opensource/component_code/vendor/huawei/extra/build/build_script/kirin_kernel_release/kernel/include/linux/kref.h"
	.file 88 "/mnt/disk/jenkins/ci/workspace/chipset_release_960_xloader/opensource/component_code/vendor/huawei/extra/build/build_script/kirin_kernel_release/kernel/include/linux/klist.h"
	.file 89 "/mnt/disk/jenkins/ci/workspace/chipset_release_960_xloader/opensource/component_code/vendor/huawei/extra/build/build_script/kirin_kernel_release/kernel/include/linux/pinctrl/devinfo.h"
	.file 90 "/mnt/disk/jenkins/ci/workspace/chipset_release_960_xloader/opensource/component_code/vendor/huawei/extra/build/build_script/kirin_kernel_release/kernel/include/linux/pm.h"
	.file 91 "/mnt/disk/jenkins/ci/workspace/chipset_release_960_xloader/opensource/component_code/vendor/huawei/extra/build/build_script/kirin_kernel_release/kernel/include/linux/device.h"
	.file 92 "/mnt/disk/jenkins/ci/workspace/chipset_release_960_xloader/opensource/component_code/vendor/huawei/extra/build/build_script/kirin_kernel_release/kernel/include/linux/pm_wakeup.h"
	.file 93 "/mnt/disk/jenkins/ci/workspace/chipset_release_960_xloader/opensource/component_code/vendor/huawei/extra/build/build_script/kirin_kernel_release/kernel/arch/arm64/include/asm/device.h"
	.file 94 "/mnt/disk/jenkins/ci/workspace/chipset_release_960_xloader/opensource/component_code/vendor/huawei/extra/build/build_script/kirin_kernel_release/kernel/include/linux/dma-mapping.h"
	.file 95 "/mnt/disk/jenkins/ci/workspace/chipset_release_960_xloader/opensource/component_code/vendor/huawei/extra/build/build_script/kirin_kernel_release/kernel/include/linux/iommu.h"
	.file 96 "/mnt/disk/jenkins/ci/workspace/chipset_release_960_xloader/opensource/component_code/vendor/huawei/extra/build/build_script/kirin_kernel_release/kernel/include/linux/mod_devicetable.h"
	.file 97 "/mnt/disk/jenkins/ci/workspace/chipset_release_960_xloader/opensource/component_code/vendor/huawei/extra/build/build_script/kirin_kernel_release/kernel/include/linux/of.h"
	.file 98 "/mnt/disk/jenkins/ci/workspace/chipset_release_960_xloader/opensource/component_code/vendor/huawei/extra/build/build_script/kirin_kernel_release/kernel/include/linux/fwnode.h"
	.file 99 "/mnt/disk/jenkins/ci/workspace/chipset_release_960_xloader/opensource/component_code/vendor/huawei/extra/build/build_script/kirin_kernel_release/kernel/drivers/vcodec/hi_vcodec/venc/include/hi_type.h"
	.file 100 "/mnt/disk/jenkins/ci/workspace/chipset_release_960_xloader/opensource/component_code/vendor/huawei/extra/build/build_script/kirin_kernel_release/kernel/drivers/vcodec/hi_vcodec/venc/drv/include/hi_drv_video.h"
	.file 101 "/mnt/disk/jenkins/ci/workspace/chipset_release_960_xloader/opensource/component_code/vendor/huawei/extra/build/build_script/kirin_kernel_release/kernel/include/linux/interrupt.h"
	.file 102 "/mnt/disk/jenkins/ci/workspace/chipset_release_960_xloader/opensource/component_code/vendor/huawei/extra/build/build_script/kirin_kernel_release/kernel/drivers/vcodec/hi_vcodec/venc/include/hi_unf_video.h"
	.file 103 "/mnt/disk/jenkins/ci/workspace/chipset_release_960_xloader/opensource/component_code/vendor/huawei/extra/build/build_script/kirin_kernel_release/kernel/drivers/vcodec/hi_vcodec/venc/include/hi_unf_venc.h"
	.file 104 "/mnt/disk/jenkins/ci/workspace/chipset_release_960_xloader/opensource/component_code/vendor/huawei/extra/build/build_script/kirin_kernel_release/kernel/drivers/vcodec/hi_vcodec/venc/drv/include/hi_drv_venc.h"
	.file 105 "/mnt/disk/jenkins/ci/workspace/chipset_release_960_xloader/opensource/component_code/vendor/huawei/extra/build/build_script/kirin_kernel_release/kernel/drivers/vcodec/hi_vcodec/venc/drv/venc/drv_venc_queue_mng.h"
	.file 106 "/mnt/disk/jenkins/ci/workspace/chipset_release_960_xloader/opensource/component_code/vendor/huawei/extra/build/build_script/kirin_kernel_release/kernel/include/linux/tracepoint-defs.h"
	.file 107 "/mnt/disk/jenkins/ci/workspace/chipset_release_960_xloader/opensource/component_code/vendor/huawei/extra/build/build_script/kirin_kernel_release/kernel/include/linux/vm_event_item.h"
	.file 108 "/mnt/disk/jenkins/ci/workspace/chipset_release_960_xloader/opensource/component_code/vendor/huawei/extra/build/build_script/kirin_kernel_release/kernel/include/linux/vmstat.h"
	.file 109 "/mnt/disk/jenkins/ci/workspace/chipset_release_960_xloader/opensource/component_code/vendor/huawei/extra/build/build_script/kirin_kernel_release/kernel/include/linux/scatterlist.h"
	.file 110 "/mnt/disk/jenkins/ci/workspace/chipset_release_960_xloader/opensource/component_code/vendor/huawei/extra/build/build_script/kirin_kernel_release/kernel/include/linux/pci.h"
	.file 111 "/mnt/disk/jenkins/ci/workspace/chipset_release_960_xloader/opensource/component_code/vendor/huawei/extra/build/build_script/kirin_kernel_release/kernel/include/linux/dma-direction.h"
	.file 112 "/mnt/disk/jenkins/ci/workspace/chipset_release_960_xloader/opensource/component_code/vendor/huawei/extra/build/build_script/kirin_kernel_release/kernel/drivers/vcodec/hi_vcodec/venc/drv/include/hi_drv_mem.h"
	.file 113 "/mnt/disk/jenkins/ci/workspace/chipset_release_960_xloader/opensource/component_code/vendor/huawei/extra/build/build_script/kirin_kernel_release/kernel/drivers/vcodec/hi_vcodec/venc/drv/venc/drv_venc_efl.h"
	.file 114 "/mnt/disk/jenkins/ci/workspace/chipset_release_960_xloader/opensource/component_code/vendor/huawei/extra/build/build_script/kirin_kernel_release/kernel/drivers/vcodec/hi_vcodec/venc/drv/include/drv_venc_ioctl.h"
	.file 115 "/mnt/disk/jenkins/ci/workspace/chipset_release_960_xloader/opensource/component_code/vendor/huawei/extra/build/build_script/kirin_kernel_release/kernel/drivers/vcodec/hi_vcodec/venc/drv/venc/drv_venc.h"
	.file 116 "/mnt/disk/jenkins/ci/workspace/chipset_release_960_xloader/opensource/component_code/vendor/huawei/extra/build/build_script/kirin_kernel_release/kernel/drivers/vcodec/hi_vcodec/venc/drv/venc/hal_venc.h"
	.file 117 "/mnt/disk/jenkins/ci/workspace/chipset_release_960_xloader/opensource/component_code/vendor/huawei/extra/build/build_script/kirin_kernel_release/kernel/drivers/vcodec/hi_vcodec/venc/drv/venc/drv_venc_buf_mng.h"
	.file 118 "/mnt/disk/jenkins/ci/workspace/chipset_release_960_xloader/opensource/component_code/vendor/huawei/extra/build/build_script/kirin_kernel_release/kernel/arch/arm64/include/asm/cachetype.h"
	.file 119 "/mnt/disk/jenkins/ci/workspace/chipset_release_960_xloader/opensource/component_code/vendor/huawei/extra/build/build_script/kirin_kernel_release/kernel/include/linux/printk.h"
	.file 120 "/mnt/disk/jenkins/ci/workspace/chipset_release_960_xloader/opensource/component_code/vendor/huawei/extra/build/build_script/kirin_kernel_release/kernel/include/linux/kernel.h"
	.file 121 "/mnt/disk/jenkins/ci/workspace/chipset_release_960_xloader/opensource/component_code/vendor/huawei/extra/build/build_script/kirin_kernel_release/kernel/arch/arm64/include/asm/stack_pointer.h"
	.file 122 "/mnt/disk/jenkins/ci/workspace/chipset_release_960_xloader/opensource/component_code/vendor/huawei/extra/build/build_script/kirin_kernel_release/kernel/arch/arm64/include/asm/hwcap.h"
	.file 123 "/mnt/disk/jenkins/ci/workspace/chipset_release_960_xloader/opensource/component_code/vendor/huawei/extra/build/build_script/kirin_kernel_release/kernel/arch/arm64/include/asm/cpufeature.h"
	.file 124 "/mnt/disk/jenkins/ci/workspace/chipset_release_960_xloader/opensource/component_code/vendor/huawei/extra/build/build_script/kirin_kernel_release/kernel/arch/arm64/include/asm/virt.h"
	.file 125 "/mnt/disk/jenkins/ci/workspace/chipset_release_960_xloader/opensource/component_code/vendor/huawei/extra/build/build_script/kirin_kernel_release/kernel/include/linux/jiffies.h"
	.file 126 "/mnt/disk/jenkins/ci/workspace/chipset_release_960_xloader/opensource/component_code/vendor/huawei/extra/build/build_script/kirin_kernel_release/kernel/include/linux/highuid.h"
	.file 127 "/mnt/disk/jenkins/ci/workspace/chipset_release_960_xloader/opensource/component_code/vendor/huawei/extra/build/build_script/kirin_kernel_release/kernel/arch/arm64/include/asm/memory.h"
	.file 128 "/mnt/disk/jenkins/ci/workspace/chipset_release_960_xloader/opensource/component_code/vendor/huawei/extra/build/build_script/kirin_kernel_release/kernel/include/asm-generic/percpu.h"
	.file 129 "/mnt/disk/jenkins/ci/workspace/chipset_release_960_xloader/opensource/component_code/vendor/huawei/extra/build/build_script/kirin_kernel_release/kernel/arch/arm64/include/asm/irq.h"
	.file 130 "/mnt/disk/jenkins/ci/workspace/chipset_release_960_xloader/opensource/component_code/vendor/huawei/extra/build/build_script/kirin_kernel_release/kernel/arch/arm64/include/asm/hardirq.h"
	.file 131 "/mnt/disk/jenkins/ci/workspace/chipset_release_960_xloader/opensource/component_code/vendor/huawei/extra/build/build_script/kirin_kernel_release/kernel/include/linux/slab.h"
	.file 132 "/mnt/disk/jenkins/ci/workspace/chipset_release_960_xloader/opensource/component_code/vendor/huawei/extra/build/build_script/kirin_kernel_release/kernel/include/asm-generic/pgtable.h"
	.file 133 "/mnt/disk/jenkins/ci/workspace/chipset_release_960_xloader/opensource/component_code/vendor/huawei/extra/build/build_script/kirin_kernel_release/kernel/include/linux/debug_locks.h"
	.file 134 "/mnt/disk/jenkins/ci/workspace/chipset_release_960_xloader/opensource/component_code/vendor/huawei/extra/build/build_script/kirin_kernel_release/kernel/arch/arm64/include/../../arm/include/asm/xen/hypervisor.h"
	.file 135 "/mnt/disk/jenkins/ci/workspace/chipset_release_960_xloader/opensource/component_code/vendor/huawei/extra/build/build_script/kirin_kernel_release/kernel/arch/arm64/include/asm/dma-mapping.h"
	.file 136 "/mnt/disk/jenkins/ci/workspace/chipset_release_960_xloader/opensource/component_code/vendor/huawei/extra/build/build_script/kirin_kernel_release/kernel/include/trace/events/iommu.h"
	.file 137 "/mnt/disk/jenkins/ci/workspace/chipset_release_960_xloader/opensource/component_code/vendor/huawei/extra/build/build_script/kirin_kernel_release/kernel/drivers/vcodec/hi_vcodec/venc/drv/venc/venc_regulator.h"
	.file 138 "/mnt/disk/jenkins/ci/workspace/chipset_release_960_xloader/opensource/component_code/vendor/huawei/extra/build/build_script/kirin_kernel_release/kernel/include/linux/spinlock_api_smp.h"
	.file 139 "/mnt/disk/jenkins/ci/workspace/chipset_release_960_xloader/opensource/component_code/vendor/huawei/extra/build/build_script/kirin_kernel_release/kernel/include/linux/timekeeping.h"
	.file 140 "/mnt/disk/jenkins/ci/workspace/chipset_release_960_xloader/opensource/component_code/vendor/huawei/extra/build/build_script/kirin_kernel_release/kernel/drivers/vcodec/hi_vcodec/venc/drv/venc/drv_omxvenc_efl.h"
	.section	.note.GNU-stack,"",%progbits
