	.cpu generic+fp+simd
	.file	"drv_omxvenc.c"
	.text
.Ltext0:
	.cfi_sections	.debug_frame
	.align	2
	.global	VENC_DRV_QueueFrame_OMX
	.type	VENC_DRV_QueueFrame_OMX, %function
VENC_DRV_QueueFrame_OMX:
.LFB2711:
	.file 1 "/mnt/disk/jenkins/ci/workspace/chipset_release_960_xloader/opensource/component_code/vendor/huawei/extra/build/build_script/kirin_kernel_release/kernel/drivers/vcodec/hi_vcodec/venc/drv/venc/drv_omxvenc.c"
	.loc 1 81 0
	.cfi_startproc
.LVL0:
	sub	sp, sp, #784
	.cfi_def_cfa_offset 784
	.loc 1 87 0
	mov	x2, 760
	.loc 1 81 0
	stp	x29, x30, [sp, -32]!
	.cfi_def_cfa_offset 816
	.cfi_offset 29, -816
	.cfi_offset 30, -808
	add	x29, sp, 0
	.cfi_def_cfa_register 29
	stp	x19, x20, [sp,16]
	.cfi_offset 19, -800
	.cfi_offset 20, -792
	.loc 1 81 0
	adrp	x20, __stack_chk_guard
	mov	x19, x0
	str	x1, [x29,40]
	.loc 1 87 0
	add	x0, x29, 48
.LVL1:
	mov	w1, 0
.LVL2:
	.loc 1 81 0
	ldr	x4, [x20,#:lo12:__stack_chk_guard]
	str	x4, [x29,808]
	.loc 1 87 0
	bl	memset
.LVL3:
	.loc 1 88 0 discriminator 6
	adrp	x0, g_stVencChn
	mov	x1, 4294967295
	add	x2, x0, :lo12:g_stVencChn
	cmp	x19, x1
	cset	w1, ne
	.loc 1 88 0 is_stmt 0 discriminator 2
	ldr	x3, [x29,40]
.LVL4:
	.loc 1 88 0 discriminator 6
	ldr	x2, [x2,24]
	.loc 1 88 0 discriminator 2
	cmp	x2, x19
	bne	.L14
	cbnz	w1, .L2
.L14:
	.loc 1 88 0 discriminator 6
	add	x2, x0, :lo12:g_stVencChn
	ldr	x2, [x2,768]
	.loc 1 88 0 discriminator 2
	cmp	x2, x19
	bne	.L15
	cbnz	w1, .L2
.L15:
	.loc 1 88 0 discriminator 6
	add	x2, x0, :lo12:g_stVencChn
	ldr	x2, [x2,1512]
	.loc 1 88 0 discriminator 2
	cmp	x2, x19
	bne	.L16
	cbnz	w1, .L2
.L16:
	.loc 1 88 0 discriminator 6
	add	x2, x0, :lo12:g_stVencChn
	ldr	x2, [x2,2256]
	.loc 1 88 0 discriminator 2
	cmp	x2, x19
	bne	.L17
	cbnz	w1, .L2
.L17:
	.loc 1 88 0 discriminator 6
	add	x2, x0, :lo12:g_stVencChn
	ldr	x2, [x2,3000]
	.loc 1 88 0 discriminator 2
	cmp	x2, x19
	bne	.L18
	cbnz	w1, .L2
.L18:
	.loc 1 88 0 discriminator 6
	add	x2, x0, :lo12:g_stVencChn
	ldr	x2, [x2,3744]
	.loc 1 88 0 discriminator 2
	cmp	x2, x19
	bne	.L19
	cbnz	w1, .L2
.L19:
	.loc 1 88 0 discriminator 6
	add	x2, x0, :lo12:g_stVencChn
	ldr	x2, [x2,4488]
	.loc 1 88 0 discriminator 2
	cmp	x2, x19
	bne	.L20
	cbnz	w1, .L2
.L20:
	.loc 1 88 0 discriminator 6
	add	x0, x0, :lo12:g_stVencChn
	ldr	x0, [x0,5232]
	.loc 1 88 0 discriminator 2
	cmp	x0, x19
	bne	.L21
	cbnz	w1, .L2
.L21:
	.loc 1 91 0 is_stmt 1
	adrp	x1, .LC0
	adrp	x3, .LANCHOR0
.LVL5:
	adrp	x4, .LC1
	mov	w0, 1
	add	x1, x1, :lo12:.LC0
	mov	w2, 91
	add	x3, x3, :lo12:.LANCHOR0
	add	x4, x4, :lo12:.LC1
	mov	x5, x19
	bl	HI_PRINT
.LVL6:
	.loc 1 92 0
	mov	w0, -1
.LVL7:
.L11:
	.loc 1 115 0
	ldr	x2, [x29,808]
	ldr	x1, [x20,#:lo12:__stack_chk_guard]
	cmp	x2, x1
	bne	.L49
	ldp	x19, x20, [sp,16]
	.cfi_remember_state
	.cfi_restore 20
	.cfi_restore 19
.LVL8:
	ldp	x29, x30, [sp], 32
	.cfi_restore 30
	.cfi_restore 29
	.cfi_def_cfa 31, 784
.LVL9:
	add	sp, sp, 784
	.cfi_def_cfa_offset 752
	ret
.LVL10:
.L2:
	.cfi_restore_state
	.loc 1 96 0
	ldr	w2, [x19,960]
	.loc 1 106 0
	mov	w1, 7
	ldr	x0, [x19,1544]
	movk	w1, 0xa, lsl 16
	.loc 1 96 0
	add	w2, w2, 1
	str	w2, [x19,960]
	.loc 1 106 0
	mov	w2, 0
	bl	VENC_DRV_EflPutMsg_OMX
.LVL11:
	.loc 1 107 0
	cbnz	w0, .L11
	.loc 1 109 0
	ldr	w2, [x19,1320]
	.loc 1 111 0
	mov	w0, 0
.LVL12:
	.loc 1 110 0
	ldr	w1, [x19,964]
	.loc 1 109 0
	add	w2, w2, 1
	.loc 1 111 0
	str	wzr, [x19,1556]
	.loc 1 110 0
	add	w1, w1, 1
	.loc 1 109 0
	str	w2, [x19,1320]
	.loc 1 110 0
	str	w1, [x19,964]
	b	.L11
.LVL13:
.L49:
	.loc 1 115 0
	bl	__stack_chk_fail
.LVL14:
	.cfi_endproc
.LFE2711:
	.size	VENC_DRV_QueueFrame_OMX, .-VENC_DRV_QueueFrame_OMX
	.align	2
	.global	VENC_DRV_QueueStream_OMX
	.type	VENC_DRV_QueueStream_OMX, %function
VENC_DRV_QueueStream_OMX:
.LFB2712:
	.loc 1 118 0
	.cfi_startproc
.LVL15:
	stp	x29, x30, [sp, -32]!
	.cfi_def_cfa_offset 32
	.cfi_offset 29, -32
	.cfi_offset 30, -24
	.loc 1 123 0 discriminator 6
	adrp	x2, g_stVencChn
	.loc 1 118 0
	add	x29, sp, 0
	.cfi_def_cfa_register 29
	.loc 1 123 0 discriminator 6
	add	x3, x2, :lo12:g_stVencChn
	.loc 1 118 0
	stp	x19, x20, [sp,16]
	.cfi_offset 19, -16
	.cfi_offset 20, -8
	.loc 1 118 0
	mov	x19, x0
	mov	x20, x1
	mov	x0, 4294967295
.LVL16:
	.loc 1 123 0 discriminator 6
	ldr	x1, [x3,24]
.LVL17:
	cmp	x19, x0
	cset	w0, ne
	.loc 1 123 0 is_stmt 0 discriminator 2
	cmp	x1, x19
	bne	.L62
	cbnz	w0, .L51
.L62:
	.loc 1 123 0 discriminator 6
	add	x1, x2, :lo12:g_stVencChn
	ldr	x1, [x1,768]
	.loc 1 123 0 discriminator 2
	cmp	x1, x19
	bne	.L63
	cbnz	w0, .L51
.L63:
	.loc 1 123 0 discriminator 6
	add	x1, x2, :lo12:g_stVencChn
	ldr	x1, [x1,1512]
	.loc 1 123 0 discriminator 2
	cmp	x1, x19
	bne	.L64
	cbnz	w0, .L51
.L64:
	.loc 1 123 0 discriminator 6
	add	x1, x2, :lo12:g_stVencChn
	ldr	x1, [x1,2256]
	.loc 1 123 0 discriminator 2
	cmp	x1, x19
	bne	.L65
	cbnz	w0, .L51
.L65:
	.loc 1 123 0 discriminator 6
	add	x1, x2, :lo12:g_stVencChn
	ldr	x1, [x1,3000]
	.loc 1 123 0 discriminator 2
	cmp	x1, x19
	bne	.L66
	cbnz	w0, .L51
.L66:
	.loc 1 123 0 discriminator 6
	add	x1, x2, :lo12:g_stVencChn
	ldr	x1, [x1,3744]
	.loc 1 123 0 discriminator 2
	cmp	x1, x19
	bne	.L67
	cbnz	w0, .L51
.L67:
	.loc 1 123 0 discriminator 6
	add	x1, x2, :lo12:g_stVencChn
	ldr	x1, [x1,4488]
	.loc 1 123 0 discriminator 2
	cmp	x1, x19
	bne	.L68
	cbnz	w0, .L51
.L68:
	.loc 1 123 0 discriminator 6
	add	x2, x2, :lo12:g_stVencChn
	ldr	x1, [x2,5232]
	.loc 1 123 0 discriminator 2
	cmp	x1, x19
	bne	.L69
	cbnz	w0, .L51
.L69:
	.loc 1 126 0 is_stmt 1
	adrp	x3, .LANCHOR0
	adrp	x1, .LC0
	add	x3, x3, :lo12:.LANCHOR0
	adrp	x4, .LC1
	mov	w0, 1
	add	x1, x1, :lo12:.LC0
	mov	w2, 126
	add	x3, x3, 24
	add	x4, x4, :lo12:.LC1
	mov	x5, x19
	bl	HI_PRINT
.LVL18:
	.loc 1 127 0
	mov	w0, -1
.LVL19:
.L94:
	.loc 1 143 0
	ldp	x19, x20, [sp,16]
	.cfi_remember_state
	.cfi_restore 20
	.cfi_restore 19
.LVL20:
.LVL21:
	ldp	x29, x30, [sp], 32
	.cfi_restore 30
	.cfi_restore 29
	.cfi_def_cfa 31, 0
	ret
.LVL22:
.L51:
	.cfi_restore_state
	.loc 1 131 0
	adrp	x3, .LANCHOR0
	adrp	x1, .LC0
	add	x3, x3, :lo12:.LANCHOR0
	adrp	x4, .LC2
	mov	w0, 4
	add	x1, x1, :lo12:.LC0
	mov	w2, 131
	add	x3, x3, 24
	add	x4, x4, :lo12:.LC2
	mov	x5, x19
	bl	HI_PRINT
.LVL23:
	.loc 1 132 0
	ldr	w2, [x19,968]
	.loc 1 134 0
	mov	w1, 8
	ldr	x0, [x19,1536]
	movk	w1, 0xa, lsl 16
	.loc 1 132 0
	add	w2, w2, 1
	.loc 1 134 0
	mov	x3, x20
	.loc 1 132 0
	str	w2, [x19,968]
	.loc 1 134 0
	mov	w2, 0
	bl	VENC_DRV_EflPutMsg_OMX
.LVL24:
	.loc 1 135 0
	cbnz	w0, .L94
	.loc 1 137 0
	ldr	w2, [x19,1328]
	.loc 1 139 0
	mov	w0, 0
.LVL25:
	.loc 1 138 0
	ldr	w1, [x19,972]
	.loc 1 139 0
	str	wzr, [x19,1552]
	.loc 1 137 0
	add	w2, w2, 1
	.loc 1 138 0
	add	w1, w1, 1
	.loc 1 137 0
	str	w2, [x19,1328]
	.loc 1 138 0
	str	w1, [x19,972]
	.loc 1 143 0
	ldp	x19, x20, [sp,16]
	.cfi_restore 19
	.cfi_restore 20
.LVL26:
	ldp	x29, x30, [sp], 32
	.cfi_restore 29
	.cfi_restore 30
	.cfi_def_cfa 31, 0
	ret
	.cfi_endproc
.LFE2712:
	.size	VENC_DRV_QueueStream_OMX, .-VENC_DRV_QueueStream_OMX
	.align	2
	.global	VENC_DRV_GetMessage_OMX
	.type	VENC_DRV_GetMessage_OMX, %function
VENC_DRV_GetMessage_OMX:
.LFB2713:
	.loc 1 146 0
	.cfi_startproc
.LVL27:
	stp	x29, x30, [sp, -224]!
	.cfi_def_cfa_offset 224
	.cfi_offset 29, -224
	.cfi_offset 30, -216
	.loc 1 153 0 discriminator 6
	adrp	x2, g_stVencChn
	.loc 1 146 0
	mov	x5, x0
	add	x29, sp, 0
	.cfi_def_cfa_register 29
	.loc 1 153 0 discriminator 6
	add	x3, x2, :lo12:g_stVencChn
	.loc 1 146 0
	mov	x0, 4294967295
.LVL28:
	stp	x19, x20, [sp,16]
	.cfi_offset 19, -208
	.cfi_offset 20, -200
	.loc 1 146 0
	adrp	x19, __stack_chk_guard
	cmp	x5, x0
	.loc 1 153 0 discriminator 6
	ldr	x3, [x3,24]
	cset	w0, ne
	.loc 1 152 0
	str	xzr, [x29,208]
	.loc 1 146 0
	mov	x20, x1
	ldr	x4, [x19,#:lo12:__stack_chk_guard]
	.loc 1 153 0 discriminator 2
	cmp	x3, x5
	.loc 1 146 0
	str	x4, [x29,216]
	.loc 1 152 0
	stp	xzr, xzr, [x29,48]
	stp	xzr, xzr, [x29,64]
	stp	xzr, xzr, [x29,80]
	stp	xzr, xzr, [x29,96]
	stp	xzr, xzr, [x29,112]
	stp	xzr, xzr, [x29,128]
	stp	xzr, xzr, [x29,144]
	stp	xzr, xzr, [x29,160]
	stp	xzr, xzr, [x29,176]
	stp	xzr, xzr, [x29,192]
	.loc 1 153 0 discriminator 2
	bne	.L110
	cbnz	w0, .L96
.L110:
	.loc 1 153 0 is_stmt 0 discriminator 6
	add	x1, x2, :lo12:g_stVencChn
	ldr	x1, [x1,768]
	.loc 1 153 0 discriminator 2
	cmp	x1, x5
	bne	.L111
	cbnz	w0, .L96
.L111:
	.loc 1 153 0 discriminator 6
	add	x1, x2, :lo12:g_stVencChn
	ldr	x1, [x1,1512]
	.loc 1 153 0 discriminator 2
	cmp	x1, x5
	bne	.L112
	cbnz	w0, .L96
.L112:
	.loc 1 153 0 discriminator 6
	add	x1, x2, :lo12:g_stVencChn
	ldr	x1, [x1,2256]
	.loc 1 153 0 discriminator 2
	cmp	x1, x5
	bne	.L113
	cbnz	w0, .L96
.L113:
	.loc 1 153 0 discriminator 6
	add	x1, x2, :lo12:g_stVencChn
	ldr	x1, [x1,3000]
	.loc 1 153 0 discriminator 2
	cmp	x1, x5
	bne	.L114
	cbnz	w0, .L96
.L114:
	.loc 1 153 0 discriminator 6
	add	x1, x2, :lo12:g_stVencChn
	ldr	x1, [x1,3744]
	.loc 1 153 0 discriminator 2
	cmp	x1, x5
	bne	.L115
	cbnz	w0, .L96
.L115:
	.loc 1 153 0 discriminator 6
	add	x1, x2, :lo12:g_stVencChn
	ldr	x1, [x1,4488]
	.loc 1 153 0 discriminator 2
	cmp	x1, x5
	bne	.L116
	cbnz	w0, .L96
.L116:
	.loc 1 153 0 discriminator 6
	add	x2, x2, :lo12:g_stVencChn
	ldr	x1, [x2,5232]
	.loc 1 153 0 discriminator 2
	cmp	x1, x5
	bne	.L117
	cbnz	w0, .L96
.L117:
	.loc 1 156 0 is_stmt 1
	adrp	x3, .LANCHOR0
	adrp	x1, .LC0
	add	x3, x3, :lo12:.LANCHOR0
	adrp	x4, .LC1
	mov	w0, 1
	add	x1, x1, :lo12:.LC0
	mov	w2, 156
	add	x3, x3, 56
	add	x4, x4, :lo12:.LC1
	bl	HI_PRINT
.LVL29:
	.loc 1 157 0
	mov	w0, -1
.L105:
	.loc 1 177 0
	ldr	x2, [x29,216]
	ldr	x1, [x19,#:lo12:__stack_chk_guard]
	cmp	x2, x1
	bne	.L146
	ldp	x19, x20, [sp,16]
	.cfi_remember_state
	.cfi_restore 20
	.cfi_restore 19
.LVL30:
	ldp	x29, x30, [sp], 224
	.cfi_restore 30
	.cfi_restore 29
	.cfi_def_cfa 31, 0
	ret
.LVL31:
.L96:
	.cfi_restore_state
	.loc 1 160 0
	cbz	x20, .L147
	.loc 1 167 0
	ldr	x0, [x5,1528]
	add	x1, x29, 48
	str	x5, [x29,40]
	bl	VENC_DRV_EflGetMsg_OMX
.LVL32:
	.loc 1 168 0
	cbnz	w0, .L109
	.loc 1 173 0
	ldr	x5, [x29,40]
.LVL33:
	.loc 1 174 0
	mov	x0, x20
	add	x1, x29, 48
	mov	x2, 168
	.loc 1 173 0
	ldr	w3, [x5,1332]
	sub	w3, w3, #1
	str	w3, [x5,1332]
	.loc 1 174 0
	bl	memcpy
.LVL34:
	.loc 1 176 0
	mov	w0, 0
	b	.L105
.L109:
	.loc 1 170 0
	mov	w0, -1
	b	.L105
.LVL35:
.L147:
	.loc 1 162 0
	adrp	x5, .LANCHOR0
.LVL36:
	adrp	x1, .LC0
	add	x5, x5, :lo12:.LANCHOR0
	adrp	x4, .LC3
	mov	w0, 1
	add	x3, x5, 56
	add	x1, x1, :lo12:.LC0
	mov	w2, 162
	add	x4, x4, :lo12:.LC3
	add	x5, x5, 80
	mov	x6, 0
	bl	HI_PRINT
.LVL37:
	.loc 1 163 0
	mov	w0, -1
	b	.L105
.L146:
	.loc 1 177 0
	bl	__stack_chk_fail
.LVL38:
	.cfi_endproc
.LFE2713:
	.size	VENC_DRV_GetMessage_OMX, .-VENC_DRV_GetMessage_OMX
	.align	2
	.global	VENC_DRV_FlushPort_OMX
	.type	VENC_DRV_FlushPort_OMX, %function
VENC_DRV_FlushPort_OMX:
.LFB2714:
	.loc 1 180 0
	.cfi_startproc
.LVL39:
	stp	x29, x30, [sp, -32]!
	.cfi_def_cfa_offset 32
	.cfi_offset 29, -32
	.cfi_offset 30, -24
	.loc 1 184 0 discriminator 6
	adrp	x2, g_stVencChn
	.loc 1 180 0
	mov	w5, w1
	add	x29, sp, 0
	.cfi_def_cfa_register 29
	.loc 1 184 0 discriminator 6
	add	x3, x2, :lo12:g_stVencChn
	.loc 1 180 0
	str	x19, [sp,16]
	.cfi_offset 19, -16
	.loc 1 180 0
	mov	x19, x0
	mov	x0, 4294967295
.LVL40:
	.loc 1 184 0 discriminator 6
	ldr	x1, [x3,24]
.LVL41:
	cmp	x19, x0
	cset	w0, ne
	.loc 1 184 0 is_stmt 0 discriminator 2
	cmp	x1, x19
	bne	.L161
	cbnz	w0, .L149
.L161:
	.loc 1 184 0 discriminator 6
	add	x1, x2, :lo12:g_stVencChn
	ldr	x1, [x1,768]
	.loc 1 184 0 discriminator 2
	cmp	x1, x19
	bne	.L162
	cbnz	w0, .L149
.L162:
	.loc 1 184 0 discriminator 6
	add	x1, x2, :lo12:g_stVencChn
	ldr	x1, [x1,1512]
	.loc 1 184 0 discriminator 2
	cmp	x1, x19
	bne	.L163
	cbnz	w0, .L149
.L163:
	.loc 1 184 0 discriminator 6
	add	x1, x2, :lo12:g_stVencChn
	ldr	x1, [x1,2256]
	.loc 1 184 0 discriminator 2
	cmp	x1, x19
	bne	.L164
	cbnz	w0, .L149
.L164:
	.loc 1 184 0 discriminator 6
	add	x1, x2, :lo12:g_stVencChn
	ldr	x1, [x1,3000]
	.loc 1 184 0 discriminator 2
	cmp	x1, x19
	bne	.L165
	cbnz	w0, .L149
.L165:
	.loc 1 184 0 discriminator 6
	add	x1, x2, :lo12:g_stVencChn
	ldr	x1, [x1,3744]
	.loc 1 184 0 discriminator 2
	cmp	x1, x19
	bne	.L166
	cbnz	w0, .L149
.L166:
	.loc 1 184 0 discriminator 6
	add	x1, x2, :lo12:g_stVencChn
	ldr	x1, [x1,4488]
	.loc 1 184 0 discriminator 2
	cmp	x1, x19
	bne	.L167
	cbnz	w0, .L149
.L167:
	.loc 1 184 0 discriminator 6
	add	x2, x2, :lo12:g_stVencChn
	ldr	x1, [x2,5232]
	.loc 1 184 0 discriminator 2
	cmp	x1, x19
	bne	.L168
	cbnz	w0, .L149
.L168:
	.loc 1 187 0 is_stmt 1
	adrp	x3, .LANCHOR0
	adrp	x1, .LC0
	add	x3, x3, :lo12:.LANCHOR0
	adrp	x4, .LC1
	mov	w0, 1
	add	x1, x1, :lo12:.LC0
	mov	w2, 187
	add	x3, x3, 104
	add	x4, x4, :lo12:.LC1
	mov	x5, x19
.LVL42:
	bl	HI_PRINT
.LVL43:
	.loc 1 188 0
	mov	w0, -1
.L193:
	.loc 1 201 0
	ldr	x19, [sp,16]
	.cfi_remember_state
	.cfi_restore 19
.LVL44:
	ldp	x29, x30, [sp], 32
	.cfi_restore 30
	.cfi_restore 29
	.cfi_def_cfa 31, 0
	ret
.LVL45:
.L149:
	.cfi_restore_state
	.loc 1 192 0
	cbz	x19, .L196
	.loc 1 198 0
	adrp	x3, .LANCHOR0
	adrp	x1, .LC0
	add	x3, x3, :lo12:.LANCHOR0
	adrp	x4, .LC5
	mov	w0, 4
	add	x1, x1, :lo12:.LC0
	mov	w2, 198
	add	x3, x3, 104
	add	x4, x4, :lo12:.LC5
	bl	HI_PRINT
.LVL46:
	.loc 1 199 0
	mov	w1, 1
	str	w1, [x19,7136]
	.loc 1 200 0
	mov	w0, 0
	.loc 1 201 0
	ldr	x19, [sp,16]
	.cfi_remember_state
	.cfi_restore 19
.LVL47:
	ldp	x29, x30, [sp], 32
	.cfi_restore 29
	.cfi_restore 30
	.cfi_def_cfa 31, 0
	ret
.LVL48:
.L196:
	.cfi_restore_state
	.loc 1 194 0
	adrp	x3, .LANCHOR0
	adrp	x1, .LC0
	add	x3, x3, :lo12:.LANCHOR0
	adrp	x4, .LC4
	mov	w0, 1
	add	x1, x1, :lo12:.LC0
	mov	w2, 194
	add	x3, x3, 104
	add	x4, x4, :lo12:.LC4
	mov	x5, 0
.LVL49:
	bl	HI_PRINT
.LVL50:
	.loc 1 195 0
	mov	w0, -1
	b	.L193
	.cfi_endproc
.LFE2714:
	.size	VENC_DRV_FlushPort_OMX, .-VENC_DRV_FlushPort_OMX
	.align	2
	.global	VENC_DRV_Map
	.type	VENC_DRV_Map, %function
VENC_DRV_Map:
.LFB2715:
	.loc 1 204 0
	.cfi_startproc
.LVL51:
	stp	x29, x30, [sp, -32]!
	.cfi_def_cfa_offset 32
	.cfi_offset 29, -32
	.cfi_offset 30, -24
	add	x29, sp, 0
	.cfi_def_cfa_register 29
	str	x19, [sp,16]
	.cfi_offset 19, -16
	.loc 1 204 0
	mov	x19, x0
	.loc 1 207 0
	cbz	x0, .L202
	.loc 1 213 0
	bl	DRV_MMU_MapKernel
.LVL52:
	.loc 1 214 0
	cbnz	w0, .L200
	.loc 1 214 0 is_stmt 0 discriminator 1
	ldr	x1, [x19,16]
	cbz	x1, .L200
.L199:
	.loc 1 221 0 is_stmt 1
	ldr	x19, [sp,16]
	.cfi_remember_state
	.cfi_restore 19
.LVL53:
	ldp	x29, x30, [sp], 32
	.cfi_restore 30
	.cfi_restore 29
	.cfi_def_cfa 31, 0
	ret
.LVL54:
.L200:
	.cfi_restore_state
	.loc 1 216 0
	adrp	x5, .LANCHOR0
	adrp	x1, .LC0
	add	x5, x5, :lo12:.LANCHOR0
	adrp	x4, .LC7
	mov	w0, 1
	add	x3, x5, 128
	add	x1, x1, :lo12:.LC0
	mov	w2, 216
	add	x4, x4, :lo12:.LC7
	add	x5, x5, 144
	bl	HI_PRINT
.LVL55:
	.loc 1 217 0
	mov	w0, -1
	b	.L199
.LVL56:
.L202:
	.loc 1 209 0
	adrp	x5, .LANCHOR0
	adrp	x1, .LC0
	add	x5, x5, :lo12:.LANCHOR0
	adrp	x4, .LC6
	mov	w0, 1
.LVL57:
	add	x3, x5, 128
	add	x1, x1, :lo12:.LC0
	mov	w2, 209
	add	x4, x4, :lo12:.LC6
	add	x5, x5, 144
	mov	x6, 0
	bl	HI_PRINT
.LVL58:
	.loc 1 210 0
	mov	w0, -1
	b	.L199
	.cfi_endproc
.LFE2715:
	.size	VENC_DRV_Map, .-VENC_DRV_Map
	.align	2
	.global	VENC_DRV_Umap
	.type	VENC_DRV_Umap, %function
VENC_DRV_Umap:
.LFB2716:
	.loc 1 224 0
	.cfi_startproc
.LVL59:
	stp	x29, x30, [sp, -16]!
	.cfi_def_cfa_offset 16
	.cfi_offset 29, -16
	.cfi_offset 30, -8
	add	x29, sp, 0
	.cfi_def_cfa_register 29
	.loc 1 227 0
	cbz	x0, .L208
	.loc 1 233 0
	bl	DRV_MMU_UmapKernel
.LVL60:
	.loc 1 239 0
	mov	w1, 0
	.loc 1 234 0
	cbnz	w0, .L209
.L205:
	.loc 1 240 0
	mov	w0, w1
	ldp	x29, x30, [sp], 16
	.cfi_remember_state
	.cfi_restore 30
	.cfi_restore 29
	.cfi_def_cfa 31, 0
	ret
.L209:
	.cfi_restore_state
	.loc 1 236 0
	adrp	x5, .LANCHOR0
	adrp	x1, .LC0
	add	x5, x5, :lo12:.LANCHOR0
	adrp	x4, .LC9
	add	x1, x1, :lo12:.LC0
	add	x3, x5, 160
	mov	w0, 1
	mov	w2, 236
	add	x4, x4, :lo12:.LC9
	add	x5, x5, 176
	bl	HI_PRINT
.LVL61:
	.loc 1 237 0
	mov	w1, -1
	b	.L205
.LVL62:
.L208:
	.loc 1 229 0
	adrp	x5, .LANCHOR0
	adrp	x1, .LC0
	add	x5, x5, :lo12:.LANCHOR0
	adrp	x4, .LC8
	add	x1, x1, :lo12:.LC0
	add	x3, x5, 160
	mov	w0, 1
.LVL63:
	mov	w2, 229
	add	x4, x4, :lo12:.LC8
	add	x5, x5, 176
	bl	HI_PRINT
.LVL64:
	.loc 1 230 0
	mov	w1, -1
	b	.L205
	.cfi_endproc
.LFE2716:
	.size	VENC_DRV_Umap, .-VENC_DRV_Umap
	.section	.rodata
	.align	3
.LANCHOR0 = . + 0
	.type	__FUNCTION__.46018, %object
	.size	__FUNCTION__.46018, 24
__FUNCTION__.46018:
	.string	"VENC_DRV_QueueFrame_OMX"
	.type	__FUNCTION__.46029, %object
	.size	__FUNCTION__.46029, 25
__FUNCTION__.46029:
	.string	"VENC_DRV_QueueStream_OMX"
	.zero	7
	.type	__FUNCTION__.46041, %object
	.size	__FUNCTION__.46041, 24
__FUNCTION__.46041:
	.string	"VENC_DRV_GetMessage_OMX"
	.type	__func__.46042, %object
	.size	__func__.46042, 24
__func__.46042:
	.string	"VENC_DRV_GetMessage_OMX"
	.type	__FUNCTION__.46052, %object
	.size	__FUNCTION__.46052, 23
__FUNCTION__.46052:
	.string	"VENC_DRV_FlushPort_OMX"
	.zero	1
	.type	__FUNCTION__.46057, %object
	.size	__FUNCTION__.46057, 13
__FUNCTION__.46057:
	.string	"VENC_DRV_Map"
	.zero	3
	.type	__func__.46058, %object
	.size	__func__.46058, 13
__func__.46058:
	.string	"VENC_DRV_Map"
	.zero	3
	.type	__FUNCTION__.46063, %object
	.size	__FUNCTION__.46063, 14
__FUNCTION__.46063:
	.string	"VENC_DRV_Umap"
	.zero	2
	.type	__func__.46064, %object
	.size	__func__.46064, 14
__func__.46064:
	.string	"VENC_DRV_Umap"
	.section	.rodata.str1.8,"aMS",%progbits,1
	.align	3
.LC0:
	.string	"/mnt/disk/jenkins/ci/workspace/chipset_release_960_xloader/opensource/component_code/vendor/huawei/extra/build/build_script/kirin_kernel_release/kernel/drivers/vcodec/hi_vcodec/venc/drv/venc/drv_omxvenc.c"
	.zero	3
.LC1:
	.string	"the handle(%x) does not start or even not be create either!\n"
	.zero	3
.LC2:
	.string	"pEncPara:0x%x\n"
	.zero	1
.LC3:
	.string	"%s :: invalid param : pmsg_info = %pK !!!\n"
	.zero	5
.LC4:
	.string	"invalid hVencChn 0x%x!\n"
.LC5:
	.string	"set flush port %d\n"
	.zero	5
.LC6:
	.string	"%s:: invalid param : pstFrameBuf = %pK !!\n"
	.zero	5
.LC7:
	.string	"%s:: VENC_DRV_EflMMapToKernel failed!\n"
	.zero	1
.LC8:
	.string	"%s:: bad input!!\n"
	.zero	6
.LC9:
	.string	"%s:: VENC_DRV_EflUMMapToKernel failed!\n"
	.text
.Letext0:
	.file 2 "/mnt/disk/jenkins/ci/workspace/chipset_release_960_xloader/opensource/component_code/vendor/huawei/extra/build/build_script/kirin_kernel_release/kernel/include/uapi/asm-generic/int-ll64.h"
	.file 3 "/mnt/disk/jenkins/ci/workspace/chipset_release_960_xloader/opensource/component_code/vendor/huawei/extra/build/build_script/kirin_kernel_release/kernel/include/asm-generic/int-ll64.h"
	.file 4 "/mnt/disk/jenkins/ci/workspace/chipset_release_960_xloader/opensource/component_code/vendor/huawei/extra/build/build_script/kirin_kernel_release/kernel/include/uapi/asm-generic/posix_types.h"
	.file 5 "/mnt/disk/jenkins/ci/workspace/chipset_release_960_xloader/opensource/component_code/vendor/huawei/extra/build/build_script/kirin_kernel_release/kernel/include/linux/types.h"
	.file 6 "/mnt/disk/jenkins/ci/workspace/chipset_release_960_xloader/opensource/component_code/vendor/huawei/extra/build/build_script/kirin_kernel_release/kernel/include/linux/jump_label.h"
	.file 7 "/mnt/disk/jenkins/ci/workspace/chipset_release_960_xloader/opensource/component_code/vendor/huawei/extra/build/build_script/kirin_kernel_release/kernel/include/asm-generic/atomic-long.h"
	.file 8 "/mnt/disk/jenkins/ci/workspace/chipset_release_960_xloader/opensource/component_code/vendor/huawei/extra/build/build_script/kirin_kernel_release/kernel/include/linux/restart_block.h"
	.file 9 "/mnt/disk/jenkins/ci/workspace/chipset_release_960_xloader/opensource/component_code/vendor/huawei/extra/build/build_script/kirin_kernel_release/kernel/include/uapi/linux/time.h"
	.file 10 "/mnt/disk/jenkins/ci/workspace/chipset_release_960_xloader/opensource/component_code/vendor/huawei/extra/build/build_script/kirin_kernel_release/kernel/arch/arm64/include/asm/compat.h"
	.file 11 "/mnt/disk/jenkins/ci/workspace/chipset_release_960_xloader/opensource/component_code/vendor/huawei/extra/build/build_script/kirin_kernel_release/kernel/arch/arm64/include/asm/thread_info.h"
	.file 12 "/mnt/disk/jenkins/ci/workspace/chipset_release_960_xloader/opensource/component_code/vendor/huawei/extra/build/build_script/kirin_kernel_release/kernel/arch/arm64/include/uapi/asm/ptrace.h"
	.file 13 "/mnt/disk/jenkins/ci/workspace/chipset_release_960_xloader/opensource/component_code/vendor/huawei/extra/build/build_script/kirin_kernel_release/kernel/arch/arm64/include/asm/spinlock_types.h"
	.file 14 "/mnt/disk/jenkins/ci/workspace/chipset_release_960_xloader/opensource/component_code/vendor/huawei/extra/build/build_script/kirin_kernel_release/kernel/include/linux/spinlock_types.h"
	.file 15 "/mnt/disk/jenkins/ci/workspace/chipset_release_960_xloader/opensource/component_code/vendor/huawei/extra/build/build_script/kirin_kernel_release/kernel/include/linux/rwlock_types.h"
	.file 16 "/mnt/disk/jenkins/ci/workspace/chipset_release_960_xloader/opensource/component_code/vendor/huawei/extra/build/build_script/kirin_kernel_release/kernel/arch/arm64/include/asm/fpsimd.h"
	.file 17 "/mnt/disk/jenkins/ci/workspace/chipset_release_960_xloader/opensource/component_code/vendor/huawei/extra/build/build_script/kirin_kernel_release/kernel/arch/arm64/include/asm/processor.h"
	.file 18 "/mnt/disk/jenkins/ci/workspace/chipset_release_960_xloader/opensource/component_code/vendor/huawei/extra/build/build_script/kirin_kernel_release/kernel/include/linux/wait.h"
	.file 19 "/mnt/disk/jenkins/ci/workspace/chipset_release_960_xloader/opensource/component_code/vendor/huawei/extra/build/build_script/kirin_kernel_release/kernel/include/linux/cpumask.h"
	.file 20 "/mnt/disk/jenkins/ci/workspace/chipset_release_960_xloader/opensource/component_code/vendor/huawei/extra/build/build_script/kirin_kernel_release/kernel/include/linux/seqlock.h"
	.file 21 "/mnt/disk/jenkins/ci/workspace/chipset_release_960_xloader/opensource/component_code/vendor/huawei/extra/build/build_script/kirin_kernel_release/kernel/include/linux/completion.h"
	.file 22 "/mnt/disk/jenkins/ci/workspace/chipset_release_960_xloader/opensource/component_code/vendor/huawei/extra/build/build_script/kirin_kernel_release/kernel/include/linux/time64.h"
	.file 23 "/mnt/disk/jenkins/ci/workspace/chipset_release_960_xloader/opensource/component_code/vendor/huawei/extra/build/build_script/kirin_kernel_release/kernel/include/linux/ktime.h"
	.file 24 "/mnt/disk/jenkins/ci/workspace/chipset_release_960_xloader/opensource/component_code/vendor/huawei/extra/build/build_script/kirin_kernel_release/kernel/include/linux/list_bl.h"
	.file 25 "/mnt/disk/jenkins/ci/workspace/chipset_release_960_xloader/opensource/component_code/vendor/huawei/extra/build/build_script/kirin_kernel_release/kernel/include/linux/lockref.h"
	.file 26 "/mnt/disk/jenkins/ci/workspace/chipset_release_960_xloader/opensource/component_code/vendor/huawei/extra/build/build_script/kirin_kernel_release/kernel/include/linux/dcache.h"
	.file 27 "/mnt/disk/jenkins/ci/workspace/chipset_release_960_xloader/opensource/component_code/vendor/huawei/extra/build/build_script/kirin_kernel_release/kernel/include/linux/fs.h"
	.file 28 "/mnt/disk/jenkins/ci/workspace/chipset_release_960_xloader/opensource/component_code/vendor/huawei/extra/build/build_script/kirin_kernel_release/kernel/include/linux/path.h"
	.file 29 "/mnt/disk/jenkins/ci/workspace/chipset_release_960_xloader/opensource/component_code/vendor/huawei/extra/build/build_script/kirin_kernel_release/kernel/include/linux/capability.h"
	.file 30 "/mnt/disk/jenkins/ci/workspace/chipset_release_960_xloader/opensource/component_code/vendor/huawei/extra/build/build_script/kirin_kernel_release/kernel/include/linux/plist.h"
	.file 31 "/mnt/disk/jenkins/ci/workspace/chipset_release_960_xloader/opensource/component_code/vendor/huawei/extra/build/build_script/kirin_kernel_release/kernel/include/linux/rbtree.h"
	.file 32 "/mnt/disk/jenkins/ci/workspace/chipset_release_960_xloader/opensource/component_code/vendor/huawei/extra/build/build_script/kirin_kernel_release/kernel/include/linux/nodemask.h"
	.file 33 "/mnt/disk/jenkins/ci/workspace/chipset_release_960_xloader/opensource/component_code/vendor/huawei/extra/build/build_script/kirin_kernel_release/kernel/include/linux/osq_lock.h"
	.file 34 "/mnt/disk/jenkins/ci/workspace/chipset_release_960_xloader/opensource/component_code/vendor/huawei/extra/build/build_script/kirin_kernel_release/kernel/include/linux/rwsem.h"
	.file 35 "/mnt/disk/jenkins/ci/workspace/chipset_release_960_xloader/opensource/component_code/vendor/huawei/extra/build/build_script/kirin_kernel_release/kernel/include/linux/sched.h"
	.file 36 "/mnt/disk/jenkins/ci/workspace/chipset_release_960_xloader/opensource/component_code/vendor/huawei/extra/build/build_script/kirin_kernel_release/kernel/include/linux/mm_types.h"
	.file 37 "/mnt/disk/jenkins/ci/workspace/chipset_release_960_xloader/opensource/component_code/vendor/huawei/extra/build/build_script/kirin_kernel_release/kernel/include/linux/lockdep.h"
	.file 38 "/mnt/disk/jenkins/ci/workspace/chipset_release_960_xloader/opensource/component_code/vendor/huawei/extra/build/build_script/kirin_kernel_release/kernel/include/linux/uprobes.h"
	.file 39 "/mnt/disk/jenkins/ci/workspace/chipset_release_960_xloader/opensource/component_code/vendor/huawei/extra/build/build_script/kirin_kernel_release/kernel/include/linux/timer.h"
	.file 40 "/mnt/disk/jenkins/ci/workspace/chipset_release_960_xloader/opensource/component_code/vendor/huawei/extra/build/build_script/kirin_kernel_release/kernel/include/linux/uidgid.h"
	.file 41 "/mnt/disk/jenkins/ci/workspace/chipset_release_960_xloader/opensource/component_code/vendor/huawei/extra/build/build_script/kirin_kernel_release/kernel/include/linux/workqueue.h"
	.file 42 "/mnt/disk/jenkins/ci/workspace/chipset_release_960_xloader/opensource/component_code/vendor/huawei/extra/build/build_script/kirin_kernel_release/kernel/arch/arm64/include/asm/pgtable-types.h"
	.file 43 "/mnt/disk/jenkins/ci/workspace/chipset_release_960_xloader/opensource/component_code/vendor/huawei/extra/build/build_script/kirin_kernel_release/kernel/arch/arm64/include/asm/page.h"
	.file 44 "/mnt/disk/jenkins/ci/workspace/chipset_release_960_xloader/opensource/component_code/vendor/huawei/extra/build/build_script/kirin_kernel_release/kernel/include/linux/llist.h"
	.file 45 "/mnt/disk/jenkins/ci/workspace/chipset_release_960_xloader/opensource/component_code/vendor/huawei/extra/build/build_script/kirin_kernel_release/kernel/arch/arm64/include/asm/smp.h"
	.file 46 "/mnt/disk/jenkins/ci/workspace/chipset_release_960_xloader/opensource/component_code/vendor/huawei/extra/build/build_script/kirin_kernel_release/kernel/arch/arm64/include/asm/mmu.h"
	.file 47 "/mnt/disk/jenkins/ci/workspace/chipset_release_960_xloader/opensource/component_code/vendor/huawei/extra/build/build_script/kirin_kernel_release/kernel/include/linux/mm.h"
	.file 48 "/mnt/disk/jenkins/ci/workspace/chipset_release_960_xloader/opensource/component_code/vendor/huawei/extra/build/build_script/kirin_kernel_release/kernel/include/asm-generic/cputime_jiffies.h"
	.file 49 "/mnt/disk/jenkins/ci/workspace/chipset_release_960_xloader/opensource/component_code/vendor/huawei/extra/build/build_script/kirin_kernel_release/kernel/include/uapi/asm-generic/signal.h"
	.file 50 "/mnt/disk/jenkins/ci/workspace/chipset_release_960_xloader/opensource/component_code/vendor/huawei/extra/build/build_script/kirin_kernel_release/kernel/include/uapi/asm-generic/signal-defs.h"
	.file 51 "/mnt/disk/jenkins/ci/workspace/chipset_release_960_xloader/opensource/component_code/vendor/huawei/extra/build/build_script/kirin_kernel_release/kernel/include/uapi/asm-generic/siginfo.h"
	.file 52 "/mnt/disk/jenkins/ci/workspace/chipset_release_960_xloader/opensource/component_code/vendor/huawei/extra/build/build_script/kirin_kernel_release/kernel/include/linux/signal.h"
	.file 53 "/mnt/disk/jenkins/ci/workspace/chipset_release_960_xloader/opensource/component_code/vendor/huawei/extra/build/build_script/kirin_kernel_release/kernel/include/linux/pid.h"
	.file 54 "/mnt/disk/jenkins/ci/workspace/chipset_release_960_xloader/opensource/component_code/vendor/huawei/extra/build/build_script/kirin_kernel_release/kernel/include/linux/mmzone.h"
	.file 55 "/mnt/disk/jenkins/ci/workspace/chipset_release_960_xloader/opensource/component_code/vendor/huawei/extra/build/build_script/kirin_kernel_release/kernel/include/linux/mutex.h"
	.file 56 "/mnt/disk/jenkins/ci/workspace/chipset_release_960_xloader/opensource/component_code/vendor/huawei/extra/build/build_script/kirin_kernel_release/kernel/include/linux/seccomp.h"
	.file 57 "/mnt/disk/jenkins/ci/workspace/chipset_release_960_xloader/opensource/component_code/vendor/huawei/extra/build/build_script/kirin_kernel_release/kernel/include/uapi/linux/resource.h"
	.file 58 "/mnt/disk/jenkins/ci/workspace/chipset_release_960_xloader/opensource/component_code/vendor/huawei/extra/build/build_script/kirin_kernel_release/kernel/include/linux/timerqueue.h"
	.file 59 "/mnt/disk/jenkins/ci/workspace/chipset_release_960_xloader/opensource/component_code/vendor/huawei/extra/build/build_script/kirin_kernel_release/kernel/include/linux/hrtimer.h"
	.file 60 "/mnt/disk/jenkins/ci/workspace/chipset_release_960_xloader/opensource/component_code/vendor/huawei/extra/build/build_script/kirin_kernel_release/kernel/include/linux/task_io_accounting.h"
	.file 61 "/mnt/disk/jenkins/ci/workspace/chipset_release_960_xloader/opensource/component_code/vendor/huawei/extra/build/build_script/kirin_kernel_release/kernel/include/linux/assoc_array.h"
	.file 62 "/mnt/disk/jenkins/ci/workspace/chipset_release_960_xloader/opensource/component_code/vendor/huawei/extra/build/build_script/kirin_kernel_release/kernel/include/linux/key.h"
	.file 63 "/mnt/disk/jenkins/ci/workspace/chipset_release_960_xloader/opensource/component_code/vendor/huawei/extra/build/build_script/kirin_kernel_release/kernel/include/linux/cred.h"
	.file 64 "/mnt/disk/jenkins/ci/workspace/chipset_release_960_xloader/opensource/component_code/vendor/huawei/extra/build/build_script/kirin_kernel_release/kernel/include/linux/idr.h"
	.file 65 "/mnt/disk/jenkins/ci/workspace/chipset_release_960_xloader/opensource/component_code/vendor/huawei/extra/build/build_script/kirin_kernel_release/kernel/include/linux/percpu-refcount.h"
	.file 66 "/mnt/disk/jenkins/ci/workspace/chipset_release_960_xloader/opensource/component_code/vendor/huawei/extra/build/build_script/kirin_kernel_release/kernel/include/linux/rcu_sync.h"
	.file 67 "/mnt/disk/jenkins/ci/workspace/chipset_release_960_xloader/opensource/component_code/vendor/huawei/extra/build/build_script/kirin_kernel_release/kernel/include/linux/percpu-rwsem.h"
	.file 68 "/mnt/disk/jenkins/ci/workspace/chipset_release_960_xloader/opensource/component_code/vendor/huawei/extra/build/build_script/kirin_kernel_release/kernel/include/linux/bpf-cgroup.h"
	.file 69 "/mnt/disk/jenkins/ci/workspace/chipset_release_960_xloader/opensource/component_code/vendor/huawei/extra/build/build_script/kirin_kernel_release/kernel/include/linux/cgroup-defs.h"
	.file 70 "/mnt/disk/jenkins/ci/workspace/chipset_release_960_xloader/opensource/component_code/vendor/huawei/extra/build/build_script/kirin_kernel_release/kernel/include/linux/kernfs.h"
	.file 71 "/mnt/disk/jenkins/ci/workspace/chipset_release_960_xloader/opensource/component_code/vendor/huawei/extra/build/build_script/kirin_kernel_release/kernel/include/linux/seq_file.h"
	.file 72 "/mnt/disk/jenkins/ci/workspace/chipset_release_960_xloader/opensource/component_code/vendor/huawei/extra/build/build_script/kirin_kernel_release/kernel/include/linux/stat.h"
	.file 73 "/mnt/disk/jenkins/ci/workspace/chipset_release_960_xloader/opensource/component_code/vendor/huawei/extra/build/build_script/kirin_kernel_release/kernel/include/linux/shrinker.h"
	.file 74 "/mnt/disk/jenkins/ci/workspace/chipset_release_960_xloader/opensource/component_code/vendor/huawei/extra/build/build_script/kirin_kernel_release/kernel/include/linux/list_lru.h"
	.file 75 "/mnt/disk/jenkins/ci/workspace/chipset_release_960_xloader/opensource/component_code/vendor/huawei/extra/build/build_script/kirin_kernel_release/kernel/include/linux/radix-tree.h"
	.file 76 "/mnt/disk/jenkins/ci/workspace/chipset_release_960_xloader/opensource/component_code/vendor/huawei/extra/build/build_script/kirin_kernel_release/kernel/include/uapi/linux/fiemap.h"
	.file 77 "/mnt/disk/jenkins/ci/workspace/chipset_release_960_xloader/opensource/component_code/vendor/huawei/extra/build/build_script/kirin_kernel_release/kernel/include/linux/migrate_mode.h"
	.file 78 "/mnt/disk/jenkins/ci/workspace/chipset_release_960_xloader/opensource/component_code/vendor/huawei/extra/build/build_script/kirin_kernel_release/kernel/include/linux/delayed_call.h"
	.file 79 "/mnt/disk/jenkins/ci/workspace/chipset_release_960_xloader/opensource/component_code/vendor/huawei/extra/build/build_script/kirin_kernel_release/kernel/include/linux/percpu_counter.h"
	.file 80 "/mnt/disk/jenkins/ci/workspace/chipset_release_960_xloader/opensource/component_code/vendor/huawei/extra/build/build_script/kirin_kernel_release/kernel/include/linux/quota.h"
	.file 81 "/mnt/disk/jenkins/ci/workspace/chipset_release_960_xloader/opensource/component_code/vendor/huawei/extra/build/build_script/kirin_kernel_release/kernel/include/linux/projid.h"
	.file 82 "/mnt/disk/jenkins/ci/workspace/chipset_release_960_xloader/opensource/component_code/vendor/huawei/extra/build/build_script/kirin_kernel_release/kernel/include/linux/nfs_fs_i.h"
	.file 83 "/mnt/disk/jenkins/ci/workspace/chipset_release_960_xloader/opensource/component_code/vendor/huawei/extra/build/build_script/kirin_kernel_release/kernel/include/linux/kobject_ns.h"
	.file 84 "/mnt/disk/jenkins/ci/workspace/chipset_release_960_xloader/opensource/component_code/vendor/huawei/extra/build/build_script/kirin_kernel_release/kernel/include/linux/sysfs.h"
	.file 85 "/mnt/disk/jenkins/ci/workspace/chipset_release_960_xloader/opensource/component_code/vendor/huawei/extra/build/build_script/kirin_kernel_release/kernel/include/linux/kobject.h"
	.file 86 "/mnt/disk/jenkins/ci/workspace/chipset_release_960_xloader/opensource/component_code/vendor/huawei/extra/build/build_script/kirin_kernel_release/kernel/include/linux/kref.h"
	.file 87 "/mnt/disk/jenkins/ci/workspace/chipset_release_960_xloader/opensource/component_code/vendor/huawei/extra/build/build_script/kirin_kernel_release/kernel/include/linux/klist.h"
	.file 88 "/mnt/disk/jenkins/ci/workspace/chipset_release_960_xloader/opensource/component_code/vendor/huawei/extra/build/build_script/kirin_kernel_release/kernel/include/linux/pinctrl/devinfo.h"
	.file 89 "/mnt/disk/jenkins/ci/workspace/chipset_release_960_xloader/opensource/component_code/vendor/huawei/extra/build/build_script/kirin_kernel_release/kernel/include/linux/pm.h"
	.file 90 "/mnt/disk/jenkins/ci/workspace/chipset_release_960_xloader/opensource/component_code/vendor/huawei/extra/build/build_script/kirin_kernel_release/kernel/include/linux/device.h"
	.file 91 "/mnt/disk/jenkins/ci/workspace/chipset_release_960_xloader/opensource/component_code/vendor/huawei/extra/build/build_script/kirin_kernel_release/kernel/include/linux/pm_wakeup.h"
	.file 92 "/mnt/disk/jenkins/ci/workspace/chipset_release_960_xloader/opensource/component_code/vendor/huawei/extra/build/build_script/kirin_kernel_release/kernel/arch/arm64/include/asm/device.h"
	.file 93 "/mnt/disk/jenkins/ci/workspace/chipset_release_960_xloader/opensource/component_code/vendor/huawei/extra/build/build_script/kirin_kernel_release/kernel/include/linux/dma-mapping.h"
	.file 94 "/mnt/disk/jenkins/ci/workspace/chipset_release_960_xloader/opensource/component_code/vendor/huawei/extra/build/build_script/kirin_kernel_release/kernel/include/linux/iommu.h"
	.file 95 "/mnt/disk/jenkins/ci/workspace/chipset_release_960_xloader/opensource/component_code/vendor/huawei/extra/build/build_script/kirin_kernel_release/kernel/include/linux/mod_devicetable.h"
	.file 96 "/mnt/disk/jenkins/ci/workspace/chipset_release_960_xloader/opensource/component_code/vendor/huawei/extra/build/build_script/kirin_kernel_release/kernel/include/linux/of.h"
	.file 97 "/mnt/disk/jenkins/ci/workspace/chipset_release_960_xloader/opensource/component_code/vendor/huawei/extra/build/build_script/kirin_kernel_release/kernel/include/linux/fwnode.h"
	.file 98 "/mnt/disk/jenkins/ci/workspace/chipset_release_960_xloader/opensource/component_code/vendor/huawei/extra/build/build_script/kirin_kernel_release/kernel/drivers/vcodec/hi_vcodec/venc/include/hi_type.h"
	.file 99 "/mnt/disk/jenkins/ci/workspace/chipset_release_960_xloader/opensource/component_code/vendor/huawei/extra/build/build_script/kirin_kernel_release/kernel/drivers/vcodec/hi_vcodec/venc/drv/include/hi_drv_video.h"
	.file 100 "/mnt/disk/jenkins/ci/workspace/chipset_release_960_xloader/opensource/component_code/vendor/huawei/extra/build/build_script/kirin_kernel_release/kernel/drivers/vcodec/hi_vcodec/venc/include/hi_unf_video.h"
	.file 101 "/mnt/disk/jenkins/ci/workspace/chipset_release_960_xloader/opensource/component_code/vendor/huawei/extra/build/build_script/kirin_kernel_release/kernel/drivers/vcodec/hi_vcodec/venc/include/hi_unf_venc.h"
	.file 102 "/mnt/disk/jenkins/ci/workspace/chipset_release_960_xloader/opensource/component_code/vendor/huawei/extra/build/build_script/kirin_kernel_release/kernel/drivers/vcodec/hi_vcodec/venc/drv/include/hi_drv_venc.h"
	.file 103 "/mnt/disk/jenkins/ci/workspace/chipset_release_960_xloader/opensource/component_code/vendor/huawei/extra/build/build_script/kirin_kernel_release/kernel/drivers/vcodec/hi_vcodec/venc/drv/venc/drv_venc_queue_mng.h"
	.file 104 "/mnt/disk/jenkins/ci/workspace/chipset_release_960_xloader/opensource/component_code/vendor/huawei/extra/build/build_script/kirin_kernel_release/kernel/include/linux/tracepoint-defs.h"
	.file 105 "/mnt/disk/jenkins/ci/workspace/chipset_release_960_xloader/opensource/component_code/vendor/huawei/extra/build/build_script/kirin_kernel_release/kernel/include/linux/vmstat.h"
	.file 106 "/mnt/disk/jenkins/ci/workspace/chipset_release_960_xloader/opensource/component_code/vendor/huawei/extra/build/build_script/kirin_kernel_release/kernel/include/linux/scatterlist.h"
	.file 107 "/mnt/disk/jenkins/ci/workspace/chipset_release_960_xloader/opensource/component_code/vendor/huawei/extra/build/build_script/kirin_kernel_release/kernel/include/linux/dma-direction.h"
	.file 108 "/mnt/disk/jenkins/ci/workspace/chipset_release_960_xloader/opensource/component_code/vendor/huawei/extra/build/build_script/kirin_kernel_release/kernel/drivers/vcodec/hi_vcodec/venc/drv/include/hi_drv_mem.h"
	.file 109 "/mnt/disk/jenkins/ci/workspace/chipset_release_960_xloader/opensource/component_code/vendor/huawei/extra/build/build_script/kirin_kernel_release/kernel/drivers/vcodec/hi_vcodec/venc/drv/venc/drv_venc_efl.h"
	.file 110 "/mnt/disk/jenkins/ci/workspace/chipset_release_960_xloader/opensource/component_code/vendor/huawei/extra/build/build_script/kirin_kernel_release/kernel/drivers/vcodec/hi_vcodec/venc/drv/venc/drv_venc.h"
	.file 111 "/mnt/disk/jenkins/ci/workspace/chipset_release_960_xloader/opensource/component_code/vendor/huawei/extra/build/build_script/kirin_kernel_release/kernel/drivers/vcodec/hi_vcodec/venc/drv/venc/drv_venc_buf_mng.h"
	.file 112 "/mnt/disk/jenkins/ci/workspace/chipset_release_960_xloader/opensource/component_code/vendor/huawei/extra/build/build_script/kirin_kernel_release/kernel/arch/arm64/include/asm/cachetype.h"
	.file 113 "/mnt/disk/jenkins/ci/workspace/chipset_release_960_xloader/opensource/component_code/vendor/huawei/extra/build/build_script/kirin_kernel_release/kernel/include/linux/printk.h"
	.file 114 "/mnt/disk/jenkins/ci/workspace/chipset_release_960_xloader/opensource/component_code/vendor/huawei/extra/build/build_script/kirin_kernel_release/kernel/include/linux/kernel.h"
	.file 115 "/mnt/disk/jenkins/ci/workspace/chipset_release_960_xloader/opensource/component_code/vendor/huawei/extra/build/build_script/kirin_kernel_release/kernel/arch/arm64/include/asm/stack_pointer.h"
	.file 116 "/mnt/disk/jenkins/ci/workspace/chipset_release_960_xloader/opensource/component_code/vendor/huawei/extra/build/build_script/kirin_kernel_release/kernel/arch/arm64/include/asm/hwcap.h"
	.file 117 "/mnt/disk/jenkins/ci/workspace/chipset_release_960_xloader/opensource/component_code/vendor/huawei/extra/build/build_script/kirin_kernel_release/kernel/arch/arm64/include/asm/cpufeature.h"
	.file 118 "/mnt/disk/jenkins/ci/workspace/chipset_release_960_xloader/opensource/component_code/vendor/huawei/extra/build/build_script/kirin_kernel_release/kernel/arch/arm64/include/asm/virt.h"
	.file 119 "/mnt/disk/jenkins/ci/workspace/chipset_release_960_xloader/opensource/component_code/vendor/huawei/extra/build/build_script/kirin_kernel_release/kernel/include/linux/jiffies.h"
	.file 120 "/mnt/disk/jenkins/ci/workspace/chipset_release_960_xloader/opensource/component_code/vendor/huawei/extra/build/build_script/kirin_kernel_release/kernel/include/linux/highuid.h"
	.file 121 "/mnt/disk/jenkins/ci/workspace/chipset_release_960_xloader/opensource/component_code/vendor/huawei/extra/build/build_script/kirin_kernel_release/kernel/arch/arm64/include/asm/memory.h"
	.file 122 "/mnt/disk/jenkins/ci/workspace/chipset_release_960_xloader/opensource/component_code/vendor/huawei/extra/build/build_script/kirin_kernel_release/kernel/include/asm-generic/percpu.h"
	.file 123 "/mnt/disk/jenkins/ci/workspace/chipset_release_960_xloader/opensource/component_code/vendor/huawei/extra/build/build_script/kirin_kernel_release/kernel/arch/arm64/include/asm/irq.h"
	.file 124 "/mnt/disk/jenkins/ci/workspace/chipset_release_960_xloader/opensource/component_code/vendor/huawei/extra/build/build_script/kirin_kernel_release/kernel/arch/arm64/include/asm/hardirq.h"
	.file 125 "/mnt/disk/jenkins/ci/workspace/chipset_release_960_xloader/opensource/component_code/vendor/huawei/extra/build/build_script/kirin_kernel_release/kernel/include/linux/interrupt.h"
	.file 126 "/mnt/disk/jenkins/ci/workspace/chipset_release_960_xloader/opensource/component_code/vendor/huawei/extra/build/build_script/kirin_kernel_release/kernel/include/linux/slab.h"
	.file 127 "/mnt/disk/jenkins/ci/workspace/chipset_release_960_xloader/opensource/component_code/vendor/huawei/extra/build/build_script/kirin_kernel_release/kernel/include/asm-generic/pgtable.h"
	.file 128 "/mnt/disk/jenkins/ci/workspace/chipset_release_960_xloader/opensource/component_code/vendor/huawei/extra/build/build_script/kirin_kernel_release/kernel/include/linux/debug_locks.h"
	.file 129 "/mnt/disk/jenkins/ci/workspace/chipset_release_960_xloader/opensource/component_code/vendor/huawei/extra/build/build_script/kirin_kernel_release/kernel/include/linux/pci.h"
	.file 130 "/mnt/disk/jenkins/ci/workspace/chipset_release_960_xloader/opensource/component_code/vendor/huawei/extra/build/build_script/kirin_kernel_release/kernel/arch/arm64/include/../../arm/include/asm/xen/hypervisor.h"
	.file 131 "/mnt/disk/jenkins/ci/workspace/chipset_release_960_xloader/opensource/component_code/vendor/huawei/extra/build/build_script/kirin_kernel_release/kernel/arch/arm64/include/asm/dma-mapping.h"
	.file 132 "/mnt/disk/jenkins/ci/workspace/chipset_release_960_xloader/opensource/component_code/vendor/huawei/extra/build/build_script/kirin_kernel_release/kernel/include/trace/events/iommu.h"
	.file 133 "/mnt/disk/jenkins/ci/workspace/chipset_release_960_xloader/opensource/component_code/vendor/huawei/extra/build/build_script/kirin_kernel_release/kernel/drivers/vcodec/hi_vcodec/venc/drv/venc/drv_omxvenc_efl.h"
	.section	.note.GNU-stack,"",%progbits
