	.cpu generic+fp+simd
	.file	"hal_venc.c"
	.text
.Ltext0:
	.cfi_sections	.debug_frame
	.align	2
	.global	VENC_HAL_ClrAllInt
	.type	VENC_HAL_ClrAllInt, %function
VENC_HAL_ClrAllInt:
.LFB2957:
	.file 1 "/mnt/disk/jenkins/ci/workspace/chipset_release_960_xloader/opensource/component_code/vendor/huawei/extra/build/build_script/kirin_kernel_release/kernel/drivers/vcodec/hi_vcodec/venc/drv/venc/hal_venc.c"
	.loc 1 27 0
	.cfi_startproc
.LVL0:
	.loc 1 28 0
	cbz	x0, .L1
	.loc 1 29 0
	mov	w1, -1
	str	w1, [x0,12]
.L1:
	.loc 1 31 0
	ret
	.cfi_endproc
.LFE2957:
	.size	VENC_HAL_ClrAllInt, .-VENC_HAL_ClrAllInt
	.align	2
	.global	VENC_HAL_DisableAllInt
	.type	VENC_HAL_DisableAllInt, %function
VENC_HAL_DisableAllInt:
.LFB2958:
	.loc 1 34 0
	.cfi_startproc
.LVL1:
	.loc 1 35 0
	cbz	x0, .L7
	.loc 1 36 0
	str	wzr, [x0,4]
.L7:
	.loc 1 38 0
	ret
	.cfi_endproc
.LFE2958:
	.size	VENC_HAL_DisableAllInt, .-VENC_HAL_DisableAllInt
	.align	2
	.global	VENC_HAL_ResetReg
	.type	VENC_HAL_ResetReg, %function
VENC_HAL_ResetReg:
.LFB2959:
	.loc 1 41 0
	.cfi_startproc
	stp	x29, x30, [sp, -16]!
	.cfi_def_cfa_offset 16
	.cfi_offset 29, -16
	.cfi_offset 30, -8
	.loc 1 42 0
	mov	w0, 0
	.loc 1 41 0
	add	x29, sp, 0
	.cfi_def_cfa_register 29
	.loc 1 42 0
	bl	Venc_Regulator_Disable
.LVL2:
	.loc 1 43 0
	bl	Venc_Regulator_Enable
.LVL3:
	.loc 1 44 0
	ldp	x29, x30, [sp], 16
	.cfi_restore 30
	.cfi_restore 29
	.cfi_def_cfa 31, 0
	ret
	.cfi_endproc
.LFE2959:
	.size	VENC_HAL_ResetReg, .-VENC_HAL_ResetReg
	.align	2
	.global	VeduHal_ReadReg_Venc
	.type	VeduHal_ReadReg_Venc, %function
VeduHal_ReadReg_Venc:
.LFB2960:
	.loc 1 56 0
	.cfi_startproc
.LVL4:
	stp	x29, x30, [sp, -96]!
	.cfi_def_cfa_offset 96
	.cfi_offset 29, -96
	.cfi_offset 30, -88
	add	x29, sp, 0
	.cfi_def_cfa_register 29
	stp	x19, x20, [sp,16]
	stp	x21, x22, [sp,32]
	stp	x23, x24, [sp,48]
	stp	x25, x26, [sp,64]
	stp	x27, x28, [sp,80]
	.cfi_offset 19, -80
	.cfi_offset 20, -72
	.cfi_offset 21, -64
	.cfi_offset 22, -56
	.cfi_offset 23, -48
	.cfi_offset 24, -40
	.cfi_offset 25, -32
	.cfi_offset 26, -24
	.cfi_offset 27, -16
	.cfi_offset 28, -8
	.loc 1 56 0
	mov	x20, x0
	.loc 1 58 0
	ldr	x19, [x0,1776]
.LVL5:
	.loc 1 63 0
	ldr	w1, [x0,872]
	.loc 1 60 0
	ldr	w0, [x19,8]
.LVL6:
	and	w0, w0, 1
	str	w0, [x20,904]
	.loc 1 61 0
	ldr	w0, [x19,8]
	ubfx	x0, x0, 1, 1
	str	w0, [x20,900]
	.loc 1 63 0
	cbnz	w1, .L14
	.loc 1 65 0
	ldr	w5, [x19,8320]
	lsl	w5, w5, 3
	str	w5, [x20,888]
	.loc 1 66 0
	ldr	w6, [x19,6184]
	ldr	w0, [x19,6148]
	.loc 1 67 0
	ldr	w28, [x19,6180]
	.loc 1 66 0
	and	w6, w6, 524287
	and	w0, w0, 524287
	.loc 1 67 0
	ldr	w27, [x19,6212]
	and	w28, w28, 131071
	.loc 1 66 0
	add	w6, w6, w0
	.loc 1 67 0
	add	w6, w6, w28
	add	w6, w6, w27, uxth
	.loc 1 66 0
	str	w6, [x20,892]
.L15:
	.loc 1 75 0
	adrp	x28, .LC0
	adrp	x0, .LANCHOR0
	add	x23, x28, :lo12:.LC0
	adrp	x4, .LC1
	add	x3, x0, :lo12:.LANCHOR0
	mov	x1, x23
	mov	w0, 4
	mov	w2, 75
	add	x4, x4, :lo12:.LC1
	.loc 1 124 0
	mov	x25, x3
	add	x22, x20, 360
	.loc 1 75 0
	bl	HI_PRINT
.LVL7:
	.loc 1 77 0
	ldr	w26, [x19,11396]
	ldr	w24, [x19,11400]
	add	x8, x20, 4096
	and	w21, w26, 536870911
	add	x27, x8, 352
	and	w26, w24, 127
	.loc 1 124 0
	adrp	x24, .LC2
	.loc 1 77 0
	sub	w0, w21, w26
	.loc 1 124 0
	add	x24, x24, :lo12:.LC2
	.loc 1 117 0
	mov	w21, 0
	.loc 1 124 0
	add	x26, x25, 24
	.loc 1 77 0
	sxtw	x0, w0
	str	x0, [x20,360]
	.loc 1 78 0
	ldr	w1, [x19,11404]
	ldr	w0, [x19,11408]
	and	w1, w1, 536870911
	and	w0, w0, 127
	sub	w0, w1, w0
	sxtw	x0, w0
	str	x0, [x20,368]
	.loc 1 79 0
	ldr	w1, [x19,11412]
	ldr	w0, [x19,11416]
	and	w1, w1, 536870911
	and	w0, w0, 127
	sub	w0, w1, w0
	sxtw	x0, w0
	str	x0, [x20,376]
	.loc 1 80 0
	ldr	w1, [x19,11420]
	ldr	w0, [x19,11424]
	and	w1, w1, 536870911
	and	w0, w0, 127
	sub	w0, w1, w0
	sxtw	x0, w0
	str	x0, [x20,384]
	.loc 1 81 0
	ldr	w1, [x19,11428]
	ldr	w0, [x19,11432]
	and	w1, w1, 536870911
	and	w0, w0, 127
	sub	w0, w1, w0
	sxtw	x0, w0
	str	x0, [x20,392]
	.loc 1 82 0
	ldr	w1, [x19,11436]
	ldr	w0, [x19,11440]
	and	w1, w1, 536870911
	and	w0, w0, 127
	sub	w0, w1, w0
	sxtw	x0, w0
	str	x0, [x20,400]
	.loc 1 83 0
	ldr	w1, [x19,11444]
	ldr	w0, [x19,11448]
	and	w1, w1, 536870911
	and	w0, w0, 127
	sub	w0, w1, w0
	sxtw	x0, w0
	str	x0, [x20,408]
	.loc 1 84 0
	ldr	w1, [x19,11452]
	ldr	w0, [x19,11456]
	and	w1, w1, 536870911
	and	w0, w0, 127
	sub	w0, w1, w0
	sxtw	x0, w0
	str	x0, [x20,416]
	.loc 1 85 0
	ldr	w1, [x19,11460]
	ldr	w0, [x19,11464]
	and	w1, w1, 536870911
	and	w0, w0, 127
	sub	w0, w1, w0
	sxtw	x0, w0
	str	x0, [x20,424]
	.loc 1 86 0
	ldr	w1, [x19,11468]
	ldr	w0, [x19,11472]
	and	w1, w1, 536870911
	and	w0, w0, 127
	sub	w0, w1, w0
	sxtw	x0, w0
	str	x0, [x20,432]
	.loc 1 87 0
	ldr	w1, [x19,11476]
	ldr	w0, [x19,11480]
	and	w1, w1, 536870911
	and	w0, w0, 127
	sub	w0, w1, w0
	sxtw	x0, w0
	str	x0, [x20,440]
	.loc 1 88 0
	ldr	w1, [x19,11484]
	ldr	w0, [x19,11488]
	and	w1, w1, 536870911
	and	w0, w0, 127
	sub	w0, w1, w0
	sxtw	x0, w0
	str	x0, [x20,448]
	.loc 1 89 0
	ldr	w1, [x19,11492]
	ldr	w0, [x19,11496]
	and	w1, w1, 536870911
	and	w0, w0, 127
	sub	w0, w1, w0
	sxtw	x0, w0
	str	x0, [x20,456]
	.loc 1 90 0
	ldr	w1, [x19,11500]
	ldr	w0, [x19,11504]
	and	w1, w1, 536870911
	and	w0, w0, 127
	sub	w0, w1, w0
	sxtw	x0, w0
	str	x0, [x20,464]
	.loc 1 91 0
	ldr	w1, [x19,11508]
	ldr	w0, [x19,11512]
	and	w1, w1, 536870911
	and	w0, w0, 127
	sub	w0, w1, w0
	sxtw	x0, w0
	str	x0, [x20,472]
	.loc 1 92 0
	ldr	w1, [x19,11516]
	ldr	w0, [x19,11520]
	and	w1, w1, 536870911
	and	w0, w0, 127
	sub	w0, w1, w0
	sxtw	x0, w0
	str	x0, [x20,480]
	.loc 1 100 0
	ldr	w0, [x19,11400]
	ubfx	x0, x0, 31, 1
	str	x0, [x20,488]
	.loc 1 101 0
	ldr	w0, [x19,11408]
	ubfx	x0, x0, 31, 1
	str	x0, [x20,496]
	.loc 1 102 0
	ldr	w0, [x19,11416]
	ubfx	x0, x0, 31, 1
	str	x0, [x20,504]
	.loc 1 103 0
	ldr	w0, [x19,11424]
	ubfx	x0, x0, 31, 1
	str	x0, [x20,512]
	.loc 1 104 0
	ldr	w0, [x19,11432]
	ubfx	x0, x0, 31, 1
	str	x0, [x20,520]
	.loc 1 105 0
	ldr	w0, [x19,11440]
	ubfx	x0, x0, 31, 1
	str	x0, [x20,528]
	.loc 1 106 0
	ldr	w0, [x19,11448]
	ubfx	x0, x0, 31, 1
	str	x0, [x20,536]
	.loc 1 107 0
	ldr	w0, [x19,11456]
	ubfx	x0, x0, 31, 1
	str	x0, [x20,544]
	.loc 1 108 0
	ldr	w0, [x19,11464]
	ubfx	x0, x0, 31, 1
	str	x0, [x20,552]
	.loc 1 109 0
	ldr	w0, [x19,11472]
	ubfx	x0, x0, 31, 1
	str	x0, [x20,560]
	.loc 1 110 0
	ldr	w0, [x19,11480]
	ubfx	x0, x0, 31, 1
	str	x0, [x20,568]
	.loc 1 111 0
	ldr	w0, [x19,11488]
	ubfx	x0, x0, 31, 1
	str	x0, [x20,576]
	.loc 1 112 0
	ldr	w0, [x19,11496]
	ubfx	x0, x0, 31, 1
	str	x0, [x20,584]
	.loc 1 113 0
	ldr	w0, [x19,11504]
	ubfx	x0, x0, 31, 1
	str	x0, [x20,592]
	.loc 1 114 0
	ldr	w0, [x19,11512]
	ubfx	x0, x0, 31, 1
	str	x0, [x20,600]
	.loc 1 115 0
	ldr	w0, [x19,11520]
	ubfx	x0, x0, 31, 1
	str	x0, [x20,608]
.L18:
	.loc 1 119 0
	ldr	x0, [x22]
	.loc 1 124 0
	mov	w6, w21
	.loc 1 119 0
	str	w0, [x27]
	.loc 1 124 0
	mov	x1, x23
	mov	w0, 4
	mov	w2, 124
	.loc 1 120 0
	ldr	x9, [x22,128]
	.loc 1 124 0
	mov	x3, x25
	mov	x4, x24
	mov	x5, x26
	.loc 1 120 0
	cmp	x9, 1
	add	x27, x27, 152
	add	x22, x22, 8
	.loc 1 124 0
	mov	x7, x9
	.loc 1 120 0
	beq	.L25
	.loc 1 124 0
	bl	HI_PRINT
.LVL8:
	.loc 1 117 0 discriminator 2
	add	w21, w21, 1
	.loc 1 117 0 is_stmt 0 discriminator 1
	cmp	w21, 16
	bne	.L18
	mov	w23, 17
.L17:
	.loc 1 127 0 is_stmt 1
	adrp	x0, .LANCHOR0
	add	x28, x28, :lo12:.LC0
	add	x27, x0, :lo12:.LANCHOR0
	ldr	w6, [x20,4396]
	add	x22, x27, 24
	adrp	x4, .LC3
	mov	w0, 4
	mov	x1, x28
	mov	w2, 127
	mov	x3, x27
	add	x4, x4, :lo12:.LC3
	mov	x5, x22
	mov	w7, w21
	bl	HI_PRINT
.LVL9:
	.loc 1 128 0
	ldr	w0, [x20,4396]
	cmp	w0, w23
	beq	.L19
	.loc 1 130 0
	adrp	x4, .LC4
	mov	w0, 2
	mov	x1, x28
	mov	w2, 130
	mov	x3, x27
	add	x4, x4, :lo12:.LC4
	mov	x5, x22
	bl	HI_PRINT
.LVL10:
.L19:
	.loc 1 134 0
	ldr	x0, [x20,7008]
	cbz	x0, .L13
	.loc 1 136 0
	ldr	w0, [x19,7288]
	uxth	w0, w0
	str	w0, [x20,7016]
	.loc 1 137 0
	ldr	w0, [x19,7292]
	ubfx	x0, x0, 16, 14
	str	w0, [x20,7024]
	.loc 1 138 0
	ldr	w0, [x19,7292]
	and	w0, w0, 16383
	str	w0, [x20,7020]
.L13:
	.loc 1 150 0
	ldp	x19, x20, [sp,16]
	.cfi_remember_state
	.cfi_restore 20
	.cfi_restore 19
.LVL11:
	ldp	x21, x22, [sp,32]
	.cfi_restore 22
	.cfi_restore 21
	ldp	x23, x24, [sp,48]
	.cfi_restore 24
	.cfi_restore 23
	ldp	x25, x26, [sp,64]
	.cfi_restore 26
	.cfi_restore 25
	ldp	x27, x28, [sp,80]
	.cfi_restore 28
	.cfi_restore 27
	ldp	x29, x30, [sp], 96
	.cfi_restore 30
	.cfi_restore 29
	.cfi_def_cfa 31, 0
	ret
.LVL12:
.L14:
	.cfi_restore_state
	.loc 1 71 0
	ldr	w5, [x19,11908]
	lsl	w5, w5, 3
	str	w5, [x20,888]
	.loc 1 72 0
	ldr	w6, [x19,6184]
	ldr	w0, [x19,6148]
	.loc 1 73 0
	ldr	w28, [x19,6156]
	.loc 1 72 0
	and	w6, w6, 524287
	.loc 1 73 0
	ldr	w27, [x19,6180]
	.loc 1 72 0
	and	w0, w0, 524287
	.loc 1 73 0
	and	w28, w28, 524287
	.loc 1 72 0
	add	w6, w6, w0
	.loc 1 73 0
	and	w27, w27, 131071
	add	w6, w6, w28
	add	w6, w6, w27
	.loc 1 72 0
	str	w6, [x20,892]
	b	.L15
.L25:
	add	w23, w21, 1
	b	.L17
	.cfi_endproc
.LFE2960:
	.size	VeduHal_ReadReg_Venc, .-VeduHal_ReadReg_Venc
	.align	2
	.global	VeduHal_ReadReg_VencSimple
	.type	VeduHal_ReadReg_VencSimple, %function
VeduHal_ReadReg_VencSimple:
.LFB2961:
	.loc 1 153 0
	.cfi_startproc
.LVL13:
	stp	x29, x30, [sp, -80]!
	.cfi_def_cfa_offset 80
	.cfi_offset 29, -80
	.cfi_offset 30, -72
	add	x29, sp, 0
	.cfi_def_cfa_register 29
	stp	x19, x20, [sp,16]
	stp	x21, x22, [sp,32]
	stp	x23, x24, [sp,48]
	str	x25, [sp,64]
	.cfi_offset 19, -64
	.cfi_offset 20, -56
	.cfi_offset 21, -48
	.cfi_offset 22, -40
	.cfi_offset 23, -32
	.cfi_offset 24, -24
	.cfi_offset 25, -16
	.loc 1 184 0
	adrp	x22, .LANCHOR0
	add	x21, x0, 4096
	add	x22, x22, :lo12:.LANCHOR0
	.loc 1 155 0
	ldr	x1, [x0,1776]
.LVL14:
	.loc 1 184 0
	adrp	x23, .LC0
	add	x19, x0, 360
	add	x21, x21, 352
	.loc 1 177 0
	mov	w20, 0
.LVL15:
	.loc 1 184 0
	add	x23, x23, :lo12:.LC0
	.loc 1 157 0
	ldr	w2, [x1,8]
	.loc 1 184 0
	add	x25, x22, 48
	adrp	x24, .LC2
	.loc 1 157 0
	and	w2, w2, 1
	str	w2, [x0,904]
	.loc 1 158 0
	ldr	w2, [x1,8]
	ubfx	x2, x2, 1, 1
	str	w2, [x0,900]
	.loc 1 160 0
	ldr	w3, [x1,11396]
	ldr	w2, [x1,11400]
	and	w3, w3, 536870911
	and	w2, w2, 127
	sub	w2, w3, w2
	sxtw	x2, w2
	str	x2, [x0,360]
	.loc 1 161 0
	ldr	w3, [x1,11404]
	ldr	w2, [x1,11408]
	and	w3, w3, 536870911
	and	w2, w2, 127
	sub	w2, w3, w2
	sxtw	x2, w2
	str	x2, [x0,368]
	.loc 1 162 0
	ldr	w3, [x1,11412]
	ldr	w2, [x1,11416]
	and	w3, w3, 536870911
	and	w2, w2, 127
	sub	w2, w3, w2
	sxtw	x2, w2
	str	x2, [x0,376]
	.loc 1 163 0
	ldr	w3, [x1,11420]
	ldr	w2, [x1,11424]
	and	w3, w3, 536870911
	and	w2, w2, 127
	sub	w2, w3, w2
	sxtw	x2, w2
	str	x2, [x0,384]
	.loc 1 164 0
	ldr	w3, [x1,11428]
	ldr	w2, [x1,11432]
	and	w3, w3, 536870911
	and	w2, w2, 127
	sub	w2, w3, w2
	sxtw	x2, w2
	str	x2, [x0,392]
	.loc 1 165 0
	ldr	w3, [x1,11436]
	ldr	w2, [x1,11440]
	and	w3, w3, 536870911
	and	w2, w2, 127
	sub	w2, w3, w2
	sxtw	x2, w2
	str	x2, [x0,400]
	.loc 1 166 0
	ldr	w3, [x1,11444]
	ldr	w2, [x1,11448]
	and	w3, w3, 536870911
	and	w2, w2, 127
	sub	w2, w3, w2
	sxtw	x2, w2
	str	x2, [x0,408]
	.loc 1 167 0
	ldr	w3, [x1,11452]
	ldr	w2, [x1,11456]
	and	w3, w3, 536870911
	and	w2, w2, 127
	sub	w2, w3, w2
	sxtw	x2, w2
	str	x2, [x0,416]
	.loc 1 168 0
	ldr	w3, [x1,11460]
	ldr	w2, [x1,11464]
	and	w3, w3, 536870911
	and	w2, w2, 127
	sub	w2, w3, w2
	sxtw	x2, w2
	str	x2, [x0,424]
	.loc 1 169 0
	ldr	w3, [x1,11468]
	ldr	w2, [x1,11472]
	and	w3, w3, 536870911
	and	w2, w2, 127
	sub	w2, w3, w2
	sxtw	x2, w2
	str	x2, [x0,432]
	.loc 1 170 0
	ldr	w3, [x1,11476]
	ldr	w2, [x1,11480]
	and	w3, w3, 536870911
	and	w2, w2, 127
	sub	w2, w3, w2
	sxtw	x2, w2
	str	x2, [x0,440]
	.loc 1 171 0
	ldr	w3, [x1,11484]
	ldr	w2, [x1,11488]
	and	w3, w3, 536870911
	and	w2, w2, 127
	sub	w2, w3, w2
	sxtw	x2, w2
	str	x2, [x0,448]
	.loc 1 172 0
	ldr	w3, [x1,11492]
	ldr	w2, [x1,11496]
	and	w3, w3, 536870911
	and	w2, w2, 127
	sub	w2, w3, w2
	sxtw	x2, w2
	str	x2, [x0,456]
	.loc 1 173 0
	ldr	w3, [x1,11500]
	ldr	w2, [x1,11504]
	and	w3, w3, 536870911
	and	w2, w2, 127
	sub	w2, w3, w2
	sxtw	x2, w2
	str	x2, [x0,464]
	.loc 1 174 0
	ldr	w3, [x1,11508]
	ldr	w2, [x1,11512]
	and	w3, w3, 536870911
	and	w2, w2, 127
	sub	w2, w3, w2
	sxtw	x2, w2
	str	x2, [x0,472]
	.loc 1 175 0
	ldr	w2, [x1,11516]
	ldr	w1, [x1,11520]
.LVL16:
	and	w2, w2, 536870911
	and	w1, w1, 127
	sub	w1, w2, w1
	sxtw	x1, w1
	str	x1, [x0,480]
.L28:
	.loc 1 179 0
	ldr	x0, [x19]
.LVL17:
	.loc 1 184 0
	mov	w6, w20
	.loc 1 179 0
	str	w0, [x21]
	.loc 1 184 0
	mov	x1, x23
	mov	w0, 4
	mov	w2, 184
	.loc 1 180 0
	ldr	x8, [x19,128]
	.loc 1 184 0
	mov	x3, x25
	add	x4, x24, :lo12:.LC2
	add	x5, x22, 80
	.loc 1 180 0
	cmp	x8, 1
	.loc 1 177 0 discriminator 2
	add	w20, w20, 1
	add	x19, x19, 8
	.loc 1 184 0
	mov	x7, x8
	add	x21, x21, 152
	.loc 1 180 0
	beq	.L26
	.loc 1 184 0
	bl	HI_PRINT
.LVL18:
	.loc 1 177 0 discriminator 1
	cmp	w20, 16
	bne	.L28
.L26:
	.loc 1 186 0
	ldp	x19, x20, [sp,16]
	.cfi_restore 20
	.cfi_restore 19
.LVL19:
	ldp	x21, x22, [sp,32]
	.cfi_restore 22
	.cfi_restore 21
	ldp	x23, x24, [sp,48]
	.cfi_restore 24
	.cfi_restore 23
	ldr	x25, [sp,64]
	.cfi_restore 25
	ldp	x29, x30, [sp], 80
	.cfi_restore 30
	.cfi_restore 29
	.cfi_def_cfa 31, 0
	ret
	.cfi_endproc
.LFE2961:
	.size	VeduHal_ReadReg_VencSimple, .-VeduHal_ReadReg_VencSimple
	.align	2
	.global	VENC_HAL_ReadReg
	.type	VENC_HAL_ReadReg, %function
VENC_HAL_ReadReg:
.LFB2962:
	.loc 1 189 0
	.cfi_startproc
.LVL20:
	stp	x29, x30, [sp, -16]!
	.cfi_def_cfa_offset 16
	.cfi_offset 29, -16
	.cfi_offset 30, -8
	add	x29, sp, 0
	.cfi_def_cfa_register 29
	.loc 1 191 0
	bl	VeduHal_ReadReg_Venc
.LVL21:
	.loc 1 192 0
	ldp	x29, x30, [sp], 16
	.cfi_restore 30
	.cfi_restore 29
	.cfi_def_cfa 31, 0
	ret
	.cfi_endproc
.LFE2962:
	.size	VENC_HAL_ReadReg, .-VENC_HAL_ReadReg
	.align	2
	.global	VENC_HAL_ReadRegSimple
	.type	VENC_HAL_ReadRegSimple, %function
VENC_HAL_ReadRegSimple:
.LFB2963:
	.loc 1 195 0
	.cfi_startproc
.LVL22:
	stp	x29, x30, [sp, -16]!
	.cfi_def_cfa_offset 16
	.cfi_offset 29, -16
	.cfi_offset 30, -8
	add	x29, sp, 0
	.cfi_def_cfa_register 29
	.loc 1 198 0
	bl	VeduHal_ReadReg_VencSimple
.LVL23:
	.loc 1 201 0
	ldp	x29, x30, [sp], 16
	.cfi_restore 30
	.cfi_restore 29
	.cfi_def_cfa 31, 0
	ret
	.cfi_endproc
.LFE2963:
	.size	VENC_HAL_ReadRegSimple, .-VENC_HAL_ReadRegSimple
	.align	2
	.global	VENC_HAL_CfgAXIReg
	.type	VENC_HAL_CfgAXIReg, %function
VENC_HAL_CfgAXIReg:
.LFB2964:
	.loc 1 204 0
	.cfi_startproc
.LVL24:
	stp	x29, x30, [sp, -64]!
	.cfi_def_cfa_offset 64
	.cfi_offset 29, -64
	.cfi_offset 30, -56
	.loc 1 217 0
	adrp	x5, .LANCHOR0
	adrp	x4, .LC5
	.loc 1 204 0
	add	x29, sp, 0
	.cfi_def_cfa_register 29
	stp	x19, x20, [sp,16]
	.cfi_offset 19, -48
	.cfi_offset 20, -40
	adrp	x19, __stack_chk_guard
	.loc 1 217 0
	add	x5, x5, :lo12:.LANCHOR0
	.loc 1 204 0
	mov	w20, w1
	.loc 1 217 0
	adrp	x1, .LC0
.LVL25:
	.loc 1 204 0
	stp	x21, x22, [sp,32]
	.cfi_offset 21, -32
	.cfi_offset 22, -24
	.loc 1 204 0
	ldr	x6, [x19,#:lo12:__stack_chk_guard]
	.loc 1 217 0
	add	x3, x5, 112
	.loc 1 204 0
	mov	x21, x0
	.loc 1 217 0
	add	x1, x1, :lo12:.LC0
	mov	w0, 3
.LVL26:
	mov	w2, 217
	add	x4, x4, :lo12:.LC5
	add	x5, x5, 136
	.loc 1 204 0
	str	x6, [x29,56]
	.loc 1 217 0
	bl	HI_PRINT
.LVL27:
	.loc 1 219 0
	cmp	w20, 1
	beq	.L38
.LBB16:
	.loc 1 284 0
	ldr	x0, [x21,1776]
.LVL28:
	.loc 1 285 0
	mov	w1, -2147483648
	add	x0, x0, 61440
.LVL29:
	str	w1, [x0,3840]
	.loc 1 287 0
	mov	w1, 1
	.loc 1 286 0
	str	wzr, [x0,3872]
	.loc 1 287 0
	str	w1, [x0,3872]
.LVL30:
.L33:
.LBE16:
	.loc 1 289 0
	ldr	x1, [x29,56]
	ldr	x0, [x19,#:lo12:__stack_chk_guard]
	cmp	x1, x0
	bne	.L39
	ldp	x19, x20, [sp,16]
	.cfi_remember_state
	.cfi_restore 20
	.cfi_restore 19
.LVL31:
	ldp	x21, x22, [sp,32]
	.cfi_restore 22
	.cfi_restore 21
.LVL32:
	ldp	x29, x30, [sp], 64
	.cfi_restore 30
	.cfi_restore 29
	.cfi_def_cfa 31, 0
	ret
.LVL33:
.L38:
	.cfi_restore_state
	.loc 1 221 0
	ldr	w0, [x21,2612]
	.loc 1 237 0
	mov	w1, 4
	.loc 1 221 0
	tbz	x0, 0, .L35
	.loc 1 237 0
	add	x0, x29, 52
	.loc 1 223 0
	ldr	x21, [x21,1776]
.LVL34:
	.loc 1 238 0
	mov	w22, 500
	.loc 1 237 0
	bl	get_random_bytes
.LVL35:
	.loc 1 238 0
	add	x21, x21, 61440
.LVL36:
	ldr	w3, [x29,52]
	mov	w2, 19923
	movk	w2, 0x1062, lsl 16
	.loc 1 239 0
	add	x0, x29, 52
	mov	w1, 4
	.loc 1 238 0
	umull	x2, w3, w2
	lsr	x2, x2, 37
	msub	w2, w22, w2, w3
	add	w2, w2, 2000
	str	w2, [x21,3840]
	.loc 1 239 0
	bl	get_random_bytes
.LVL37:
	.loc 1 240 0
	ldr	w3, [x29,52]
	mov	w2, 19923
	movk	w2, 0x1062, lsl 16
	.loc 1 241 0
	add	x0, x29, 52
	mov	w1, 4
	.loc 1 240 0
	umull	x2, w3, w2
	lsr	x2, x2, 37
	msub	w2, w22, w2, w3
	add	w2, w2, 2000
	str	w2, [x21,3844]
	.loc 1 241 0
	bl	get_random_bytes
.LVL38:
	.loc 1 242 0
	ldr	w3, [x29,52]
	mov	w2, 19923
	movk	w2, 0x1062, lsl 16
	.loc 1 243 0
	add	x0, x29, 52
	mov	w1, 4
	.loc 1 242 0
	umull	x2, w3, w2
	lsr	x2, x2, 37
	msub	w2, w22, w2, w3
	add	w2, w2, 2000
	str	w2, [x21,3848]
	.loc 1 243 0
	bl	get_random_bytes
.LVL39:
	.loc 1 244 0
	ldr	w3, [x29,52]
	mov	w2, 19923
	movk	w2, 0x1062, lsl 16
	.loc 1 245 0
	add	x0, x29, 52
	mov	w1, 4
	.loc 1 244 0
	umull	x2, w3, w2
	lsr	x2, x2, 37
	msub	w2, w22, w2, w3
	add	w2, w2, 2000
	str	w2, [x21,3852]
	.loc 1 245 0
	bl	get_random_bytes
.LVL40:
	.loc 1 247 0
	str	wzr, [x21,3872]
	.loc 1 246 0
	ldr	w2, [x29,52]
	mov	w1, 19923
	movk	w1, 0x1062, lsl 16
	.loc 1 248 0
	mov	w0, w20
	.loc 1 246 0
	umull	x1, w2, w1
	lsr	x1, x1, 37
	msub	w22, w22, w1, w2
	add	w22, w22, 2000
	str	w22, [x21,3856]
	.loc 1 248 0
	bl	msleep
.LVL41:
	.loc 1 249 0
	str	w20, [x21,3872]
	b	.L33
.LVL42:
.L35:
	.loc 1 266 0
	add	x0, x29, 52
	.loc 1 253 0
	ldr	x21, [x21,1776]
.LVL43:
	.loc 1 267 0
	mov	w22, 2000
	.loc 1 266 0
	bl	get_random_bytes
.LVL44:
	.loc 1 267 0
	add	x21, x21, 61440
.LVL45:
	ldr	w3, [x29,52]
	mov	w2, 19923
	movk	w2, 0x1062, lsl 16
	.loc 1 268 0
	add	x0, x29, 52
	mov	w1, 4
	.loc 1 267 0
	umull	x2, w3, w2
	lsr	x2, x2, 39
	msub	w2, w22, w2, w3
	add	w2, w2, 10
	str	w2, [x21,3840]
	.loc 1 268 0
	bl	get_random_bytes
.LVL46:
	.loc 1 269 0
	ldr	w3, [x29,52]
	mov	w2, 19923
	movk	w2, 0x1062, lsl 16
	.loc 1 270 0
	add	x0, x29, 52
	mov	w1, 4
	.loc 1 269 0
	umull	x2, w3, w2
	lsr	x2, x2, 39
	msub	w2, w22, w2, w3
	add	w2, w2, 10
	str	w2, [x21,3844]
	.loc 1 270 0
	bl	get_random_bytes
.LVL47:
	.loc 1 271 0
	ldr	w3, [x29,52]
	mov	w2, 19923
	movk	w2, 0x1062, lsl 16
	.loc 1 272 0
	add	x0, x29, 52
	mov	w1, 4
	.loc 1 271 0
	umull	x2, w3, w2
	lsr	x2, x2, 39
	msub	w2, w22, w2, w3
	add	w2, w2, 10
	str	w2, [x21,3848]
	.loc 1 272 0
	bl	get_random_bytes
.LVL48:
	.loc 1 273 0
	ldr	w3, [x29,52]
	mov	w2, 19923
	movk	w2, 0x1062, lsl 16
	.loc 1 274 0
	add	x0, x29, 52
	mov	w1, 4
	.loc 1 273 0
	umull	x2, w3, w2
	lsr	x2, x2, 39
	msub	w2, w22, w2, w3
	add	w2, w2, 10
	str	w2, [x21,3852]
	.loc 1 274 0
	bl	get_random_bytes
.LVL49:
	.loc 1 277 0
	str	wzr, [x21,3872]
	.loc 1 275 0
	ldr	w2, [x29,52]
	mov	w1, 19923
	movk	w1, 0x1062, lsl 16
	.loc 1 278 0
	mov	w0, w20
	.loc 1 275 0
	umull	x1, w2, w1
	lsr	x1, x1, 39
	msub	w22, w22, w1, w2
	add	w22, w22, 10
	str	w22, [x21,3856]
	.loc 1 278 0
	bl	msleep
.LVL50:
	.loc 1 279 0
	str	w20, [x21,3872]
	b	.L33
.LVL51:
.L39:
	.loc 1 289 0
	bl	__stack_chk_fail
.LVL52:
	.cfi_endproc
.LFE2964:
	.size	VENC_HAL_CfgAXIReg, .-VENC_HAL_CfgAXIReg
	.align	2
	.global	VeduHal_CfgRegSimple
	.type	VeduHal_CfgRegSimple, %function
VeduHal_CfgRegSimple:
.LFB2966:
	.loc 1 360 0
	.cfi_startproc
.LVL53:
	stp	x29, x30, [sp, -64]!
	.cfi_def_cfa_offset 64
	.cfi_offset 29, -64
	.cfi_offset 30, -56
	.loc 1 364 0
	adrp	x4, .LC6
	mov	w2, 364
	.loc 1 360 0
	add	x29, sp, 0
	.cfi_def_cfa_register 29
	stp	x23, x24, [sp,48]
	.cfi_offset 23, -16
	.cfi_offset 24, -8
	.loc 1 364 0
	adrp	x23, .LANCHOR0
	adrp	x24, .LC0
	.loc 1 360 0
	stp	x19, x20, [sp,16]
	.loc 1 364 0
	add	x5, x23, :lo12:.LANCHOR0
	.cfi_offset 19, -48
	.cfi_offset 20, -40
	.loc 1 360 0
	mov	x19, x0
.LVL54:
	stp	x21, x22, [sp,32]
	.cfi_offset 21, -32
	.cfi_offset 22, -24
	.loc 1 364 0
	add	x3, x5, 160
	mov	w0, 4
.LVL55:
	add	x1, x24, :lo12:.LC0
	add	x4, x4, :lo12:.LC6
	add	x5, x5, 184
	.loc 1 363 0
	ldr	x22, [x19]
.LVL56:
	.loc 1 364 0
	bl	HI_PRINT
.LVL57:
	.loc 1 372 0
	ldr	w21, [x19,1832]
	.loc 1 370 0
	ldr	x20, [x19,1776]
.LVL58:
	.loc 1 372 0
	cbnz	w21, .L41
	.loc 1 374 0
	ldr	w0, [x20,20]
	orr	w0, w0, 65536
	str	w0, [x20,20]
	ldr	w21, [x19,1832]
.L42:
	.loc 1 381 0
	ldr	w0, [x20,20]
	ubfiz	w21, w21, 10, 2
	and	w0, w0, -3073
	orr	w21, w0, w21
	str	w21, [x20,20]
	.loc 1 382 0
	ldr	w0, [x19,3268]
	str	w0, [x22,228]
	.loc 1 384 0
	ubfiz	w0, w0, 10, 6
	ldr	w1, [x20,32]
	and	w1, w1, -64513
	orr	w0, w1, w0
	str	w0, [x20,32]
	.loc 1 385 0
	ldr	w0, [x20,3080]
	ldrh	w1, [x19,3272]
	and	w0, w0, -65536
	orr	w0, w0, w1
	str	w0, [x20,3080]
	.loc 1 386 0
	ldr	w1, [x20,20]
	ldr	w0, [x22,180]
	and	w1, w1, -129
	ubfiz	w0, w0, 7, 1
	orr	w0, w1, w0
	str	w0, [x20,20]
	.loc 1 387 0
	ldr	w1, [x22,184]
	ldr	w0, [x20,20]
	ubfiz	w1, w1, 6, 1
	and	w0, w0, -65
	orr	w0, w0, w1
	str	w0, [x20,20]
	.loc 1 389 0
	ldr	w0, [x22,192]
	cbnz	w0, .L43
	.loc 1 391 0
	ldr	w1, [x19,7156]
	sub	w2, w1, #60
	cmp	w2, 135
	bhi	.L44
	.loc 1 391 0 is_stmt 0 discriminator 1
	ldr	w1, [x19,7052]
	cbz	w1, .L74
.L48:
	.loc 1 439 0 is_stmt 1
	cmp	w1, 1
	beq	.L75
	.loc 1 466 0
	ldr	w1, [x19,1832]
	cbz	w1, .L62
	.loc 1 550 0
	cmp	w1, 1
	beq	.L63
.L50:
	.loc 1 636 0
	add	x21, x20, 16384
	and	w6, w0, 3
	.loc 1 638 0
	add	x3, x23, :lo12:.LANCHOR0
	adrp	x4, .LC7
	mov	w0, 4
	add	x1, x24, :lo12:.LC0
	.loc 1 636 0
	ldr	w5, [x21]
	.loc 1 638 0
	mov	w2, 638
	add	x3, x3, 160
	add	x4, x4, :lo12:.LC7
	.loc 1 636 0
	and	w5, w5, -4
	orr	w5, w5, w6
	str	w5, [x21]
	.loc 1 637 0
	ldr	w6, [x19,1856]
	ldr	w5, [x21]
	ubfiz	w6, w6, 2, 4
	and	w5, w5, -61
	orr	w5, w5, w6
	str	w5, [x21]
	.loc 1 638 0
	ldr	w5, [x19,4396]
	bl	HI_PRINT
.LVL59:
	.loc 1 641 0
	ldr	w0, [x19,28]
.LBB17:
	.loc 1 747 0
	mov	w2, 0
.LVL60:
.LBE17:
	.loc 1 641 0
	str	w0, [x21,16]
.LBB18:
	.loc 1 759 0
	mov	w3, 0
.LVL61:
.LBE18:
	.loc 1 642 0
	ldr	w1, [x19,28]
	ldr	w0, [x19,56]
	add	w0, w1, w0
	sub	w0, w0, #1
	str	w0, [x21,20]
	.loc 1 644 0
	ldr	w0, [x19,32]
	str	w0, [x21,24]
	.loc 1 645 0
	ldr	w1, [x19,32]
	ldr	w0, [x19,60]
	add	w0, w1, w0
	sub	w0, w0, #1
	str	w0, [x21,28]
	.loc 1 647 0
	ldr	w0, [x19,40]
	str	w0, [x21,32]
	.loc 1 648 0
	ldr	w1, [x19,40]
	ldr	w0, [x19,68]
	add	w0, w1, w0
	sub	w0, w0, #1
	str	w0, [x21,36]
	.loc 1 650 0
	ldr	w0, [x19,36]
	str	w0, [x21,40]
	.loc 1 651 0
	ldr	w1, [x19,36]
	ldr	w0, [x19,64]
	add	w0, w1, w0
	sub	w0, w0, #1
	str	w0, [x21,44]
	.loc 1 653 0
	ldr	w0, [x19,908]
	add	x0, x19, x0, lsl 2
	ldr	w0, [x0,12]
	str	w0, [x21,48]
	.loc 1 654 0
	ldr	w1, [x19,908]
	ldr	w0, [x19,48]
	add	x1, x19, x1, lsl 2
	sub	w0, w0, #1
	ldr	w1, [x1,12]
	add	w0, w0, w1
	str	w0, [x21,52]
	.loc 1 656 0
	ldr	w0, [x19,908]
	add	x0, x19, x0, lsl 2
	ldr	w0, [x0,20]
	str	w0, [x21,56]
	.loc 1 657 0
	ldr	w1, [x19,908]
	ldr	w0, [x19,52]
	add	x1, x19, x1, lsl 2
	sub	w0, w0, #1
	ldr	w1, [x1,20]
	add	w0, w0, w1
	str	w0, [x21,60]
	.loc 1 659 0
	ldr	w0, [x19,908]
	add	x0, x19, x0, lsl 2
	ldr	w0, [x0,1404]
	str	w0, [x21,64]
	.loc 1 660 0
	ldr	w1, [x19,908]
	ldr	w0, [x19,72]
	add	x1, x19, x1, lsl 2
	sub	w0, w0, #1
	ldr	w1, [x1,1404]
	add	w0, w0, w1
	str	w0, [x21,68]
	.loc 1 662 0
	ldr	w0, [x19,908]
	add	x0, x19, x0, lsl 2
	ldr	w0, [x0,1412]
	str	w0, [x21,72]
	.loc 1 663 0
	ldr	w1, [x19,908]
	ldr	w0, [x19,76]
	add	x1, x19, x1, lsl 2
	sub	w0, w0, #1
	ldr	w1, [x1,1412]
	add	w0, w0, w1
	str	w0, [x21,76]
	.loc 1 665 0
	ldr	w0, [x19,908]
	cmp	w0, wzr
	cset	x0, eq
	add	x0, x19, x0, lsl 2
	ldr	w0, [x0,12]
	str	w0, [x21,80]
	.loc 1 666 0
	ldr	w1, [x19,908]
	ldr	w0, [x19,48]
	cmp	w1, wzr
	cset	x1, eq
	sub	w0, w0, #1
	add	x1, x19, x1, lsl 2
	ldr	w1, [x1,12]
	add	w0, w0, w1
	str	w0, [x21,84]
	.loc 1 668 0
	ldr	w0, [x19,908]
	cmp	w0, wzr
	cset	x0, eq
	add	x0, x0, 4
	add	x0, x19, x0, lsl 2
	ldr	w0, [x0,4]
	str	w0, [x21,88]
	.loc 1 669 0
	ldr	w0, [x19,908]
	ldr	w1, [x19,52]
	cmp	w0, wzr
	cset	x0, eq
	sub	w1, w1, #1
	add	x0, x0, 4
	add	x0, x19, x0, lsl 2
	ldr	w0, [x0,4]
	add	w1, w1, w0
	str	w1, [x21,92]
	.loc 1 671 0
	ldr	w0, [x19,908]
	cmp	w0, wzr
	cset	x0, eq
	add	x0, x0, 348
	add	x0, x19, x0, lsl 2
	ldr	w0, [x0,12]
	str	w0, [x21,96]
	.loc 1 672 0
	ldr	w0, [x19,908]
	ldr	w1, [x19,72]
	cmp	w0, wzr
	cset	x0, eq
	sub	w1, w1, #1
	add	x0, x0, 348
	add	x0, x19, x0, lsl 2
	ldr	w0, [x0,12]
	add	w1, w1, w0
	str	w1, [x21,100]
	.loc 1 674 0
	ldr	w0, [x19,908]
	cmp	w0, wzr
	cset	x0, eq
	add	x0, x0, 352
	add	x0, x19, x0, lsl 2
	ldr	w0, [x0,4]
	str	w0, [x21,104]
	.loc 1 675 0
	ldr	w0, [x19,908]
	ldr	w1, [x19,76]
	cmp	w0, wzr
	cset	x0, eq
	sub	w1, w1, #1
	add	x0, x0, 352
	add	x0, x19, x0, lsl 2
	ldr	w0, [x0,4]
	add	w1, w1, w0
	str	w1, [x21,108]
	.loc 1 677 0
	ldr	w0, [x19,1908]
	str	w0, [x21,112]
	.loc 1 678 0
	ldr	w1, [x19,1908]
	ldr	w0, [x19,88]
	add	w0, w1, w0
	sub	w0, w0, #1
	str	w0, [x21,116]
	.loc 1 680 0
	ldr	w0, [x19,1912]
	str	w0, [x21,120]
	.loc 1 681 0
	ldr	w1, [x19,1912]
	ldr	w0, [x19,92]
	add	w0, w1, w0
	sub	w0, w0, #1
	str	w0, [x21,124]
	.loc 1 683 0
	ldr	w0, [x19,1916]
	str	w0, [x21,128]
	.loc 1 684 0
	ldr	w1, [x19,1916]
	ldr	w0, [x19,96]
	add	w0, w1, w0
	sub	w0, w0, #1
	str	w0, [x21,132]
	.loc 1 686 0
	ldr	w0, [x19,1908]
	str	w0, [x21,136]
	.loc 1 687 0
	ldr	w0, [x19,1908]
	str	w0, [x21,140]
	.loc 1 689 0
	ldr	x0, [x19,104]
	str	w0, [x21,256]
	.loc 1 690 0
	ldr	x0, [x19,112]
	str	w0, [x21,260]
	.loc 1 691 0
	ldr	x0, [x19,120]
	str	w0, [x21,264]
	.loc 1 692 0
	ldr	x0, [x19,128]
	str	w0, [x21,268]
	.loc 1 693 0
	ldr	x0, [x19,136]
	str	w0, [x21,272]
	.loc 1 694 0
	ldr	x0, [x19,144]
	str	w0, [x21,276]
	.loc 1 695 0
	ldr	x0, [x19,152]
	str	w0, [x21,280]
	.loc 1 696 0
	ldr	x0, [x19,160]
	str	w0, [x21,284]
	.loc 1 697 0
	ldr	x0, [x19,168]
	str	w0, [x21,288]
	.loc 1 698 0
	ldr	x0, [x19,176]
	str	w0, [x21,292]
	.loc 1 699 0
	ldr	x0, [x19,184]
	str	w0, [x21,296]
	.loc 1 700 0
	ldr	x0, [x19,192]
	str	w0, [x21,300]
	.loc 1 701 0
	ldr	x0, [x19,200]
	str	w0, [x21,304]
	.loc 1 702 0
	ldr	x0, [x19,208]
	str	w0, [x21,308]
	.loc 1 703 0
	ldr	x0, [x19,216]
	str	w0, [x21,312]
	.loc 1 704 0
	ldr	x0, [x19,224]
	str	w0, [x21,316]
	.loc 1 707 0
	ldr	x1, [x19,104]
	ldr	x0, [x19,232]
	add	w0, w1, w0
	sub	w0, w0, #1
	str	w0, [x21,320]
	.loc 1 708 0
	ldr	x1, [x19,112]
	ldr	x0, [x19,240]
	add	w0, w1, w0
	sub	w0, w0, #1
	str	w0, [x21,324]
	.loc 1 709 0
	ldr	x1, [x19,120]
	ldr	x0, [x19,248]
	add	w0, w1, w0
	sub	w0, w0, #1
	str	w0, [x21,328]
	.loc 1 710 0
	ldr	x1, [x19,128]
	ldr	x0, [x19,256]
	add	w0, w1, w0
	sub	w0, w0, #1
	str	w0, [x21,332]
	.loc 1 711 0
	ldr	x1, [x19,136]
	ldr	x0, [x19,264]
	add	w0, w1, w0
	sub	w0, w0, #1
	str	w0, [x21,336]
	.loc 1 712 0
	ldr	x1, [x19,144]
	ldr	x0, [x19,272]
	add	w0, w1, w0
	sub	w0, w0, #1
	str	w0, [x21,340]
	.loc 1 713 0
	ldr	x1, [x19,152]
	ldr	x0, [x19,280]
	add	w0, w1, w0
	sub	w0, w0, #1
	str	w0, [x21,344]
	.loc 1 714 0
	ldr	x1, [x19,160]
	ldr	x0, [x19,288]
	add	w0, w1, w0
	sub	w0, w0, #1
	str	w0, [x21,348]
	.loc 1 715 0
	ldr	x1, [x19,168]
	ldr	x0, [x19,296]
	add	w0, w1, w0
	sub	w0, w0, #1
	str	w0, [x21,352]
	.loc 1 716 0
	ldr	x1, [x19,176]
	ldr	x0, [x19,304]
	add	w0, w1, w0
	sub	w0, w0, #1
	str	w0, [x21,356]
	.loc 1 717 0
	ldr	x1, [x19,184]
	ldr	x0, [x19,312]
	add	w0, w1, w0
	sub	w0, w0, #1
	str	w0, [x21,360]
	.loc 1 718 0
	ldr	x1, [x19,192]
	ldr	x0, [x19,320]
	add	w0, w1, w0
	sub	w0, w0, #1
	str	w0, [x21,364]
	.loc 1 719 0
	ldr	x1, [x19,200]
	ldr	x0, [x19,328]
	add	w0, w1, w0
	sub	w0, w0, #1
	str	w0, [x21,368]
	.loc 1 720 0
	ldr	x1, [x19,208]
	ldr	x0, [x19,336]
	add	w0, w1, w0
	sub	w0, w0, #1
	str	w0, [x21,372]
	.loc 1 721 0
	ldr	x1, [x19,216]
	ldr	x0, [x19,344]
	add	w0, w1, w0
	sub	w0, w0, #1
	str	w0, [x21,376]
	.loc 1 722 0
	ldr	x1, [x19,224]
	ldr	x0, [x19,352]
	add	w0, w1, w0
	sub	w0, w0, #1
	str	w0, [x21,380]
	.loc 1 725 0
	ldr	w0, [x19,44]
	str	w0, [x20,184]
	.loc 1 726 0
	ldr	w0, [x19,1908]
	str	w0, [x20,188]
	.loc 1 727 0
	ldr	w0, [x19,1912]
	str	w0, [x20,192]
	.loc 1 728 0
	ldr	w0, [x19,1916]
	str	w0, [x20,196]
	.loc 1 729 0
	ldr	w0, [x19,1920]
	str	w0, [x20,200]
	.loc 1 730 0
	ldr	w0, [x19,1924]
	str	w0, [x20,204]
	.loc 1 731 0
	ldr	w1, [x20,296]
	ldr	w0, [x19,1864]
	and	w1, w1, -15361
	ubfiz	w0, w0, 10, 4
	orr	w0, w1, w0
	str	w0, [x20,296]
	.loc 1 732 0
	ldr	w1, [x20,296]
	ldr	w0, [x19,1856]
	and	w1, w1, -961
	ubfiz	w0, w0, 6, 4
	orr	w0, w1, w0
	str	w0, [x20,296]
	.loc 1 733 0
	ldr	w1, [x20,296]
	ldr	w0, [x19,1860]
	and	w1, w1, -5
	ubfiz	w0, w0, 2, 1
	orr	w0, w1, w0
	str	w0, [x20,296]
	.loc 1 734 0
	ldrh	w1, [x19,1852]
	ldr	w0, [x20,208]
	and	w0, w0, 65535
	orr	w0, w0, w1, lsl 16
	str	w0, [x20,208]
	.loc 1 735 0
	ldrh	w1, [x19,1848]
	ldr	w0, [x20,208]
	and	w0, w0, -65536
	orr	w0, w0, w1
	str	w0, [x20,208]
	.loc 1 738 0
	ldr	w1, [x20,208]
	ldr	w0, [x20,212]
	lsr	w1, w1, 16
	and	w0, w0, 65535
	orr	w0, w0, w1, lsl 17
	str	w0, [x20,212]
	.loc 1 739 0
	ldr	w1, [x20,208]
	ldr	w0, [x20,212]
	ubfiz	w1, w1, 1, 15
	and	w0, w0, -65536
	orr	w0, w0, w1
	str	w0, [x20,212]
	.loc 1 741 0
	ldr	w0, [x19,908]
	add	x0, x19, x0, lsl 2
	ldr	w0, [x0,1404]
	str	w0, [x20,216]
	.loc 1 742 0
	ldr	w0, [x19,908]
	add	x0, x19, x0, lsl 2
	ldr	w0, [x0,1412]
	str	w0, [x20,220]
.LBB19:
	.loc 1 748 0
	ldr	w0, [x22,300]
	add	w0, w0, 255
	and	w0, w0, 65280
	bfi	w2, w0, 0, 16
	.loc 1 749 0
	bfi	w2, w0, 16, 16
	.loc 1 750 0
	str	w2, [x20,224]
.LBE19:
	.loc 1 753 0
	ldr	w0, [x19,908]
	add	x0, x19, x0, lsl 2
	ldr	w0, [x0,12]
	str	w0, [x20,228]
	.loc 1 755 0
	ldr	w0, [x19,908]
	add	x0, x19, x0, lsl 2
	ldr	w0, [x0,20]
	str	w0, [x20,232]
.LBB20:
	.loc 1 760 0
	ldr	w0, [x22,192]
	cbnz	w0, .L52
	.loc 1 762 0
	ldr	w0, [x22,300]
	add	w0, w0, 63
	lsr	w0, w0, 6
	lsl	w0, w0, 5
	bfi	w3, w0, 0, 16
	mov	w0, w3
.L53:
	.loc 1 768 0
	str	w0, [x20,236]
.LBE20:
.LBB21:
	.loc 1 779 0
	mov	w1, 0
.LVL62:
.LBE21:
	.loc 1 772 0
	ldr	w0, [x19,908]
	cmp	w0, wzr
	cset	x0, eq
	add	x0, x0, 348
	add	x0, x19, x0, lsl 2
	ldr	w0, [x0,12]
	str	w0, [x20,240]
	.loc 1 774 0
	ldr	w0, [x19,908]
	cmp	w0, wzr
	cset	x0, eq
	add	x0, x0, 352
	add	x0, x19, x0, lsl 2
	ldr	w0, [x0,4]
	str	w0, [x20,244]
.LBB22:
	.loc 1 780 0
	ldr	w0, [x22,300]
	add	w0, w0, 255
	and	w0, w0, 65280
	bfi	w1, w0, 0, 16
	.loc 1 781 0
	bfi	w1, w0, 16, 16
	.loc 1 782 0
	str	w1, [x20,248]
.LBE22:
	.loc 1 786 0
	ldr	w0, [x19,908]
	cmp	w0, wzr
	cset	x0, eq
	add	x0, x19, x0, lsl 2
	ldr	w0, [x0,12]
	str	w0, [x20,252]
	.loc 1 788 0
	ldr	w0, [x19,908]
	cmp	w0, wzr
	cset	x0, eq
	add	x0, x0, 4
	add	x0, x19, x0, lsl 2
	ldr	w0, [x0,4]
	str	w0, [x20,256]
.LBB23:
	.loc 1 793 0
	ldr	w0, [x22,192]
	cbnz	w0, .L54
	.loc 1 795 0
	ldr	w0, [x22,300]
	add	w0, w0, 63
	lsr	w0, w0, 6
	ubfiz	w0, w0, 5, 11
	orr	w0, w0, w0, lsl 16
.L55:
	.loc 1 803 0
	str	w0, [x20,260]
.LBE23:
.LBB24:
	.loc 1 864 0
	mov	w2, 0
.LVL63:
.LBE24:
.LBB25:
	.loc 1 882 0
	mov	w1, 0
.LVL64:
.LBE25:
.LBB26:
	.loc 1 892 0
	mov	w3, 0
.LVL65:
.LBE26:
	.loc 1 807 0
	ldr	w0, [x19,36]
	str	w0, [x20,264]
	.loc 1 808 0
	ldr	w0, [x19,40]
	str	w0, [x20,268]
	.loc 1 809 0
	ldr	w0, [x19,28]
	str	w0, [x20,276]
	.loc 1 810 0
	ldr	w0, [x19,32]
	str	w0, [x20,280]
	.loc 1 811 0
	ldr	x0, [x19,104]
	str	w0, [x20,420]
	.loc 1 812 0
	ldr	x0, [x19,112]
	str	w0, [x20,424]
	.loc 1 813 0
	ldr	x0, [x19,120]
	str	w0, [x20,428]
	.loc 1 814 0
	ldr	x0, [x19,128]
	str	w0, [x20,432]
	.loc 1 815 0
	ldr	x0, [x19,136]
	str	w0, [x20,436]
	.loc 1 816 0
	ldr	x0, [x19,144]
	str	w0, [x20,440]
	.loc 1 817 0
	ldr	x0, [x19,152]
	str	w0, [x20,444]
	.loc 1 818 0
	ldr	x0, [x19,160]
	str	w0, [x20,448]
	.loc 1 819 0
	ldr	x0, [x19,168]
	str	w0, [x20,452]
	.loc 1 820 0
	ldr	x0, [x19,176]
	str	w0, [x20,456]
	.loc 1 821 0
	ldr	x0, [x19,184]
	str	w0, [x20,460]
	.loc 1 822 0
	ldr	x0, [x19,192]
	str	w0, [x20,464]
	.loc 1 823 0
	ldr	x0, [x19,200]
	str	w0, [x20,468]
	.loc 1 824 0
	ldr	x0, [x19,208]
	str	w0, [x20,472]
	.loc 1 825 0
	ldr	x0, [x19,216]
	str	w0, [x20,476]
	.loc 1 826 0
	ldr	x0, [x19,224]
	str	w0, [x20,480]
	.loc 1 827 0
	ldr	x0, [x19,232]
	str	w0, [x20,356]
	.loc 1 828 0
	ldr	x0, [x19,240]
	str	w0, [x20,360]
	.loc 1 829 0
	ldr	x0, [x19,248]
	str	w0, [x20,364]
	.loc 1 830 0
	ldr	x0, [x19,256]
	str	w0, [x20,368]
	.loc 1 831 0
	ldr	x0, [x19,264]
	str	w0, [x20,372]
	.loc 1 832 0
	ldr	x0, [x19,272]
	str	w0, [x20,376]
	.loc 1 833 0
	ldr	x0, [x19,280]
	str	w0, [x20,380]
	.loc 1 834 0
	ldr	x0, [x19,288]
	str	w0, [x20,384]
	.loc 1 835 0
	ldr	x0, [x19,296]
	str	w0, [x20,388]
	.loc 1 836 0
	ldr	x0, [x19,304]
	str	w0, [x20,392]
	.loc 1 837 0
	ldr	x0, [x19,312]
	str	w0, [x20,396]
	.loc 1 838 0
	ldr	x0, [x19,320]
	str	w0, [x20,400]
	.loc 1 839 0
	ldr	x0, [x19,328]
	str	w0, [x20,404]
	.loc 1 840 0
	ldr	x0, [x19,336]
	str	w0, [x20,408]
	.loc 1 841 0
	ldr	x0, [x19,344]
	str	w0, [x20,412]
	.loc 1 842 0
	ldr	x0, [x19,352]
	str	w0, [x20,416]
	.loc 1 855 0
	ldr	w0, [x20,284]
	and	w0, w0, -513
	str	w0, [x20,284]
.LBB27:
	.loc 1 868 0
	ldr	w4, [x19,1832]
	.loc 1 866 0
	ldr	w0, [x22,2616]
	.loc 1 874 0
	cmp	w4, 1
	mov	w4, 9729
	.loc 1 866 0
	bfi	w2, w0, 8, 3
	.loc 1 874 0
	mov	w0, 513
	csel	w0, w0, w4, eq
	bfi	w2, w0, 16, 16
	.loc 1 876 0
	str	w2, [x20,8192]
.LBE27:
.LBB28:
	.loc 1 884 0
	ldr	w2, [x19,1824]
.LVL66:
	.loc 1 885 0
	ldr	w0, [x19,1828]
	.loc 1 884 0
	bfi	w1, w2, 0, 5
	.loc 1 885 0
	bfi	w1, w0, 16, 16
	.loc 1 887 0
	str	w1, [x20,8196]
.LBE28:
.LBB29:
	.loc 1 894 0
	mov	w0, 16
	ldr	w2, [x19,1824]
	ldr	w1, [x19,1788]
.LVL67:
	sub	w0, w0, w2
	lsl	w0, w1, w0
	bfi	w3, w0, 0, 16
	.loc 1 896 0
	str	w3, [x20,8200]
.LBE29:
	.loc 1 901 0
	ldr	w0, [x19,872]
	cbnz	w0, .L57
	.loc 1 903 0
	ldr	w0, [x19,1828]
	cmp	w0, 31
	bls	.L76
	.loc 1 909 0
	ldr	w0, [x19,1792]
	str	w0, [x20,8204]
.L59:
	.loc 1 912 0
	ldr	w0, [x19,1828]
	cmp	w0, 32
	bls	.L60
	.loc 1 914 0
	ldr	w1, [x19,1796]
	mov	w2, 64
	sub	w0, w2, w0
	lsl	w0, w1, w0
	str	w0, [x20,8208]
.L60:
	.loc 1 916 0
	ldr	w0, [x19,1800]
	str	w0, [x20,8212]
	.loc 1 917 0
	ldr	w0, [x19,1804]
	str	w0, [x20,8216]
	.loc 1 918 0
	ldr	w0, [x19,1808]
	str	w0, [x20,8220]
	.loc 1 919 0
	ldr	w0, [x19,1812]
	str	w0, [x20,8224]
	.loc 1 920 0
	ldr	w0, [x19,1816]
	str	w0, [x20,8228]
	.loc 1 921 0
	ldr	w0, [x19,1820]
	str	w0, [x20,8232]
	.loc 1 938 0
	ldr	w0, [x20,11288]
	and	w0, w0, -65537
	str	w0, [x20,11288]
	.loc 1 1019 0
	ldp	x19, x20, [sp,16]
	.cfi_remember_state
	.cfi_restore 19
	.cfi_restore 20
.LVL68:
	ldp	x21, x22, [sp,32]
	.cfi_restore 21
	.cfi_restore 22
.LVL69:
	ldp	x23, x24, [sp,48]
	.cfi_restore 23
	.cfi_restore 24
	ldp	x29, x30, [sp], 64
	.cfi_restore 29
	.cfi_restore 30
	.cfi_def_cfa 31, 0
	ret
.LVL70:
.L41:
	.cfi_restore_state
	.loc 1 376 0
	cmp	w21, 1
	bne	.L42
	.loc 1 378 0
	ldr	w0, [x20,20]
	and	w0, w0, -65537
	str	w0, [x20,20]
	ldr	w21, [x19,1832]
	b	.L42
.L43:
	.loc 1 456 0
	cmp	w0, 1
	bne	.L50
	.loc 1 458 0
	ldr	w1, [x20,672]
	ldr	w0, [x22,1268]
	and	w1, w1, -3841
	ubfiz	w0, w0, 8, 4
	orr	w0, w1, w0
	str	w0, [x20,672]
	.loc 1 459 0
	ldr	w1, [x20,672]
	ldr	w0, [x22,1272]
	and	w1, w1, -241
	ubfiz	w0, w0, 4, 4
	orr	w0, w1, w0
	str	w0, [x20,672]
	.loc 1 460 0
	ldr	w1, [x20,672]
	ldr	w0, [x22,1276]
	and	w1, w1, -16
	and	w0, w0, 15
	orr	w0, w1, w0
	str	w0, [x20,672]
	.loc 1 461 0
	ldr	w1, [x20,684]
	ldr	w0, [x22,1316]
	and	w1, w1, -3841
	ubfiz	w0, w0, 8, 4
	orr	w0, w1, w0
	str	w0, [x20,684]
	.loc 1 462 0
	ldr	w1, [x20,684]
	ldr	w0, [x22,1320]
	and	w1, w1, -241
	ubfiz	w0, w0, 4, 4
	orr	w0, w1, w0
	str	w0, [x20,684]
	.loc 1 463 0
	ldr	w1, [x22,1324]
	ldr	w0, [x20,684]
	and	w1, w1, 15
	and	w0, w0, -16
	orr	w0, w0, w1
	str	w0, [x20,684]
	.loc 1 466 0
	ldr	w0, [x19,1832]
	cbz	w0, .L77
.L51:
	.loc 1 550 0
	cmp	w0, 1
	ldr	w0, [x22,192]
	bne	.L50
	.loc 1 550 0 is_stmt 0 discriminator 1
	cbnz	w0, .L50
.L63:
	.loc 1 552 0 is_stmt 1
	mov	w0, 18
	str	w0, [x22,1652]
	.loc 1 553 0
	mov	w0, 23
	str	w0, [x22,1656]
	.loc 1 554 0
	mov	w0, 29
	str	w0, [x22,1660]
	.loc 1 555 0
	mov	w0, 36
	str	w0, [x22,1664]
	.loc 1 556 0
	mov	w0, 46
	str	w0, [x22,1668]
	.loc 1 557 0
	mov	w0, 58
	str	w0, [x22,1672]
	.loc 1 558 0
	mov	w0, 73
	str	w0, [x22,1676]
	.loc 1 559 0
	mov	w0, 93
	str	w0, [x22,1680]
	.loc 1 560 0
	mov	w0, 117
	str	w0, [x22,1684]
	.loc 1 561 0
	mov	w0, 147
	str	w0, [x22,1688]
	.loc 1 562 0
	mov	w0, 186
	str	w0, [x22,1692]
	.loc 1 563 0
	mov	w0, 234
	str	w0, [x22,1696]
	.loc 1 564 0
	mov	w0, 295
	str	w0, [x22,1700]
	.loc 1 565 0
	mov	w0, 372
	str	w0, [x22,1704]
	.loc 1 566 0
	mov	w0, 469
	str	w0, [x22,1708]
	.loc 1 567 0
	mov	w0, 591
	str	w0, [x22,1712]
	.loc 1 568 0
	mov	w0, 745
	str	w0, [x22,1716]
	.loc 1 569 0
	mov	w0, 939
	str	w0, [x22,1720]
	.loc 1 570 0
	mov	w0, 1183
	str	w0, [x22,1724]
	.loc 1 571 0
	mov	w0, 1491
	str	w0, [x22,1728]
	.loc 1 572 0
	mov	w0, 1879
	str	w0, [x22,1732]
	.loc 1 573 0
	mov	w0, 2367
	str	w0, [x22,1736]
	.loc 1 574 0
	mov	w0, 2982
	str	w0, [x22,1740]
	.loc 1 575 0
	mov	w0, 3758
	str	w0, [x22,1744]
	.loc 1 576 0
	mov	w0, 4734
	str	w0, [x22,1748]
	.loc 1 577 0
	mov	w0, 5965
	str	w0, [x22,1752]
	.loc 1 578 0
	mov	w0, 7516
	str	w0, [x22,1756]
	.loc 1 579 0
	mov	w0, 9469
	str	w0, [x22,1760]
	.loc 1 580 0
	mov	w0, 11931
	str	w0, [x22,1764]
	.loc 1 581 0
	mov	w0, 15032
	str	w0, [x22,1768]
	.loc 1 582 0
	mov	w0, 18939
	str	w0, [x22,1772]
	.loc 1 583 0
	mov	w0, 23862
	str	w0, [x22,1776]
	.loc 1 584 0
	mov	w0, 30065
	str	w0, [x22,1780]
	.loc 1 590 0
	mov	w0, 54724
	.loc 1 585 0
	mov	w3, 37879
	.loc 1 590 0
	movk	w0, 0x1, lsl 16
	.loc 1 585 0
	str	w3, [x22,1784]
	.loc 1 590 0
	str	w0, [x22,1804]
	.loc 1 591 0
	mov	w0, 131071
	str	w0, [x22,1808]
	.loc 1 592 0
	mov	w0, 194
	str	w0, [x22,1812]
	.loc 1 593 0
	mov	w0, 218
	str	w0, [x22,1816]
	.loc 1 594 0
	mov	w0, 245
	str	w0, [x22,1820]
	.loc 1 595 0
	mov	w0, 275
	str	w0, [x22,1824]
	.loc 1 596 0
	mov	w0, 308
	str	w0, [x22,1828]
	.loc 1 597 0
	mov	w0, 346
	str	w0, [x22,1832]
	.loc 1 598 0
	mov	w0, 389
	str	w0, [x22,1836]
	.loc 1 599 0
	mov	w0, 436
	str	w0, [x22,1840]
	.loc 1 600 0
	mov	w0, 490
	str	w0, [x22,1844]
	.loc 1 601 0
	mov	w0, 550
	str	w0, [x22,1848]
	.loc 1 602 0
	mov	w0, 617
	str	w0, [x22,1852]
	.loc 1 603 0
	mov	w0, 693
	str	w0, [x22,1856]
	.loc 1 604 0
	mov	w0, 778
	str	w0, [x22,1860]
	.loc 1 605 0
	mov	w0, 873
	str	w0, [x22,1864]
	.loc 1 606 0
	mov	w0, 980
	str	w0, [x22,1868]
	.loc 1 607 0
	mov	w0, 1100
	str	w0, [x22,1872]
	.loc 1 608 0
	mov	w0, 1235
	str	w0, [x22,1876]
	.loc 1 609 0
	mov	w0, 1387
	str	w0, [x22,1880]
	.loc 1 610 0
	mov	w0, 1557
	str	w0, [x22,1884]
	.loc 1 611 0
	mov	w0, 1747
	str	w0, [x22,1888]
	.loc 1 612 0
	mov	w0, 1961
	str	w0, [x22,1892]
	.loc 1 613 0
	mov	w0, 2201
	str	w0, [x22,1896]
	.loc 1 614 0
	mov	w0, 2471
	str	w0, [x22,1900]
	.loc 1 615 0
	mov	w0, 2774
	.loc 1 589 0
	mov	w1, 29915
	.loc 1 615 0
	str	w0, [x22,1904]
	.loc 1 616 0
	mov	w0, 3114
	.loc 1 586 0
	mov	w3, 47725
	.loc 1 589 0
	movk	w1, 0x1, lsl 16
	.loc 1 616 0
	str	w0, [x22,1908]
	.loc 1 588 0
	mov	w2, 10223
	.loc 1 617 0
	mov	w0, 3495
	.loc 1 586 0
	str	w3, [x22,1788]
	.loc 1 588 0
	movk	w2, 0x1, lsl 16
	.loc 1 589 0
	str	w1, [x22,1800]
	.loc 1 587 0
	mov	w3, 60130
	.loc 1 617 0
	str	w0, [x22,1912]
	.loc 1 622 0
	mov	w1, 6228
	.loc 1 618 0
	mov	w0, 3923
	.loc 1 587 0
	str	w3, [x22,1792]
	.loc 1 618 0
	str	w0, [x22,1916]
	.loc 1 619 0
	mov	w0, 4403
	.loc 1 588 0
	str	w2, [x22,1796]
	.loc 1 619 0
	str	w0, [x22,1920]
	.loc 1 620 0
	mov	w0, 4943
	.loc 1 622 0
	str	w1, [x22,1932]
	.loc 1 623 0
	mov	w1, 6990
	str	w1, [x22,1936]
	.loc 1 624 0
	mov	w1, 7846
	str	w1, [x22,1940]
	.loc 1 625 0
	mov	w1, 8807
	str	w1, [x22,1944]
	.loc 1 626 0
	mov	w1, 9886
	str	w1, [x22,1948]
	.loc 1 627 0
	mov	w1, 11097
	str	w1, [x22,1952]
	.loc 1 628 0
	mov	w1, 12456
	str	w1, [x22,1956]
	.loc 1 629 0
	mov	w1, 13981
	.loc 1 620 0
	str	w0, [x22,1924]
	.loc 1 621 0
	mov	w0, 5548
	.loc 1 629 0
	str	w1, [x22,1960]
	.loc 1 630 0
	mov	w1, 15693
	.loc 1 621 0
	str	w0, [x22,1928]
	.loc 1 631 0
	mov	w0, 0
	.loc 1 630 0
	str	w1, [x22,1964]
	.loc 1 631 0
	mov	w1, 17615
	str	w1, [x22,1968]
	b	.L50
.LVL71:
.L52:
.LBB30:
	.loc 1 764 0
	cmp	w0, 1
	mov	w0, 0
	bne	.L53
	.loc 1 766 0
	ldr	w0, [x22,300]
	add	w0, w0, 255
	lsr	w0, w0, 8
	lsl	w0, w0, 5
	bfi	w3, w0, 0, 16
	mov	w0, w3
	b	.L53
.LVL72:
.L57:
.LBE30:
	.loc 1 925 0
	ldr	w0, [x19,1876]
	str	w0, [x20,11780]
	.loc 1 926 0
	ldr	w0, [x19,1880]
	str	w0, [x20,11784]
	.loc 1 927 0
	ldr	w0, [x19,1884]
	str	w0, [x20,11788]
	.loc 1 928 0
	ldr	w0, [x19,1888]
	str	w0, [x20,11792]
	.loc 1 929 0
	ldr	w0, [x19,1892]
	str	w0, [x20,11796]
	.loc 1 930 0
	ldr	w0, [x19,1896]
	str	w0, [x20,11800]
	.loc 1 931 0
	ldr	w0, [x19,1900]
	str	w0, [x20,11804]
	.loc 1 932 0
	ldr	w0, [x19,1904]
	str	w0, [x20,11808]
	.loc 1 933 0
	ldr	w1, [x19,1872]
	ldr	w0, [x20,11812]
	sub	w1, w1, #1
	ubfiz	w1, w1, 16, 7
	and	w0, w0, -8323073
	orr	w0, w0, w1
	str	w0, [x20,11812]
	.loc 1 934 0
	ldr	w0, [x19,1872]
	ldr	w1, [x20,11812]
	lsr	w0, w0, 8
	sub	w0, w0, #1
	and	w1, w1, -16129
	ubfiz	w0, w0, 8, 6
	orr	w0, w1, w0
	str	w0, [x20,11812]
	.loc 1 935 0
	ldrh	w1, [x19,1874]
	ldr	w0, [x20,11812]
	sub	w1, w1, #1
	and	w1, w1, 63
	and	w0, w0, -64
	orr	w0, w0, w1
	str	w0, [x20,11812]
	.loc 1 938 0
	ldr	w0, [x20,11288]
	and	w0, w0, -65537
	str	w0, [x20,11288]
	.loc 1 1019 0
	ldp	x19, x20, [sp,16]
	.cfi_remember_state
	.cfi_restore 20
	.cfi_restore 19
.LVL73:
	ldp	x21, x22, [sp,32]
	.cfi_restore 22
	.cfi_restore 21
.LVL74:
	ldp	x23, x24, [sp,48]
	.cfi_restore 24
	.cfi_restore 23
	ldp	x29, x30, [sp], 64
	.cfi_restore 30
	.cfi_restore 29
	.cfi_def_cfa 31, 0
	ret
.LVL75:
.L54:
	.cfi_restore_state
.LBB31:
	.loc 1 798 0
	cmp	w0, 1
	mov	w0, 0
	bne	.L55
	.loc 1 800 0
	ldr	w0, [x22,300]
	add	w0, w0, 255
	lsr	w0, w0, 8
	ubfiz	w0, w0, 5, 11
	orr	w0, w0, w0, lsl 16
	b	.L55
.LVL76:
.L76:
.LBE31:
	.loc 1 905 0
	ldr	w1, [x19,1792]
	mov	w2, 32
	sub	w0, w2, w0
	lsl	w0, w1, w0
	str	w0, [x20,8204]
	b	.L59
.LVL77:
.L44:
	.loc 1 407 0
	cmp	w1, 195
	.loc 1 407 0 is_stmt 0 discriminator 1
	ldr	w1, [x19,7052]
	.loc 1 407 0
	bls	.L47
	.loc 1 407 0 discriminator 1
	cbnz	w1, .L48
	.loc 1 409 0 is_stmt 1
	ldr	w0, [x20,672]
	and	w0, w0, -61441
	orr	w0, w0, 4096
	str	w0, [x20,672]
	.loc 1 410 0
	ldr	w0, [x20,672]
	and	w0, w0, -3841
	orr	w0, w0, 256
	str	w0, [x20,672]
	.loc 1 411 0
	ldr	w0, [x20,672]
	and	w0, w0, -241
	orr	w0, w0, 16
	str	w0, [x20,672]
	.loc 1 412 0
	ldr	w0, [x20,672]
	and	w0, w0, -16
	orr	w0, w0, 1
	str	w0, [x20,672]
	.loc 1 413 0
	ldr	w0, [x20,684]
	and	w0, w0, -61441
	orr	w0, w0, 4096
	str	w0, [x20,684]
	.loc 1 414 0
	ldr	w0, [x20,684]
	and	w0, w0, -3841
	orr	w0, w0, 256
	str	w0, [x20,684]
	.loc 1 415 0
	ldr	w0, [x20,684]
	and	w0, w0, -241
	orr	w0, w0, 16
	str	w0, [x20,684]
	.loc 1 416 0
	ldr	w0, [x20,684]
	and	w0, w0, -16
	orr	w0, w0, 1
	str	w0, [x20,684]
	.loc 1 417 0
	ldr	w0, [x20,696]
	and	w0, w0, -61441
	orr	w0, w0, 4096
	str	w0, [x20,696]
	.loc 1 418 0
	ldr	w0, [x20,696]
	and	w0, w0, -3841
	orr	w0, w0, 256
	str	w0, [x20,696]
	.loc 1 419 0
	ldr	w0, [x20,696]
	and	w0, w0, -241
	orr	w0, w0, 16
	str	w0, [x20,696]
	.loc 1 420 0
	ldr	w0, [x20,696]
	and	w0, w0, -16
	orr	w0, w0, 1
	str	w0, [x20,696]
	.loc 1 421 0
	ldr	w0, [x20,1536]
	and	w0, w0, -3
	str	w0, [x20,1536]
.L46:
	.loc 1 466 0
	ldr	w0, [x19,1832]
	cbnz	w0, .L51
.L77:
	.loc 1 466 0 is_stmt 0 discriminator 1
	ldr	w0, [x22,192]
	cbnz	w0, .L50
.L62:
	.loc 1 468 0 is_stmt 1
	mov	w0, 18
	str	w0, [x22,1652]
	.loc 1 469 0
	mov	w0, 22
	str	w0, [x22,1656]
	.loc 1 470 0
	mov	w0, 28
	str	w0, [x22,1660]
	.loc 1 471 0
	mov	w0, 36
	str	w0, [x22,1664]
	.loc 1 472 0
	mov	w0, 45
	str	w0, [x22,1668]
	.loc 1 473 0
	mov	w0, 57
	str	w0, [x22,1672]
	.loc 1 474 0
	mov	w0, 72
	str	w0, [x22,1676]
	.loc 1 475 0
	mov	w0, 91
	str	w0, [x22,1680]
	.loc 1 476 0
	mov	w0, 115
	str	w0, [x22,1684]
	.loc 1 477 0
	mov	w0, 145
	str	w0, [x22,1688]
	.loc 1 478 0
	mov	w0, 183
	str	w0, [x22,1692]
	.loc 1 479 0
	mov	w0, 231
	str	w0, [x22,1696]
	.loc 1 480 0
	mov	w0, 291
	str	w0, [x22,1700]
	.loc 1 481 0
	mov	w0, 367
	str	w0, [x22,1704]
	.loc 1 482 0
	mov	w0, 463
	str	w0, [x22,1708]
	.loc 1 483 0
	mov	w0, 583
	str	w0, [x22,1712]
	.loc 1 484 0
	mov	w0, 735
	str	w0, [x22,1716]
	.loc 1 485 0
	mov	w0, 926
	str	w0, [x22,1720]
	.loc 1 486 0
	mov	w0, 1167
	str	w0, [x22,1724]
	.loc 1 487 0
	mov	w0, 1470
	str	w0, [x22,1728]
	.loc 1 488 0
	mov	w0, 1853
	str	w0, [x22,1732]
	.loc 1 489 0
	mov	w0, 2334
	str	w0, [x22,1736]
	.loc 1 490 0
	mov	w0, 2941
	str	w0, [x22,1740]
	.loc 1 491 0
	mov	w0, 3706
	str	w0, [x22,1744]
	.loc 1 492 0
	mov	w0, 4669
	str	w0, [x22,1748]
	.loc 1 493 0
	mov	w0, 5883
	str	w0, [x22,1752]
	.loc 1 494 0
	mov	w0, 7412
	str	w0, [x22,1756]
	.loc 1 495 0
	mov	w0, 9338
	str	w0, [x22,1760]
	.loc 1 496 0
	mov	w0, 11766
	str	w0, [x22,1764]
	.loc 1 497 0
	mov	w0, 14824
	str	w0, [x22,1768]
	.loc 1 498 0
	mov	w0, 18677
	str	w0, [x22,1772]
	.loc 1 499 0
	mov	w0, 23532
	str	w0, [x22,1776]
	.loc 1 500 0
	mov	w0, 29649
	str	w0, [x22,1780]
	.loc 1 506 0
	mov	w0, 53060
	.loc 1 501 0
	mov	w3, 37355
	.loc 1 506 0
	movk	w0, 0x1, lsl 16
	.loc 1 501 0
	str	w3, [x22,1784]
	.loc 1 506 0
	str	w0, [x22,1804]
	.loc 1 507 0
	mov	w0, 131071
	str	w0, [x22,1808]
	.loc 1 508 0
	mov	w0, 193
	str	w0, [x22,1812]
	.loc 1 509 0
	mov	w0, 216
	str	w0, [x22,1816]
	.loc 1 510 0
	mov	w0, 243
	str	w0, [x22,1820]
	.loc 1 511 0
	mov	w0, 273
	str	w0, [x22,1824]
	.loc 1 512 0
	mov	w0, 306
	str	w0, [x22,1828]
	.loc 1 513 0
	mov	w0, 344
	str	w0, [x22,1832]
	.loc 1 514 0
	mov	w0, 386
	str	w0, [x22,1836]
	.loc 1 515 0
	mov	w0, 433
	str	w0, [x22,1840]
	.loc 1 516 0
	mov	w0, 487
	str	w0, [x22,1844]
	.loc 1 517 0
	mov	w0, 546
	str	w0, [x22,1848]
	.loc 1 518 0
	mov	w0, 613
	str	w0, [x22,1852]
	.loc 1 519 0
	mov	w0, 688
	str	w0, [x22,1856]
	.loc 1 520 0
	mov	w0, 773
	str	w0, [x22,1860]
	.loc 1 521 0
	mov	w0, 867
	str	w0, [x22,1864]
	.loc 1 522 0
	mov	w0, 974
	str	w0, [x22,1868]
	.loc 1 523 0
	mov	w0, 1093
	str	w0, [x22,1872]
	.loc 1 524 0
	mov	w0, 1227
	str	w0, [x22,1876]
	.loc 1 525 0
	mov	w0, 1377
	str	w0, [x22,1880]
	.loc 1 526 0
	mov	w0, 1546
	str	w0, [x22,1884]
	.loc 1 527 0
	mov	w0, 1735
	str	w0, [x22,1888]
	.loc 1 528 0
	mov	w0, 1948
	str	w0, [x22,1892]
	.loc 1 529 0
	mov	w0, 2186
	str	w0, [x22,1896]
	.loc 1 530 0
	mov	w0, 2454
	str	w0, [x22,1900]
	.loc 1 531 0
	mov	w0, 2755
	.loc 1 505 0
	mov	w1, 28594
	.loc 1 531 0
	str	w0, [x22,1904]
	.loc 1 532 0
	mov	w0, 3092
	.loc 1 502 0
	mov	w3, 47065
	.loc 1 505 0
	movk	w1, 0x1, lsl 16
	.loc 1 532 0
	str	w0, [x22,1908]
	.loc 1 504 0
	mov	w2, 9175
	.loc 1 533 0
	mov	w0, 3471
	.loc 1 502 0
	str	w3, [x22,1788]
	.loc 1 504 0
	movk	w2, 0x1, lsl 16
	.loc 1 505 0
	str	w1, [x22,1800]
	.loc 1 503 0
	mov	w3, 59298
	.loc 1 533 0
	str	w0, [x22,1912]
	.loc 1 538 0
	mov	w1, 6184
	.loc 1 534 0
	mov	w0, 3896
	.loc 1 503 0
	str	w3, [x22,1792]
	.loc 1 534 0
	str	w0, [x22,1916]
	.loc 1 535 0
	mov	w0, 4373
	.loc 1 504 0
	str	w2, [x22,1796]
	.loc 1 535 0
	str	w0, [x22,1920]
	.loc 1 536 0
	mov	w0, 4908
	.loc 1 538 0
	str	w1, [x22,1932]
	.loc 1 539 0
	mov	w1, 6942
	str	w1, [x22,1936]
	.loc 1 540 0
	mov	w1, 7792
	str	w1, [x22,1940]
	.loc 1 541 0
	mov	w1, 8746
	str	w1, [x22,1944]
	.loc 1 542 0
	mov	w1, 9817
	str	w1, [x22,1948]
	.loc 1 543 0
	mov	w1, 11020
	str	w1, [x22,1952]
	.loc 1 544 0
	mov	w1, 12369
	str	w1, [x22,1956]
	.loc 1 545 0
	mov	w1, 13884
	.loc 1 536 0
	str	w0, [x22,1924]
	.loc 1 537 0
	mov	w0, 5510
	.loc 1 545 0
	str	w1, [x22,1960]
	.loc 1 546 0
	mov	w1, 15584
	.loc 1 537 0
	str	w0, [x22,1928]
	.loc 1 547 0
	mov	w0, 0
	.loc 1 546 0
	str	w1, [x22,1964]
	.loc 1 547 0
	mov	w1, 17493
	str	w1, [x22,1968]
	b	.L50
.L74:
	.loc 1 393 0
	ldr	w0, [x20,672]
	and	w0, w0, -61441
	orr	w0, w0, 8192
	str	w0, [x20,672]
	.loc 1 394 0
	ldr	w0, [x20,672]
	and	w0, w0, -3841
	orr	w0, w0, 512
	str	w0, [x20,672]
	.loc 1 395 0
	ldr	w0, [x20,672]
	and	w0, w0, -241
	orr	w0, w0, 32
	str	w0, [x20,672]
	.loc 1 396 0
	ldr	w0, [x20,672]
	and	w0, w0, -16
	orr	w0, w0, 2
	str	w0, [x20,672]
	.loc 1 397 0
	ldr	w0, [x20,684]
	and	w0, w0, -61441
	orr	w0, w0, 8192
	str	w0, [x20,684]
	.loc 1 398 0
	ldr	w0, [x20,684]
	and	w0, w0, -3841
	orr	w0, w0, 512
	str	w0, [x20,684]
	.loc 1 399 0
	ldr	w0, [x20,684]
	and	w0, w0, -241
	orr	w0, w0, 32
	str	w0, [x20,684]
	.loc 1 400 0
	ldr	w0, [x20,684]
	and	w0, w0, -16
	orr	w0, w0, 2
	str	w0, [x20,684]
	.loc 1 401 0
	ldr	w0, [x20,696]
	and	w0, w0, -61441
	orr	w0, w0, 8192
	str	w0, [x20,696]
	.loc 1 402 0
	ldr	w0, [x20,696]
	and	w0, w0, -3841
	orr	w0, w0, 512
	str	w0, [x20,696]
	.loc 1 403 0
	ldr	w0, [x20,696]
	and	w0, w0, -241
	orr	w0, w0, 32
	str	w0, [x20,696]
	.loc 1 404 0
	ldr	w0, [x20,696]
	and	w0, w0, -16
	orr	w0, w0, 2
	str	w0, [x20,696]
	.loc 1 405 0
	ldr	w0, [x20,1536]
	and	w0, w0, -3
	str	w0, [x20,1536]
	b	.L46
.L47:
	.loc 1 423 0
	cbnz	w1, .L48
	.loc 1 425 0
	ldr	w0, [x20,672]
	and	w0, w0, -61441
	str	w0, [x20,672]
	.loc 1 426 0
	ldr	w0, [x20,672]
	and	w0, w0, -3841
	str	w0, [x20,672]
	.loc 1 427 0
	ldr	w0, [x20,672]
	and	w0, w0, -241
	str	w0, [x20,672]
	.loc 1 428 0
	ldr	w0, [x20,672]
	and	w0, w0, -16
	str	w0, [x20,672]
	.loc 1 429 0
	ldr	w0, [x20,684]
	and	w0, w0, -61441
	str	w0, [x20,684]
	.loc 1 430 0
	ldr	w0, [x20,684]
	and	w0, w0, -3841
	str	w0, [x20,684]
	.loc 1 431 0
	ldr	w0, [x20,684]
	and	w0, w0, -241
	str	w0, [x20,684]
	.loc 1 432 0
	ldr	w0, [x20,684]
	and	w0, w0, -16
	str	w0, [x20,684]
	.loc 1 433 0
	ldr	w0, [x20,696]
	and	w0, w0, -61441
	str	w0, [x20,696]
	.loc 1 434 0
	ldr	w0, [x20,696]
	and	w0, w0, -3841
	str	w0, [x20,696]
	.loc 1 435 0
	ldr	w0, [x20,696]
	and	w0, w0, -241
	str	w0, [x20,696]
	.loc 1 436 0
	ldr	w0, [x20,696]
	and	w0, w0, -16
	str	w0, [x20,696]
	.loc 1 437 0
	ldr	w0, [x20,1536]
	and	w0, w0, -3
	str	w0, [x20,1536]
	b	.L46
.L75:
	.loc 1 441 0
	ldr	w0, [x20,672]
	and	w0, w0, -61441
	str	w0, [x20,672]
	.loc 1 442 0
	ldr	w0, [x20,672]
	and	w0, w0, -3841
	str	w0, [x20,672]
	.loc 1 443 0
	ldr	w0, [x20,672]
	and	w0, w0, -241
	str	w0, [x20,672]
	.loc 1 444 0
	ldr	w0, [x20,672]
	and	w0, w0, -16
	str	w0, [x20,672]
	.loc 1 445 0
	ldr	w0, [x20,684]
	and	w0, w0, -61441
	str	w0, [x20,684]
	.loc 1 446 0
	ldr	w0, [x20,684]
	and	w0, w0, -3841
	str	w0, [x20,684]
	.loc 1 447 0
	ldr	w0, [x20,684]
	and	w0, w0, -241
	str	w0, [x20,684]
	.loc 1 448 0
	ldr	w0, [x20,684]
	and	w0, w0, -16
	str	w0, [x20,684]
	.loc 1 449 0
	ldr	w0, [x20,696]
	and	w0, w0, -61441
	str	w0, [x20,696]
	.loc 1 450 0
	ldr	w0, [x20,696]
	and	w0, w0, -3841
	str	w0, [x20,696]
	.loc 1 451 0
	ldr	w0, [x20,696]
	and	w0, w0, -241
	str	w0, [x20,696]
	.loc 1 452 0
	ldr	w0, [x20,696]
	and	w0, w0, -16
	str	w0, [x20,696]
	.loc 1 453 0
	ldr	w0, [x20,1536]
	orr	w0, w0, 2
	str	w0, [x20,1536]
	b	.L46
	.cfi_endproc
.LFE2966:
	.size	VeduHal_CfgRegSimple, .-VeduHal_CfgRegSimple
	.align	2
	.global	VencHal_SaveFile
	.type	VencHal_SaveFile, %function
VencHal_SaveFile:
.LFB2967:
	.loc 1 1022 0
	.cfi_startproc
.LVL78:
	stp	x29, x30, [sp, -96]!
	.cfi_def_cfa_offset 96
	.cfi_offset 29, -96
	.cfi_offset 30, -88
	add	x29, sp, 0
	.cfi_def_cfa_register 29
	stp	x19, x20, [sp,16]
	.cfi_offset 19, -80
	.cfi_offset 20, -72
	adrp	x20, __stack_chk_guard
	.loc 1 1026 0
	add	x3, x29, 96
	.loc 1 1022 0
	stp	x21, x22, [sp,32]
	stp	x23, x24, [sp,48]
	.cfi_offset 21, -64
	.cfi_offset 22, -56
	.cfi_offset 23, -48
	.cfi_offset 24, -40
	.loc 1 1022 0
	ldr	x4, [x20,#:lo12:__stack_chk_guard]
	mov	x24, x1
	.loc 1 1026 0
	str	xzr, [x3,-16]!
.LVL79:
	.loc 1 1022 0
	mov	w23, w2
	.loc 1 1027 0
	mov	w1, 1090
.LVL80:
	mov	w2, 0
.LVL81:
	.loc 1 1022 0
	str	x4, [x29,88]
	.loc 1 1026 0
	str	x3, [x29,72]
	str	x3, [x29,64]
	.loc 1 1027 0
	bl	filp_open
.LVL82:
.LBB32:
.LBB33:
	.file 2 "/mnt/disk/jenkins/ci/workspace/chipset_release_960_xloader/opensource/component_code/vendor/huawei/extra/build/build_script/kirin_kernel_release/kernel/arch/arm64/include/asm/current.h"
	.loc 2 20 0
#APP
// 20 "/mnt/disk/jenkins/ci/workspace/chipset_release_960_xloader/opensource/component_code/vendor/huawei/extra/build/build_script/kirin_kernel_release/kernel/arch/arm64/include/asm/current.h" 1
	mrs x19, sp_el0
// 0 "" 2
.LVL83:
#NO_APP
.LBE33:
.LBE32:
.LBB34:
.LBB35:
	.file 3 "/mnt/disk/jenkins/ci/workspace/chipset_release_960_xloader/opensource/component_code/vendor/huawei/extra/build/build_script/kirin_kernel_release/kernel/arch/arm64/include/asm/uaccess.h"
	.loc 3 79 0
	mov	x1, -1
.LBE35:
.LBE34:
	.loc 1 1028 0
	ldr	x22, [x19,8]
.LVL84:
	.loc 1 1027 0
	mov	x21, x0
.LVL85:
.LBB37:
.LBB36:
	.loc 3 79 0
	str	x1, [x19,8]
	.loc 3 87 0
#APP
// 87 "/mnt/disk/jenkins/ci/workspace/chipset_release_960_xloader/opensource/component_code/vendor/huawei/extra/build/build_script/kirin_kernel_release/kernel/arch/arm64/include/asm/uaccess.h" 1
	dsb nsh
// 0 "" 2
	.loc 3 88 0
// 88 "/mnt/disk/jenkins/ci/workspace/chipset_release_960_xloader/opensource/component_code/vendor/huawei/extra/build/build_script/kirin_kernel_release/kernel/arch/arm64/include/asm/uaccess.h" 1
	isb
// 0 "" 2
	.loc 3 97 0
// 97 "/mnt/disk/jenkins/ci/workspace/chipset_release_960_xloader/opensource/component_code/vendor/huawei/extra/build/build_script/kirin_kernel_release/kernel/arch/arm64/include/asm/uaccess.h" 1
	.if 0 == 1
661:
	nop
662:
.pushsection .altinstructions,"a"
 .word 661b - .
 .if 0 == 0
 .word 663f - .
 .else
 .word 0- .
 .endif
 .hword 9
 .byte 662b-661b
 .byte 664f-663f
.popsection
 .if 0 == 0
.pushsection .altinstr_replacement, "a"
663:
	.long ((0xd5000000 | ((((0)&3)<<19)|((0)<<16)|((4)<<12)|((0)<<8)|((3)<<5)) | (!!0)<<8 | 0x1f) & 0xFFFFFFFF)
	
664:
	.popsection
	.org	. - (664b-663b) + (662b-661b)
	.org	. - (662b-661b) + (664b-663b)
.else
	663:
	664:
	.endif
.endif

// 0 "" 2
#NO_APP
.LBE36:
.LBE37:
	.loc 1 1030 0
	ldr	x3, [x29,72]
	mov	x1, x24
	uxtw	x2, w23
	bl	vfs_write
.LVL86:
	.loc 1 1031 0
	str	xzr, [x29,80]
.LVL87:
.LBB38:
.LBB39:
	.loc 3 79 0
	str	x22, [x19,8]
	.loc 3 87 0
#APP
// 87 "/mnt/disk/jenkins/ci/workspace/chipset_release_960_xloader/opensource/component_code/vendor/huawei/extra/build/build_script/kirin_kernel_release/kernel/arch/arm64/include/asm/uaccess.h" 1
	dsb nsh
// 0 "" 2
	.loc 3 88 0
// 88 "/mnt/disk/jenkins/ci/workspace/chipset_release_960_xloader/opensource/component_code/vendor/huawei/extra/build/build_script/kirin_kernel_release/kernel/arch/arm64/include/asm/uaccess.h" 1
	isb
// 0 "" 2
	.loc 3 97 0
// 97 "/mnt/disk/jenkins/ci/workspace/chipset_release_960_xloader/opensource/component_code/vendor/huawei/extra/build/build_script/kirin_kernel_release/kernel/arch/arm64/include/asm/uaccess.h" 1
	.if 0 == 1
661:
	nop
662:
.pushsection .altinstructions,"a"
 .word 661b - .
 .if 0 == 0
 .word 663f - .
 .else
 .word 0- .
 .endif
 .hword 9
 .byte 662b-661b
 .byte 664f-663f
.popsection
 .if 0 == 0
.pushsection .altinstr_replacement, "a"
663:
	.long ((0xd5000000 | ((((0)&3)<<19)|((0)<<16)|((4)<<12)|((0)<<8)|((3)<<5)) | (!!0)<<8 | 0x1f) & 0xFFFFFFFF)
	
664:
	.popsection
	.org	. - (664b-663b) + (662b-661b)
	.org	. - (662b-661b) + (664b-663b)
.else
	663:
	664:
	.endif
.endif

// 0 "" 2
#NO_APP
.LBE39:
.LBE38:
	.loc 1 1033 0
	mov	x1, 0
	mov	x0, x21
	bl	filp_close
.LVL88:
	.loc 1 1034 0
	ldr	x1, [x29,88]
	ldr	x0, [x20,#:lo12:__stack_chk_guard]
	cmp	x1, x0
	bne	.L80
	ldp	x19, x20, [sp,16]
	.cfi_remember_state
	.cfi_restore 20
	.cfi_restore 19
.LVL89:
	ldp	x21, x22, [sp,32]
	.cfi_restore 22
	.cfi_restore 21
.LVL90:
	ldp	x23, x24, [sp,48]
	.cfi_restore 24
	.cfi_restore 23
.LVL91:
	ldp	x29, x30, [sp], 96
	.cfi_restore 30
	.cfi_restore 29
	.cfi_def_cfa 31, 0
	ret
.LVL92:
.L80:
	.cfi_restore_state
	bl	__stack_chk_fail
.LVL93:
	.cfi_endproc
.LFE2967:
	.size	VencHal_SaveFile, .-VencHal_SaveFile
	.align	2
	.global	VENC_HAL_IsHighSpeed
	.type	VENC_HAL_IsHighSpeed, %function
VENC_HAL_IsHighSpeed:
.LFB2968:
	.loc 1 1037 0
	.cfi_startproc
.LVL94:
	.loc 1 1045 0
	adrp	x1, g_stVencChn
	add	x2, x1, :lo12:g_stVencChn
	ldr	x2, [x2,24]
	.loc 1 1047 0
	cbz	x2, .L82
	mov	x3, 4294967295
	cmp	x2, x3
	beq	.L82
	.loc 1 1052 0
	ldr	w2, [x0,3256]
	mov	w3, 24575
	ldr	w5, [x0,3252]
	movk	w3, 0x83d, lsl 16
	ldr	w4, [x0,3248]
	mul	w2, w2, w5
	mul	w2, w2, w4
	cmp	w2, w3
	bgt	.L96
.L82:
	.loc 1 1045 0
	add	x2, x1, :lo12:g_stVencChn
	ldr	x2, [x2,768]
	.loc 1 1047 0
	cbz	x2, .L84
	mov	x3, 4294967295
	cmp	x2, x3
	beq	.L84
	.loc 1 1052 0
	ldr	w2, [x0,3256]
	mov	w3, 24575
	ldr	w5, [x0,3252]
	movk	w3, 0x83d, lsl 16
	ldr	w4, [x0,3248]
	mul	w2, w2, w5
	mul	w2, w2, w4
	cmp	w2, w3
	bgt	.L96
.L84:
	.loc 1 1045 0
	add	x2, x1, :lo12:g_stVencChn
	ldr	x2, [x2,1512]
	.loc 1 1047 0
	cbz	x2, .L85
	mov	x3, 4294967295
	cmp	x2, x3
	beq	.L85
	.loc 1 1052 0
	ldr	w2, [x0,3256]
	mov	w3, 24575
	ldr	w5, [x0,3252]
	movk	w3, 0x83d, lsl 16
	ldr	w4, [x0,3248]
	mul	w2, w2, w5
	mul	w2, w2, w4
	cmp	w2, w3
	bgt	.L96
.L85:
	.loc 1 1045 0
	add	x2, x1, :lo12:g_stVencChn
	ldr	x2, [x2,2256]
	.loc 1 1047 0
	cbz	x2, .L86
	mov	x3, 4294967295
	cmp	x2, x3
	beq	.L86
	.loc 1 1052 0
	ldr	w2, [x0,3256]
	mov	w3, 24575
	ldr	w5, [x0,3252]
	movk	w3, 0x83d, lsl 16
	ldr	w4, [x0,3248]
	mul	w2, w2, w5
	mul	w2, w2, w4
	cmp	w2, w3
	bgt	.L96
.L86:
	.loc 1 1045 0
	add	x2, x1, :lo12:g_stVencChn
	ldr	x2, [x2,3000]
	.loc 1 1047 0
	cbz	x2, .L87
	mov	x3, 4294967295
	cmp	x2, x3
	beq	.L87
	.loc 1 1052 0
	ldr	w2, [x0,3256]
	mov	w3, 24575
	ldr	w5, [x0,3252]
	movk	w3, 0x83d, lsl 16
	ldr	w4, [x0,3248]
	mul	w2, w2, w5
	mul	w2, w2, w4
	cmp	w2, w3
	bgt	.L96
.L87:
	.loc 1 1045 0
	add	x2, x1, :lo12:g_stVencChn
	ldr	x2, [x2,3744]
	.loc 1 1047 0
	cbz	x2, .L88
	mov	x3, 4294967295
	cmp	x2, x3
	beq	.L88
	.loc 1 1052 0
	ldr	w2, [x0,3256]
	mov	w3, 24575
	ldr	w5, [x0,3252]
	movk	w3, 0x83d, lsl 16
	ldr	w4, [x0,3248]
	mul	w2, w2, w5
	mul	w2, w2, w4
	cmp	w2, w3
	bgt	.L96
.L88:
	.loc 1 1045 0
	add	x2, x1, :lo12:g_stVencChn
	ldr	x2, [x2,4488]
	.loc 1 1047 0
	cbz	x2, .L89
	mov	x3, 4294967295
	cmp	x2, x3
	beq	.L89
	.loc 1 1052 0
	ldr	w2, [x0,3256]
	mov	w3, 24575
	ldr	w5, [x0,3252]
	movk	w3, 0x83d, lsl 16
	ldr	w4, [x0,3248]
	mul	w2, w2, w5
	mul	w2, w2, w4
	cmp	w2, w3
	bgt	.L96
.L89:
	.loc 1 1045 0
	add	x1, x1, :lo12:g_stVencChn
	ldr	x1, [x1,5232]
	.loc 1 1047 0
	cbz	x1, .L97
	mov	x2, 4294967295
	cmp	x1, x2
	beq	.L97
	.loc 1 1052 0
	ldr	w1, [x0,3256]
	mov	w2, 24575
	ldr	w4, [x0,3252]
	movk	w2, 0x83d, lsl 16
	ldr	w3, [x0,3248]
	mul	w0, w1, w4
.LVL95:
	mul	w0, w0, w3
	.loc 1 1057 0
	cmp	w0, w2
	cset	w0, gt
	.loc 1 1058 0
	ret
.LVL96:
.L97:
	.loc 1 1057 0
	mov	w0, 0
.LVL97:
	.loc 1 1058 0
	ret
.LVL98:
.L96:
	.loc 1 1054 0
	mov	w0, 1
.LVL99:
	.loc 1 1058 0
	ret
	.cfi_endproc
.LFE2968:
	.size	VENC_HAL_IsHighSpeed, .-VENC_HAL_IsHighSpeed
	.align	2
	.global	VeduHal_CfgReg
	.type	VeduHal_CfgReg, %function
VeduHal_CfgReg:
.LFB2969:
	.loc 1 1061 0
	.cfi_startproc
.LVL100:
	sub	sp, sp, #1040
	.cfi_def_cfa_offset 1040
	.loc 1 1078 0
	adrp	x4, .LC6
	mov	w2, 1078
	add	x4, x4, :lo12:.LC6
	.loc 1 1061 0
	stp	x29, x30, [sp, -96]!
	.cfi_def_cfa_offset 1136
	.cfi_offset 29, -1136
	.cfi_offset 30, -1128
	add	x29, sp, 0
	.cfi_def_cfa_register 29
	str	x27, [sp,80]
	.cfi_offset 27, -1056
	adrp	x27, __stack_chk_guard
	stp	x25, x26, [sp,64]
	.cfi_offset 25, -1072
	.cfi_offset 26, -1064
	.loc 1 1078 0
	adrp	x25, .LANCHOR0
	adrp	x26, .LC0
	.loc 1 1061 0
	stp	x21, x22, [sp,32]
	.cfi_offset 21, -1104
	.cfi_offset 22, -1096
	.loc 1 1078 0
	add	x22, x25, :lo12:.LANCHOR0
	.loc 1 1061 0
	mov	x21, x0
	stp	x23, x24, [sp,48]
	.loc 1 1078 0
	add	x22, x22, 208
	.loc 1 1061 0
	ldr	x6, [x27,#:lo12:__stack_chk_guard]
	.cfi_offset 23, -1088
	.cfi_offset 24, -1080
	.loc 1 1078 0
	add	x23, x26, :lo12:.LC0
	mov	w0, 4
.LVL101:
	.loc 1 1061 0
	stp	x19, x20, [sp,16]
	.loc 1 1078 0
	mov	x1, x23
	mov	x3, x22
	mov	x5, x22
	.loc 1 1061 0
	sub	sp, sp, #48
	.cfi_offset 19, -1120
	.cfi_offset 20, -1112
	.loc 1 1063 0
	ldr	x20, [x21]
.LVL102:
	.loc 1 1061 0
	str	x6, [x29,1128]
	.loc 1 1078 0
	bl	HI_PRINT
.LVL103:
	.loc 1 1079 0
	ldr	x19, [x21,1776]
.LVL104:
	.loc 1 1088 0
	adrp	x4, .LC8
	.loc 1 1080 0
	ldr	w6, [x20,56]
	.loc 1 1088 0
	mov	w0, 4
	mov	x1, x23
	mov	w2, 1088
	.loc 1 1080 0
	ldr	w5, [x19,4]
	ubfiz	w6, w6, 30, 1
	.loc 1 1088 0
	mov	x3, x22
	add	x4, x4, :lo12:.LC8
	.loc 1 1080 0
	and	w5, w5, -1073741825
	orr	w5, w5, w6
	str	w5, [x19,4]
	.loc 1 1081 0
	ldr	w6, [x19,4]
	ldr	w5, [x20,60]
	and	w6, w6, -134217729
	ubfiz	w5, w5, 27, 1
	orr	w5, w6, w5
	str	w5, [x19,4]
	.loc 1 1082 0
	ldr	w6, [x19,4]
	ldr	w5, [x20,64]
	and	w6, w6, -131073
	ubfiz	w5, w5, 17, 1
	orr	w5, w6, w5
	str	w5, [x19,4]
	.loc 1 1083 0
	ldr	w6, [x19,4]
	ldr	w5, [x20,68]
	and	w6, w6, -65537
	ubfiz	w5, w5, 16, 1
	orr	w5, w6, w5
	str	w5, [x19,4]
	.loc 1 1084 0
	ldr	w6, [x19,4]
	ldr	w5, [x20,72]
	and	w6, w6, -1025
	ubfiz	w5, w5, 10, 1
	orr	w5, w6, w5
	str	w5, [x19,4]
	.loc 1 1085 0
	ldr	w6, [x19,4]
	ldr	w5, [x20,76]
	and	w6, w6, -9
	ubfiz	w5, w5, 3, 1
	orr	w5, w6, w5
	str	w5, [x19,4]
	.loc 1 1086 0
	ldr	w6, [x19,4]
	ldr	w5, [x20,80]
	and	w6, w6, -3
	ubfiz	w5, w5, 1, 1
	orr	w5, w6, w5
	str	w5, [x19,4]
	.loc 1 1087 0
	ldr	w6, [x20,84]
	ldr	w5, [x19,4]
	and	w6, w6, 1
	and	w5, w5, -2
	orr	w5, w5, w6
	str	w5, [x19,4]
	.loc 1 1088 0
	ldr	w5, [x20,60]
	ldr	w6, [x20,72]
	ldr	w7, [x20,80]
	bl	HI_PRINT
.LVL105:
	.loc 1 1089 0
	ldr	w1, [x19,12]
	ldr	w0, [x20,88]
	and	w1, w1, -1073741825
	ubfiz	w0, w0, 30, 1
	orr	w0, w1, w0
	str	w0, [x19,12]
	.loc 1 1090 0
	ldr	w1, [x19,12]
	ldr	w0, [x20,92]
	and	w1, w1, -134217729
	ubfiz	w0, w0, 27, 1
	orr	w0, w1, w0
	str	w0, [x19,12]
	.loc 1 1091 0
	ldr	w1, [x19,12]
	ldr	w0, [x20,96]
	and	w1, w1, -131073
	ubfiz	w0, w0, 17, 1
	orr	w0, w1, w0
	str	w0, [x19,12]
	.loc 1 1092 0
	ldr	w1, [x19,12]
	ldr	w0, [x20,100]
	and	w1, w1, -65537
	ubfiz	w0, w0, 16, 1
	orr	w0, w1, w0
	str	w0, [x19,12]
	.loc 1 1093 0
	ldr	w1, [x19,12]
	ldr	w0, [x20,104]
	and	w1, w1, -1025
	ubfiz	w0, w0, 10, 1
	orr	w0, w1, w0
	str	w0, [x19,12]
	.loc 1 1094 0
	ldr	w1, [x19,12]
	ldr	w0, [x20,108]
	and	w1, w1, -9
	ubfiz	w0, w0, 3, 1
	orr	w0, w1, w0
	str	w0, [x19,12]
	.loc 1 1095 0
	ldr	w1, [x19,12]
	ldr	w0, [x20,112]
	and	w1, w1, -3
	ubfiz	w0, w0, 1, 1
	orr	w0, w1, w0
	str	w0, [x19,12]
	.loc 1 1096 0
	ldr	w1, [x19,12]
	ldr	w0, [x20,116]
	and	w1, w1, -2
	and	w0, w0, 1
	orr	w0, w1, w0
	str	w0, [x19,12]
	.loc 1 1097 0
	ldr	w1, [x19,16]
	ldr	w0, [x20,120]
	and	w1, w1, -65537
	ubfiz	w0, w0, 16, 1
	orr	w0, w1, w0
	str	w0, [x19,16]
	.loc 1 1098 0
	ldr	w0, [x19,16]
	and	w0, w0, -2
	str	w0, [x19,16]
	.loc 1 1099 0
	ldr	w1, [x20,128]
	ldr	w0, [x19,20]
	and	w0, w0, 2147483647
	orr	w0, w0, w1, lsl 31
	str	w0, [x19,20]
	.loc 1 1100 0
	ldr	w1, [x20,132]
	ldr	w0, [x19,20]
	ubfiz	w1, w1, 30, 1
	and	w0, w0, -1073741825
	orr	w0, w0, w1
	str	w0, [x19,20]
	.loc 1 1101 0
	ldr	w1, [x20,136]
	ldr	w0, [x19,20]
	ubfiz	w1, w1, 28, 2
	and	w0, w0, -805306369
	orr	w0, w0, w1
	str	w0, [x19,20]
	.loc 1 1103 0
	ldr	w0, [x20,192]
	cbnz	w0, .L100
	.loc 1 1105 0
	ldr	w0, [x19,20]
	and	w0, w0, -201326593
	orr	w0, w0, 134217728
	str	w0, [x19,20]
.L101:
	.loc 1 1116 0
	ldr	w1, [x19,20]
	ldr	w0, [x20,144]
	and	w1, w1, -33554433
	ubfiz	w0, w0, 25, 1
	orr	w0, w1, w0
	str	w0, [x19,20]
	.loc 1 1117 0
	ldr	w1, [x19,20]
	ldr	w0, [x20,148]
	and	w1, w1, -16777217
	ubfiz	w0, w0, 24, 1
	orr	w0, w1, w0
	str	w0, [x19,20]
	.loc 1 1118 0
	ldr	w1, [x19,20]
	ldr	w0, [x20,152]
	and	w1, w1, -786433
	ubfiz	w0, w0, 18, 2
	orr	w0, w1, w0
	str	w0, [x19,20]
	.loc 1 1119 0
	ldr	w1, [x20,156]
	ldr	w0, [x19,20]
	ubfiz	w1, w1, 17, 1
	and	w0, w0, -131073
	orr	w0, w0, w1
	str	w0, [x19,20]
	.loc 1 1121 0
	ldr	w5, [x21,1832]
	cbnz	w5, .L103
	.loc 1 1123 0
	ldr	w0, [x19,20]
	orr	w0, w0, 65536
	str	w0, [x19,20]
	.loc 1 1130 0
	ldr	w5, [x21,1832]
	cbnz	w5, .L106
.L177:
	.loc 1 1130 0 is_stmt 0 discriminator 1
	ldr	w0, [x20,192]
	cbz	w0, .L174
.L105:
	.loc 1 1297 0 is_stmt 1
	add	x22, x25, :lo12:.LANCHOR0
	add	x23, x26, :lo12:.LC0
	add	x22, x22, 208
	adrp	x4, .LC9
	mov	w0, 4
	mov	x1, x23
	mov	w2, 1297
	mov	x3, x22
	add	x4, x4, :lo12:.LC9
	bl	HI_PRINT
.LVL106:
	.loc 1 1298 0
	ldr	w2, [x21,4312]
	adrp	x4, .LC10
	ldr	w7, [x20,1584]
	mov	w0, 4
	ldr	w6, [x20,1580]
	mov	x1, x23
	ldr	w5, [x21,3268]
	mov	x3, x22
	str	w2, [sp]
	add	x4, x4, :lo12:.LC10
	mov	w2, 1298
	ldr	w8, [x21,4320]
	str	w8, [sp,8]
	bl	HI_PRINT
.LVL107:
	.loc 1 1299 0
	ldr	w5, [x21,3272]
	adrp	x4, .LC11
	mov	w0, 4
	mov	x1, x23
	mov	w2, 1299
	mov	x3, x22
	add	x4, x4, :lo12:.LC11
	bl	HI_PRINT
.LVL108:
	.loc 1 1300 0
	ldr	w5, [x20,324]
	adrp	x4, .LC12
	ldr	w6, [x20,328]
	mov	w0, 4
	mov	x1, x23
	mov	w2, 1300
	mov	x3, x22
	add	x4, x4, :lo12:.LC12
	bl	HI_PRINT
.LVL109:
	.loc 1 1301 0
	ldr	w2, [x20,1012]
	adrp	x4, .LC13
	ldr	w5, [x20,1024]
	mov	w0, 4
	ldr	w6, [x20,1020]
	mov	x1, x23
	ldr	w7, [x20,1016]
	mov	x3, x22
	str	w2, [sp]
	add	x4, x4, :lo12:.LC13
	mov	w2, 1301
	ldr	w8, [x20,1008]
	str	w8, [sp,8]
	ldr	w8, [x20,1004]
	str	w8, [sp,16]
	ldr	w8, [x20,1000]
	str	w8, [sp,24]
	ldr	w8, [x20,996]
	str	w8, [sp,32]
	bl	HI_PRINT
.LVL110:
	.loc 1 1302 0
	ldr	w2, [x20,1120]
	adrp	x4, .LC14
	ldr	w5, [x20,1072]
	mov	w0, 4
	ldr	w6, [x20,1088]
	mov	x1, x23
	ldr	w7, [x20,1104]
	mov	x3, x22
	str	w2, [sp]
	add	x4, x4, :lo12:.LC14
	mov	w2, 1302
	ldr	w8, [x20,1136]
	str	w8, [sp,8]
	ldr	w8, [x20,1152]
	str	w8, [sp,16]
	ldr	w8, [x20,1168]
	str	w8, [sp,24]
	ldr	w8, [x20,1184]
	str	w8, [sp,32]
	bl	HI_PRINT
.LVL111:
	.loc 1 1303 0
	ldr	w2, [x20,1116]
	adrp	x4, .LC15
	ldr	w5, [x20,1068]
	mov	w0, 4
	ldr	w6, [x20,1084]
	mov	x1, x23
	ldr	w7, [x20,1100]
	mov	x3, x22
	str	w2, [sp]
	add	x4, x4, :lo12:.LC15
	mov	w2, 1303
	ldr	w8, [x20,1132]
	str	w8, [sp,8]
	ldr	w8, [x20,1148]
	str	w8, [sp,16]
	ldr	w8, [x20,1164]
	str	w8, [sp,24]
	ldr	w8, [x20,1180]
	str	w8, [sp,32]
	bl	HI_PRINT
.LVL112:
	.loc 1 1304 0
	ldr	w1, [x19,20]
	ldr	w0, [x21,1832]
	and	w1, w1, -3073
	ubfiz	w0, w0, 10, 2
	orr	w0, w1, w0
	str	w0, [x19,20]
	.loc 1 1305 0
	ldr	w1, [x19,20]
	ldr	w0, [x20,164]
	and	w1, w1, -4097
	ubfiz	w0, w0, 12, 1
	orr	w0, w1, w0
	str	w0, [x19,20]
	.loc 1 1306 0
	ldr	w1, [x19,20]
	ldr	w0, [x20,172]
	and	w1, w1, -513
	ubfiz	w0, w0, 9, 1
	orr	w0, w1, w0
	str	w0, [x19,20]
	.loc 1 1307 0
	ldr	w1, [x19,20]
	ldr	w0, [x20,176]
	and	w1, w1, -257
	ubfiz	w0, w0, 8, 1
	orr	w0, w1, w0
	str	w0, [x19,20]
	.loc 1 1308 0
	ldr	w1, [x19,20]
	ldr	w0, [x20,180]
	and	w1, w1, -129
	ubfiz	w0, w0, 7, 1
	orr	w0, w1, w0
	str	w0, [x19,20]
	.loc 1 1309 0
	ldr	w1, [x19,20]
	ldr	w0, [x20,184]
	and	w1, w1, -65
	ubfiz	w0, w0, 6, 1
	orr	w0, w1, w0
	str	w0, [x19,20]
	.loc 1 1310 0
	ldr	w1, [x19,20]
	ldr	w0, [x20,188]
	and	w1, w1, -33
	ubfiz	w0, w0, 5, 1
	orr	w0, w1, w0
	str	w0, [x19,20]
	.loc 1 1311 0
	ldr	w1, [x19,20]
	ldr	w0, [x20,192]
	and	w1, w1, -25
	ubfiz	w0, w0, 3, 2
	orr	w0, w1, w0
	str	w0, [x19,20]
	.loc 1 1312 0
	ldr	w1, [x19,20]
	ldr	w0, [x20,196]
	and	w1, w1, -5
	ubfiz	w0, w0, 2, 1
	orr	w0, w1, w0
	str	w0, [x19,20]
	.loc 1 1313 0
	ldr	w0, [x19,20]
	orr	w0, w0, 2
	str	w0, [x19,20]
	.loc 1 1314 0
	ldr	w1, [x20,204]
	ldr	w0, [x19,20]
	and	w1, w1, 1
	and	w0, w0, -2
	orr	w0, w0, w1
	str	w0, [x19,20]
	.loc 1 1315 0
	ldr	w1, [x20,208]
	ldr	w0, [x19,24]
	ubfiz	w1, w1, 16, 9
	and	w0, w0, -33488897
	orr	w0, w0, w1
	str	w0, [x19,24]
	.loc 1 1316 0
	ldr	w1, [x19,24]
	ldr	w0, [x20,212]
	and	w1, w1, -512
	and	w0, w0, 511
	orr	w0, w1, w0
	str	w0, [x19,24]
	.loc 1 1317 0
	ldr	w1, [x19,28]
	ldr	w0, [x20,216]
	and	w1, w1, -131073
	ubfiz	w0, w0, 17, 1
	orr	w0, w1, w0
	str	w0, [x19,28]
	.loc 1 1318 0
	ldr	w1, [x19,28]
	ldr	w0, [x20,220]
	and	w1, w1, -65537
	ubfiz	w0, w0, 16, 1
	orr	w0, w1, w0
	str	w0, [x19,28]
	.loc 1 1319 0
	ldr	w0, [x20,224]
	ldr	w1, [x19,28]
	sub	w0, w0, #1
	and	w1, w1, -65536
	uxth	w0, w0
	orr	w0, w1, w0
	str	w0, [x19,28]
	.loc 1 1320 0
	ldr	w0, [x21,3268]
	str	w0, [x20,228]
	.loc 1 1321 0
	ubfiz	w0, w0, 10, 6
	ldr	w1, [x19,32]
	and	w1, w1, -64513
	orr	w0, w1, w0
	str	w0, [x19,32]
	.loc 1 1322 0
	ldr	w1, [x19,32]
	ldr	w0, [x20,232]
	and	w1, w1, -993
	ubfiz	w0, w0, 5, 5
	orr	w0, w1, w0
	str	w0, [x19,32]
	.loc 1 1323 0
	ldr	w1, [x19,32]
	ldr	w0, [x20,236]
	and	w1, w1, -32
	and	w0, w0, 31
	orr	w0, w1, w0
	str	w0, [x19,32]
	.loc 1 1324 0
	ldr	w0, [x20,240]
	str	w0, [x19,36]
	.loc 1 1325 0
	ldr	w0, [x20,244]
	str	w0, [x19,40]
	.loc 1 1326 0
	ldr	w1, [x19,44]
	ldr	w0, [x20,248]
	and	w1, w1, -769
	ubfiz	w0, w0, 8, 2
	orr	w0, w1, w0
	str	w0, [x19,44]
	.loc 1 1327 0
	ldr	w1, [x20,252]
	ldr	w0, [x19,44]
	ubfiz	w1, w1, 4, 4
	and	w0, w0, -241
	orr	w0, w0, w1
	str	w0, [x19,44]
	.loc 1 1328 0
	ldr	w1, [x19,44]
	ldr	w0, [x20,256]
	and	w1, w1, -16
	and	w0, w0, 15
	orr	w0, w1, w0
	str	w0, [x19,44]
	.loc 1 1330 0
	ldr	w1, [x19,48]
	ldr	w0, [x20,260]
	and	w1, w1, -4194305
	ubfiz	w0, w0, 22, 1
	orr	w0, w1, w0
	str	w0, [x19,48]
	.loc 1 1331 0
	ldr	w1, [x19,48]
	ldr	w0, [x20,264]
	and	w1, w1, -2097153
	ubfiz	w0, w0, 21, 1
	orr	w0, w1, w0
	str	w0, [x19,48]
	.loc 1 1332 0
	ldr	w1, [x19,48]
	ldr	w0, [x20,268]
	and	w1, w1, -1572865
	ubfiz	w0, w0, 19, 2
	orr	w0, w1, w0
	str	w0, [x19,48]
	.loc 1 1333 0
	ldr	w1, [x19,48]
	ldr	w0, [x20,272]
	and	w1, w1, -262145
	ubfiz	w0, w0, 18, 1
	orr	w0, w1, w0
	str	w0, [x19,48]
	.loc 1 1334 0
	ldr	w1, [x19,48]
	ldr	w0, [x20,276]
	and	w1, w1, -131073
	ubfiz	w0, w0, 17, 1
	orr	w0, w1, w0
	str	w0, [x19,48]
	.loc 1 1335 0
	ldr	w1, [x19,48]
	ldr	w0, [x20,280]
	and	w1, w1, -65537
	ubfiz	w0, w0, 16, 1
	orr	w0, w1, w0
	str	w0, [x19,48]
	.loc 1 1336 0
	ldr	w1, [x19,48]
	ldr	w0, [x20,284]
	and	w1, w1, -5
	ubfiz	w0, w0, 2, 1
	orr	w0, w1, w0
	str	w0, [x19,48]
	.loc 1 1337 0
	ldr	w1, [x19,48]
	ldr	w0, [x20,288]
	and	w1, w1, -3
	ubfiz	w0, w0, 1, 1
	orr	w0, w1, w0
	str	w0, [x19,48]
	.loc 1 1338 0
	ldr	w1, [x19,48]
	ldr	w0, [x20,292]
	and	w1, w1, -2
	and	w0, w0, 1
	orr	w0, w1, w0
	str	w0, [x19,48]
	.loc 1 1340 0
	ldr	w1, [x20,296]
	ldr	w0, [x19,52]
	sub	w1, w1, #1
	ubfiz	w1, w1, 16, 13
	and	w0, w0, -536805377
	orr	w0, w0, w1
	str	w0, [x19,52]
	.loc 1 1341 0
	ldr	w1, [x20,300]
	ldr	w0, [x19,52]
	sub	w1, w1, #1
	and	w1, w1, 8191
	and	w0, w0, -8192
	orr	w0, w0, w1
	str	w0, [x19,52]
	.loc 1 1342 0
	ldr	w1, [x20,304]
	ldr	w0, [x19,56]
	sub	w1, w1, #1
	ubfiz	w1, w1, 16, 9
	and	w0, w0, -33488897
	orr	w0, w0, w1
	str	w0, [x19,56]
	.loc 1 1343 0
	ldr	w1, [x20,308]
	ldr	w0, [x19,56]
	sub	w1, w1, #1
	and	w1, w1, 511
	and	w0, w0, -512
	orr	w0, w0, w1
	str	w0, [x19,56]
	.loc 1 1344 0
	ldr	w0, [x20,312]
	str	w0, [x19,60]
	.loc 1 1345 0
	ldr	w1, [x19,64]
	ldr	w0, [x20,316]
	and	w1, w1, -993
	ubfiz	w0, w0, 5, 5
	orr	w0, w1, w0
	str	w0, [x19,64]
	.loc 1 1346 0
	ldr	w1, [x20,320]
	ldr	w0, [x19,64]
	and	w1, w1, 31
	and	w0, w0, -32
	orr	w0, w0, w1
	str	w0, [x19,64]
	.loc 1 1348 0
	ldr	w0, [x20,192]
	cbnz	w0, .L107
	.loc 1 1350 0
	ldr	w1, [x20,324]
	ldr	w0, [x19,88]
	sub	w1, w1, #1
	ubfiz	w1, w1, 16, 6
	and	w0, w0, -4128769
	orr	w0, w0, w1
	str	w0, [x19,88]
	.loc 1 1351 0
	ldr	w1, [x20,328]
	ldr	w0, [x19,88]
	sub	w1, w1, #1
	and	w1, w1, 127
	and	w0, w0, -128
	orr	w0, w0, w1
	str	w0, [x19,88]
.L108:
	.loc 1 1359 0
	ldr	w1, [x19,92]
	ldr	w0, [x20,332]
	and	w1, w1, -4
	and	w0, w0, 3
	orr	w0, w1, w0
	str	w0, [x19,92]
	.loc 1 1361 0
	ldr	w1, [x19,96]
	ldr	w0, [x20,336]
	and	w1, w1, -3
	ubfiz	w0, w0, 1, 1
	orr	w0, w1, w0
	str	w0, [x19,96]
	.loc 1 1362 0
	ldr	w1, [x19,96]
	ldr	w0, [x20,340]
	and	w1, w1, -2
	and	w0, w0, 1
	orr	w0, w1, w0
	str	w0, [x19,96]
	.loc 1 1363 0
	ldr	w1, [x19,104]
	ldr	w0, [x20,412]
	and	w1, w1, -65537
	ubfiz	w0, w0, 16, 1
	orr	w0, w1, w0
	str	w0, [x19,104]
	.loc 1 1364 0
	ldr	w1, [x19,104]
	ldr	w0, [x20,348]
	and	w1, w1, -32769
	ubfiz	w0, w0, 15, 1
	orr	w0, w1, w0
	str	w0, [x19,104]
	.loc 1 1365 0
	ldr	w1, [x19,104]
	ldr	w0, [x20,352]
	and	w1, w1, -16385
	ubfiz	w0, w0, 14, 1
	orr	w0, w1, w0
	str	w0, [x19,104]
	.loc 1 1366 0
	ldr	w1, [x19,104]
	ldr	w0, [x20,356]
	and	w1, w1, -8193
	ubfiz	w0, w0, 13, 1
	orr	w0, w1, w0
	str	w0, [x19,104]
	.loc 1 1367 0
	ldr	w1, [x19,104]
	ldr	w0, [x20,360]
	and	w1, w1, -4097
	ubfiz	w0, w0, 12, 1
	orr	w0, w1, w0
	str	w0, [x19,104]
	.loc 1 1368 0
	ldr	w1, [x19,104]
	ldr	w0, [x20,364]
	and	w1, w1, -2049
	ubfiz	w0, w0, 11, 1
	orr	w0, w1, w0
	str	w0, [x19,104]
	.loc 1 1369 0
	ldr	w1, [x19,104]
	ldr	w0, [x20,368]
	and	w1, w1, -1025
	ubfiz	w0, w0, 10, 1
	orr	w0, w1, w0
	str	w0, [x19,104]
	.loc 1 1370 0
	ldr	w1, [x20,372]
	ldr	w0, [x19,104]
	ubfiz	w1, w1, 9, 1
	and	w0, w0, -513
	orr	w0, w0, w1
	str	w0, [x19,104]
	.loc 1 1371 0
	ldr	w1, [x20,376]
	ldr	w0, [x19,104]
	ubfiz	w1, w1, 8, 1
	and	w0, w0, -257
	orr	w0, w0, w1
	str	w0, [x19,104]
	.loc 1 1372 0
	ldr	w1, [x19,104]
	ldr	w0, [x20,380]
	and	w1, w1, -129
	ubfiz	w0, w0, 7, 1
	orr	w0, w1, w0
	str	w0, [x19,104]
	.loc 1 1373 0
	ldr	w1, [x19,104]
	ldr	w0, [x20,384]
	and	w1, w1, -65
	ubfiz	w0, w0, 6, 1
	orr	w0, w1, w0
	str	w0, [x19,104]
	.loc 1 1374 0
	ldr	w1, [x19,104]
	ldr	w0, [x20,388]
	and	w1, w1, -33
	ubfiz	w0, w0, 5, 1
	orr	w0, w1, w0
	str	w0, [x19,104]
	.loc 1 1375 0
	ldr	w1, [x19,104]
	ldr	w0, [x20,392]
	and	w1, w1, -17
	ubfiz	w0, w0, 4, 1
	orr	w0, w1, w0
	str	w0, [x19,104]
	.loc 1 1376 0
	ldr	w1, [x19,104]
	ldr	w0, [x20,396]
	and	w1, w1, -9
	ubfiz	w0, w0, 3, 1
	orr	w0, w1, w0
	str	w0, [x19,104]
	.loc 1 1377 0
	ldr	w1, [x19,104]
	ldr	w0, [x20,400]
	and	w1, w1, -5
	ubfiz	w0, w0, 2, 1
	orr	w0, w1, w0
	str	w0, [x19,104]
	.loc 1 1378 0
	ldr	w1, [x19,104]
	ldr	w0, [x20,404]
	and	w1, w1, -3
	ubfiz	w0, w0, 1, 1
	orr	w0, w1, w0
	str	w0, [x19,104]
	.loc 1 1379 0
	ldr	w1, [x19,104]
	ldr	w0, [x20,408]
	and	w1, w1, -2
	and	w0, w0, 1
	orr	w0, w1, w0
	str	w0, [x19,104]
	.loc 1 1381 0
	ldr	w1, [x19,108]
	ldr	w0, [x20,416]
	and	w1, w1, -536805377
	ubfiz	w0, w0, 16, 13
	orr	w0, w1, w0
	str	w0, [x19,108]
	.loc 1 1382 0
	ldr	w1, [x20,420]
	ldr	w0, [x19,108]
	and	w1, w1, 8191
	and	w0, w0, -8192
	orr	w0, w0, w1
	str	w0, [x19,108]
	.loc 1 1383 0
	ldr	w1, [x20,424]
	ldr	w0, [x19,112]
	ubfiz	w1, w1, 16, 13
	and	w0, w0, -536805377
	orr	w0, w0, w1
	str	w0, [x19,112]
	.loc 1 1384 0
	ldr	w1, [x19,112]
	ldr	w0, [x20,428]
	and	w1, w1, -8192
	and	w0, w0, 8191
	orr	w0, w1, w0
	str	w0, [x19,112]
	.loc 1 1385 0
	ldr	w1, [x19,116]
	ldr	w0, [x20,432]
	and	w1, w1, -536805377
	ubfiz	w0, w0, 16, 13
	orr	w0, w1, w0
	str	w0, [x19,116]
	.loc 1 1386 0
	ldr	w1, [x19,116]
	ldr	w0, [x20,436]
	and	w1, w1, -8192
	and	w0, w0, 8191
	orr	w0, w1, w0
	str	w0, [x19,116]
	.loc 1 1387 0
	ldr	w1, [x19,120]
	ldr	w0, [x20,440]
	and	w1, w1, -536805377
	ubfiz	w0, w0, 16, 13
	orr	w0, w1, w0
	str	w0, [x19,120]
	.loc 1 1388 0
	ldr	w1, [x19,120]
	ldr	w0, [x20,444]
	and	w1, w1, -8192
	and	w0, w0, 8191
	orr	w0, w1, w0
	str	w0, [x19,120]
	.loc 1 1389 0
	ldr	w1, [x19,124]
	ldr	w0, [x20,448]
	and	w1, w1, -536805377
	ubfiz	w0, w0, 16, 13
	orr	w0, w1, w0
	str	w0, [x19,124]
	.loc 1 1390 0
	ldr	w1, [x19,124]
	ldr	w0, [x20,452]
	and	w1, w1, -8192
	and	w0, w0, 8191
	orr	w0, w1, w0
	str	w0, [x19,124]
	.loc 1 1391 0
	ldr	w1, [x19,128]
	ldr	w0, [x20,456]
	and	w1, w1, -536805377
	ubfiz	w0, w0, 16, 13
	orr	w0, w1, w0
	str	w0, [x19,128]
	.loc 1 1392 0
	ldr	w1, [x19,128]
	ldr	w0, [x20,460]
	and	w1, w1, -8192
	and	w0, w0, 8191
	orr	w0, w1, w0
	str	w0, [x19,128]
	.loc 1 1393 0
	ldr	w1, [x20,464]
	ldr	w0, [x19,132]
	ubfiz	w1, w1, 16, 13
	and	w0, w0, -536805377
	orr	w0, w0, w1
	str	w0, [x19,132]
	.loc 1 1394 0
	ldr	w1, [x20,468]
	ldr	w0, [x19,132]
	and	w1, w1, 8191
	and	w0, w0, -8192
	orr	w0, w0, w1
	str	w0, [x19,132]
	.loc 1 1395 0
	ldr	w1, [x19,136]
	ldr	w0, [x20,472]
	and	w1, w1, -536805377
	ubfiz	w0, w0, 16, 13
	orr	w0, w1, w0
	str	w0, [x19,136]
	.loc 1 1396 0
	ldr	w1, [x19,136]
	ldr	w0, [x20,476]
	and	w1, w1, -8192
	and	w0, w0, 8191
	orr	w0, w1, w0
	str	w0, [x19,136]
	.loc 1 1398 0
	ldr	w1, [x19,140]
	ldr	w0, [x20,480]
	and	w1, w1, -536805377
	ubfiz	w0, w0, 16, 13
	orr	w0, w1, w0
	str	w0, [x19,140]
	.loc 1 1399 0
	ldr	w1, [x19,140]
	ldr	w0, [x20,484]
	and	w1, w1, -8192
	and	w0, w0, 8191
	orr	w0, w1, w0
	str	w0, [x19,140]
	.loc 1 1400 0
	ldr	w1, [x19,144]
	ldr	w0, [x20,488]
	and	w1, w1, -536805377
	ubfiz	w0, w0, 16, 13
	orr	w0, w1, w0
	str	w0, [x19,144]
	.loc 1 1401 0
	ldr	w1, [x19,144]
	ldr	w0, [x20,492]
	and	w1, w1, -8192
	and	w0, w0, 8191
	orr	w0, w1, w0
	str	w0, [x19,144]
	.loc 1 1402 0
	ldr	w1, [x19,148]
	ldr	w0, [x20,496]
	and	w1, w1, -536805377
	ubfiz	w0, w0, 16, 13
	orr	w0, w1, w0
	str	w0, [x19,148]
	.loc 1 1403 0
	ldr	w1, [x19,148]
	ldr	w0, [x20,500]
	and	w1, w1, -8192
	and	w0, w0, 8191
	orr	w0, w1, w0
	str	w0, [x19,148]
	.loc 1 1404 0
	ldr	w1, [x19,152]
	ldr	w0, [x20,504]
	and	w1, w1, -536805377
	ubfiz	w0, w0, 16, 13
	orr	w0, w1, w0
	str	w0, [x19,152]
	.loc 1 1405 0
	ldr	w1, [x20,508]
	ldr	w0, [x19,152]
	and	w1, w1, 8191
	and	w0, w0, -8192
	orr	w0, w0, w1
	str	w0, [x19,152]
	.loc 1 1406 0
	ldr	w1, [x20,512]
	ldr	w0, [x19,156]
	ubfiz	w1, w1, 16, 13
	and	w0, w0, -536805377
	orr	w0, w0, w1
	str	w0, [x19,156]
	.loc 1 1407 0
	ldr	w1, [x19,156]
	ldr	w0, [x20,516]
	and	w1, w1, -8192
	and	w0, w0, 8191
	orr	w0, w1, w0
	str	w0, [x19,156]
	.loc 1 1408 0
	ldr	w1, [x19,160]
	ldr	w0, [x20,520]
	and	w1, w1, -536805377
	ubfiz	w0, w0, 16, 13
	orr	w0, w1, w0
	str	w0, [x19,160]
	.loc 1 1409 0
	ldr	w1, [x19,160]
	ldr	w0, [x20,524]
	and	w1, w1, -8192
	and	w0, w0, 8191
	orr	w0, w1, w0
	str	w0, [x19,160]
	.loc 1 1410 0
	ldr	w1, [x19,164]
	ldr	w0, [x20,528]
	and	w1, w1, -536805377
	ubfiz	w0, w0, 16, 13
	orr	w0, w1, w0
	str	w0, [x19,164]
	.loc 1 1411 0
	ldr	w1, [x19,164]
	ldr	w0, [x20,532]
	and	w1, w1, -8192
	and	w0, w0, 8191
	orr	w0, w1, w0
	str	w0, [x19,164]
	.loc 1 1412 0
	ldr	w1, [x19,168]
	ldr	w0, [x20,536]
	and	w1, w1, -536805377
	ubfiz	w0, w0, 16, 13
	orr	w0, w1, w0
	str	w0, [x19,168]
	.loc 1 1413 0
	ldr	w1, [x19,168]
	ldr	w0, [x20,540]
	and	w1, w1, -8192
	and	w0, w0, 8191
	orr	w0, w1, w0
	str	w0, [x19,168]
	.loc 1 1415 0
	ldr	w1, [x19,172]
	ldr	w0, [x20,544]
	and	w1, w1, -1879048193
	ubfiz	w0, w0, 28, 3
	orr	w0, w1, w0
	str	w0, [x19,172]
	.loc 1 1416 0
	ldr	w1, [x19,172]
	ldr	w0, [x20,548]
	and	w1, w1, -117440513
	ubfiz	w0, w0, 24, 3
	orr	w0, w1, w0
	str	w0, [x19,172]
	.loc 1 1417 0
	ldr	w1, [x20,552]
	ldr	w0, [x19,172]
	ubfiz	w1, w1, 20, 3
	and	w0, w0, -7340033
	orr	w0, w0, w1
	str	w0, [x19,172]
	.loc 1 1418 0
	ldr	w1, [x20,556]
	ldr	w0, [x19,172]
	ubfiz	w1, w1, 16, 3
	and	w0, w0, -458753
	orr	w0, w0, w1
	str	w0, [x19,172]
	.loc 1 1419 0
	ldr	w1, [x19,172]
	ldr	w0, [x20,560]
	and	w1, w1, -28673
	ubfiz	w0, w0, 12, 3
	orr	w0, w1, w0
	str	w0, [x19,172]
	.loc 1 1420 0
	ldr	w1, [x19,172]
	ldr	w0, [x20,564]
	and	w1, w1, -1793
	ubfiz	w0, w0, 8, 3
	orr	w0, w1, w0
	str	w0, [x19,172]
	.loc 1 1421 0
	ldr	w1, [x19,172]
	ldr	w0, [x20,568]
	and	w1, w1, -113
	ubfiz	w0, w0, 4, 3
	orr	w0, w1, w0
	str	w0, [x19,172]
	.loc 1 1422 0
	ldr	w1, [x19,172]
	ldr	w0, [x20,572]
	and	w1, w1, -8
	and	w0, w0, 7
	orr	w0, w1, w0
	str	w0, [x19,172]
	.loc 1 1424 0
	ldr	w1, [x19,176]
	ldr	w0, [x20,576]
	and	w1, w1, -266338305
	ubfiz	w0, w0, 21, 7
	orr	w0, w1, w0
	str	w0, [x19,176]
	.loc 1 1425 0
	ldr	w1, [x19,176]
	ldr	w0, [x20,580]
	and	w1, w1, -2080769
	ubfiz	w0, w0, 14, 7
	orr	w0, w1, w0
	str	w0, [x19,176]
	.loc 1 1426 0
	ldr	w1, [x19,176]
	ldr	w0, [x20,584]
	and	w1, w1, -16257
	ubfiz	w0, w0, 7, 7
	orr	w0, w1, w0
	str	w0, [x19,176]
	.loc 1 1427 0
	ldr	w1, [x19,176]
	ldr	w0, [x20,588]
	and	w1, w1, -128
	and	w0, w0, 127
	orr	w0, w1, w0
	str	w0, [x19,176]
	.loc 1 1428 0
	ldr	w1, [x19,180]
	ldr	w0, [x20,592]
	and	w1, w1, -266338305
	ubfiz	w0, w0, 21, 7
	orr	w0, w1, w0
	str	w0, [x19,180]
	.loc 1 1429 0
	ldr	w1, [x20,596]
	ldr	w0, [x19,180]
	ubfiz	w1, w1, 14, 7
	and	w0, w0, -2080769
	orr	w0, w0, w1
	str	w0, [x19,180]
	.loc 1 1430 0
	ldr	w1, [x20,600]
	ldr	w0, [x19,180]
	ubfiz	w1, w1, 7, 7
	and	w0, w0, -16257
	orr	w0, w0, w1
	str	w0, [x19,180]
	.loc 1 1431 0
	ldr	w1, [x19,180]
	ldr	w0, [x20,604]
	and	w1, w1, -128
	and	w0, w0, 127
	orr	w0, w1, w0
	str	w0, [x19,180]
	.loc 1 1433 0
	ldr	w0, [x20,608]
	str	w0, [x19,184]
	.loc 1 1434 0
	ldr	w0, [x20,612]
	str	w0, [x19,188]
	.loc 1 1435 0
	ldr	w0, [x20,616]
	str	w0, [x19,192]
	.loc 1 1436 0
	ldr	w0, [x20,620]
	str	w0, [x19,196]
	.loc 1 1437 0
	ldr	w0, [x20,624]
	str	w0, [x19,200]
	.loc 1 1438 0
	ldr	w0, [x20,628]
	str	w0, [x19,204]
	.loc 1 1439 0
	ldr	w0, [x19,208]
	ldrh	w1, [x20,632]
	and	w0, w0, 65535
	orr	w0, w0, w1, lsl 16
	str	w0, [x19,208]
	.loc 1 1440 0
	ldr	w0, [x19,208]
	ldrh	w1, [x20,636]
	and	w0, w0, -65536
	orr	w0, w0, w1
	str	w0, [x19,208]
	.loc 1 1441 0
	ldr	w0, [x19,212]
	ldrh	w1, [x20,640]
	and	w0, w0, 65535
	orr	w0, w0, w1, lsl 16
	str	w0, [x19,212]
	.loc 1 1442 0
	ldr	w0, [x19,212]
	ldrh	w1, [x20,644]
	and	w0, w0, -65536
	orr	w0, w0, w1
	str	w0, [x19,212]
	.loc 1 1444 0
	ldr	w0, [x20,648]
	str	w0, [x19,216]
	.loc 1 1445 0
	ldr	w0, [x20,652]
	str	w0, [x19,220]
	.loc 1 1446 0
	ldr	w0, [x20,664]
	str	w0, [x19,228]
	.loc 1 1447 0
	ldr	w0, [x20,668]
	str	w0, [x19,232]
	.loc 1 1448 0
	ldr	w0, [x20,676]
	str	w0, [x19,240]
	.loc 1 1449 0
	ldr	w0, [x20,680]
	str	w0, [x19,244]
	.loc 1 1450 0
	ldr	w0, [x20,692]
	str	w0, [x19,252]
	.loc 1 1451 0
	ldr	w0, [x20,696]
	str	w0, [x19,256]
	.loc 1 1452 0
	ldr	w0, [x20,708]
	str	w0, [x19,264]
	.loc 1 1453 0
	ldr	w0, [x20,712]
	str	w0, [x19,268]
	.loc 1 1454 0
	ldr	w0, [x20,720]
	str	w0, [x19,276]
	.loc 1 1455 0
	ldr	w0, [x20,724]
	str	w0, [x19,280]
	.loc 1 1457 0
	ldr	w1, [x19,284]
	ldr	w0, [x20,740]
	and	w1, w1, -257
	ubfiz	w0, w0, 8, 1
	orr	w0, w1, w0
	str	w0, [x19,284]
	.loc 1 1458 0
	ldr	w0, [x19,284]
	ldrb	w1, [x20,744]
	and	w0, w0, -256
	orr	w0, w0, w1
	str	w0, [x19,284]
	.loc 1 1459 0
	ldr	w1, [x19,296]
	ldr	w0, [x20,748]
	and	w1, w1, -15361
	ubfiz	w0, w0, 10, 4
	orr	w0, w1, w0
	str	w0, [x19,296]
	.loc 1 1460 0
	ldr	w1, [x20,752]
	ldr	w0, [x19,296]
	ubfiz	w1, w1, 6, 4
	and	w0, w0, -961
	orr	w0, w0, w1
	str	w0, [x19,296]
	.loc 1 1461 0
	ldr	w1, [x20,756]
	ldr	w0, [x19,296]
	ubfiz	w1, w1, 3, 3
	and	w0, w0, -57
	orr	w0, w0, w1
	str	w0, [x19,296]
	.loc 1 1462 0
	ldr	w1, [x19,296]
	ldr	w0, [x20,760]
	and	w1, w1, -5
	ubfiz	w0, w0, 2, 1
	orr	w0, w1, w0
	str	w0, [x19,296]
	.loc 1 1463 0
	ldr	w1, [x19,296]
	ldr	w0, [x20,764]
	and	w1, w1, -3
	ubfiz	w0, w0, 1, 1
	orr	w0, w1, w0
	str	w0, [x19,296]
	.loc 1 1464 0
	ldr	w1, [x19,296]
	ldr	w0, [x20,768]
	and	w1, w1, -2
	and	w0, w0, 1
	orr	w0, w1, w0
	str	w0, [x19,296]
	.loc 1 1465 0
	ldr	w1, [x19,300]
	ldr	w0, [x20,772]
	and	w1, w1, -536805377
	ubfiz	w0, w0, 16, 13
	orr	w0, w1, w0
	str	w0, [x19,300]
	.loc 1 1466 0
	ldr	w1, [x19,300]
	ldr	w0, [x20,776]
	and	w1, w1, -8192
	and	w0, w0, 8191
	orr	w0, w1, w0
	str	w0, [x19,300]
	.loc 1 1467 0
	ldr	w1, [x19,304]
	ldr	w0, [x20,780]
	and	w1, w1, -536805377
	ubfiz	w0, w0, 16, 13
	orr	w0, w1, w0
	str	w0, [x19,304]
	.loc 1 1468 0
	ldr	w1, [x19,304]
	ldr	w0, [x20,784]
	and	w1, w1, -8192
	and	w0, w0, 8191
	orr	w0, w1, w0
	str	w0, [x19,304]
	.loc 1 1469 0
	ldr	w0, [x19,308]
	ldrh	w1, [x20,788]
	and	w0, w0, 65535
	orr	w0, w0, w1, lsl 16
	str	w0, [x19,308]
	.loc 1 1470 0
	ldr	w0, [x19,308]
	ldrh	w1, [x20,792]
	and	w0, w0, -65536
	orr	w0, w0, w1
	str	w0, [x19,308]
	.loc 1 1471 0
	ldr	w1, [x20,796]
	ldr	w0, [x19,312]
	sub	w1, w1, #1
	ubfiz	w1, w1, 16, 13
	and	w0, w0, -536805377
	orr	w0, w0, w1
	str	w0, [x19,312]
	.loc 1 1472 0
	ldr	w1, [x20,800]
	ldr	w0, [x19,312]
	sub	w1, w1, #1
	and	w1, w1, 8191
	and	w0, w0, -8192
	orr	w0, w0, w1
	str	w0, [x19,312]
	.loc 1 1474 0
	ldr	w1, [x19,316]
	ldr	w0, [x20,804]
	and	w1, w1, -61441
	ubfiz	w0, w0, 12, 4
	orr	w0, w1, w0
	str	w0, [x19,316]
	.loc 1 1475 0
	ldr	w1, [x19,316]
	ldr	w0, [x20,808]
	and	w1, w1, -3841
	ubfiz	w0, w0, 8, 4
	orr	w0, w1, w0
	str	w0, [x19,316]
	.loc 1 1476 0
	ldr	w1, [x19,316]
	ldr	w0, [x20,812]
	and	w1, w1, -17
	ubfiz	w0, w0, 4, 1
	orr	w0, w1, w0
	str	w0, [x19,316]
	.loc 1 1477 0
	ldr	w1, [x19,316]
	ldr	w0, [x20,816]
	and	w1, w1, -16
	and	w0, w0, 15
	orr	w0, w1, w0
	str	w0, [x19,316]
	.loc 1 1478 0
	ldr	w1, [x19,320]
	ldr	w0, [x20,820]
	and	w1, w1, -4097
	ubfiz	w0, w0, 12, 1
	orr	w0, w1, w0
	str	w0, [x19,320]
	.loc 1 1479 0
	ldr	w1, [x19,320]
	ldr	w0, [x20,824]
	and	w1, w1, -257
	ubfiz	w0, w0, 8, 1
	orr	w0, w1, w0
	str	w0, [x19,320]
	.loc 1 1480 0
	ldr	w1, [x19,320]
	ldr	w0, [x20,828]
	and	w1, w1, -49
	ubfiz	w0, w0, 4, 2
	orr	w0, w1, w0
	str	w0, [x19,320]
	.loc 1 1481 0
	ldr	w0, [x19,320]
	orr	w0, w0, 3
	str	w0, [x19,320]
	.loc 1 1482 0
	ldr	w1, [x19,324]
	ldr	w0, [x20,836]
	and	w1, w1, -17
	ubfiz	w0, w0, 4, 1
	orr	w0, w1, w0
	str	w0, [x19,324]
	.loc 1 1483 0
	ldr	w1, [x19,324]
	ldr	w0, [x20,840]
	and	w1, w1, -5
	ubfiz	w0, w0, 2, 1
	orr	w0, w1, w0
	str	w0, [x19,324]
	.loc 1 1484 0
	ldr	w1, [x20,844]
	ldr	w0, [x19,324]
	ubfiz	w1, w1, 1, 1
	and	w0, w0, -3
	orr	w0, w0, w1
	str	w0, [x19,324]
	.loc 1 1485 0
	ldr	w1, [x19,324]
	ldr	w0, [x20,848]
	and	w1, w1, -2
	and	w0, w0, 1
	orr	w0, w1, w0
	str	w0, [x19,324]
	.loc 1 1486 0
	ldr	w0, [x19,328]
	ldrh	w1, [x20,852]
	and	w0, w0, 65535
	orr	w0, w0, w1, lsl 16
	str	w0, [x19,328]
	.loc 1 1487 0
	ldr	w0, [x19,328]
	ldrh	w1, [x20,856]
	and	w0, w0, -65536
	orr	w0, w0, w1
	str	w0, [x19,328]
	.loc 1 1488 0
	ldr	w0, [x19,332]
	ldrb	w1, [x20,860]
	and	w0, w0, 16777215
	orr	w0, w0, w1, lsl 24
	str	w0, [x19,332]
	.loc 1 1489 0
	ldr	w0, [x19,332]
	ldrb	w1, [x20,864]
	and	w0, w0, -16711681
	orr	w0, w0, w1, lsl 16
	str	w0, [x19,332]
	.loc 1 1490 0
	ldr	w0, [x19,332]
	ldrb	w1, [x20,868]
	and	w0, w0, -65281
	orr	w0, w0, w1, lsl 8
	str	w0, [x19,332]
	.loc 1 1491 0
	ldr	w0, [x19,332]
	ldrb	w1, [x20,872]
	and	w0, w0, -256
	orr	w0, w0, w1
	str	w0, [x19,332]
	.loc 1 1492 0
	ldr	w1, [x19,336]
	ldr	w0, [x20,876]
	and	w1, w1, -33488897
	ubfiz	w0, w0, 16, 9
	orr	w0, w1, w0
	str	w0, [x19,336]
	.loc 1 1493 0
	ldr	w1, [x19,336]
	ldr	w0, [x20,880]
	and	w1, w1, -1024
	and	w0, w0, 1023
	orr	w0, w1, w0
	str	w0, [x19,336]
	.loc 1 1494 0
	ldr	w1, [x19,340]
	ldr	w0, [x20,884]
	and	w1, w1, -33488897
	ubfiz	w0, w0, 16, 9
	orr	w0, w1, w0
	str	w0, [x19,340]
	.loc 1 1495 0
	ldr	w1, [x20,888]
	ldr	w0, [x19,340]
	and	w1, w1, 1023
	and	w0, w0, -1024
	orr	w0, w0, w1
	str	w0, [x19,340]
	.loc 1 1496 0
	ldr	w1, [x20,892]
	ldr	w0, [x19,344]
	ubfiz	w1, w1, 16, 9
	and	w0, w0, -33488897
	orr	w0, w0, w1
	str	w0, [x19,344]
	.loc 1 1497 0
	ldr	w1, [x19,344]
	ldr	w0, [x20,896]
	and	w1, w1, -1024
	and	w0, w0, 1023
	orr	w0, w1, w0
	str	w0, [x19,344]
	.loc 1 1498 0
	ldr	w1, [x19,348]
	ldr	w0, [x20,900]
	and	w1, w1, -33488897
	ubfiz	w0, w0, 16, 9
	orr	w0, w1, w0
	str	w0, [x19,348]
	.loc 1 1499 0
	ldr	w1, [x19,348]
	ldr	w0, [x20,904]
	and	w1, w1, -1024
	and	w0, w0, 1023
	orr	w0, w1, w0
	str	w0, [x19,348]
	.loc 1 1500 0
	ldr	w1, [x19,352]
	ldr	w0, [x20,908]
	and	w1, w1, -5
	ubfiz	w0, w0, 2, 1
	orr	w0, w1, w0
	str	w0, [x19,352]
	.loc 1 1501 0
	ldr	w1, [x19,352]
	ldr	w0, [x20,912]
	and	w1, w1, -3
	ubfiz	w0, w0, 1, 1
	orr	w0, w1, w0
	str	w0, [x19,352]
	.loc 1 1502 0
	ldr	w1, [x19,352]
	ldr	w0, [x20,916]
	and	w1, w1, -2
	and	w0, w0, 1
	orr	w0, w1, w0
	str	w0, [x19,352]
	.loc 1 1504 0
	ldr	w1, [x19,488]
	ldr	w0, [x20,928]
	and	w1, w1, -2
	and	w0, w0, 1
	orr	w0, w1, w0
	str	w0, [x19,488]
	.loc 1 1506 0
	ldr	w0, [x19,492]
	ldrb	w1, [x20,920]
	and	w0, w0, -65281
	orr	w0, w0, w1, lsl 8
	str	w0, [x19,492]
	.loc 1 1507 0
	ldr	w0, [x19,492]
	ldrb	w1, [x20,924]
	and	w0, w0, -256
	orr	w0, w0, w1
	str	w0, [x19,492]
	.loc 1 1510 0
	ldr	w1, [x20,344]
	ldr	w0, [x19,512]
	ubfiz	w1, w1, 24, 1
	and	w0, w0, -16777217
	orr	w0, w0, w1
	str	w0, [x19,512]
	.loc 1 1511 0
	ldr	w1, [x20,932]
	ldr	w0, [x19,512]
	ubfiz	w1, w1, 23, 1
	and	w0, w0, -8388609
	orr	w0, w0, w1
	str	w0, [x19,512]
	.loc 1 1512 0
	ldr	w1, [x19,512]
	ldr	w0, [x20,936]
	and	w1, w1, -4194305
	ubfiz	w0, w0, 22, 1
	orr	w0, w1, w0
	str	w0, [x19,512]
	.loc 1 1513 0
	ldr	w1, [x19,512]
	ldr	w0, [x20,940]
	and	w1, w1, -2097153
	ubfiz	w0, w0, 21, 1
	orr	w0, w1, w0
	str	w0, [x19,512]
	.loc 1 1514 0
	ldr	w1, [x19,512]
	ldr	w0, [x20,944]
	and	w1, w1, -1048577
	ubfiz	w0, w0, 20, 1
	orr	w0, w1, w0
	str	w0, [x19,512]
	.loc 1 1515 0
	ldr	w1, [x19,512]
	ldr	w0, [x20,948]
	and	w1, w1, -524289
	ubfiz	w0, w0, 19, 1
	orr	w0, w1, w0
	str	w0, [x19,512]
	.loc 1 1516 0
	ldr	w1, [x19,512]
	ldr	w0, [x20,952]
	and	w1, w1, -262145
	ubfiz	w0, w0, 18, 1
	orr	w0, w1, w0
	str	w0, [x19,512]
	.loc 1 1517 0
	ldr	w1, [x19,512]
	ldr	w0, [x20,956]
	and	w1, w1, -131073
	ubfiz	w0, w0, 17, 1
	orr	w0, w1, w0
	str	w0, [x19,512]
	.loc 1 1518 0
	ldr	w1, [x19,512]
	ldr	w0, [x20,960]
	and	w1, w1, -65537
	ubfiz	w0, w0, 16, 1
	orr	w0, w1, w0
	str	w0, [x19,512]
	.loc 1 1519 0
	ldr	w1, [x19,512]
	ldr	w0, [x20,964]
	and	w1, w1, -32769
	ubfiz	w0, w0, 15, 1
	orr	w0, w1, w0
	str	w0, [x19,512]
	.loc 1 1520 0
	ldr	w1, [x19,512]
	ldr	w0, [x20,968]
	and	w1, w1, -16385
	ubfiz	w0, w0, 14, 1
	orr	w0, w1, w0
	str	w0, [x19,512]
	.loc 1 1521 0
	ldr	w1, [x20,972]
	ldr	w0, [x19,512]
	ubfiz	w1, w1, 13, 1
	and	w0, w0, -8193
	orr	w0, w0, w1
	str	w0, [x19,512]
	.loc 1 1522 0
	ldr	w1, [x20,976]
	ldr	w0, [x19,512]
	ubfiz	w1, w1, 12, 1
	and	w0, w0, -4097
	orr	w0, w0, w1
	str	w0, [x19,512]
	.loc 1 1523 0
	ldr	w1, [x19,512]
	ldr	w0, [x20,980]
	and	w1, w1, -2049
	ubfiz	w0, w0, 11, 1
	orr	w0, w1, w0
	str	w0, [x19,512]
	.loc 1 1524 0
	ldr	w1, [x19,512]
	ldr	w0, [x20,984]
	and	w1, w1, -1025
	ubfiz	w0, w0, 10, 1
	orr	w0, w1, w0
	str	w0, [x19,512]
	.loc 1 1525 0
	ldr	w1, [x19,512]
	ldr	w0, [x20,988]
	and	w1, w1, -513
	ubfiz	w0, w0, 9, 1
	orr	w0, w1, w0
	str	w0, [x19,512]
	.loc 1 1526 0
	ldr	w1, [x19,512]
	ldr	w0, [x20,992]
	and	w1, w1, -257
	ubfiz	w0, w0, 8, 1
	orr	w0, w1, w0
	str	w0, [x19,512]
	.loc 1 1527 0
	ldr	w1, [x19,512]
	ldr	w0, [x20,996]
	and	w1, w1, -129
	ubfiz	w0, w0, 7, 1
	orr	w0, w1, w0
	str	w0, [x19,512]
	.loc 1 1528 0
	ldr	w1, [x19,512]
	ldr	w0, [x20,1000]
	and	w1, w1, -65
	ubfiz	w0, w0, 6, 1
	orr	w0, w1, w0
	str	w0, [x19,512]
	.loc 1 1529 0
	ldr	w1, [x19,512]
	ldr	w0, [x20,1004]
	and	w1, w1, -33
	ubfiz	w0, w0, 5, 1
	orr	w0, w1, w0
	str	w0, [x19,512]
	.loc 1 1530 0
	ldr	w1, [x19,512]
	ldr	w0, [x20,1008]
	and	w1, w1, -17
	ubfiz	w0, w0, 4, 1
	orr	w0, w1, w0
	str	w0, [x19,512]
	.loc 1 1531 0
	ldr	w1, [x19,512]
	ldr	w0, [x20,1012]
	and	w1, w1, -9
	ubfiz	w0, w0, 3, 1
	orr	w0, w1, w0
	str	w0, [x19,512]
	.loc 1 1532 0
	ldr	w1, [x20,1016]
	ldr	w0, [x19,512]
	ubfiz	w1, w1, 2, 1
	and	w0, w0, -5
	orr	w0, w0, w1
	str	w0, [x19,512]
	.loc 1 1533 0
	ldr	w1, [x20,1020]
	ldr	w0, [x19,512]
	ubfiz	w1, w1, 1, 1
	and	w0, w0, -3
	orr	w0, w0, w1
	str	w0, [x19,512]
	.loc 1 1534 0
	ldr	w1, [x19,512]
	ldr	w0, [x20,1024]
	and	w1, w1, -2
	and	w0, w0, 1
	orr	w0, w1, w0
	str	w0, [x19,512]
	.loc 1 1535 0
	ldr	w1, [x19,516]
	ldr	w0, [x20,1028]
	and	w1, w1, -2130706433
	ubfiz	w0, w0, 24, 7
	orr	w0, w1, w0
	str	w0, [x19,516]
	.loc 1 1536 0
	ldr	w1, [x19,516]
	ldr	w0, [x20,1032]
	and	w1, w1, -8323073
	ubfiz	w0, w0, 16, 7
	orr	w0, w1, w0
	str	w0, [x19,516]
	.loc 1 1537 0
	ldr	w1, [x19,516]
	ldr	w0, [x20,1036]
	and	w1, w1, -32513
	ubfiz	w0, w0, 8, 7
	orr	w0, w1, w0
	str	w0, [x19,516]
	.loc 1 1538 0
	ldr	w1, [x19,516]
	ldr	w0, [x20,1040]
	and	w1, w1, -128
	and	w0, w0, 127
	orr	w0, w1, w0
	str	w0, [x19,516]
	.loc 1 1539 0
	ldr	w1, [x19,520]
	ldr	w0, [x20,1044]
	and	w1, w1, -2130706433
	ubfiz	w0, w0, 24, 7
	orr	w0, w1, w0
	str	w0, [x19,520]
	.loc 1 1540 0
	ldr	w1, [x19,520]
	ldr	w0, [x20,1048]
	and	w1, w1, -8323073
	ubfiz	w0, w0, 16, 7
	orr	w0, w1, w0
	str	w0, [x19,520]
	.loc 1 1541 0
	ldr	w1, [x19,520]
	ldr	w0, [x20,1052]
	and	w1, w1, -32513
	ubfiz	w0, w0, 8, 7
	orr	w0, w1, w0
	str	w0, [x19,520]
	.loc 1 1542 0
	ldr	w1, [x19,520]
	ldr	w0, [x20,1056]
	and	w1, w1, -128
	and	w0, w0, 127
	orr	w0, w1, w0
	str	w0, [x19,520]
	.loc 1 1543 0
	ldr	w1, [x20,1060]
	ldr	w0, [x19,524]
	ubfiz	w1, w1, 16, 10
	and	w0, w0, -67043329
	orr	w0, w0, w1
	str	w0, [x19,524]
	.loc 1 1544 0
	ldr	w1, [x20,1064]
	ldr	w0, [x19,524]
	and	w1, w1, 1023
	and	w0, w0, -1024
	orr	w0, w0, w1
	str	w0, [x19,524]
	.loc 1 1545 0
	ldr	w1, [x19,528]
	ldr	w0, [x20,1068]
	and	w1, w1, -33488897
	ubfiz	w0, w0, 16, 9
	orr	w0, w1, w0
	str	w0, [x19,528]
	.loc 1 1546 0
	ldr	w1, [x19,528]
	ldr	w0, [x20,1072]
	and	w1, w1, -512
	and	w0, w0, 511
	orr	w0, w1, w0
	str	w0, [x19,528]
	.loc 1 1547 0
	ldr	w1, [x19,532]
	ldr	w0, [x20,1076]
	and	w1, w1, -67043329
	ubfiz	w0, w0, 16, 10
	orr	w0, w1, w0
	str	w0, [x19,532]
	.loc 1 1548 0
	ldr	w1, [x19,532]
	ldr	w0, [x20,1080]
	and	w1, w1, -1024
	and	w0, w0, 1023
	orr	w0, w1, w0
	str	w0, [x19,532]
	.loc 1 1549 0
	ldr	w1, [x19,536]
	ldr	w0, [x20,1084]
	and	w1, w1, -33488897
	ubfiz	w0, w0, 16, 9
	orr	w0, w1, w0
	str	w0, [x19,536]
	.loc 1 1550 0
	ldr	w1, [x19,536]
	ldr	w0, [x20,1088]
	and	w1, w1, -512
	and	w0, w0, 511
	orr	w0, w1, w0
	str	w0, [x19,536]
	.loc 1 1551 0
	ldr	w1, [x19,540]
	ldr	w0, [x20,1092]
	and	w1, w1, -67043329
	ubfiz	w0, w0, 16, 10
	orr	w0, w1, w0
	str	w0, [x19,540]
	.loc 1 1552 0
	ldr	w1, [x19,540]
	ldr	w0, [x20,1096]
	and	w1, w1, -1024
	and	w0, w0, 1023
	orr	w0, w1, w0
	str	w0, [x19,540]
	.loc 1 1553 0
	ldr	w1, [x19,544]
	ldr	w0, [x20,1100]
	and	w1, w1, -33488897
	ubfiz	w0, w0, 16, 9
	orr	w0, w1, w0
	str	w0, [x19,544]
	.loc 1 1554 0
	ldr	w1, [x20,1104]
	ldr	w0, [x19,544]
	and	w1, w1, 511
	and	w0, w0, -512
	orr	w0, w0, w1
	str	w0, [x19,544]
	.loc 1 1555 0
	ldr	w1, [x20,1108]
	ldr	w0, [x19,548]
	ubfiz	w1, w1, 16, 10
	and	w0, w0, -67043329
	orr	w0, w0, w1
	str	w0, [x19,548]
	.loc 1 1556 0
	ldr	w1, [x19,548]
	ldr	w0, [x20,1112]
	and	w1, w1, -1024
	and	w0, w0, 1023
	orr	w0, w1, w0
	str	w0, [x19,548]
	.loc 1 1557 0
	ldr	w1, [x19,552]
	ldr	w0, [x20,1116]
	and	w1, w1, -33488897
	ubfiz	w0, w0, 16, 9
	orr	w0, w1, w0
	str	w0, [x19,552]
	.loc 1 1558 0
	ldr	w1, [x19,552]
	ldr	w0, [x20,1120]
	and	w1, w1, -512
	and	w0, w0, 511
	orr	w0, w1, w0
	str	w0, [x19,552]
	.loc 1 1559 0
	ldr	w1, [x19,556]
	ldr	w0, [x20,1124]
	and	w1, w1, -67043329
	ubfiz	w0, w0, 16, 10
	orr	w0, w1, w0
	str	w0, [x19,556]
	.loc 1 1560 0
	ldr	w1, [x19,556]
	ldr	w0, [x20,1128]
	and	w1, w1, -1024
	and	w0, w0, 1023
	orr	w0, w1, w0
	str	w0, [x19,556]
	.loc 1 1561 0
	ldr	w1, [x19,560]
	ldr	w0, [x20,1132]
	and	w1, w1, -33488897
	ubfiz	w0, w0, 16, 9
	orr	w0, w1, w0
	str	w0, [x19,560]
	.loc 1 1562 0
	ldr	w1, [x19,560]
	ldr	w0, [x20,1136]
	and	w1, w1, -512
	and	w0, w0, 511
	orr	w0, w1, w0
	str	w0, [x19,560]
	.loc 1 1563 0
	ldr	w1, [x19,564]
	ldr	w0, [x20,1140]
	and	w1, w1, -67043329
	ubfiz	w0, w0, 16, 10
	orr	w0, w1, w0
	str	w0, [x19,564]
	.loc 1 1564 0
	ldr	w1, [x19,564]
	ldr	w0, [x20,1144]
	and	w1, w1, -1024
	and	w0, w0, 1023
	orr	w0, w1, w0
	str	w0, [x19,564]
	.loc 1 1565 0
	ldr	w1, [x20,1148]
	ldr	w0, [x19,568]
	ubfiz	w1, w1, 16, 9
	and	w0, w0, -33488897
	orr	w0, w0, w1
	str	w0, [x19,568]
	.loc 1 1566 0
	ldr	w1, [x20,1152]
	ldr	w0, [x19,568]
	and	w1, w1, 511
	and	w0, w0, -512
	orr	w0, w0, w1
	str	w0, [x19,568]
	.loc 1 1567 0
	ldr	w1, [x19,572]
	ldr	w0, [x20,1156]
	and	w1, w1, -67043329
	ubfiz	w0, w0, 16, 10
	orr	w0, w1, w0
	str	w0, [x19,572]
	.loc 1 1568 0
	ldr	w1, [x19,572]
	ldr	w0, [x20,1160]
	and	w1, w1, -1024
	and	w0, w0, 1023
	orr	w0, w1, w0
	str	w0, [x19,572]
	.loc 1 1569 0
	ldr	w1, [x19,576]
	ldr	w0, [x20,1164]
	and	w1, w1, -33488897
	ubfiz	w0, w0, 16, 9
	orr	w0, w1, w0
	str	w0, [x19,576]
	.loc 1 1570 0
	ldr	w1, [x19,576]
	ldr	w0, [x20,1168]
	and	w1, w1, -512
	and	w0, w0, 511
	orr	w0, w1, w0
	str	w0, [x19,576]
	.loc 1 1571 0
	ldr	w1, [x19,580]
	ldr	w0, [x20,1172]
	and	w1, w1, -67043329
	ubfiz	w0, w0, 16, 10
	orr	w0, w1, w0
	str	w0, [x19,580]
	.loc 1 1572 0
	ldr	w1, [x19,580]
	ldr	w0, [x20,1176]
	and	w1, w1, -1024
	and	w0, w0, 1023
	orr	w0, w1, w0
	str	w0, [x19,580]
	.loc 1 1573 0
	ldr	w1, [x19,584]
	ldr	w0, [x20,1180]
	and	w1, w1, -33488897
	ubfiz	w0, w0, 16, 9
	orr	w0, w1, w0
	str	w0, [x19,584]
	.loc 1 1574 0
	ldr	w1, [x19,584]
	ldr	w0, [x20,1184]
	and	w1, w1, -512
	and	w0, w0, 511
	orr	w0, w1, w0
	str	w0, [x19,584]
	.loc 1 1576 0
	ldr	w1, [x19,588]
	ldr	w0, [x20,1188]
	and	w1, w1, -1048576
	and	w0, w0, 1048575
	orr	w0, w1, w0
	str	w0, [x19,588]
	.loc 1 1577 0
	ldr	w1, [x20,1192]
	ldr	w0, [x19,592]
	and	w1, w1, 15
	and	w0, w0, -16
	orr	w0, w0, w1
	str	w0, [x19,592]
	.loc 1 1578 0
	ldrh	w1, [x20,1196]
	ldr	w0, [x19,596]
	and	w0, w0, -65536
	orr	w0, w0, w1
	str	w0, [x19,596]
	.loc 1 1579 0
	ldr	w1, [x19,640]
	ldr	w0, [x20,1200]
	and	w1, w1, -2031617
	ubfiz	w0, w0, 16, 5
	orr	w0, w1, w0
	str	w0, [x19,640]
	.loc 1 1580 0
	ldr	w1, [x19,640]
	ldr	w0, [x20,1204]
	and	w1, w1, -1024
	and	w0, w0, 1023
	orr	w0, w1, w0
	str	w0, [x19,640]
	.loc 1 1581 0
	ldr	w1, [x19,644]
	ldr	w0, [x20,1208]
	and	w1, w1, -2031617
	ubfiz	w0, w0, 16, 5
	orr	w0, w1, w0
	str	w0, [x19,644]
	.loc 1 1582 0
	ldr	w0, [x19,644]
	ldrb	w1, [x20,1212]
	and	w0, w0, -256
	orr	w0, w0, w1
	str	w0, [x19,644]
	.loc 1 1583 0
	ldr	w1, [x19,648]
	ldr	w0, [x20,1216]
	and	w1, w1, -2031617
	ubfiz	w0, w0, 16, 5
	orr	w0, w1, w0
	str	w0, [x19,648]
	.loc 1 1584 0
	ldr	w1, [x19,648]
	ldr	w0, [x20,1220]
	and	w1, w1, -1024
	and	w0, w0, 1023
	orr	w0, w1, w0
	str	w0, [x19,648]
	.loc 1 1585 0
	ldr	w1, [x19,652]
	ldr	w0, [x20,1224]
	and	w1, w1, -2031617
	ubfiz	w0, w0, 16, 5
	orr	w0, w1, w0
	str	w0, [x19,652]
	.loc 1 1586 0
	ldr	w0, [x19,652]
	ldrb	w1, [x20,1228]
	and	w0, w0, -256
	orr	w0, w0, w1
	str	w0, [x19,652]
	.loc 1 1587 0
	ldr	w1, [x19,656]
	ldr	w0, [x20,1232]
	and	w1, w1, -2031617
	ubfiz	w0, w0, 16, 5
	orr	w0, w1, w0
	str	w0, [x19,656]
	.loc 1 1588 0
	ldr	w1, [x20,1236]
	ldr	w0, [x19,656]
	and	w1, w1, 1023
	and	w0, w0, -1024
	orr	w0, w0, w1
	str	w0, [x19,656]
	.loc 1 1589 0
	ldr	w1, [x20,1240]
	ldr	w0, [x19,660]
	ubfiz	w1, w1, 16, 5
	and	w0, w0, -2031617
	orr	w0, w0, w1
	str	w0, [x19,660]
	.loc 1 1590 0
	ldr	w0, [x19,660]
	ldrb	w1, [x20,1244]
	and	w0, w0, -256
	orr	w0, w0, w1
	str	w0, [x19,660]
	.loc 1 1591 0
	ldr	w1, [x19,664]
	ldr	w0, [x20,1248]
	and	w1, w1, -2031617
	ubfiz	w0, w0, 16, 5
	orr	w0, w1, w0
	str	w0, [x19,664]
	.loc 1 1592 0
	ldr	w1, [x19,664]
	ldr	w0, [x20,1252]
	and	w1, w1, -1024
	and	w0, w0, 1023
	orr	w0, w1, w0
	str	w0, [x19,664]
	.loc 1 1593 0
	ldr	w1, [x19,668]
	ldr	w0, [x20,1256]
	and	w1, w1, -2031617
	ubfiz	w0, w0, 16, 5
	orr	w0, w1, w0
	str	w0, [x19,668]
	.loc 1 1594 0
	ldr	w0, [x19,668]
	ldrb	w1, [x20,1260]
	and	w0, w0, -256
	orr	w0, w0, w1
	str	w0, [x19,668]
	.loc 1 1595 0
	ldr	w1, [x19,676]
	ldr	w0, [x20,1280]
	and	w1, w1, -61441
	ubfiz	w0, w0, 12, 4
	orr	w0, w1, w0
	str	w0, [x19,676]
	.loc 1 1596 0
	ldr	w1, [x19,676]
	ldr	w0, [x20,1284]
	and	w1, w1, -3841
	ubfiz	w0, w0, 8, 4
	orr	w0, w1, w0
	str	w0, [x19,676]
	.loc 1 1597 0
	ldr	w1, [x19,676]
	ldr	w0, [x20,1288]
	and	w1, w1, -241
	ubfiz	w0, w0, 4, 4
	orr	w0, w1, w0
	str	w0, [x19,676]
	.loc 1 1598 0
	ldr	w1, [x19,676]
	ldr	w0, [x20,1292]
	and	w1, w1, -16
	and	w0, w0, 15
	orr	w0, w1, w0
	str	w0, [x19,676]
	.loc 1 1599 0
	ldr	w1, [x20,1296]
	ldr	w0, [x19,680]
	ubfiz	w1, w1, 12, 4
	and	w0, w0, -61441
	orr	w0, w0, w1
	str	w0, [x19,680]
	.loc 1 1600 0
	ldr	w1, [x20,1300]
	ldr	w0, [x19,680]
	ubfiz	w1, w1, 8, 4
	and	w0, w0, -3841
	orr	w0, w0, w1
	str	w0, [x19,680]
	.loc 1 1601 0
	ldr	w1, [x19,680]
	ldr	w0, [x20,1304]
	and	w1, w1, -241
	ubfiz	w0, w0, 4, 4
	orr	w0, w1, w0
	str	w0, [x19,680]
	.loc 1 1602 0
	ldr	w1, [x19,680]
	ldr	w0, [x20,1308]
	and	w1, w1, -16
	and	w0, w0, 15
	orr	w0, w1, w0
	str	w0, [x19,680]
	.loc 1 1603 0
	ldr	w1, [x19,688]
	ldr	w0, [x20,1328]
	and	w1, w1, -61441
	ubfiz	w0, w0, 12, 4
	orr	w0, w1, w0
	str	w0, [x19,688]
	.loc 1 1604 0
	ldr	w1, [x19,688]
	ldr	w0, [x20,1332]
	and	w1, w1, -3841
	ubfiz	w0, w0, 8, 4
	orr	w0, w1, w0
	str	w0, [x19,688]
	.loc 1 1605 0
	ldr	w1, [x19,688]
	ldr	w0, [x20,1336]
	and	w1, w1, -241
	ubfiz	w0, w0, 4, 4
	orr	w0, w1, w0
	str	w0, [x19,688]
	.loc 1 1606 0
	ldr	w1, [x19,688]
	ldr	w0, [x20,1340]
	and	w1, w1, -16
	and	w0, w0, 15
	orr	w0, w1, w0
	str	w0, [x19,688]
	.loc 1 1607 0
	ldr	w1, [x19,692]
	ldr	w0, [x20,1344]
	and	w1, w1, -61441
	ubfiz	w0, w0, 12, 4
	orr	w0, w1, w0
	str	w0, [x19,692]
	.loc 1 1608 0
	ldr	w1, [x19,692]
	ldr	w0, [x20,1348]
	and	w1, w1, -3841
	ubfiz	w0, w0, 8, 4
	orr	w0, w1, w0
	str	w0, [x19,692]
	.loc 1 1609 0
	ldr	w1, [x19,692]
	ldr	w0, [x20,1352]
	and	w1, w1, -241
	ubfiz	w0, w0, 4, 4
	orr	w0, w1, w0
	str	w0, [x19,692]
	.loc 1 1610 0
	ldr	w1, [x20,1356]
	ldr	w0, [x19,692]
	and	w1, w1, 15
	and	w0, w0, -16
	orr	w0, w0, w1
	str	w0, [x19,692]
	.loc 1 1611 0
	ldr	w1, [x20,1376]
	ldr	w0, [x19,700]
	ubfiz	w1, w1, 12, 4
	and	w0, w0, -61441
	orr	w0, w0, w1
	str	w0, [x19,700]
	.loc 1 1612 0
	ldr	w1, [x19,700]
	ldr	w0, [x20,1380]
	and	w1, w1, -3841
	ubfiz	w0, w0, 8, 4
	orr	w0, w1, w0
	str	w0, [x19,700]
	.loc 1 1613 0
	ldr	w1, [x19,700]
	ldr	w0, [x20,1384]
	and	w1, w1, -241
	ubfiz	w0, w0, 4, 4
	orr	w0, w1, w0
	str	w0, [x19,700]
	.loc 1 1614 0
	ldr	w1, [x19,700]
	ldr	w0, [x20,1388]
	and	w1, w1, -16
	and	w0, w0, 15
	orr	w0, w1, w0
	str	w0, [x19,700]
	.loc 1 1615 0
	ldr	w1, [x19,704]
	ldr	w0, [x20,1392]
	and	w1, w1, -61441
	ubfiz	w0, w0, 12, 4
	orr	w0, w1, w0
	str	w0, [x19,704]
	.loc 1 1616 0
	ldr	w1, [x19,704]
	ldr	w0, [x20,1396]
	and	w1, w1, -3841
	ubfiz	w0, w0, 8, 4
	orr	w0, w1, w0
	str	w0, [x19,704]
	.loc 1 1617 0
	ldr	w1, [x19,704]
	ldr	w0, [x20,1400]
	and	w1, w1, -241
	ubfiz	w0, w0, 4, 4
	orr	w0, w1, w0
	str	w0, [x19,704]
	.loc 1 1618 0
	ldr	w1, [x20,1404]
	ldr	w0, [x19,704]
	and	w1, w1, 15
	and	w0, w0, -16
	orr	w0, w0, w1
	str	w0, [x19,704]
	.loc 1 1620 0
	ldr	w0, [x20,192]
	cbnz	w0, .L109
	.loc 1 1622 0
	ldr	w0, [x21,7156]
	sub	w1, w0, #60
	cmp	w1, 135
	bhi	.L110
	.loc 1 1622 0 is_stmt 0 discriminator 1
	ldr	w0, [x21,7052]
	cbnz	w0, .L114
	.loc 1 1624 0 is_stmt 1
	ldr	w0, [x19,672]
	and	w0, w0, -61441
	orr	w0, w0, 8192
	str	w0, [x19,672]
	.loc 1 1625 0
	ldr	w0, [x19,672]
	and	w0, w0, -3841
	orr	w0, w0, 512
	str	w0, [x19,672]
	.loc 1 1626 0
	ldr	w0, [x19,672]
	and	w0, w0, -241
	orr	w0, w0, 32
	str	w0, [x19,672]
	.loc 1 1627 0
	ldr	w0, [x19,672]
	and	w0, w0, -16
	orr	w0, w0, 2
	str	w0, [x19,672]
	.loc 1 1628 0
	ldr	w0, [x19,684]
	and	w0, w0, -61441
	orr	w0, w0, 8192
	str	w0, [x19,684]
	.loc 1 1629 0
	ldr	w0, [x19,684]
	and	w0, w0, -3841
	orr	w0, w0, 512
	str	w0, [x19,684]
	.loc 1 1630 0
	ldr	w0, [x19,684]
	and	w0, w0, -241
	orr	w0, w0, 32
	str	w0, [x19,684]
	.loc 1 1631 0
	ldr	w0, [x19,684]
	and	w0, w0, -16
	orr	w0, w0, 2
	str	w0, [x19,684]
	.loc 1 1632 0
	ldr	w0, [x19,696]
	and	w0, w0, -61441
	orr	w0, w0, 8192
	str	w0, [x19,696]
	.loc 1 1633 0
	ldr	w0, [x19,696]
	and	w0, w0, -3841
	orr	w0, w0, 512
	str	w0, [x19,696]
	.loc 1 1634 0
	ldr	w0, [x19,696]
	and	w0, w0, -241
	orr	w0, w0, 32
	str	w0, [x19,696]
	.loc 1 1635 0
	ldr	w0, [x19,696]
	and	w0, w0, -16
	orr	w0, w0, 2
	str	w0, [x19,696]
	.loc 1 1636 0
	ldr	w0, [x19,1536]
	and	w0, w0, -3
	str	w0, [x19,1536]
.L112:
	.loc 1 1697 0
	ldr	w4, [x19,1536]
	.loc 1 1721 0
	add	x3, x25, :lo12:.LANCHOR0
	.loc 1 1697 0
	ldr	w2, [x20,1412]
	.loc 1 1721 0
	mov	w0, 4
	.loc 1 1697 0
	and	w4, w4, -2
	.loc 1 1721 0
	add	x1, x26, :lo12:.LC0
	.loc 1 1697 0
	and	w2, w2, 1
	.loc 1 1721 0
	add	x3, x3, 208
	.loc 1 1697 0
	orr	w2, w4, w2
	str	w2, [x19,1536]
	.loc 1 1721 0
	adrp	x4, .LC16
	mov	w2, 1721
	.loc 1 1698 0
	ldr	w5, [x19,1540]
	.loc 1 1721 0
	add	x4, x4, :lo12:.LC16
	.loc 1 1698 0
	ldrh	w6, [x20,1416]
	and	w5, w5, -65536
	orr	w5, w5, w6
	str	w5, [x19,1540]
	.loc 1 1699 0
	ldr	w5, [x19,1544]
	ldrh	w6, [x20,1420]
	and	w5, w5, -65536
	orr	w5, w5, w6
	str	w5, [x19,1544]
	.loc 1 1700 0
	ldr	w5, [x19,1548]
	ldrh	w6, [x20,1424]
	and	w5, w5, -65536
	orr	w5, w5, w6
	str	w5, [x19,1548]
	.loc 1 1701 0
	ldr	w6, [x19,1556]
	ldr	w5, [x20,1428]
	and	w6, w6, -133955585
	ubfiz	w5, w5, 18, 9
	orr	w5, w6, w5
	str	w5, [x19,1556]
	.loc 1 1702 0
	ldr	w6, [x19,1556]
	ldr	w5, [x20,1432]
	and	w6, w6, -261633
	ubfiz	w5, w5, 9, 9
	orr	w5, w6, w5
	str	w5, [x19,1556]
	.loc 1 1703 0
	ldr	w6, [x19,1556]
	ldr	w5, [x20,1436]
	and	w6, w6, -512
	and	w5, w5, 511
	orr	w5, w6, w5
	str	w5, [x19,1556]
	.loc 1 1704 0
	ldr	w5, [x19,1560]
	ldrb	w6, [x20,1440]
	and	w5, w5, -16711681
	orr	w5, w5, w6, lsl 16
	str	w5, [x19,1560]
	.loc 1 1705 0
	ldr	w5, [x19,1560]
	ldrb	w6, [x20,1444]
	and	w5, w5, -65281
	orr	w5, w5, w6, lsl 8
	str	w5, [x19,1560]
	.loc 1 1706 0
	ldr	w5, [x19,1560]
	ldrb	w6, [x20,1448]
	and	w5, w5, -256
	orr	w5, w5, w6
	str	w5, [x19,1560]
	.loc 1 1707 0
	ldr	w6, [x20,1452]
	ldr	w5, [x19,1564]
	ubfiz	w6, w6, 8, 4
	and	w5, w5, -3841
	orr	w5, w5, w6
	str	w5, [x19,1564]
	.loc 1 1708 0
	ldr	w6, [x20,1456]
	ldr	w5, [x19,1564]
	ubfiz	w6, w6, 4, 4
	and	w5, w5, -241
	orr	w5, w5, w6
	str	w5, [x19,1564]
	.loc 1 1709 0
	ldr	w6, [x19,1564]
	ldr	w5, [x20,1460]
	and	w6, w6, -16
	and	w5, w5, 15
	orr	w5, w6, w5
	str	w5, [x19,1564]
	.loc 1 1710 0
	ldr	w5, [x19,1584]
	ldrb	w6, [x20,1464]
	and	w5, w5, 16777215
	orr	w5, w5, w6, lsl 24
	str	w5, [x19,1584]
	.loc 1 1711 0
	ldr	w5, [x19,1584]
	ldrb	w6, [x20,1468]
	and	w5, w5, -16711681
	orr	w5, w5, w6, lsl 16
	str	w5, [x19,1584]
	.loc 1 1712 0
	ldr	w5, [x19,1584]
	ldrb	w6, [x20,1472]
	and	w5, w5, -65281
	orr	w5, w5, w6, lsl 8
	str	w5, [x19,1584]
	.loc 1 1713 0
	ldr	w5, [x19,1584]
	ldrb	w6, [x20,1476]
	and	w5, w5, -256
	orr	w5, w5, w6
	str	w5, [x19,1584]
	.loc 1 1714 0
	ldr	w6, [x19,1596]
	ldr	w5, [x20,1480]
	and	w6, w6, -2143289345
	ubfiz	w5, w5, 22, 9
	orr	w5, w6, w5
	str	w5, [x19,1596]
	.loc 1 1715 0
	ldr	w6, [x19,1596]
	ldr	w5, [x20,1484]
	and	w6, w6, -4063233
	ubfiz	w5, w5, 17, 5
	orr	w5, w6, w5
	str	w5, [x19,1596]
	.loc 1 1716 0
	ldr	w5, [x19,1596]
	ldrb	w6, [x20,1488]
	and	w5, w5, -130561
	orr	w5, w5, w6, lsl 9
	str	w5, [x19,1596]
	.loc 1 1717 0
	ldr	w6, [x19,1596]
	ldr	w5, [x20,1492]
	and	w6, w6, -512
	and	w5, w5, 511
	orr	w5, w6, w5
	str	w5, [x19,1596]
	.loc 1 1719 0
	ldr	w5, [x19,2048]
	orr	w5, w5, 131072
	str	w5, [x19,2048]
	.loc 1 1720 0
	ldr	w6, [x20,1500]
	ldr	w5, [x19,2048]
	and	w6, w6, 1023
	and	w5, w5, -1024
	orr	w5, w5, w6
	str	w5, [x19,2048]
	.loc 1 1721 0
	ldr	w5, [x20,1500]
	bl	HI_PRINT
.LVL113:
	.loc 1 1723 0
	ldr	w1, [x19,2560]
	ldr	w0, [x20,1504]
	and	w1, w1, -193
	ubfiz	w0, w0, 6, 2
	orr	w0, w1, w0
	str	w0, [x19,2560]
	.loc 1 1724 0
	ldr	w1, [x19,2560]
	ldr	w0, [x20,1508]
	and	w1, w1, -33
	ubfiz	w0, w0, 5, 1
	orr	w0, w1, w0
	str	w0, [x19,2560]
	.loc 1 1725 0
	ldr	w1, [x19,2560]
	ldr	w0, [x20,1512]
	and	w1, w1, -17
	ubfiz	w0, w0, 4, 1
	orr	w0, w1, w0
	str	w0, [x19,2560]
	.loc 1 1726 0
	ldr	w1, [x19,2560]
	ldr	w0, [x20,1516]
	and	w1, w1, -9
	ubfiz	w0, w0, 3, 1
	orr	w0, w1, w0
	str	w0, [x19,2560]
	.loc 1 1727 0
	ldr	w1, [x19,2560]
	ldr	w0, [x20,1520]
	and	w1, w1, -3
	ubfiz	w0, w0, 1, 1
	orr	w0, w1, w0
	str	w0, [x19,2560]
	.loc 1 1728 0
	ldr	w1, [x19,2568]
	ldr	w0, [x20,1524]
	and	w1, w1, -13
	ubfiz	w0, w0, 2, 2
	orr	w0, w1, w0
	str	w0, [x19,2568]
	.loc 1 1729 0
	ldr	w1, [x19,2568]
	ldr	w0, [x20,1528]
	and	w1, w1, -4
	and	w0, w0, 3
	orr	w0, w1, w0
	str	w0, [x19,2568]
	.loc 1 1730 0
	ldr	w1, [x19,2572]
	ldr	w0, [x20,1532]
	and	w1, w1, -13
	ubfiz	w0, w0, 2, 2
	orr	w0, w1, w0
	str	w0, [x19,2572]
	.loc 1 1731 0
	ldr	w1, [x19,2572]
	ldr	w0, [x20,1536]
	and	w1, w1, -4
	and	w0, w0, 3
	orr	w0, w1, w0
	str	w0, [x19,2572]
	.loc 1 1732 0
	ldr	w1, [x19,2576]
	ldr	w0, [x20,1540]
	and	w1, w1, -13
	ubfiz	w0, w0, 2, 2
	orr	w0, w1, w0
	str	w0, [x19,2576]
	.loc 1 1733 0
	ldr	w1, [x20,1544]
	ldr	w0, [x19,2576]
	and	w1, w1, 3
	and	w0, w0, -4
	orr	w0, w0, w1
	str	w0, [x19,2576]
	.loc 1 1734 0
	ldr	w1, [x20,1548]
	ldr	w0, [x19,2580]
	ubfiz	w1, w1, 2, 2
	and	w0, w0, -13
	orr	w0, w0, w1
	str	w0, [x19,2580]
	.loc 1 1735 0
	ldr	w1, [x19,2580]
	ldr	w0, [x20,1552]
	and	w1, w1, -4
	and	w0, w0, 3
	orr	w0, w1, w0
	str	w0, [x19,2580]
	.loc 1 1736 0
	ldr	w0, [x19,2584]
	ldrh	w1, [x20,1556]
	and	w0, w0, -65536
	orr	w0, w0, w1
	str	w0, [x19,2584]
	.loc 1 1737 0
	ldr	w0, [x19,2588]
	ldrh	w1, [x20,1560]
	and	w0, w0, -65536
	orr	w0, w0, w1
	str	w0, [x19,2588]
	.loc 1 1738 0
	ldr	w0, [x19,2592]
	ldrh	w1, [x20,1564]
	and	w0, w0, 65535
	orr	w0, w0, w1, lsl 16
	str	w0, [x19,2592]
	.loc 1 1739 0
	ldr	w0, [x19,2592]
	ldrh	w1, [x20,1568]
	and	w0, w0, -65536
	orr	w0, w0, w1
	str	w0, [x19,2592]
	.loc 1 1740 0
	ldr	w1, [x19,2596]
	ldr	w0, [x20,1572]
	and	w1, w1, -4033
	ubfiz	w0, w0, 6, 6
	orr	w0, w1, w0
	str	w0, [x19,2596]
	.loc 1 1741 0
	ldr	w1, [x19,2596]
	ldr	w0, [x20,1576]
	and	w1, w1, -64
	and	w0, w0, 63
	orr	w0, w1, w0
	str	w0, [x19,2596]
	.loc 1 1743 0
	ldr	w1, [x19,3076]
	ldr	w0, [x20,1580]
	and	w1, w1, -16129
	ubfiz	w0, w0, 8, 6
	orr	w0, w1, w0
	str	w0, [x19,3076]
	.loc 1 1744 0
	ldr	w1, [x19,3076]
	ldr	w0, [x20,1584]
	and	w1, w1, -64
	and	w0, w0, 63
	orr	w0, w1, w0
	str	w0, [x19,3076]
	.loc 1 1745 0
	ldr	w0, [x19,3080]
	ldrh	w1, [x21,3272]
	and	w0, w0, -65536
	orr	w0, w0, w1
	str	w0, [x19,3080]
	.loc 1 1746 0
	ldr	w1, [x20,1592]
	ldr	w0, [x19,3084]
	and	w1, w1, 63
	and	w0, w0, -64
	orr	w0, w0, w1
	str	w0, [x19,3084]
	.loc 1 1747 0
	ldr	w0, [x19,3088]
	ldrb	w1, [x20,1596]
	and	w0, w0, 16777215
	orr	w0, w0, w1, lsl 24
	str	w0, [x19,3088]
	.loc 1 1748 0
	ldr	w0, [x19,3088]
	ldrb	w1, [x20,1600]
	and	w0, w0, -16711681
	orr	w0, w0, w1, lsl 16
	str	w0, [x19,3088]
	.loc 1 1749 0
	ldr	w0, [x19,3088]
	ldrb	w1, [x20,1604]
	and	w0, w0, -65281
	orr	w0, w0, w1, lsl 8
	str	w0, [x19,3088]
	.loc 1 1750 0
	ldr	w0, [x19,3088]
	ldrb	w1, [x20,1608]
	and	w0, w0, -256
	orr	w0, w0, w1
	str	w0, [x19,3088]
	.loc 1 1751 0
	ldr	w0, [x19,3092]
	ldrb	w1, [x20,1612]
	and	w0, w0, 16777215
	orr	w0, w0, w1, lsl 24
	str	w0, [x19,3092]
	.loc 1 1752 0
	ldr	w0, [x19,3092]
	ldrb	w1, [x20,1616]
	and	w0, w0, -16711681
	orr	w0, w0, w1, lsl 16
	str	w0, [x19,3092]
	.loc 1 1753 0
	ldr	w0, [x19,3092]
	ldrb	w1, [x20,1620]
	and	w0, w0, -65281
	orr	w0, w0, w1, lsl 8
	str	w0, [x19,3092]
	.loc 1 1754 0
	ldr	w0, [x19,3092]
	ldrb	w1, [x20,1624]
	and	w0, w0, -256
	orr	w0, w0, w1
	str	w0, [x19,3092]
	.loc 1 1755 0
	ldr	w0, [x19,3096]
	ldrb	w1, [x20,1628]
	and	w0, w0, 16777215
	orr	w0, w0, w1, lsl 24
	str	w0, [x19,3096]
	.loc 1 1756 0
	ldrb	w1, [x20,1632]
	ldr	w0, [x19,3096]
	and	w0, w0, -16711681
	orr	w0, w0, w1, lsl 16
	str	w0, [x19,3096]
	.loc 1 1757 0
	ldrb	w1, [x20,1636]
	ldr	w0, [x19,3096]
	and	w0, w0, -65281
	orr	w0, w0, w1, lsl 8
	str	w0, [x19,3096]
	.loc 1 1758 0
	ldr	w0, [x19,3096]
	ldrb	w1, [x20,1640]
	and	w0, w0, -256
	orr	w0, w0, w1
	str	w0, [x19,3096]
	.loc 1 1759 0
	ldr	w1, [x19,3104]
	ldr	w0, [x20,1644]
	and	w1, w1, -16
	and	w0, w0, 15
	orr	w0, w1, w0
	str	w0, [x19,3104]
	.loc 1 1760 0
	ldr	w1, [x19,3112]
	ldr	w0, [x20,1648]
	and	w1, w1, -16
	and	w0, w0, 15
	orr	w0, w1, w0
	str	w0, [x19,3112]
	.loc 1 1762 0
	ldr	w1, [x19,3152]
	ldr	w0, [x20,1652]
	and	w1, w1, -1048576
	and	w0, w0, 1048575
	orr	w0, w1, w0
	str	w0, [x19,3152]
	.loc 1 1763 0
	ldr	w1, [x19,3156]
	ldr	w0, [x20,1656]
	and	w1, w1, -1048576
	and	w0, w0, 1048575
	orr	w0, w1, w0
	str	w0, [x19,3156]
	.loc 1 1764 0
	ldr	w1, [x19,3160]
	ldr	w0, [x20,1660]
	and	w1, w1, -1048576
	and	w0, w0, 1048575
	orr	w0, w1, w0
	str	w0, [x19,3160]
	.loc 1 1765 0
	ldr	w1, [x19,3164]
	ldr	w0, [x20,1664]
	and	w1, w1, -1048576
	and	w0, w0, 1048575
	orr	w0, w1, w0
	str	w0, [x19,3164]
	.loc 1 1766 0
	ldr	w1, [x19,3168]
	ldr	w0, [x20,1668]
	and	w1, w1, -1048576
	and	w0, w0, 1048575
	orr	w0, w1, w0
	str	w0, [x19,3168]
	.loc 1 1767 0
	ldr	w1, [x19,3172]
	ldr	w0, [x20,1672]
	and	w1, w1, -1048576
	and	w0, w0, 1048575
	orr	w0, w1, w0
	str	w0, [x19,3172]
	.loc 1 1768 0
	ldr	w1, [x20,1676]
	ldr	w0, [x19,3176]
	and	w1, w1, 1048575
	and	w0, w0, -1048576
	orr	w0, w0, w1
	str	w0, [x19,3176]
	.loc 1 1769 0
	ldr	w1, [x20,1680]
	ldr	w0, [x19,3180]
	and	w1, w1, 1048575
	and	w0, w0, -1048576
	orr	w0, w0, w1
	str	w0, [x19,3180]
	.loc 1 1770 0
	ldr	w1, [x19,3184]
	ldr	w0, [x20,1684]
	and	w1, w1, -1048576
	and	w0, w0, 1048575
	orr	w0, w1, w0
	str	w0, [x19,3184]
	.loc 1 1771 0
	ldr	w1, [x19,3188]
	ldr	w0, [x20,1688]
	and	w1, w1, -1048576
	and	w0, w0, 1048575
	orr	w0, w1, w0
	str	w0, [x19,3188]
	.loc 1 1772 0
	ldr	w1, [x19,3192]
	ldr	w0, [x20,1692]
	and	w1, w1, -1048576
	and	w0, w0, 1048575
	orr	w0, w1, w0
	str	w0, [x19,3192]
	.loc 1 1773 0
	ldr	w1, [x19,3196]
	ldr	w0, [x20,1696]
	and	w1, w1, -1048576
	and	w0, w0, 1048575
	orr	w0, w1, w0
	str	w0, [x19,3196]
	.loc 1 1774 0
	ldr	w1, [x19,3200]
	ldr	w0, [x20,1700]
	and	w1, w1, -1048576
	and	w0, w0, 1048575
	orr	w0, w1, w0
	str	w0, [x19,3200]
	.loc 1 1775 0
	ldr	w1, [x19,3204]
	ldr	w0, [x20,1704]
	and	w1, w1, -1048576
	and	w0, w0, 1048575
	orr	w0, w1, w0
	str	w0, [x19,3204]
	.loc 1 1776 0
	ldr	w1, [x19,3208]
	ldr	w0, [x20,1708]
	and	w1, w1, -1048576
	and	w0, w0, 1048575
	orr	w0, w1, w0
	str	w0, [x19,3208]
	.loc 1 1777 0
	ldr	w1, [x19,3212]
	ldr	w0, [x20,1712]
	and	w1, w1, -1048576
	and	w0, w0, 1048575
	orr	w0, w1, w0
	str	w0, [x19,3212]
	.loc 1 1778 0
	ldr	w1, [x19,3216]
	ldr	w0, [x20,1716]
	and	w1, w1, -1048576
	and	w0, w0, 1048575
	orr	w0, w1, w0
	str	w0, [x19,3216]
	.loc 1 1779 0
	ldr	w1, [x20,1720]
	ldr	w0, [x19,3220]
	and	w1, w1, 1048575
	and	w0, w0, -1048576
	orr	w0, w0, w1
	str	w0, [x19,3220]
	.loc 1 1780 0
	ldr	w1, [x20,1724]
	ldr	w0, [x19,3224]
	and	w1, w1, 1048575
	and	w0, w0, -1048576
	orr	w0, w0, w1
	str	w0, [x19,3224]
	.loc 1 1781 0
	ldr	w1, [x19,3228]
	ldr	w0, [x20,1728]
	and	w1, w1, -1048576
	and	w0, w0, 1048575
	orr	w0, w1, w0
	str	w0, [x19,3228]
	.loc 1 1782 0
	ldr	w1, [x19,3232]
	ldr	w0, [x20,1732]
	and	w1, w1, -1048576
	and	w0, w0, 1048575
	orr	w0, w1, w0
	str	w0, [x19,3232]
	.loc 1 1783 0
	ldr	w1, [x19,3236]
	ldr	w0, [x20,1736]
	and	w1, w1, -1048576
	and	w0, w0, 1048575
	orr	w0, w1, w0
	str	w0, [x19,3236]
	.loc 1 1784 0
	ldr	w1, [x19,3240]
	ldr	w0, [x20,1740]
	and	w1, w1, -1048576
	and	w0, w0, 1048575
	orr	w0, w1, w0
	str	w0, [x19,3240]
	.loc 1 1785 0
	ldr	w1, [x19,3244]
	ldr	w0, [x20,1744]
	and	w1, w1, -1048576
	and	w0, w0, 1048575
	orr	w0, w1, w0
	str	w0, [x19,3244]
	.loc 1 1786 0
	ldr	w1, [x19,3248]
	ldr	w0, [x20,1748]
	and	w1, w1, -1048576
	and	w0, w0, 1048575
	orr	w0, w1, w0
	str	w0, [x19,3248]
	.loc 1 1787 0
	ldr	w1, [x19,3252]
	ldr	w0, [x20,1752]
	and	w1, w1, -1048576
	and	w0, w0, 1048575
	orr	w0, w1, w0
	str	w0, [x19,3252]
	.loc 1 1788 0
	ldr	w1, [x19,3256]
	ldr	w0, [x20,1756]
	and	w1, w1, -1048576
	and	w0, w0, 1048575
	orr	w0, w1, w0
	str	w0, [x19,3256]
	.loc 1 1789 0
	ldr	w1, [x19,3260]
	ldr	w0, [x20,1760]
	and	w1, w1, -1048576
	and	w0, w0, 1048575
	orr	w0, w1, w0
	str	w0, [x19,3260]
	.loc 1 1790 0
	ldr	w1, [x20,1764]
	ldr	w0, [x19,3264]
	and	w1, w1, 1048575
	and	w0, w0, -1048576
	orr	w0, w0, w1
	str	w0, [x19,3264]
	.loc 1 1791 0
	ldr	w1, [x20,1768]
	ldr	w0, [x19,3268]
	and	w1, w1, 1048575
	and	w0, w0, -1048576
	orr	w0, w0, w1
	str	w0, [x19,3268]
	.loc 1 1792 0
	ldr	w1, [x19,3272]
	ldr	w0, [x20,1772]
	and	w1, w1, -1048576
	and	w0, w0, 1048575
	orr	w0, w1, w0
	str	w0, [x19,3272]
	.loc 1 1793 0
	ldr	w1, [x19,3276]
	ldr	w0, [x20,1776]
	and	w1, w1, -1048576
	and	w0, w0, 1048575
	orr	w0, w1, w0
	str	w0, [x19,3276]
	.loc 1 1794 0
	ldr	w1, [x19,3280]
	ldr	w0, [x20,1780]
	and	w1, w1, -1048576
	and	w0, w0, 1048575
	orr	w0, w1, w0
	str	w0, [x19,3280]
	.loc 1 1795 0
	ldr	w1, [x19,3284]
	ldr	w0, [x20,1784]
	and	w1, w1, -1048576
	and	w0, w0, 1048575
	orr	w0, w1, w0
	str	w0, [x19,3284]
	.loc 1 1796 0
	ldr	w1, [x19,3288]
	ldr	w0, [x20,1788]
	and	w1, w1, -1048576
	and	w0, w0, 1048575
	orr	w0, w1, w0
	str	w0, [x19,3288]
	.loc 1 1797 0
	ldr	w1, [x19,3292]
	ldr	w0, [x20,1792]
	and	w1, w1, -1048576
	and	w0, w0, 1048575
	orr	w0, w1, w0
	str	w0, [x19,3292]
	.loc 1 1798 0
	ldr	w1, [x19,3296]
	ldr	w0, [x20,1796]
	and	w1, w1, -1048576
	and	w0, w0, 1048575
	orr	w0, w1, w0
	str	w0, [x19,3296]
	.loc 1 1799 0
	ldr	w1, [x19,3300]
	ldr	w0, [x20,1800]
	and	w1, w1, -1048576
	and	w0, w0, 1048575
	orr	w0, w1, w0
	str	w0, [x19,3300]
	.loc 1 1800 0
	ldr	w1, [x19,3304]
	ldr	w0, [x20,1804]
	and	w1, w1, -1048576
	and	w0, w0, 1048575
	orr	w0, w1, w0
	str	w0, [x19,3304]
	.loc 1 1801 0
	ldr	w1, [x20,1808]
	ldr	w0, [x19,3308]
	and	w1, w1, 1048575
	and	w0, w0, -1048576
	orr	w0, w0, w1
	str	w0, [x19,3308]
	.loc 1 1802 0
	ldr	w1, [x20,1812]
	ldr	w0, [x19,3312]
	and	w1, w1, 1048575
	and	w0, w0, -1048576
	orr	w0, w0, w1
	str	w0, [x19,3312]
	.loc 1 1803 0
	ldr	w1, [x19,3316]
	ldr	w0, [x20,1816]
	and	w1, w1, -1048576
	and	w0, w0, 1048575
	orr	w0, w1, w0
	str	w0, [x19,3316]
	.loc 1 1804 0
	ldr	w1, [x19,3320]
	ldr	w0, [x20,1820]
	and	w1, w1, -1048576
	and	w0, w0, 1048575
	orr	w0, w1, w0
	str	w0, [x19,3320]
	.loc 1 1805 0
	ldr	w1, [x19,3324]
	ldr	w0, [x20,1824]
	and	w1, w1, -1048576
	and	w0, w0, 1048575
	orr	w0, w1, w0
	str	w0, [x19,3324]
	.loc 1 1806 0
	ldr	w1, [x19,3328]
	ldr	w0, [x20,1828]
	and	w1, w1, -1048576
	and	w0, w0, 1048575
	orr	w0, w1, w0
	str	w0, [x19,3328]
	.loc 1 1807 0
	ldr	w1, [x19,3332]
	ldr	w0, [x20,1832]
	and	w1, w1, -1048576
	and	w0, w0, 1048575
	orr	w0, w1, w0
	str	w0, [x19,3332]
	.loc 1 1808 0
	ldr	w1, [x19,3336]
	ldr	w0, [x20,1836]
	and	w1, w1, -1048576
	and	w0, w0, 1048575
	orr	w0, w1, w0
	str	w0, [x19,3336]
	.loc 1 1809 0
	ldr	w1, [x19,3340]
	ldr	w0, [x20,1840]
	and	w1, w1, -1048576
	and	w0, w0, 1048575
	orr	w0, w1, w0
	str	w0, [x19,3340]
	.loc 1 1810 0
	ldr	w1, [x19,3344]
	ldr	w0, [x20,1844]
	and	w1, w1, -1048576
	and	w0, w0, 1048575
	orr	w0, w1, w0
	str	w0, [x19,3344]
	.loc 1 1811 0
	ldr	w1, [x19,3348]
	ldr	w0, [x20,1848]
	and	w1, w1, -1048576
	and	w0, w0, 1048575
	orr	w0, w1, w0
	str	w0, [x19,3348]
	.loc 1 1812 0
	ldr	w1, [x20,1852]
	ldr	w0, [x19,3352]
	and	w1, w1, 1048575
	and	w0, w0, -1048576
	orr	w0, w0, w1
	str	w0, [x19,3352]
	.loc 1 1813 0
	ldr	w1, [x20,1856]
	ldr	w0, [x19,3356]
	and	w1, w1, 1048575
	and	w0, w0, -1048576
	orr	w0, w0, w1
	str	w0, [x19,3356]
	.loc 1 1814 0
	ldr	w1, [x19,3360]
	ldr	w0, [x20,1860]
	and	w1, w1, -1048576
	and	w0, w0, 1048575
	orr	w0, w1, w0
	str	w0, [x19,3360]
	.loc 1 1815 0
	ldr	w1, [x19,3364]
	ldr	w0, [x20,1864]
	and	w1, w1, -1048576
	and	w0, w0, 1048575
	orr	w0, w1, w0
	str	w0, [x19,3364]
	.loc 1 1816 0
	ldr	w1, [x19,3368]
	ldr	w0, [x20,1868]
	and	w1, w1, -1048576
	and	w0, w0, 1048575
	orr	w0, w1, w0
	str	w0, [x19,3368]
	.loc 1 1817 0
	ldr	w1, [x19,3372]
	ldr	w0, [x20,1872]
	and	w1, w1, -1048576
	and	w0, w0, 1048575
	orr	w0, w1, w0
	str	w0, [x19,3372]
	.loc 1 1818 0
	ldr	w1, [x19,3376]
	ldr	w0, [x20,1876]
	and	w1, w1, -1048576
	and	w0, w0, 1048575
	orr	w0, w1, w0
	str	w0, [x19,3376]
	.loc 1 1819 0
	ldr	w1, [x19,3380]
	ldr	w0, [x20,1880]
	and	w1, w1, -1048576
	and	w0, w0, 1048575
	orr	w0, w1, w0
	str	w0, [x19,3380]
	.loc 1 1820 0
	ldr	w1, [x19,3384]
	ldr	w0, [x20,1884]
	and	w1, w1, -1048576
	and	w0, w0, 1048575
	orr	w0, w1, w0
	str	w0, [x19,3384]
	.loc 1 1821 0
	ldr	w1, [x19,3388]
	ldr	w0, [x20,1888]
	and	w1, w1, -1048576
	and	w0, w0, 1048575
	orr	w0, w1, w0
	str	w0, [x19,3388]
	.loc 1 1822 0
	ldr	w1, [x19,3392]
	ldr	w0, [x20,1892]
	and	w1, w1, -1048576
	and	w0, w0, 1048575
	orr	w0, w1, w0
	str	w0, [x19,3392]
	.loc 1 1823 0
	ldr	w1, [x20,1896]
	ldr	w0, [x19,3396]
	and	w1, w1, 1048575
	and	w0, w0, -1048576
	orr	w0, w0, w1
	str	w0, [x19,3396]
	.loc 1 1824 0
	ldr	w1, [x20,1900]
	ldr	w0, [x19,3400]
	and	w1, w1, 1048575
	and	w0, w0, -1048576
	orr	w0, w0, w1
	str	w0, [x19,3400]
	.loc 1 1825 0
	ldr	w1, [x19,3404]
	ldr	w0, [x20,1904]
	and	w1, w1, -1048576
	and	w0, w0, 1048575
	orr	w0, w1, w0
	str	w0, [x19,3404]
	.loc 1 1826 0
	ldr	w1, [x19,3408]
	ldr	w0, [x20,1908]
	and	w1, w1, -1048576
	and	w0, w0, 1048575
	orr	w0, w1, w0
	str	w0, [x19,3408]
	.loc 1 1827 0
	ldr	w1, [x19,3412]
	ldr	w0, [x20,1912]
	and	w1, w1, -1048576
	and	w0, w0, 1048575
	orr	w0, w1, w0
	str	w0, [x19,3412]
	.loc 1 1828 0
	ldr	w1, [x19,3416]
	ldr	w0, [x20,1916]
	and	w1, w1, -1048576
	and	w0, w0, 1048575
	orr	w0, w1, w0
	str	w0, [x19,3416]
	.loc 1 1829 0
	ldr	w1, [x19,3420]
	ldr	w0, [x20,1920]
	and	w1, w1, -1048576
	and	w0, w0, 1048575
	orr	w0, w1, w0
	str	w0, [x19,3420]
	.loc 1 1830 0
	ldr	w1, [x19,3424]
	ldr	w0, [x20,1924]
	and	w1, w1, -1048576
	and	w0, w0, 1048575
	orr	w0, w1, w0
	str	w0, [x19,3424]
	.loc 1 1831 0
	ldr	w1, [x19,3428]
	ldr	w0, [x20,1928]
	and	w1, w1, -1048576
	and	w0, w0, 1048575
	orr	w0, w1, w0
	str	w0, [x19,3428]
	.loc 1 1832 0
	ldr	w1, [x19,3432]
	ldr	w0, [x20,1932]
	and	w1, w1, -1048576
	and	w0, w0, 1048575
	orr	w0, w1, w0
	str	w0, [x19,3432]
	.loc 1 1833 0
	ldr	w1, [x19,3436]
	ldr	w0, [x20,1936]
	and	w1, w1, -1048576
	and	w0, w0, 1048575
	orr	w0, w1, w0
	str	w0, [x19,3436]
	.loc 1 1834 0
	ldr	w1, [x20,1940]
	ldr	w0, [x19,3440]
	and	w1, w1, 1048575
	and	w0, w0, -1048576
	orr	w0, w0, w1
	str	w0, [x19,3440]
	.loc 1 1835 0
	ldr	w1, [x20,1944]
	ldr	w0, [x19,3444]
	and	w1, w1, 1048575
	and	w0, w0, -1048576
	orr	w0, w0, w1
	str	w0, [x19,3444]
	.loc 1 1836 0
	ldr	w1, [x19,3448]
	ldr	w0, [x20,1948]
	and	w1, w1, -1048576
	and	w0, w0, 1048575
	orr	w0, w1, w0
	str	w0, [x19,3448]
	.loc 1 1837 0
	ldr	w1, [x19,3452]
	ldr	w0, [x20,1952]
	and	w1, w1, -1048576
	and	w0, w0, 1048575
	orr	w0, w1, w0
	str	w0, [x19,3452]
	.loc 1 1838 0
	ldr	w1, [x19,3456]
	ldr	w0, [x20,1956]
	and	w1, w1, -1048576
	and	w0, w0, 1048575
	orr	w0, w1, w0
	str	w0, [x19,3456]
	.loc 1 1839 0
	ldr	w1, [x19,3460]
	ldr	w0, [x20,1960]
	and	w1, w1, -1048576
	and	w0, w0, 1048575
	orr	w0, w1, w0
	str	w0, [x19,3460]
	.loc 1 1840 0
	ldr	w1, [x19,3464]
	ldr	w0, [x20,1964]
	and	w1, w1, -1048576
	and	w0, w0, 1048575
	orr	w0, w1, w0
	str	w0, [x19,3464]
	.loc 1 1841 0
	ldr	w1, [x19,3468]
	ldr	w0, [x20,1968]
	and	w1, w1, -1048576
	and	w0, w0, 1048575
	orr	w0, w1, w0
	str	w0, [x19,3468]
	.loc 1 1843 0
	ldr	w1, [x19,4608]
	ldr	w0, [x20,1972]
	and	w1, w1, -2
	and	w0, w0, 1
	orr	w0, w1, w0
	str	w0, [x19,4608]
	.loc 1 1844 0
	ldr	w1, [x19,4612]
	ldr	w0, [x20,1976]
	and	w1, w1, -2
	and	w0, w0, 1
	orr	w0, w1, w0
	str	w0, [x19,4612]
	.loc 1 1845 0
	ldr	w1, [x19,4620]
	ldr	w0, [x20,1980]
	and	w1, w1, -16
	and	w0, w0, 15
	orr	w0, w1, w0
	str	w0, [x19,4620]
	.loc 1 1846 0
	ldr	w1, [x20,1984]
	ldr	w0, [x19,4640]
	and	w0, w0, 2147483647
	orr	w0, w0, w1, lsl 31
	str	w0, [x19,4640]
	.loc 1 1847 0
	ldr	w1, [x20,1988]
	ldr	w0, [x19,4640]
	ubfiz	w1, w1, 30, 1
	and	w0, w0, -1073741825
	orr	w0, w0, w1
	str	w0, [x19,4640]
	.loc 1 1848 0
	ldr	w1, [x19,4640]
	ldr	w0, [x20,1992]
	and	w1, w1, -536870913
	ubfiz	w0, w0, 29, 1
	orr	w0, w1, w0
	str	w0, [x19,4640]
	.loc 1 1849 0
	ldr	w1, [x19,4640]
	ldr	w0, [x20,1996]
	and	w1, w1, -268435457
	ubfiz	w0, w0, 28, 1
	orr	w0, w1, w0
	str	w0, [x19,4640]
	.loc 1 1850 0
	ldr	w1, [x19,4640]
	ldr	w0, [x20,2000]
	and	w1, w1, -134217729
	ubfiz	w0, w0, 27, 1
	orr	w0, w1, w0
	str	w0, [x19,4640]
	.loc 1 1851 0
	ldr	w1, [x19,4640]
	ldr	w0, [x20,2004]
	and	w1, w1, -67108865
	ubfiz	w0, w0, 26, 1
	orr	w0, w1, w0
	str	w0, [x19,4640]
	.loc 1 1852 0
	ldr	w1, [x19,4640]
	ldr	w0, [x20,2008]
	and	w1, w1, -33554433
	ubfiz	w0, w0, 25, 1
	orr	w0, w1, w0
	str	w0, [x19,4640]
	.loc 1 1853 0
	ldr	w1, [x19,4640]
	ldr	w0, [x20,2012]
	and	w1, w1, -16777217
	ubfiz	w0, w0, 24, 1
	orr	w0, w1, w0
	str	w0, [x19,4640]
	.loc 1 1854 0
	ldr	w1, [x19,4640]
	ldr	w0, [x20,2016]
	and	w1, w1, -8388609
	ubfiz	w0, w0, 23, 1
	orr	w0, w1, w0
	str	w0, [x19,4640]
	.loc 1 1855 0
	ldr	w1, [x19,4640]
	ldr	w0, [x20,2020]
	and	w1, w1, -4194305
	ubfiz	w0, w0, 22, 1
	orr	w0, w1, w0
	str	w0, [x19,4640]
	.loc 1 1856 0
	ldr	w1, [x19,4640]
	ldr	w0, [x20,2024]
	and	w1, w1, -2097153
	ubfiz	w0, w0, 21, 1
	orr	w0, w1, w0
	str	w0, [x19,4640]
	.loc 1 1857 0
	ldr	w1, [x20,2028]
	ldr	w0, [x19,4640]
	ubfiz	w1, w1, 20, 1
	and	w0, w0, -1048577
	orr	w0, w0, w1
	str	w0, [x19,4640]
	.loc 1 1858 0
	ldr	w1, [x20,2032]
	ldr	w0, [x19,4640]
	ubfiz	w1, w1, 19, 1
	and	w0, w0, -524289
	orr	w0, w0, w1
	str	w0, [x19,4640]
	.loc 1 1859 0
	ldr	w1, [x19,4640]
	ldr	w0, [x20,2036]
	and	w1, w1, -262145
	ubfiz	w0, w0, 18, 1
	orr	w0, w1, w0
	str	w0, [x19,4640]
	.loc 1 1860 0
	ldr	w1, [x19,4640]
	ldr	w0, [x20,2040]
	and	w1, w1, -131073
	ubfiz	w0, w0, 17, 1
	orr	w0, w1, w0
	str	w0, [x19,4640]
	.loc 1 1861 0
	ldr	w1, [x19,4640]
	ldr	w0, [x20,2044]
	and	w1, w1, -65537
	ubfiz	w0, w0, 16, 1
	orr	w0, w1, w0
	str	w0, [x19,4640]
	.loc 1 1862 0
	ldr	w1, [x19,4640]
	ldr	w0, [x20,2048]
	and	w1, w1, -32769
	ubfiz	w0, w0, 15, 1
	orr	w0, w1, w0
	str	w0, [x19,4640]
	.loc 1 1863 0
	ldr	w1, [x19,4640]
	ldr	w0, [x20,2052]
	and	w1, w1, -16385
	ubfiz	w0, w0, 14, 1
	orr	w0, w1, w0
	str	w0, [x19,4640]
	.loc 1 1864 0
	ldr	w1, [x19,4640]
	ldr	w0, [x20,2056]
	and	w1, w1, -8193
	ubfiz	w0, w0, 13, 1
	orr	w0, w1, w0
	str	w0, [x19,4640]
	.loc 1 1865 0
	ldr	w1, [x19,4640]
	ldr	w0, [x20,2060]
	and	w1, w1, -4097
	ubfiz	w0, w0, 12, 1
	orr	w0, w1, w0
	str	w0, [x19,4640]
	.loc 1 1866 0
	ldr	w1, [x19,4640]
	ldr	w0, [x20,2064]
	and	w1, w1, -2049
	ubfiz	w0, w0, 11, 1
	orr	w0, w1, w0
	str	w0, [x19,4640]
	.loc 1 1867 0
	ldr	w1, [x19,4640]
	ldr	w0, [x20,2068]
	and	w1, w1, -1025
	ubfiz	w0, w0, 10, 1
	orr	w0, w1, w0
	str	w0, [x19,4640]
	.loc 1 1868 0
	ldr	w1, [x20,2072]
	ldr	w0, [x19,4640]
	ubfiz	w1, w1, 9, 1
	and	w0, w0, -513
	orr	w0, w0, w1
	str	w0, [x19,4640]
	.loc 1 1869 0
	ldr	w1, [x20,2076]
	ldr	w0, [x19,4640]
	ubfiz	w1, w1, 8, 1
	and	w0, w0, -257
	orr	w0, w0, w1
	str	w0, [x19,4640]
	.loc 1 1870 0
	ldr	w1, [x19,4640]
	ldr	w0, [x20,2080]
	and	w1, w1, -129
	ubfiz	w0, w0, 7, 1
	orr	w0, w1, w0
	str	w0, [x19,4640]
	.loc 1 1871 0
	ldr	w1, [x19,4640]
	ldr	w0, [x20,2084]
	and	w1, w1, -65
	ubfiz	w0, w0, 6, 1
	orr	w0, w1, w0
	str	w0, [x19,4640]
	.loc 1 1872 0
	ldr	w1, [x19,4640]
	ldr	w0, [x20,2088]
	and	w1, w1, -33
	ubfiz	w0, w0, 5, 1
	orr	w0, w1, w0
	str	w0, [x19,4640]
	.loc 1 1873 0
	ldr	w1, [x19,4640]
	ldr	w0, [x20,2092]
	and	w1, w1, -17
	ubfiz	w0, w0, 4, 1
	orr	w0, w1, w0
	str	w0, [x19,4640]
	.loc 1 1874 0
	ldr	w1, [x20,2096]
	ldr	w0, [x19,4640]
	ubfiz	w1, w1, 3, 1
	and	w0, w0, -9
	orr	w0, w0, w1
	str	w0, [x19,4640]
	.loc 1 1876 0
	ldr	w0, [x20,192]
	cbnz	w0, .L115
	.loc 1 1878 0
	ldr	w1, [x20,2100]
	ldr	w0, [x19,4640]
	ubfiz	w1, w1, 2, 1
	and	w0, w0, -5
	orr	w0, w0, w1
	str	w0, [x19,4640]
.L116:
	.loc 1 1888 0
	ldr	w1, [x19,4640]
	ldr	w0, [x20,2104]
	and	w1, w1, -3
	ubfiz	w0, w0, 1, 1
	orr	w0, w1, w0
	str	w0, [x19,4640]
	.loc 1 1889 0
	ldr	w1, [x19,4640]
	ldr	w0, [x20,2108]
	and	w1, w1, -2
	and	w0, w0, 1
	orr	w0, w1, w0
	str	w0, [x19,4640]
	.loc 1 1890 0
	ldr	w1, [x19,4644]
	ldr	w0, [x20,2112]
	and	w1, w1, -5
	ubfiz	w0, w0, 2, 1
	orr	w0, w1, w0
	str	w0, [x19,4644]
	.loc 1 1891 0
	ldr	w1, [x19,4644]
	ldr	w0, [x20,2116]
	and	w1, w1, -3
	ubfiz	w0, w0, 1, 1
	orr	w0, w1, w0
	str	w0, [x19,4644]
	.loc 1 1892 0
	ldr	w1, [x19,4644]
	ldr	w0, [x20,2120]
	and	w1, w1, -2
	and	w0, w0, 1
	orr	w0, w1, w0
	str	w0, [x19,4644]
	.loc 1 1893 0
	ldr	w0, [x19,4648]
	ldr	w1, [x20,2132]
	and	w0, w0, 2147483647
	orr	w0, w0, w1, lsl 31
	str	w0, [x19,4648]
	.loc 1 1894 0
	ldr	w1, [x19,4648]
	ldr	w0, [x20,2136]
	and	w1, w1, -1073741825
	ubfiz	w0, w0, 30, 1
	orr	w0, w1, w0
	str	w0, [x19,4648]
	.loc 1 1895 0
	ldr	w1, [x19,4648]
	ldr	w0, [x20,2140]
	and	w1, w1, -536870913
	ubfiz	w0, w0, 29, 1
	orr	w0, w1, w0
	str	w0, [x19,4648]
	.loc 1 1896 0
	ldr	w1, [x19,4648]
	ldr	w0, [x20,2144]
	and	w1, w1, -268435457
	ubfiz	w0, w0, 28, 1
	orr	w0, w1, w0
	str	w0, [x19,4648]
	.loc 1 1897 0
	ldr	w1, [x19,4648]
	ldr	w0, [x20,2148]
	and	w1, w1, -134217729
	ubfiz	w0, w0, 27, 1
	orr	w0, w1, w0
	str	w0, [x19,4648]
	.loc 1 1898 0
	ldr	w1, [x20,2152]
	ldr	w0, [x19,4648]
	ubfiz	w1, w1, 26, 1
	and	w0, w0, -67108865
	orr	w0, w0, w1
	str	w0, [x19,4648]
	.loc 1 1899 0
	ldr	w1, [x20,2156]
	ldr	w0, [x19,4648]
	ubfiz	w1, w1, 25, 1
	and	w0, w0, -33554433
	orr	w0, w0, w1
	str	w0, [x19,4648]
	.loc 1 1900 0
	ldr	w1, [x19,4648]
	ldr	w0, [x20,2160]
	and	w1, w1, -16777217
	ubfiz	w0, w0, 24, 1
	orr	w0, w1, w0
	str	w0, [x19,4648]
	.loc 1 1901 0
	ldr	w1, [x19,4648]
	ldr	w0, [x20,2164]
	and	w1, w1, -8388609
	ubfiz	w0, w0, 23, 1
	orr	w0, w1, w0
	str	w0, [x19,4648]
	.loc 1 1902 0
	ldr	w1, [x19,4648]
	ldr	w0, [x20,2168]
	and	w1, w1, -4194305
	ubfiz	w0, w0, 22, 1
	orr	w0, w1, w0
	str	w0, [x19,4648]
	.loc 1 1903 0
	ldr	w1, [x19,4648]
	ldr	w0, [x20,2172]
	and	w1, w1, -2097153
	ubfiz	w0, w0, 21, 1
	orr	w0, w1, w0
	str	w0, [x19,4648]
	.loc 1 1904 0
	ldr	w1, [x19,4648]
	ldr	w0, [x20,2176]
	and	w1, w1, -1048577
	ubfiz	w0, w0, 20, 1
	orr	w0, w1, w0
	str	w0, [x19,4648]
	.loc 1 1905 0
	ldr	w1, [x19,4648]
	ldr	w0, [x20,2180]
	and	w1, w1, -524289
	ubfiz	w0, w0, 19, 1
	orr	w0, w1, w0
	str	w0, [x19,4648]
	.loc 1 1906 0
	ldr	w1, [x19,4648]
	ldr	w0, [x20,2184]
	and	w1, w1, -262145
	ubfiz	w0, w0, 18, 1
	orr	w0, w1, w0
	str	w0, [x19,4648]
	.loc 1 1907 0
	ldr	w1, [x19,4648]
	ldr	w0, [x20,2188]
	and	w1, w1, -131073
	ubfiz	w0, w0, 17, 1
	orr	w0, w1, w0
	str	w0, [x19,4648]
	.loc 1 1908 0
	ldr	w1, [x19,4648]
	ldr	w0, [x20,2192]
	and	w1, w1, -65537
	ubfiz	w0, w0, 16, 1
	orr	w0, w1, w0
	str	w0, [x19,4648]
	.loc 1 1909 0
	ldr	w1, [x20,2196]
	ldr	w0, [x19,4648]
	ubfiz	w1, w1, 15, 1
	and	w0, w0, -32769
	orr	w0, w0, w1
	str	w0, [x19,4648]
	.loc 1 1910 0
	ldr	w1, [x20,2200]
	ldr	w0, [x19,4648]
	ubfiz	w1, w1, 14, 1
	and	w0, w0, -16385
	orr	w0, w0, w1
	str	w0, [x19,4648]
	.loc 1 1911 0
	ldr	w1, [x19,4648]
	ldr	w0, [x20,2204]
	and	w1, w1, -8193
	ubfiz	w0, w0, 13, 1
	orr	w0, w1, w0
	str	w0, [x19,4648]
	.loc 1 1912 0
	ldr	w1, [x19,4648]
	ldr	w0, [x20,2208]
	and	w1, w1, -4097
	ubfiz	w0, w0, 12, 1
	orr	w0, w1, w0
	str	w0, [x19,4648]
	.loc 1 1913 0
	ldr	w1, [x19,4648]
	ldr	w0, [x20,2212]
	and	w1, w1, -2049
	ubfiz	w0, w0, 11, 1
	orr	w0, w1, w0
	str	w0, [x19,4648]
	.loc 1 1914 0
	ldr	w1, [x19,4648]
	ldr	w0, [x20,2216]
	and	w1, w1, -1025
	ubfiz	w0, w0, 10, 1
	orr	w0, w1, w0
	str	w0, [x19,4648]
	.loc 1 1915 0
	ldr	w1, [x19,4648]
	ldr	w0, [x20,2220]
	and	w1, w1, -513
	ubfiz	w0, w0, 9, 1
	orr	w0, w1, w0
	str	w0, [x19,4648]
	.loc 1 1916 0
	ldr	w1, [x19,4648]
	ldr	w0, [x20,2224]
	and	w1, w1, -257
	ubfiz	w0, w0, 8, 1
	orr	w0, w1, w0
	str	w0, [x19,4648]
	.loc 1 1917 0
	ldr	w1, [x19,4648]
	ldr	w0, [x20,2228]
	and	w1, w1, -129
	ubfiz	w0, w0, 7, 1
	orr	w0, w1, w0
	str	w0, [x19,4648]
	.loc 1 1918 0
	ldr	w1, [x19,4648]
	ldr	w0, [x20,2232]
	and	w1, w1, -65
	ubfiz	w0, w0, 6, 1
	orr	w0, w1, w0
	str	w0, [x19,4648]
	.loc 1 1919 0
	ldr	w1, [x19,4648]
	ldr	w0, [x20,2236]
	and	w1, w1, -33
	ubfiz	w0, w0, 5, 1
	orr	w0, w1, w0
	str	w0, [x19,4648]
	.loc 1 1920 0
	ldr	w1, [x20,2240]
	ldr	w0, [x19,4648]
	ubfiz	w1, w1, 4, 1
	and	w0, w0, -17
	orr	w0, w0, w1
	str	w0, [x19,4648]
	.loc 1 1921 0
	ldr	w1, [x20,2244]
	ldr	w0, [x19,4648]
	ubfiz	w1, w1, 3, 1
	and	w0, w0, -9
	orr	w0, w0, w1
	str	w0, [x19,4648]
	.loc 1 1923 0
	ldr	w0, [x20,192]
	cbnz	w0, .L117
	.loc 1 1925 0
	ldr	w1, [x20,2248]
	ldr	w0, [x19,4648]
	ubfiz	w1, w1, 2, 1
	and	w0, w0, -5
	orr	w0, w0, w1
	str	w0, [x19,4648]
.L118:
	.loc 1 1934 0
	ldr	w1, [x19,4648]
	ldr	w0, [x20,2252]
	and	w1, w1, -3
	ubfiz	w0, w0, 1, 1
	orr	w0, w1, w0
	str	w0, [x19,4648]
	.loc 1 1935 0
	ldr	w1, [x19,4648]
	ldr	w0, [x20,2256]
	and	w1, w1, -2
	and	w0, w0, 1
	orr	w0, w1, w0
	str	w0, [x19,4648]
	.loc 1 1936 0
	ldr	w1, [x19,4652]
	ldr	w0, [x20,2260]
	and	w1, w1, -5
	ubfiz	w0, w0, 2, 1
	orr	w0, w1, w0
	str	w0, [x19,4652]
	.loc 1 1937 0
	ldr	w1, [x19,4652]
	ldr	w0, [x20,2264]
	and	w1, w1, -3
	ubfiz	w0, w0, 1, 1
	orr	w0, w1, w0
	str	w0, [x19,4652]
	.loc 1 1938 0
	ldr	w1, [x19,4652]
	ldr	w0, [x20,2268]
	and	w1, w1, -2
	and	w0, w0, 1
	orr	w0, w1, w0
	str	w0, [x19,4652]
	.loc 1 1939 0
	ldr	w0, [x19,4656]
	ldr	w1, [x20,2280]
	and	w0, w0, 2147483647
	orr	w0, w0, w1, lsl 31
	str	w0, [x19,4656]
	.loc 1 1940 0
	ldr	w1, [x19,4656]
	ldr	w0, [x20,2284]
	and	w1, w1, -1073741825
	ubfiz	w0, w0, 30, 1
	orr	w0, w1, w0
	str	w0, [x19,4656]
	.loc 1 1941 0
	ldr	w1, [x19,4656]
	ldr	w0, [x20,2288]
	and	w1, w1, -536870913
	ubfiz	w0, w0, 29, 1
	orr	w0, w1, w0
	str	w0, [x19,4656]
	.loc 1 1942 0
	ldr	w1, [x19,4656]
	ldr	w0, [x20,2292]
	and	w1, w1, -268435457
	ubfiz	w0, w0, 28, 1
	orr	w0, w1, w0
	str	w0, [x19,4656]
	.loc 1 1943 0
	ldr	w1, [x19,4656]
	ldr	w0, [x20,2296]
	and	w1, w1, -134217729
	ubfiz	w0, w0, 27, 1
	orr	w0, w1, w0
	str	w0, [x19,4656]
	.loc 1 1944 0
	ldr	w1, [x20,2300]
	ldr	w0, [x19,4656]
	ubfiz	w1, w1, 26, 1
	and	w0, w0, -67108865
	orr	w0, w0, w1
	str	w0, [x19,4656]
	.loc 1 1945 0
	ldr	w1, [x20,2304]
	ldr	w0, [x19,4656]
	ubfiz	w1, w1, 25, 1
	and	w0, w0, -33554433
	orr	w0, w0, w1
	str	w0, [x19,4656]
	.loc 1 1946 0
	ldr	w1, [x19,4656]
	ldr	w0, [x20,2308]
	and	w1, w1, -16777217
	ubfiz	w0, w0, 24, 1
	orr	w0, w1, w0
	str	w0, [x19,4656]
	.loc 1 1947 0
	ldr	w1, [x19,4656]
	ldr	w0, [x20,2312]
	and	w1, w1, -8388609
	ubfiz	w0, w0, 23, 1
	orr	w0, w1, w0
	str	w0, [x19,4656]
	.loc 1 1948 0
	ldr	w1, [x19,4656]
	ldr	w0, [x20,2316]
	and	w1, w1, -4194305
	ubfiz	w0, w0, 22, 1
	orr	w0, w1, w0
	str	w0, [x19,4656]
	.loc 1 1949 0
	ldr	w1, [x19,4656]
	ldr	w0, [x20,2320]
	and	w1, w1, -2097153
	ubfiz	w0, w0, 21, 1
	orr	w0, w1, w0
	str	w0, [x19,4656]
	.loc 1 1950 0
	ldr	w1, [x19,4656]
	ldr	w0, [x20,2324]
	and	w1, w1, -1048577
	ubfiz	w0, w0, 20, 1
	orr	w0, w1, w0
	str	w0, [x19,4656]
	.loc 1 1951 0
	ldr	w1, [x19,4656]
	ldr	w0, [x20,2328]
	and	w1, w1, -524289
	ubfiz	w0, w0, 19, 1
	orr	w0, w1, w0
	str	w0, [x19,4656]
	.loc 1 1952 0
	ldr	w1, [x19,4656]
	ldr	w0, [x20,2332]
	and	w1, w1, -262145
	ubfiz	w0, w0, 18, 1
	orr	w0, w1, w0
	str	w0, [x19,4656]
	.loc 1 1953 0
	ldr	w1, [x19,4656]
	ldr	w0, [x20,2336]
	and	w1, w1, -131073
	ubfiz	w0, w0, 17, 1
	orr	w0, w1, w0
	str	w0, [x19,4656]
	.loc 1 1954 0
	ldr	w1, [x19,4656]
	ldr	w0, [x20,2340]
	and	w1, w1, -65537
	ubfiz	w0, w0, 16, 1
	orr	w0, w1, w0
	str	w0, [x19,4656]
	.loc 1 1955 0
	ldr	w1, [x20,2344]
	ldr	w0, [x19,4656]
	ubfiz	w1, w1, 15, 1
	and	w0, w0, -32769
	orr	w0, w0, w1
	str	w0, [x19,4656]
	.loc 1 1956 0
	ldr	w1, [x20,2348]
	ldr	w0, [x19,4656]
	ubfiz	w1, w1, 14, 1
	and	w0, w0, -16385
	orr	w0, w0, w1
	str	w0, [x19,4656]
	.loc 1 1957 0
	ldr	w1, [x19,4656]
	ldr	w0, [x20,2352]
	and	w1, w1, -8193
	ubfiz	w0, w0, 13, 1
	orr	w0, w1, w0
	str	w0, [x19,4656]
	.loc 1 1958 0
	ldr	w1, [x19,4656]
	ldr	w0, [x20,2356]
	and	w1, w1, -4097
	ubfiz	w0, w0, 12, 1
	orr	w0, w1, w0
	str	w0, [x19,4656]
	.loc 1 1959 0
	ldr	w1, [x19,4656]
	ldr	w0, [x20,2360]
	and	w1, w1, -2049
	ubfiz	w0, w0, 11, 1
	orr	w0, w1, w0
	str	w0, [x19,4656]
	.loc 1 1960 0
	ldr	w1, [x19,4656]
	ldr	w0, [x20,2364]
	and	w1, w1, -1025
	ubfiz	w0, w0, 10, 1
	orr	w0, w1, w0
	str	w0, [x19,4656]
	.loc 1 1961 0
	ldr	w1, [x19,4656]
	ldr	w0, [x20,2368]
	and	w1, w1, -513
	ubfiz	w0, w0, 9, 1
	orr	w0, w1, w0
	str	w0, [x19,4656]
	.loc 1 1962 0
	ldr	w1, [x19,4656]
	ldr	w0, [x20,2372]
	and	w1, w1, -257
	ubfiz	w0, w0, 8, 1
	orr	w0, w1, w0
	str	w0, [x19,4656]
	.loc 1 1963 0
	ldr	w1, [x19,4656]
	ldr	w0, [x20,2376]
	and	w1, w1, -129
	ubfiz	w0, w0, 7, 1
	orr	w0, w1, w0
	str	w0, [x19,4656]
	.loc 1 1964 0
	ldr	w1, [x19,4656]
	ldr	w0, [x20,2380]
	and	w1, w1, -65
	ubfiz	w0, w0, 6, 1
	orr	w0, w1, w0
	str	w0, [x19,4656]
	.loc 1 1965 0
	ldr	w1, [x19,4656]
	ldr	w0, [x20,2384]
	and	w1, w1, -33
	ubfiz	w0, w0, 5, 1
	orr	w0, w1, w0
	str	w0, [x19,4656]
	.loc 1 1966 0
	ldr	w1, [x20,2388]
	ldr	w0, [x19,4656]
	ubfiz	w1, w1, 4, 1
	and	w0, w0, -17
	orr	w0, w0, w1
	str	w0, [x19,4656]
	.loc 1 1967 0
	ldr	w1, [x20,2392]
	ldr	w0, [x19,4656]
	ubfiz	w1, w1, 3, 1
	and	w0, w0, -9
	orr	w0, w0, w1
	str	w0, [x19,4656]
	.loc 1 1969 0
	ldr	w0, [x20,192]
	cbnz	w0, .L119
	.loc 1 1971 0
	ldr	w1, [x20,2396]
	ldr	w0, [x19,4656]
	ubfiz	w1, w1, 2, 1
	and	w0, w0, -5
	orr	w0, w0, w1
	str	w0, [x19,4656]
.L120:
	.loc 1 1981 0
	ldr	w4, [x19,4656]
	.loc 1 2049 0
	add	x3, x25, :lo12:.LANCHOR0
	.loc 1 1981 0
	ldr	w2, [x20,2400]
	.loc 1 2049 0
	mov	w0, 4
	.loc 1 1981 0
	and	w4, w4, -3
	.loc 1 2049 0
	add	x1, x26, :lo12:.LC0
	.loc 1 1981 0
	ubfiz	w2, w2, 1, 1
	.loc 1 2049 0
	add	x3, x3, 208
	.loc 1 1981 0
	orr	w2, w4, w2
	str	w2, [x19,4656]
	.loc 1 2049 0
	adrp	x4, .LC17
	mov	w2, 2049
	.loc 1 1982 0
	ldr	w6, [x19,4656]
	.loc 1 2049 0
	add	x4, x4, :lo12:.LC17
	.loc 1 1982 0
	ldr	w5, [x20,2404]
	and	w6, w6, -2
	and	w5, w5, 1
	orr	w5, w6, w5
	str	w5, [x19,4656]
	.loc 1 1983 0
	ldr	w6, [x19,4660]
	ldr	w5, [x20,2408]
	and	w6, w6, -5
	ubfiz	w5, w5, 2, 1
	orr	w5, w6, w5
	str	w5, [x19,4660]
	.loc 1 1984 0
	ldr	w6, [x19,4660]
	ldr	w5, [x20,2412]
	and	w6, w6, -3
	ubfiz	w5, w5, 1, 1
	orr	w5, w6, w5
	str	w5, [x19,4660]
	.loc 1 1985 0
	ldr	w6, [x19,4660]
	ldr	w5, [x20,2416]
	and	w6, w6, -2
	and	w5, w5, 1
	orr	w5, w6, w5
	str	w5, [x19,4660]
	.loc 1 1986 0
	ldr	w5, [x19,4664]
	ldr	w6, [x20,2428]
	and	w5, w5, 2147483647
	orr	w5, w5, w6, lsl 31
	str	w5, [x19,4664]
	.loc 1 1987 0
	ldr	w6, [x19,4664]
	ldr	w5, [x20,2432]
	and	w6, w6, -1073741825
	ubfiz	w5, w5, 30, 1
	orr	w5, w6, w5
	str	w5, [x19,4664]
	.loc 1 1988 0
	ldr	w6, [x19,4664]
	ldr	w5, [x20,2436]
	and	w6, w6, -536870913
	ubfiz	w5, w5, 29, 1
	orr	w5, w6, w5
	str	w5, [x19,4664]
	.loc 1 1989 0
	ldr	w6, [x19,4664]
	ldr	w5, [x20,2440]
	and	w6, w6, -268435457
	ubfiz	w5, w5, 28, 1
	orr	w5, w6, w5
	str	w5, [x19,4664]
	.loc 1 1990 0
	ldr	w6, [x19,4664]
	ldr	w5, [x20,2444]
	and	w6, w6, -134217729
	ubfiz	w5, w5, 27, 1
	orr	w5, w6, w5
	str	w5, [x19,4664]
	.loc 1 1991 0
	ldr	w6, [x20,2448]
	ldr	w5, [x19,4664]
	ubfiz	w6, w6, 26, 1
	and	w5, w5, -67108865
	orr	w5, w5, w6
	str	w5, [x19,4664]
	.loc 1 1992 0
	ldr	w6, [x20,2452]
	ldr	w5, [x19,4664]
	ubfiz	w6, w6, 25, 1
	and	w5, w5, -33554433
	orr	w5, w5, w6
	str	w5, [x19,4664]
	.loc 1 1993 0
	ldr	w6, [x19,4664]
	ldr	w5, [x20,2456]
	and	w6, w6, -16777217
	ubfiz	w5, w5, 24, 1
	orr	w5, w6, w5
	str	w5, [x19,4664]
	.loc 1 1994 0
	ldr	w6, [x19,4664]
	ldr	w5, [x20,2460]
	and	w6, w6, -8388609
	ubfiz	w5, w5, 23, 1
	orr	w5, w6, w5
	str	w5, [x19,4664]
	.loc 1 1995 0
	ldr	w6, [x19,4664]
	ldr	w5, [x20,2464]
	and	w6, w6, -4194305
	ubfiz	w5, w5, 22, 1
	orr	w5, w6, w5
	str	w5, [x19,4664]
	.loc 1 1996 0
	ldr	w6, [x19,4664]
	ldr	w5, [x20,2468]
	and	w6, w6, -2097153
	ubfiz	w5, w5, 21, 1
	orr	w5, w6, w5
	str	w5, [x19,4664]
	.loc 1 1997 0
	ldr	w6, [x19,4664]
	ldr	w5, [x20,2472]
	and	w6, w6, -1048577
	ubfiz	w5, w5, 20, 1
	orr	w5, w6, w5
	str	w5, [x19,4664]
	.loc 1 1998 0
	ldr	w6, [x19,4664]
	ldr	w5, [x20,2476]
	and	w6, w6, -524289
	ubfiz	w5, w5, 19, 1
	orr	w5, w6, w5
	str	w5, [x19,4664]
	.loc 1 1999 0
	ldr	w6, [x19,4664]
	ldr	w5, [x20,2480]
	and	w6, w6, -262145
	ubfiz	w5, w5, 18, 1
	orr	w5, w6, w5
	str	w5, [x19,4664]
	.loc 1 2000 0
	ldr	w6, [x19,4664]
	ldr	w5, [x20,2484]
	and	w6, w6, -131073
	ubfiz	w5, w5, 17, 1
	orr	w5, w6, w5
	str	w5, [x19,4664]
	.loc 1 2001 0
	ldr	w6, [x19,4664]
	ldr	w5, [x20,2488]
	and	w6, w6, -65537
	ubfiz	w5, w5, 16, 1
	orr	w5, w6, w5
	str	w5, [x19,4664]
	.loc 1 2002 0
	ldr	w6, [x20,2492]
	ldr	w5, [x19,4664]
	ubfiz	w6, w6, 15, 1
	and	w5, w5, -32769
	orr	w5, w5, w6
	str	w5, [x19,4664]
	.loc 1 2003 0
	ldr	w6, [x20,2496]
	ldr	w5, [x19,4664]
	ubfiz	w6, w6, 14, 1
	and	w5, w5, -16385
	orr	w5, w5, w6
	str	w5, [x19,4664]
	.loc 1 2004 0
	ldr	w6, [x19,4664]
	ldr	w5, [x20,2500]
	and	w6, w6, -8193
	ubfiz	w5, w5, 13, 1
	orr	w5, w6, w5
	str	w5, [x19,4664]
	.loc 1 2005 0
	ldr	w6, [x19,4664]
	ldr	w5, [x20,2504]
	and	w6, w6, -4097
	ubfiz	w5, w5, 12, 1
	orr	w5, w6, w5
	str	w5, [x19,4664]
	.loc 1 2006 0
	ldr	w6, [x19,4664]
	ldr	w5, [x20,2508]
	and	w6, w6, -2049
	ubfiz	w5, w5, 11, 1
	orr	w5, w6, w5
	str	w5, [x19,4664]
	.loc 1 2007 0
	ldr	w6, [x19,4664]
	ldr	w5, [x20,2512]
	and	w6, w6, -1025
	ubfiz	w5, w5, 10, 1
	orr	w5, w6, w5
	str	w5, [x19,4664]
	.loc 1 2008 0
	ldr	w6, [x19,4664]
	ldr	w5, [x20,2516]
	and	w6, w6, -513
	ubfiz	w5, w5, 9, 1
	orr	w5, w6, w5
	str	w5, [x19,4664]
	.loc 1 2009 0
	ldr	w6, [x19,4664]
	ldr	w5, [x20,2520]
	and	w6, w6, -257
	ubfiz	w5, w5, 8, 1
	orr	w5, w6, w5
	str	w5, [x19,4664]
	.loc 1 2010 0
	ldr	w6, [x19,4664]
	ldr	w5, [x20,2524]
	and	w6, w6, -129
	ubfiz	w5, w5, 7, 1
	orr	w5, w6, w5
	str	w5, [x19,4664]
	.loc 1 2011 0
	ldr	w6, [x19,4664]
	ldr	w5, [x20,2528]
	and	w6, w6, -65
	ubfiz	w5, w5, 6, 1
	orr	w5, w6, w5
	str	w5, [x19,4664]
	.loc 1 2012 0
	ldr	w6, [x19,4664]
	ldr	w5, [x20,2532]
	and	w6, w6, -33
	ubfiz	w5, w5, 5, 1
	orr	w5, w6, w5
	str	w5, [x19,4664]
	.loc 1 2013 0
	ldr	w6, [x20,2536]
	ldr	w5, [x19,4664]
	ubfiz	w6, w6, 4, 1
	and	w5, w5, -17
	orr	w5, w5, w6
	str	w5, [x19,4664]
	.loc 1 2014 0
	ldr	w6, [x20,2540]
	ldr	w5, [x19,4664]
	ubfiz	w6, w6, 3, 1
	and	w5, w5, -9
	orr	w5, w5, w6
	str	w5, [x19,4664]
	.loc 1 2015 0
	ldr	w6, [x19,4664]
	ldr	w5, [x20,2544]
	and	w6, w6, -5
	ubfiz	w5, w5, 2, 1
	orr	w5, w6, w5
	str	w5, [x19,4664]
	.loc 1 2016 0
	ldr	w6, [x19,4664]
	ldr	w5, [x20,2548]
	and	w6, w6, -3
	ubfiz	w5, w5, 1, 1
	orr	w5, w6, w5
	str	w5, [x19,4664]
	.loc 1 2017 0
	ldr	w6, [x19,4664]
	ldr	w5, [x20,2552]
	and	w6, w6, -2
	and	w5, w5, 1
	orr	w5, w6, w5
	str	w5, [x19,4664]
	.loc 1 2018 0
	ldr	w6, [x19,4668]
	ldr	w5, [x20,2556]
	and	w6, w6, -5
	ubfiz	w5, w5, 2, 1
	orr	w5, w6, w5
	str	w5, [x19,4668]
	.loc 1 2019 0
	ldr	w6, [x19,4668]
	ldr	w5, [x20,2560]
	and	w6, w6, -3
	ubfiz	w5, w5, 1, 1
	orr	w5, w6, w5
	str	w5, [x19,4668]
	.loc 1 2020 0
	ldr	w6, [x19,4668]
	ldr	w5, [x20,2564]
	and	w6, w6, -2
	and	w5, w5, 1
	orr	w5, w6, w5
	str	w5, [x19,4668]
	.loc 1 2022 0
	ldr	w6, [x19,5204]
	ldr	w5, [x20,2576]
	and	w6, w6, -2
	and	w5, w5, 1
	orr	w5, w6, w5
	str	w5, [x19,5204]
	.loc 1 2024 0
	ldr	w5, [x19,5632]
	ldrh	w6, [x20,2580]
	and	w5, w5, 65535
	orr	w5, w5, w6, lsl 16
	str	w5, [x19,5632]
	.loc 1 2025 0
	ldr	w5, [x19,5632]
	ldrh	w6, [x20,2584]
	and	w5, w5, -65536
	orr	w5, w5, w6
	str	w5, [x19,5632]
	.loc 1 2028 0
	ldr	w6, [x20,2592]
	ldr	w5, [x19,7684]
	ubfiz	w6, w6, 4, 3
	and	w5, w5, -113
	orr	w5, w5, w6
	str	w5, [x19,7684]
	.loc 1 2029 0
	ldr	w6, [x20,2596]
	ldr	w5, [x19,7684]
	and	w6, w6, 1
	and	w5, w5, -2
	orr	w5, w5, w6
	str	w5, [x19,7684]
	.loc 1 2030 0
	ldr	w6, [x19,7688]
	ldr	w5, [x20,2600]
	and	w6, w6, -113
	ubfiz	w5, w5, 4, 3
	orr	w5, w6, w5
	str	w5, [x19,7688]
	.loc 1 2031 0
	ldr	w6, [x19,7688]
	ldr	w5, [x20,2604]
	and	w6, w6, -8
	and	w5, w5, 7
	orr	w5, w6, w5
	str	w5, [x19,7688]
	.loc 1 2032 0
	ldr	w6, [x19,7692]
	ldr	w5, [x20,2608]
	and	w6, w6, -2
	and	w5, w5, 1
	orr	w5, w6, w5
	str	w5, [x19,7692]
	.loc 1 2034 0
	ldr	w5, [x19,8192]
	ldrh	w6, [x20,2612]
	and	w5, w5, 65535
	orr	w5, w5, w6, lsl 16
	str	w5, [x19,8192]
	.loc 1 2035 0
	ldr	w6, [x19,8192]
	ldr	w5, [x20,2616]
	and	w6, w6, -1793
	ubfiz	w5, w5, 8, 3
	orr	w5, w6, w5
	str	w5, [x19,8192]
	.loc 1 2036 0
	ldr	w5, [x19,8196]
	ldrh	w6, [x20,2620]
	and	w5, w5, 65535
	orr	w5, w5, w6, lsl 16
	str	w5, [x19,8196]
	.loc 1 2037 0
	ldr	w6, [x19,8196]
	ldr	w5, [x20,2624]
	and	w6, w6, -32
	and	w5, w5, 31
	orr	w5, w6, w5
	str	w5, [x19,8196]
	.loc 1 2038 0
	ldr	w5, [x19,8200]
	ldrh	w6, [x20,2628]
	and	w5, w5, -65536
	orr	w5, w5, w6
	str	w5, [x19,8200]
	.loc 1 2039 0
	ldr	w5, [x20,2632]
	str	w5, [x19,8204]
	.loc 1 2040 0
	ldr	w5, [x20,2636]
	str	w5, [x19,8208]
	.loc 1 2041 0
	ldr	w5, [x20,2640]
	str	w5, [x19,8212]
	.loc 1 2042 0
	ldr	w5, [x20,2644]
	str	w5, [x19,8216]
	.loc 1 2043 0
	ldr	w5, [x20,2648]
	str	w5, [x19,8220]
	.loc 1 2044 0
	ldr	w5, [x20,2652]
	str	w5, [x19,8224]
	.loc 1 2045 0
	ldr	w5, [x20,2656]
	str	w5, [x19,8228]
	.loc 1 2046 0
	ldr	w5, [x20,2660]
	str	w5, [x19,8232]
	.loc 1 2048 0
	ldr	w6, [x20,2664]
	ldr	w5, [x19,10752]
	and	w6, w6, 1023
	and	w5, w5, -1024
	orr	w5, w5, w6
	str	w5, [x19,10752]
	.loc 1 2049 0
	ldr	w5, [x20,2664]
	bl	HI_PRINT
.LVL114:
	.loc 1 2052 0
	ldr	w1, [x19,11280]
	ldr	w0, [x20,2672]
	and	w1, w1, -2
	and	w0, w0, 1
	orr	w0, w1, w0
	str	w0, [x19,11280]
	.loc 1 2053 0
	ldr	w0, [x20,2676]
	str	w0, [x19,11284]
	.loc 1 2056 0
	ldr	w0, [x20,2704]
	str	w0, [x19,11780]
	.loc 1 2057 0
	ldr	w0, [x20,2708]
	str	w0, [x19,11784]
	.loc 1 2058 0
	ldr	w0, [x20,2712]
	str	w0, [x19,11788]
	.loc 1 2059 0
	ldr	w0, [x20,2716]
	str	w0, [x19,11792]
	.loc 1 2060 0
	ldr	w0, [x20,2720]
	str	w0, [x19,11796]
	.loc 1 2061 0
	ldr	w0, [x20,2724]
	str	w0, [x19,11800]
	.loc 1 2062 0
	ldr	w0, [x20,2728]
	str	w0, [x19,11804]
	.loc 1 2063 0
	ldr	w0, [x20,2732]
	str	w0, [x19,11808]
	.loc 1 2064 0
	ldr	w1, [x19,11812]
	ldr	w0, [x20,2736]
	and	w1, w1, -8323073
	ubfiz	w0, w0, 16, 7
	orr	w0, w1, w0
	str	w0, [x19,11812]
	.loc 1 2065 0
	ldr	w1, [x19,11812]
	ldr	w0, [x20,2740]
	and	w1, w1, -16129
	ubfiz	w0, w0, 8, 6
	orr	w0, w1, w0
	str	w0, [x19,11812]
	.loc 1 2066 0
	ldr	w1, [x19,11812]
	ldr	w0, [x20,2744]
	and	w1, w1, -64
	and	w0, w0, 63
	orr	w0, w1, w0
	str	w0, [x19,11812]
	.loc 1 2067 0
	ldr	w1, [x20,2748]
	ldr	w0, [x19,11816]
	ubfiz	w1, w1, 1, 24
	and	w0, w0, -33554431
	orr	w0, w0, w1
	str	w0, [x19,11816]
	.loc 1 2068 0
	ldr	w1, [x20,2752]
	ldr	w0, [x19,11816]
	and	w1, w1, 1
	and	w0, w0, -2
	orr	w0, w0, w1
	str	w0, [x19,11816]
	.loc 1 2071 0
	ldr	w1, [x19,12288]
	ldr	w0, [x20,2756]
	and	w1, w1, -7340033
	ubfiz	w0, w0, 20, 3
	orr	w0, w1, w0
	str	w0, [x19,12288]
	.loc 1 2072 0
	ldr	w1, [x19,12288]
	ldr	w0, [x20,2760]
	and	w1, w1, -983041
	ubfiz	w0, w0, 16, 4
	orr	w0, w1, w0
	str	w0, [x19,12288]
	.loc 1 2073 0
	ldr	w1, [x19,12288]
	ldr	w0, [x20,2764]
	and	w1, w1, -61441
	ubfiz	w0, w0, 12, 4
	orr	w0, w1, w0
	str	w0, [x19,12288]
	.loc 1 2074 0
	ldr	w1, [x19,12288]
	ldr	w0, [x20,2768]
	and	w1, w1, -3841
	ubfiz	w0, w0, 8, 4
	orr	w0, w1, w0
	str	w0, [x19,12288]
	.loc 1 2075 0
	ldr	w1, [x19,12288]
	ldr	w0, [x20,2772]
	and	w1, w1, -241
	ubfiz	w0, w0, 4, 4
	orr	w0, w1, w0
	str	w0, [x19,12288]
	.loc 1 2076 0
	ldr	w1, [x19,12288]
	ldr	w0, [x20,2776]
	and	w1, w1, -16
	and	w0, w0, 15
	orr	w0, w1, w0
	str	w0, [x19,12288]
	.loc 1 2077 0
	ldr	w1, [x19,12292]
	ldr	w0, [x20,2780]
	and	w1, w1, -7340033
	ubfiz	w0, w0, 20, 3
	orr	w0, w1, w0
	str	w0, [x19,12292]
	.loc 1 2078 0
	ldr	w1, [x19,12292]
	ldr	w0, [x20,2784]
	and	w1, w1, -983041
	ubfiz	w0, w0, 16, 4
	orr	w0, w1, w0
	str	w0, [x19,12292]
	.loc 1 2079 0
	ldr	w1, [x19,12292]
	ldr	w0, [x20,2788]
	and	w1, w1, -61441
	ubfiz	w0, w0, 12, 4
	orr	w0, w1, w0
	str	w0, [x19,12292]
	.loc 1 2080 0
	ldr	w1, [x20,2792]
	ldr	w0, [x19,12292]
	ubfiz	w1, w1, 8, 4
	and	w0, w0, -3841
	orr	w0, w0, w1
	str	w0, [x19,12292]
	.loc 1 2081 0
	ldr	w1, [x20,2796]
	ldr	w0, [x19,12292]
	ubfiz	w1, w1, 4, 4
	and	w0, w0, -241
	orr	w0, w0, w1
	str	w0, [x19,12292]
	.loc 1 2082 0
	ldr	w1, [x19,12292]
	ldr	w0, [x20,2800]
	and	w1, w1, -16
	and	w0, w0, 15
	orr	w0, w1, w0
	str	w0, [x19,12292]
	.loc 1 2083 0
	ldr	w1, [x19,12296]
	ldr	w0, [x20,2804]
	and	w1, w1, -1073676289
	ubfiz	w0, w0, 16, 14
	orr	w0, w1, w0
	str	w0, [x19,12296]
	.loc 1 2084 0
	ldr	w1, [x19,12296]
	ldr	w0, [x20,2808]
	and	w1, w1, -16384
	and	w0, w0, 16383
	orr	w0, w1, w0
	str	w0, [x19,12296]
	.loc 1 2085 0
	ldr	w1, [x19,12300]
	ldr	w0, [x20,2812]
	and	w1, w1, -1073676289
	ubfiz	w0, w0, 16, 14
	orr	w0, w1, w0
	str	w0, [x19,12300]
	.loc 1 2086 0
	ldr	w1, [x19,12300]
	ldr	w0, [x20,2816]
	and	w1, w1, -16384
	and	w0, w0, 16383
	orr	w0, w1, w0
	str	w0, [x19,12300]
	.loc 1 2087 0
	ldr	w1, [x19,12304]
	ldr	w0, [x20,2820]
	and	w1, w1, -1073676289
	ubfiz	w0, w0, 16, 14
	orr	w0, w1, w0
	str	w0, [x19,12304]
	.loc 1 2088 0
	ldr	w1, [x19,12304]
	ldr	w0, [x20,2824]
	and	w1, w1, -16384
	and	w0, w0, 16383
	orr	w0, w1, w0
	str	w0, [x19,12304]
	.loc 1 2089 0
	ldr	w1, [x19,12308]
	ldr	w0, [x20,2828]
	and	w1, w1, -1073676289
	ubfiz	w0, w0, 16, 14
	orr	w0, w1, w0
	str	w0, [x19,12308]
	.loc 1 2090 0
	ldr	w1, [x19,12308]
	ldr	w0, [x20,2832]
	and	w1, w1, -16384
	and	w0, w0, 16383
	orr	w0, w1, w0
	str	w0, [x19,12308]
	.loc 1 2091 0
	ldr	w1, [x20,2836]
	ldr	w0, [x19,12312]
	ubfiz	w1, w1, 16, 14
	and	w0, w0, -1073676289
	orr	w0, w0, w1
	str	w0, [x19,12312]
	.loc 1 2092 0
	ldr	w1, [x20,2840]
	ldr	w0, [x19,12312]
	and	w1, w1, 16383
	and	w0, w0, -16384
	orr	w0, w0, w1
	str	w0, [x19,12312]
	.loc 1 2093 0
	ldr	w1, [x19,12316]
	ldr	w0, [x20,2844]
	and	w1, w1, -1073676289
	ubfiz	w0, w0, 16, 14
	orr	w0, w1, w0
	str	w0, [x19,12316]
	.loc 1 2094 0
	ldr	w1, [x19,12316]
	ldr	w0, [x20,2848]
	and	w1, w1, -16384
	and	w0, w0, 16383
	orr	w0, w1, w0
	str	w0, [x19,12316]
	.loc 1 2095 0
	ldr	w1, [x19,12320]
	ldr	w0, [x20,2852]
	and	w1, w1, -1073676289
	ubfiz	w0, w0, 16, 14
	orr	w0, w1, w0
	str	w0, [x19,12320]
	.loc 1 2096 0
	ldr	w1, [x19,12320]
	ldr	w0, [x20,2856]
	and	w1, w1, -16384
	and	w0, w0, 16383
	orr	w0, w1, w0
	str	w0, [x19,12320]
	.loc 1 2097 0
	ldr	w1, [x19,12324]
	ldr	w0, [x20,2860]
	and	w1, w1, -1073676289
	ubfiz	w0, w0, 16, 14
	orr	w0, w1, w0
	str	w0, [x19,12324]
	.loc 1 2098 0
	ldr	w1, [x19,12324]
	ldr	w0, [x20,2864]
	and	w1, w1, -16384
	and	w0, w0, 16383
	orr	w0, w1, w0
	str	w0, [x19,12324]
	.loc 1 2099 0
	ldr	w1, [x19,12328]
	ldr	w0, [x20,2868]
	and	w1, w1, -1073676289
	ubfiz	w0, w0, 16, 14
	orr	w0, w1, w0
	str	w0, [x19,12328]
	.loc 1 2100 0
	ldr	w1, [x19,12328]
	ldr	w0, [x20,2872]
	and	w1, w1, -16384
	and	w0, w0, 16383
	orr	w0, w1, w0
	str	w0, [x19,12328]
	.loc 1 2101 0
	ldr	w1, [x19,12332]
	ldr	w0, [x20,2876]
	and	w1, w1, -1073676289
	ubfiz	w0, w0, 16, 14
	orr	w0, w1, w0
	str	w0, [x19,12332]
	.loc 1 2102 0
	ldr	w1, [x20,2880]
	ldr	w0, [x19,12332]
	and	w1, w1, 16383
	and	w0, w0, -16384
	orr	w0, w0, w1
	str	w0, [x19,12332]
	.loc 1 2103 0
	ldr	w1, [x20,2884]
	ldr	w0, [x19,12336]
	ubfiz	w1, w1, 16, 14
	and	w0, w0, -1073676289
	orr	w0, w0, w1
	str	w0, [x19,12336]
	.loc 1 2104 0
	ldr	w1, [x19,12336]
	ldr	w0, [x20,2888]
	and	w1, w1, -16384
	and	w0, w0, 16383
	orr	w0, w1, w0
	str	w0, [x19,12336]
	.loc 1 2105 0
	ldr	w1, [x19,12340]
	ldr	w0, [x20,2892]
	and	w1, w1, -1073676289
	ubfiz	w0, w0, 16, 14
	orr	w0, w1, w0
	str	w0, [x19,12340]
	.loc 1 2106 0
	ldr	w1, [x19,12340]
	ldr	w0, [x20,2896]
	and	w1, w1, -16384
	and	w0, w0, 16383
	orr	w0, w1, w0
	str	w0, [x19,12340]
	.loc 1 2107 0
	ldr	w1, [x19,12344]
	ldr	w0, [x20,2900]
	and	w1, w1, -1073676289
	ubfiz	w0, w0, 16, 14
	orr	w0, w1, w0
	str	w0, [x19,12344]
	.loc 1 2108 0
	ldr	w1, [x19,12344]
	ldr	w0, [x20,2904]
	and	w1, w1, -16384
	and	w0, w0, 16383
	orr	w0, w1, w0
	str	w0, [x19,12344]
	.loc 1 2109 0
	ldr	w1, [x19,12348]
	ldr	w0, [x20,2908]
	and	w1, w1, -1073676289
	ubfiz	w0, w0, 16, 14
	orr	w0, w1, w0
	str	w0, [x19,12348]
	.loc 1 2110 0
	ldr	w1, [x19,12348]
	ldr	w0, [x20,2912]
	and	w1, w1, -16384
	and	w0, w0, 16383
	orr	w0, w1, w0
	str	w0, [x19,12348]
	.loc 1 2111 0
	ldr	w1, [x19,12352]
	ldr	w0, [x20,2916]
	and	w1, w1, -1073676289
	ubfiz	w0, w0, 16, 14
	orr	w0, w1, w0
	str	w0, [x19,12352]
	.loc 1 2112 0
	ldr	w1, [x19,12352]
	ldr	w0, [x20,2920]
	and	w1, w1, -16384
	and	w0, w0, 16383
	orr	w0, w1, w0
	str	w0, [x19,12352]
	.loc 1 2113 0
	ldr	w1, [x20,2924]
	ldr	w0, [x19,12356]
	ubfiz	w1, w1, 16, 14
	and	w0, w0, -1073676289
	orr	w0, w0, w1
	str	w0, [x19,12356]
	.loc 1 2114 0
	ldr	w1, [x20,2928]
	ldr	w0, [x19,12356]
	and	w1, w1, 16383
	and	w0, w0, -16384
	orr	w0, w0, w1
	str	w0, [x19,12356]
	.loc 1 2116 0
	ldr	w1, [x19,12544]
	ldr	w0, [x20,2932]
	and	w1, w1, -1073676289
	ubfiz	w0, w0, 16, 14
	orr	w0, w1, w0
	str	w0, [x19,12544]
	.loc 1 2117 0
	ldr	w1, [x19,12544]
	ldr	w0, [x20,2936]
	and	w1, w1, -16384
	and	w0, w0, 16383
	orr	w0, w1, w0
	str	w0, [x19,12544]
	.loc 1 2118 0
	ldr	w1, [x19,12548]
	ldr	w0, [x20,2940]
	and	w1, w1, -1073676289
	ubfiz	w0, w0, 16, 14
	orr	w0, w1, w0
	str	w0, [x19,12548]
	.loc 1 2119 0
	ldr	w1, [x19,12548]
	ldr	w0, [x20,2944]
	and	w1, w1, -16384
	and	w0, w0, 16383
	orr	w0, w1, w0
	str	w0, [x19,12548]
	.loc 1 2120 0
	ldr	w1, [x19,12552]
	ldr	w0, [x20,2948]
	and	w1, w1, -1073676289
	ubfiz	w0, w0, 16, 14
	orr	w0, w1, w0
	str	w0, [x19,12552]
	.loc 1 2121 0
	ldr	w1, [x19,12552]
	ldr	w0, [x20,2952]
	and	w1, w1, -16384
	and	w0, w0, 16383
	orr	w0, w1, w0
	str	w0, [x19,12552]
	.loc 1 2122 0
	ldr	w1, [x19,12556]
	ldr	w0, [x20,2956]
	and	w1, w1, -1073676289
	ubfiz	w0, w0, 16, 14
	orr	w0, w1, w0
	str	w0, [x19,12556]
	.loc 1 2123 0
	ldr	w1, [x19,12556]
	ldr	w0, [x20,2960]
	and	w1, w1, -16384
	and	w0, w0, 16383
	orr	w0, w1, w0
	str	w0, [x19,12556]
	.loc 1 2124 0
	ldr	w1, [x19,12560]
	ldr	w0, [x20,2964]
	and	w1, w1, -1073676289
	ubfiz	w0, w0, 16, 14
	orr	w0, w1, w0
	str	w0, [x19,12560]
	.loc 1 2125 0
	ldr	w1, [x20,2968]
	ldr	w0, [x19,12560]
	and	w1, w1, 16383
	and	w0, w0, -16384
	orr	w0, w0, w1
	str	w0, [x19,12560]
	.loc 1 2126 0
	ldr	w1, [x20,2972]
	ldr	w0, [x19,12564]
	ubfiz	w1, w1, 16, 14
	and	w0, w0, -1073676289
	orr	w0, w0, w1
	str	w0, [x19,12564]
	.loc 1 2127 0
	ldr	w1, [x19,12564]
	ldr	w0, [x20,2976]
	and	w1, w1, -16384
	and	w0, w0, 16383
	orr	w0, w1, w0
	str	w0, [x19,12564]
	.loc 1 2128 0
	ldr	w1, [x19,12568]
	ldr	w0, [x20,2980]
	and	w1, w1, -1073676289
	ubfiz	w0, w0, 16, 14
	orr	w0, w1, w0
	str	w0, [x19,12568]
	.loc 1 2129 0
	ldr	w1, [x19,12568]
	ldr	w0, [x20,2984]
	and	w1, w1, -16384
	and	w0, w0, 16383
	orr	w0, w1, w0
	str	w0, [x19,12568]
	.loc 1 2130 0
	ldr	w1, [x19,12572]
	ldr	w0, [x20,2988]
	and	w1, w1, -1073676289
	ubfiz	w0, w0, 16, 14
	orr	w0, w1, w0
	str	w0, [x19,12572]
	.loc 1 2131 0
	ldr	w1, [x19,12572]
	ldr	w0, [x20,2992]
	and	w1, w1, -16384
	and	w0, w0, 16383
	orr	w0, w1, w0
	str	w0, [x19,12572]
	.loc 1 2132 0
	ldr	w1, [x19,12576]
	ldr	w0, [x20,2996]
	and	w1, w1, -1073676289
	ubfiz	w0, w0, 16, 14
	orr	w0, w1, w0
	str	w0, [x19,12576]
	.loc 1 2133 0
	ldr	w1, [x19,12576]
	ldr	w0, [x20,3000]
	and	w1, w1, -16384
	and	w0, w0, 16383
	orr	w0, w1, w0
	str	w0, [x19,12576]
	.loc 1 2134 0
	ldr	w1, [x19,12580]
	ldr	w0, [x20,3004]
	and	w1, w1, -1073676289
	ubfiz	w0, w0, 16, 14
	orr	w0, w1, w0
	str	w0, [x19,12580]
	.loc 1 2135 0
	ldr	w1, [x19,12580]
	ldr	w0, [x20,3008]
	and	w1, w1, -16384
	and	w0, w0, 16383
	orr	w0, w1, w0
	str	w0, [x19,12580]
	.loc 1 2136 0
	ldr	w1, [x20,3012]
	ldr	w0, [x19,12584]
	ubfiz	w1, w1, 16, 14
	and	w0, w0, -1073676289
	orr	w0, w0, w1
	str	w0, [x19,12584]
	.loc 1 2137 0
	ldr	w1, [x20,3016]
	ldr	w0, [x19,12584]
	and	w1, w1, 16383
	and	w0, w0, -16384
	orr	w0, w0, w1
	str	w0, [x19,12584]
	.loc 1 2138 0
	ldr	w1, [x19,12588]
	ldr	w0, [x20,3020]
	and	w1, w1, -1073676289
	ubfiz	w0, w0, 16, 14
	orr	w0, w1, w0
	str	w0, [x19,12588]
	.loc 1 2139 0
	ldr	w1, [x19,12588]
	ldr	w0, [x20,3024]
	and	w1, w1, -16384
	and	w0, w0, 16383
	orr	w0, w1, w0
	str	w0, [x19,12588]
	.loc 1 2140 0
	ldr	w1, [x19,12592]
	ldr	w0, [x20,3028]
	and	w1, w1, -1073676289
	ubfiz	w0, w0, 16, 14
	orr	w0, w1, w0
	str	w0, [x19,12592]
	.loc 1 2141 0
	ldr	w1, [x19,12592]
	ldr	w0, [x20,3032]
	and	w1, w1, -16384
	and	w0, w0, 16383
	orr	w0, w1, w0
	str	w0, [x19,12592]
	.loc 1 2142 0
	ldr	w1, [x19,12596]
	ldr	w0, [x20,3036]
	and	w1, w1, -1073676289
	ubfiz	w0, w0, 16, 14
	orr	w0, w1, w0
	str	w0, [x19,12596]
	.loc 1 2143 0
	ldr	w1, [x19,12596]
	ldr	w0, [x20,3040]
	and	w1, w1, -16384
	and	w0, w0, 16383
	orr	w0, w1, w0
	str	w0, [x19,12596]
	.loc 1 2144 0
	ldr	w1, [x19,12600]
	ldr	w0, [x20,3044]
	and	w1, w1, -1073676289
	ubfiz	w0, w0, 16, 14
	orr	w0, w1, w0
	str	w0, [x19,12600]
	.loc 1 2145 0
	ldr	w1, [x19,12600]
	ldr	w0, [x20,3048]
	and	w1, w1, -16384
	and	w0, w0, 16383
	orr	w0, w1, w0
	str	w0, [x19,12600]
	.loc 1 2146 0
	ldr	w1, [x19,12604]
	ldr	w0, [x20,3052]
	and	w1, w1, -1073676289
	ubfiz	w0, w0, 16, 14
	orr	w0, w1, w0
	str	w0, [x19,12604]
	.loc 1 2147 0
	ldr	w1, [x20,3056]
	ldr	w0, [x19,12604]
	and	w1, w1, 16383
	and	w0, w0, -16384
	orr	w0, w0, w1
	str	w0, [x19,12604]
	.loc 1 2149 0
	ldr	w1, [x20,3060]
	ldr	w0, [x19,12360]
	and	w1, w1, 1
	and	w0, w0, -2
	orr	w0, w0, w1
	str	w0, [x19,12360]
	.loc 1 2150 0
	ldr	w0, [x19,12364]
	ldrb	w1, [x20,3064]
	and	w0, w0, 16777215
	orr	w0, w0, w1, lsl 24
	str	w0, [x19,12364]
	.loc 1 2151 0
	ldr	w0, [x19,12364]
	ldrb	w1, [x20,3068]
	and	w0, w0, -16711681
	orr	w0, w0, w1, lsl 16
	str	w0, [x19,12364]
	.loc 1 2152 0
	ldr	w0, [x19,12364]
	ldrb	w1, [x20,3072]
	and	w0, w0, -65281
	orr	w0, w0, w1, lsl 8
	str	w0, [x19,12364]
	.loc 1 2153 0
	ldr	w0, [x19,12364]
	ldrb	w1, [x20,3076]
	and	w0, w0, -256
	orr	w0, w0, w1
	str	w0, [x19,12364]
	.loc 1 2155 0
	ldr	w0, [x21,1864]
	.loc 1 2180 0
	ldr	w1, [x19,12368]
	.loc 1 2155 0
	cmp	w0, 5
	beq	.L157
	cmp	w0, 8
	beq	.L157
	.loc 1 2180 0
	ldr	w0, [x20,3080]
	and	w1, w1, -2147418113
	ubfiz	w0, w0, 16, 15
	orr	w0, w1, w0
	str	w0, [x19,12368]
	.loc 1 2181 0
	ldr	w1, [x19,12368]
	ldr	w0, [x20,3084]
	and	w1, w1, -32768
	and	w0, w0, 32767
	orr	w0, w1, w0
	str	w0, [x19,12368]
	.loc 1 2182 0
	ldr	w1, [x19,12372]
	ldr	w0, [x20,3088]
	and	w1, w1, -2147418113
	ubfiz	w0, w0, 16, 15
	orr	w0, w1, w0
	str	w0, [x19,12372]
	.loc 1 2183 0
	ldr	w1, [x19,12372]
	ldr	w0, [x20,3092]
	and	w1, w1, -32768
	and	w0, w0, 32767
	orr	w0, w1, w0
	str	w0, [x19,12372]
	.loc 1 2184 0
	ldr	w1, [x19,12376]
	ldr	w0, [x20,3096]
	and	w1, w1, -2147418113
	ubfiz	w0, w0, 16, 15
	orr	w0, w1, w0
	str	w0, [x19,12376]
	.loc 1 2185 0
	ldr	w1, [x19,12376]
	ldr	w0, [x20,3100]
	and	w1, w1, -32768
	and	w0, w0, 32767
	orr	w0, w1, w0
	str	w0, [x19,12376]
	.loc 1 2186 0
	ldr	w1, [x19,12380]
	ldr	w0, [x20,3104]
	and	w1, w1, -2147418113
	ubfiz	w0, w0, 16, 15
	orr	w0, w1, w0
	str	w0, [x19,12380]
	.loc 1 2187 0
	ldr	w1, [x19,12380]
	ldr	w0, [x20,3108]
	and	w1, w1, -32768
	and	w0, w0, 32767
	orr	w0, w1, w0
	str	w0, [x19,12380]
	.loc 1 2188 0
	ldr	w1, [x20,3112]
	ldr	w0, [x19,12384]
	and	w1, w1, 32767
	and	w0, w0, -32768
	orr	w0, w0, w1
	str	w0, [x19,12384]
.L123:
	.loc 1 2191 0
	ldr	w2, [x19,12388]
	.loc 1 2249 0
	add	x3, x25, :lo12:.LANCHOR0
	.loc 1 2191 0
	ldr	w1, [x20,3116]
	.loc 1 2249 0
	adrp	x4, .LC18
	.loc 1 2191 0
	and	w2, w2, -983041
	.loc 1 2249 0
	mov	w0, 4
	.loc 1 2191 0
	ubfiz	w1, w1, 16, 4
	.loc 1 2249 0
	add	x3, x3, 208
	.loc 1 2191 0
	orr	w1, w2, w1
	str	w1, [x19,12388]
	.loc 1 2249 0
	mov	w2, 2249
	add	x1, x26, :lo12:.LC0
	.loc 1 2192 0
	ldr	w5, [x19,12388]
	.loc 1 2249 0
	add	x4, x4, :lo12:.LC18
	.loc 1 2192 0
	ldrh	w6, [x20,3120]
	and	w5, w5, -65536
	orr	w5, w5, w6
	str	w5, [x19,12388]
	.loc 1 2193 0
	ldr	w5, [x19,12392]
	ldrh	w6, [x20,3124]
	and	w5, w5, 65535
	orr	w5, w5, w6, lsl 16
	str	w5, [x19,12392]
	.loc 1 2194 0
	ldr	w5, [x19,12392]
	ldrh	w6, [x20,3128]
	and	w5, w5, -65536
	orr	w5, w5, w6
	str	w5, [x19,12392]
	.loc 1 2195 0
	ldr	w6, [x19,12396]
	ldr	w5, [x20,3132]
	and	w6, w6, -65537
	ubfiz	w5, w5, 16, 1
	orr	w5, w6, w5
	str	w5, [x19,12396]
	.loc 1 2196 0
	ldr	w5, [x19,12396]
	ldrb	w6, [x20,3136]
	and	w5, w5, -65281
	orr	w5, w5, w6, lsl 8
	str	w5, [x19,12396]
	.loc 1 2197 0
	ldr	w5, [x19,12396]
	ldrb	w6, [x20,3140]
	and	w5, w5, -256
	orr	w5, w5, w6
	str	w5, [x19,12396]
	.loc 1 2198 0
	ldr	w6, [x19,12400]
	ldr	w5, [x20,3144]
	and	w6, w6, -2
	and	w5, w5, 1
	orr	w5, w6, w5
	str	w5, [x19,12400]
	.loc 1 2201 0
	ldr	w6, [x19,13312]
	ldr	w5, [x20,3148]
	and	w6, w6, -1024
	and	w5, w5, 1023
	orr	w5, w6, w5
	str	w5, [x19,13312]
	.loc 1 2202 0
	ldr	w6, [x19,13312]
	ldr	w5, [x20,3152]
	and	w6, w6, -1047553
	ubfiz	w5, w5, 10, 10
	orr	w5, w6, w5
	str	w5, [x19,13312]
	.loc 1 2203 0
	ldr	w6, [x20,3156]
	ldr	w5, [x19,13316]
	and	w6, w6, 31
	and	w5, w5, -32
	orr	w5, w5, w6
	str	w5, [x19,13316]
	.loc 1 2204 0
	ldr	w6, [x20,3160]
	ldr	w5, [x19,13316]
	ubfiz	w6, w6, 5, 5
	and	w5, w5, -993
	orr	w5, w5, w6
	str	w5, [x19,13316]
	.loc 1 2205 0
	ldr	w6, [x19,13316]
	ldr	w5, [x20,3164]
	and	w6, w6, -31745
	ubfiz	w5, w5, 10, 5
	orr	w5, w6, w5
	str	w5, [x19,13316]
	.loc 1 2206 0
	ldr	w6, [x19,13316]
	ldr	w5, [x20,3168]
	and	w6, w6, -1015809
	ubfiz	w5, w5, 15, 5
	orr	w5, w6, w5
	str	w5, [x19,13316]
	.loc 1 2207 0
	ldr	w6, [x19,13316]
	ldr	w5, [x20,3172]
	and	w6, w6, -32505857
	ubfiz	w5, w5, 20, 5
	orr	w5, w6, w5
	str	w5, [x19,13316]
	.loc 1 2208 0
	ldr	w6, [x19,13316]
	ldr	w5, [x20,3176]
	and	w6, w6, -1040187393
	ubfiz	w5, w5, 25, 5
	orr	w5, w6, w5
	str	w5, [x19,13316]
	.loc 1 2209 0
	ldr	w6, [x19,13320]
	ldr	w5, [x20,3180]
	and	w6, w6, -32
	and	w5, w5, 31
	orr	w5, w6, w5
	str	w5, [x19,13320]
	.loc 1 2210 0
	ldr	w6, [x19,13320]
	ldr	w5, [x20,3184]
	and	w6, w6, -993
	ubfiz	w5, w5, 5, 5
	orr	w5, w6, w5
	str	w5, [x19,13320]
	.loc 1 2211 0
	ldr	w6, [x19,13320]
	ldr	w5, [x20,3188]
	and	w6, w6, -31745
	ubfiz	w5, w5, 10, 5
	orr	w5, w6, w5
	str	w5, [x19,13320]
	.loc 1 2212 0
	ldr	w6, [x19,13320]
	ldr	w5, [x20,3192]
	and	w6, w6, -1015809
	ubfiz	w5, w5, 15, 5
	orr	w5, w6, w5
	str	w5, [x19,13320]
	.loc 1 2213 0
	ldr	w6, [x19,13320]
	ldr	w5, [x20,3196]
	and	w6, w6, -32505857
	ubfiz	w5, w5, 20, 5
	orr	w5, w6, w5
	str	w5, [x19,13320]
	.loc 1 2214 0
	ldr	w6, [x20,3200]
	ldr	w5, [x19,13320]
	ubfiz	w6, w6, 25, 5
	and	w5, w5, -1040187393
	orr	w5, w5, w6
	str	w5, [x19,13320]
	.loc 1 2215 0
	ldr	w6, [x20,3204]
	ldr	w5, [x19,13324]
	and	w6, w6, 31
	and	w5, w5, -32
	orr	w5, w5, w6
	str	w5, [x19,13324]
	.loc 1 2216 0
	ldr	w6, [x19,13328]
	ldr	w5, [x20,3208]
	and	w6, w6, -32
	and	w5, w5, 31
	orr	w5, w6, w5
	str	w5, [x19,13328]
	.loc 1 2217 0
	ldr	w6, [x19,13328]
	ldr	w5, [x20,3212]
	and	w6, w6, -993
	ubfiz	w5, w5, 5, 5
	orr	w5, w6, w5
	str	w5, [x19,13328]
	.loc 1 2218 0
	ldr	w6, [x19,13328]
	ldr	w5, [x20,3216]
	and	w6, w6, -31745
	ubfiz	w5, w5, 10, 5
	orr	w5, w6, w5
	str	w5, [x19,13328]
	.loc 1 2219 0
	ldr	w6, [x19,13328]
	ldr	w5, [x20,3220]
	and	w6, w6, -1015809
	ubfiz	w5, w5, 15, 5
	orr	w5, w6, w5
	str	w5, [x19,13328]
	.loc 1 2220 0
	ldr	w6, [x19,13328]
	ldr	w5, [x20,3224]
	and	w6, w6, -32505857
	ubfiz	w5, w5, 20, 5
	orr	w5, w6, w5
	str	w5, [x19,13328]
	.loc 1 2221 0
	ldr	w6, [x19,13328]
	ldr	w5, [x20,3228]
	and	w6, w6, -1040187393
	ubfiz	w5, w5, 25, 5
	orr	w5, w6, w5
	str	w5, [x19,13328]
	.loc 1 2222 0
	ldr	w6, [x19,13332]
	ldr	w5, [x20,3232]
	and	w6, w6, -32
	and	w5, w5, 31
	orr	w5, w6, w5
	str	w5, [x19,13332]
	.loc 1 2223 0
	ldr	w6, [x19,13332]
	ldr	w5, [x20,3236]
	and	w6, w6, -993
	ubfiz	w5, w5, 5, 5
	orr	w5, w6, w5
	str	w5, [x19,13332]
	.loc 1 2224 0
	ldr	w6, [x19,13332]
	ldr	w5, [x20,3240]
	and	w6, w6, -31745
	ubfiz	w5, w5, 10, 5
	orr	w5, w6, w5
	str	w5, [x19,13332]
	.loc 1 2225 0
	ldr	w6, [x20,3244]
	ldr	w5, [x19,13332]
	ubfiz	w6, w6, 15, 5
	and	w5, w5, -1015809
	orr	w5, w5, w6
	str	w5, [x19,13332]
	.loc 1 2226 0
	ldr	w6, [x20,3248]
	ldr	w5, [x19,13332]
	ubfiz	w6, w6, 20, 5
	and	w5, w5, -32505857
	orr	w5, w5, w6
	str	w5, [x19,13332]
	.loc 1 2227 0
	ldr	w6, [x19,13332]
	ldr	w5, [x20,3252]
	and	w6, w6, -1040187393
	ubfiz	w5, w5, 25, 5
	orr	w5, w6, w5
	str	w5, [x19,13332]
	.loc 1 2228 0
	ldr	w6, [x19,13336]
	ldr	w5, [x20,3256]
	and	w6, w6, -32
	and	w5, w5, 31
	orr	w5, w6, w5
	str	w5, [x19,13336]
	.loc 1 2229 0
	ldr	w6, [x19,13336]
	ldr	w5, [x20,3260]
	and	w6, w6, -993
	ubfiz	w5, w5, 5, 5
	orr	w5, w6, w5
	str	w5, [x19,13336]
	.loc 1 2230 0
	ldr	w6, [x19,13336]
	ldr	w5, [x20,3264]
	and	w6, w6, -31745
	ubfiz	w5, w5, 10, 5
	orr	w5, w6, w5
	str	w5, [x19,13336]
	.loc 1 2233 0
	ldr	w5, [x19,13824]
	ldrb	w6, [x20,3268]
	and	w5, w5, -267386881
	orr	w5, w5, w6, lsl 20
	str	w5, [x19,13824]
	.loc 1 2234 0
	ldr	w6, [x19,13824]
	ldr	w5, [x20,3272]
	and	w6, w6, -983041
	ubfiz	w5, w5, 16, 4
	orr	w5, w6, w5
	str	w5, [x19,13824]
	.loc 1 2235 0
	ldr	w6, [x19,13824]
	ldr	w5, [x20,3276]
	and	w6, w6, -32769
	ubfiz	w5, w5, 15, 1
	orr	w5, w6, w5
	str	w5, [x19,13824]
	.loc 1 2236 0
	ldr	w6, [x19,13824]
	ldr	w5, [x20,3280]
	and	w6, w6, -15361
	ubfiz	w5, w5, 10, 4
	orr	w5, w6, w5
	str	w5, [x19,13824]
	.loc 1 2237 0
	ldr	w6, [x19,13824]
	ldr	w5, [x20,3284]
	and	w6, w6, -961
	ubfiz	w5, w5, 6, 4
	orr	w5, w6, w5
	str	w5, [x19,13824]
	.loc 1 2238 0
	ldr	w6, [x20,3288]
	ldr	w5, [x19,13824]
	ubfiz	w6, w6, 5, 1
	and	w5, w5, -33
	orr	w5, w5, w6
	str	w5, [x19,13824]
	.loc 1 2239 0
	ldr	w6, [x20,3292]
	ldr	w5, [x19,13824]
	ubfiz	w6, w6, 4, 1
	and	w5, w5, -17
	orr	w5, w5, w6
	str	w5, [x19,13824]
	.loc 1 2240 0
	ldr	w6, [x19,13824]
	ldr	w5, [x20,3296]
	and	w6, w6, -9
	ubfiz	w5, w5, 3, 1
	orr	w5, w6, w5
	str	w5, [x19,13824]
	.loc 1 2241 0
	ldr	w6, [x19,13824]
	ldr	w5, [x20,3300]
	and	w6, w6, -5
	ubfiz	w5, w5, 2, 1
	orr	w5, w6, w5
	str	w5, [x19,13824]
	.loc 1 2242 0
	ldr	w6, [x19,13824]
	ldr	w5, [x20,3304]
	and	w6, w6, -3
	ubfiz	w5, w5, 1, 1
	orr	w5, w6, w5
	str	w5, [x19,13824]
	.loc 1 2243 0
	ldr	w6, [x20,3308]
	ldr	w5, [x19,13824]
	and	w6, w6, 1
	and	w5, w5, -2
	orr	w5, w5, w6
	str	w5, [x19,13824]
	.loc 1 2247 0
	adrp	x5, g_hisi_mmu_domain
	ldr	x5, [x5,#:lo12:g_hisi_mmu_domain]
	.loc 1 2248 0
	ldr	x5, [x5,72]
	ldr	x22, [x5,16]
	.loc 1 2249 0
	mov	w5, w22
	bl	HI_PRINT
.LVL115:
	.loc 1 2251 0
	str	w22, [x19,14340]
	.loc 1 2252 0
	str	w22, [x19,14344]
	.loc 1 2253 0
	ldr	w0, [x21,1420]
	str	w0, [x19,14596]
	.loc 1 2254 0
	ldr	w0, [x21,1424]
	str	w0, [x19,14600]
	.loc 1 2258 0
	ldr	w1, [x19,15872]
	ldr	w0, [x20,5968]
	and	w1, w1, -2
	and	w0, w0, 1
	orr	w0, w1, w0
	str	w0, [x19,15872]
	.loc 1 2259 0
	ldr	w1, [x19,15888]
	ldr	w0, [x20,5972]
	and	w1, w1, -2
	and	w0, w0, 1
	orr	w0, w1, w0
	str	w0, [x19,15888]
	.loc 1 2260 0
	ldr	w1, [x19,15892]
	ldr	w0, [x20,6100]
	and	w1, w1, -2
	and	w0, w0, 1
	orr	w0, w1, w0
	str	w0, [x19,15892]
	.loc 1 2261 0
	ldr	w1, [x19,15892]
	ldr	w0, [x20,6096]
	and	w1, w1, -3
	ubfiz	w0, w0, 1, 1
	orr	w0, w1, w0
	str	w0, [x19,15892]
	.loc 1 2262 0
	ldr	w1, [x19,15892]
	ldr	w0, [x20,6092]
	and	w1, w1, -5
	ubfiz	w0, w0, 2, 1
	orr	w0, w1, w0
	str	w0, [x19,15892]
	.loc 1 2263 0
	ldr	w1, [x19,15892]
	ldr	w0, [x20,6088]
	and	w1, w1, -9
	ubfiz	w0, w0, 3, 1
	orr	w0, w1, w0
	str	w0, [x19,15892]
	.loc 1 2264 0
	ldr	w1, [x19,15892]
	ldr	w0, [x20,6084]
	and	w1, w1, -17
	ubfiz	w0, w0, 4, 1
	orr	w0, w1, w0
	str	w0, [x19,15892]
	.loc 1 2265 0
	ldr	w1, [x19,15892]
	ldr	w0, [x20,6080]
	and	w1, w1, -33
	ubfiz	w0, w0, 5, 1
	orr	w0, w1, w0
	str	w0, [x19,15892]
	.loc 1 2266 0
	ldr	w1, [x20,6076]
	ldr	w0, [x19,15892]
	ubfiz	w1, w1, 6, 1
	and	w0, w0, -65
	orr	w0, w0, w1
	str	w0, [x19,15892]
	.loc 1 2267 0
	ldr	w1, [x20,6072]
	ldr	w0, [x19,15892]
	ubfiz	w1, w1, 7, 1
	and	w0, w0, -129
	orr	w0, w0, w1
	str	w0, [x19,15892]
	.loc 1 2268 0
	ldr	w1, [x19,15892]
	ldr	w0, [x20,6068]
	and	w1, w1, -257
	ubfiz	w0, w0, 8, 1
	orr	w0, w1, w0
	str	w0, [x19,15892]
	.loc 1 2269 0
	ldr	w1, [x19,15892]
	ldr	w0, [x20,6064]
	and	w1, w1, -513
	ubfiz	w0, w0, 9, 1
	orr	w0, w1, w0
	str	w0, [x19,15892]
	.loc 1 2270 0
	ldr	w1, [x19,15892]
	ldr	w0, [x20,6060]
	and	w1, w1, -1025
	ubfiz	w0, w0, 10, 1
	orr	w0, w1, w0
	str	w0, [x19,15892]
	.loc 1 2271 0
	ldr	w1, [x19,15892]
	ldr	w0, [x20,6056]
	and	w1, w1, -2049
	ubfiz	w0, w0, 11, 1
	orr	w0, w1, w0
	str	w0, [x19,15892]
	.loc 1 2272 0
	ldr	w1, [x19,15892]
	ldr	w0, [x20,6052]
	and	w1, w1, -4097
	ubfiz	w0, w0, 12, 1
	orr	w0, w1, w0
	str	w0, [x19,15892]
	.loc 1 2273 0
	ldr	w1, [x19,15892]
	ldr	w0, [x20,6048]
	and	w1, w1, -8193
	ubfiz	w0, w0, 13, 1
	orr	w0, w1, w0
	str	w0, [x19,15892]
	.loc 1 2274 0
	ldr	w1, [x19,15892]
	ldr	w0, [x20,6044]
	and	w1, w1, -16385
	ubfiz	w0, w0, 14, 1
	orr	w0, w1, w0
	str	w0, [x19,15892]
	.loc 1 2275 0
	ldr	w1, [x19,15892]
	ldr	w0, [x20,6040]
	and	w1, w1, -32769
	ubfiz	w0, w0, 15, 1
	orr	w0, w1, w0
	str	w0, [x19,15892]
	.loc 1 2276 0
	ldr	w1, [x19,15892]
	ldr	w0, [x20,6036]
	and	w1, w1, -65537
	ubfiz	w0, w0, 16, 1
	orr	w0, w1, w0
	str	w0, [x19,15892]
	.loc 1 2277 0
	ldr	w1, [x20,6032]
	ldr	w0, [x19,15892]
	ubfiz	w1, w1, 17, 1
	and	w0, w0, -131073
	orr	w0, w0, w1
	str	w0, [x19,15892]
	.loc 1 2278 0
	ldr	w1, [x20,6028]
	ldr	w0, [x19,15892]
	ubfiz	w1, w1, 18, 1
	and	w0, w0, -262145
	orr	w0, w0, w1
	str	w0, [x19,15892]
	.loc 1 2279 0
	ldr	w1, [x19,15892]
	ldr	w0, [x20,6024]
	and	w1, w1, -524289
	ubfiz	w0, w0, 19, 1
	orr	w0, w1, w0
	str	w0, [x19,15892]
	.loc 1 2280 0
	ldr	w1, [x19,15892]
	ldr	w0, [x20,6020]
	and	w1, w1, -1048577
	ubfiz	w0, w0, 20, 1
	orr	w0, w1, w0
	str	w0, [x19,15892]
	.loc 1 2281 0
	ldr	w1, [x19,15892]
	ldr	w0, [x20,6016]
	and	w1, w1, -2097153
	ubfiz	w0, w0, 21, 1
	orr	w0, w1, w0
	str	w0, [x19,15892]
	.loc 1 2282 0
	ldr	w1, [x19,15892]
	ldr	w0, [x20,6012]
	and	w1, w1, -4194305
	ubfiz	w0, w0, 22, 1
	orr	w0, w1, w0
	str	w0, [x19,15892]
	.loc 1 2283 0
	ldr	w1, [x19,15892]
	ldr	w0, [x20,6008]
	and	w1, w1, -8388609
	ubfiz	w0, w0, 23, 1
	orr	w0, w1, w0
	str	w0, [x19,15892]
	.loc 1 2284 0
	ldr	w1, [x19,15892]
	ldr	w0, [x20,6004]
	and	w1, w1, -16777217
	ubfiz	w0, w0, 24, 1
	orr	w0, w1, w0
	str	w0, [x19,15892]
	.loc 1 2285 0
	ldr	w1, [x19,15892]
	ldr	w0, [x20,6000]
	and	w1, w1, -33554433
	ubfiz	w0, w0, 25, 1
	orr	w0, w1, w0
	str	w0, [x19,15892]
	.loc 1 2286 0
	ldr	w1, [x19,15892]
	ldr	w0, [x20,5996]
	and	w1, w1, -67108865
	ubfiz	w0, w0, 26, 1
	orr	w0, w1, w0
	str	w0, [x19,15892]
	.loc 1 2287 0
	ldr	w1, [x19,15892]
	ldr	w0, [x20,5992]
	and	w1, w1, -134217729
	ubfiz	w0, w0, 27, 1
	orr	w0, w1, w0
	str	w0, [x19,15892]
	.loc 1 2288 0
	ldr	w1, [x20,5988]
	ldr	w0, [x19,15892]
	ubfiz	w1, w1, 28, 1
	and	w0, w0, -268435457
	orr	w0, w0, w1
	str	w0, [x19,15892]
	.loc 1 2289 0
	ldr	w1, [x20,5984]
	ldr	w0, [x19,15892]
	ubfiz	w1, w1, 29, 1
	and	w0, w0, -536870913
	orr	w0, w0, w1
	str	w0, [x19,15892]
	.loc 1 2290 0
	ldr	w1, [x19,15892]
	ldr	w0, [x20,5980]
	and	w1, w1, -1073741825
	ubfiz	w0, w0, 30, 1
	orr	w0, w1, w0
	str	w0, [x19,15892]
	.loc 1 2291 0
	ldr	w0, [x19,15892]
	ldr	w1, [x20,5976]
	and	w0, w0, 2147483647
	orr	w0, w0, w1, lsl 31
	str	w0, [x19,15892]
	.loc 1 2292 0
	ldr	w1, [x19,15896]
	ldr	w0, [x20,6228]
	and	w1, w1, -2
	and	w0, w0, 1
	orr	w0, w1, w0
	str	w0, [x19,15896]
	.loc 1 2293 0
	ldr	w1, [x19,15896]
	ldr	w0, [x20,6224]
	and	w1, w1, -3
	ubfiz	w0, w0, 1, 1
	orr	w0, w1, w0
	str	w0, [x19,15896]
	.loc 1 2294 0
	ldr	w1, [x19,15896]
	ldr	w0, [x20,6220]
	and	w1, w1, -5
	ubfiz	w0, w0, 2, 1
	orr	w0, w1, w0
	str	w0, [x19,15896]
	.loc 1 2295 0
	ldr	w1, [x19,15896]
	ldr	w0, [x20,6216]
	and	w1, w1, -9
	ubfiz	w0, w0, 3, 1
	orr	w0, w1, w0
	str	w0, [x19,15896]
	.loc 1 2298 0
	ldr	w1, [x19,13824]
	ldr	w0, [x20,3272]
	and	w1, w1, -983041
	ubfiz	w0, w0, 16, 4
	orr	w0, w1, w0
	str	w0, [x19,13824]
	.loc 1 2299 0
	ldr	w1, [x19,13840]
	ldr	w0, [x20,3388]
	and	w1, w1, -33
	ubfiz	w0, w0, 5, 1
	orr	w0, w1, w0
	str	w0, [x19,13840]
	.loc 1 2300 0
	ldr	w1, [x19,13840]
	ldr	w0, [x20,3392]
	and	w1, w1, -17
	ubfiz	w0, w0, 4, 1
	orr	w0, w1, w0
	str	w0, [x19,13840]
	.loc 1 2301 0
	ldr	w1, [x20,3396]
	ldr	w0, [x19,13840]
	ubfiz	w1, w1, 3, 1
	and	w0, w0, -9
	orr	w0, w0, w1
	str	w0, [x19,13840]
	.loc 1 2302 0
	ldr	w1, [x20,3400]
	ldr	w0, [x19,13840]
	ubfiz	w1, w1, 2, 1
	and	w0, w0, -5
	orr	w0, w0, w1
	str	w0, [x19,13840]
	.loc 1 2303 0
	ldr	w1, [x19,13840]
	ldr	w0, [x20,3404]
	and	w1, w1, -3
	ubfiz	w0, w0, 1, 1
	orr	w0, w1, w0
	str	w0, [x19,13840]
	.loc 1 2304 0
	ldr	w1, [x19,13840]
	ldr	w0, [x20,3408]
	and	w1, w1, -2
	and	w0, w0, 1
	orr	w0, w1, w0
	str	w0, [x19,13840]
	.loc 1 2307 0
	ldr	w0, [x19,14348]
	orr	w0, w0, 1
	str	w0, [x19,14348]
	.loc 1 2309 0
	ldr	w0, [x21,7040]
	cbz	w0, .L125
	.loc 1 2311 0
	ldr	w1, [x19,15104]
	ldr	w0, [x20,4908]
	and	w1, w1, -2
	and	w0, w0, 1
	orr	w0, w1, w0
	str	w0, [x19,15104]
	.loc 1 2312 0
	ldr	w1, [x19,15108]
	ldr	w0, [x20,4920]
	and	w1, w1, -2
	and	w0, w0, 1
	orr	w0, w1, w0
	str	w0, [x19,15108]
	.loc 1 2313 0
	ldr	w1, [x19,15112]
	ldr	w0, [x20,4932]
	and	w1, w1, -2
	and	w0, w0, 1
	orr	w0, w1, w0
	str	w0, [x19,15112]
	.loc 1 2314 0
	ldr	w1, [x19,15116]
	ldr	w0, [x20,4944]
	and	w1, w1, -2
	and	w0, w0, 1
	orr	w0, w1, w0
	str	w0, [x19,15116]
	.loc 1 2315 0
	ldr	w1, [x19,15120]
	ldr	w0, [x20,4956]
	and	w1, w1, -2
	and	w0, w0, 1
	orr	w0, w1, w0
	str	w0, [x19,15120]
	.loc 1 2316 0
	ldr	w1, [x19,15124]
	ldr	w0, [x20,4968]
	and	w1, w1, -2
	and	w0, w0, 1
	orr	w0, w1, w0
	str	w0, [x19,15124]
	.loc 1 2317 0
	ldr	w1, [x19,15128]
	ldr	w0, [x20,4980]
	and	w1, w1, -2
	and	w0, w0, 1
	orr	w0, w1, w0
	str	w0, [x19,15128]
	.loc 1 2318 0
	ldr	w1, [x19,15132]
	ldr	w0, [x20,4992]
	and	w1, w1, -2
	and	w0, w0, 1
	orr	w0, w1, w0
	str	w0, [x19,15132]
	.loc 1 2319 0
	ldr	w1, [x19,15136]
	ldr	w0, [x20,5004]
	and	w1, w1, -2
	and	w0, w0, 1
	orr	w0, w1, w0
	str	w0, [x19,15136]
	.loc 1 2320 0
	ldr	w1, [x19,15140]
	ldr	w0, [x20,5016]
	and	w1, w1, -2
	and	w0, w0, 1
	orr	w0, w1, w0
	str	w0, [x19,15140]
	.loc 1 2321 0
	ldr	w1, [x20,5028]
	ldr	w0, [x19,15144]
	and	w1, w1, 1
	and	w0, w0, -2
	orr	w0, w0, w1
	str	w0, [x19,15144]
	.loc 1 2322 0
	ldr	w1, [x20,5040]
	ldr	w0, [x19,15148]
	and	w1, w1, 1
	and	w0, w0, -2
	orr	w0, w0, w1
	str	w0, [x19,15148]
	.loc 1 2323 0
	ldr	w1, [x19,15152]
	ldr	w0, [x20,5052]
	and	w1, w1, -2
	and	w0, w0, 1
	orr	w0, w1, w0
	str	w0, [x19,15152]
	.loc 1 2324 0
	ldr	w1, [x19,15156]
	ldr	w0, [x20,5064]
	and	w1, w1, -2
	and	w0, w0, 1
	orr	w0, w1, w0
	str	w0, [x19,15156]
	.loc 1 2325 0
	ldr	w1, [x19,15160]
	ldr	w0, [x20,5076]
	and	w1, w1, -2
	and	w0, w0, 1
	orr	w0, w1, w0
	str	w0, [x19,15160]
	.loc 1 2326 0
	ldr	w1, [x19,15164]
	ldr	w0, [x20,5088]
	and	w1, w1, -2
	and	w0, w0, 1
	orr	w0, w1, w0
	str	w0, [x19,15164]
	.loc 1 2327 0
	ldr	w1, [x19,15168]
	ldr	w0, [x20,5100]
	and	w1, w1, -2
	and	w0, w0, 1
	orr	w0, w1, w0
	str	w0, [x19,15168]
	.loc 1 2328 0
	ldr	w1, [x19,15172]
	ldr	w0, [x20,5112]
	and	w1, w1, -2
	and	w0, w0, 1
	orr	w0, w1, w0
	str	w0, [x19,15172]
	.loc 1 2330 0
	ldr	w1, [x19,15616]
	ldr	w0, [x20,5872]
	and	w1, w1, -33
	ubfiz	w0, w0, 5, 1
	orr	w0, w1, w0
	str	w0, [x19,15616]
	.loc 1 2331 0
	ldr	w1, [x19,15616]
	ldr	w0, [x20,5876]
	and	w1, w1, -17
	ubfiz	w0, w0, 4, 1
	orr	w0, w1, w0
	str	w0, [x19,15616]
	.loc 1 2332 0
	ldr	w1, [x19,15616]
	ldr	w0, [x20,5880]
	and	w1, w1, -9
	ubfiz	w0, w0, 3, 1
	orr	w0, w1, w0
	str	w0, [x19,15616]
	.loc 1 2333 0
	ldr	w1, [x20,5884]
	ldr	w0, [x19,15616]
	ubfiz	w1, w1, 2, 1
	and	w0, w0, -5
	orr	w0, w0, w1
	str	w0, [x19,15616]
	.loc 1 2334 0
	ldr	w1, [x20,5888]
	ldr	w0, [x19,15616]
	ubfiz	w1, w1, 1, 1
	and	w0, w0, -3
	orr	w0, w0, w1
	str	w0, [x19,15616]
	.loc 1 2335 0
	ldr	w1, [x20,5892]
	ldr	w0, [x19,15616]
	and	w1, w1, 1
	and	w0, w0, -2
	orr	w0, w0, w1
	str	w0, [x19,15616]
.L125:
	.loc 1 2340 0
	ldr	w1, [x19,13856]
	ldr	w0, [x20,3448]
	and	w1, w1, -2
	and	w0, w0, 1
	orr	w0, w1, w0
	str	w0, [x19,13856]
	.loc 1 2342 0
	ldr	w1, [x19,13860]
	ldr	w0, [x20,3464]
	and	w1, w1, -2
	and	w0, w0, 1
	orr	w0, w1, w0
	str	w0, [x19,13860]
	.loc 1 2344 0
	ldr	w1, [x19,13864]
	ldr	w0, [x20,3480]
	and	w1, w1, -2
	and	w0, w0, 1
	orr	w0, w1, w0
	str	w0, [x19,13864]
	.loc 1 2346 0
	ldr	w1, [x19,13868]
	ldr	w0, [x20,3496]
	and	w1, w1, -2
	and	w0, w0, 1
	orr	w0, w1, w0
	str	w0, [x19,13868]
	.loc 1 2348 0
	ldr	w1, [x19,13872]
	ldr	w0, [x20,3512]
	and	w1, w1, -2
	and	w0, w0, 1
	orr	w0, w1, w0
	str	w0, [x19,13872]
	.loc 1 2350 0
	ldr	w1, [x19,13876]
	ldr	w0, [x20,3528]
	and	w1, w1, -2
	and	w0, w0, 1
	orr	w0, w1, w0
	str	w0, [x19,13876]
	.loc 1 2352 0
	ldr	w1, [x19,13880]
	ldr	w0, [x20,3544]
	and	w1, w1, -2
	and	w0, w0, 1
	orr	w0, w1, w0
	str	w0, [x19,13880]
	.loc 1 2354 0
	ldr	w1, [x19,13884]
	ldr	w0, [x20,3560]
	and	w1, w1, -2
	and	w0, w0, 1
	orr	w0, w1, w0
	str	w0, [x19,13884]
	.loc 1 2356 0
	ldr	w1, [x19,13888]
	ldr	w0, [x20,3576]
	and	w1, w1, -2
	and	w0, w0, 1
	orr	w0, w1, w0
	str	w0, [x19,13888]
	.loc 1 2358 0
	ldr	w1, [x19,13892]
	ldr	w0, [x20,3592]
	and	w1, w1, -2
	and	w0, w0, 1
	orr	w0, w1, w0
	str	w0, [x19,13892]
	.loc 1 2360 0
	ldr	w1, [x20,3608]
	ldr	w0, [x19,13896]
	and	w1, w1, 1
	and	w0, w0, -2
	orr	w0, w0, w1
	str	w0, [x19,13896]
	.loc 1 2362 0
	ldr	w1, [x20,3624]
	ldr	w0, [x19,13900]
	and	w1, w1, 1
	and	w0, w0, -2
	orr	w0, w0, w1
	str	w0, [x19,13900]
	.loc 1 2364 0
	ldr	w1, [x19,13904]
	ldr	w0, [x20,3640]
	and	w1, w1, -2
	and	w0, w0, 1
	orr	w0, w1, w0
	str	w0, [x19,13904]
	.loc 1 2366 0
	ldr	w1, [x19,13908]
	ldr	w0, [x20,3656]
	and	w1, w1, -2
	and	w0, w0, 1
	orr	w0, w1, w0
	str	w0, [x19,13908]
	.loc 1 2368 0
	ldr	w1, [x19,13912]
	ldr	w0, [x20,3672]
	and	w1, w1, -2
	and	w0, w0, 1
	orr	w0, w1, w0
	str	w0, [x19,13912]
	.loc 1 2370 0
	ldr	w1, [x19,13916]
	ldr	w0, [x20,3688]
	and	w1, w1, -2
	and	w0, w0, 1
	orr	w0, w1, w0
	str	w0, [x19,13916]
	.loc 1 2372 0
	ldr	w1, [x19,13920]
	ldr	w0, [x20,3704]
	and	w1, w1, -2
	and	w0, w0, 1
	orr	w0, w1, w0
	str	w0, [x19,13920]
	.loc 1 2374 0
	ldr	w1, [x19,13924]
	ldr	w0, [x20,3720]
	and	w1, w1, -2
	and	w0, w0, 1
	orr	w0, w1, w0
	str	w0, [x19,13924]
	.loc 1 2376 0
	ldr	w1, [x19,13928]
	ldr	w0, [x20,3736]
	and	w1, w1, -2
	and	w0, w0, 1
	orr	w0, w1, w0
	str	w0, [x19,13928]
	.loc 1 2378 0
	ldr	w1, [x19,13932]
	ldr	w0, [x20,3752]
	and	w1, w1, -2
	and	w0, w0, 1
	orr	w0, w1, w0
	str	w0, [x19,13932]
	.loc 1 2380 0
	ldr	w1, [x19,13936]
	ldr	w0, [x20,3768]
	and	w1, w1, -2
	and	w0, w0, 1
	orr	w0, w1, w0
	str	w0, [x19,13936]
	.loc 1 2382 0
	ldr	w1, [x20,3784]
	ldr	w0, [x19,13940]
	and	w1, w1, 1
	and	w0, w0, -2
	orr	w0, w0, w1
	str	w0, [x19,13940]
	.loc 1 2384 0
	ldr	w1, [x20,3800]
	ldr	w0, [x19,13944]
	and	w1, w1, 1
	and	w0, w0, -2
	orr	w0, w0, w1
	str	w0, [x19,13944]
	.loc 1 2386 0
	ldr	w1, [x19,13948]
	ldr	w0, [x20,3816]
	and	w1, w1, -2
	and	w0, w0, 1
	orr	w0, w1, w0
	str	w0, [x19,13948]
	.loc 1 2388 0
	ldr	w1, [x19,13952]
	ldr	w0, [x20,3832]
	and	w1, w1, -2
	and	w0, w0, 1
	orr	w0, w1, w0
	str	w0, [x19,13952]
	.loc 1 2390 0
	ldr	w1, [x19,13956]
	ldr	w0, [x20,3848]
	and	w1, w1, -2
	and	w0, w0, 1
	orr	w0, w1, w0
	str	w0, [x19,13956]
	.loc 1 2392 0
	ldr	w1, [x19,13960]
	ldr	w0, [x20,3864]
	and	w1, w1, -2
	and	w0, w0, 1
	orr	w0, w1, w0
	str	w0, [x19,13960]
	.loc 1 2394 0
	ldr	w1, [x19,13964]
	ldr	w0, [x20,3880]
	and	w1, w1, -2
	and	w0, w0, 1
	orr	w0, w1, w0
	str	w0, [x19,13964]
	.loc 1 2396 0
	ldr	w1, [x19,13968]
	ldr	w0, [x20,3896]
	and	w1, w1, -2
	and	w0, w0, 1
	orr	w0, w1, w0
	str	w0, [x19,13968]
	.loc 1 2398 0
	ldr	w1, [x19,13972]
	ldr	w0, [x20,3912]
	and	w1, w1, -2
	and	w0, w0, 1
	orr	w0, w1, w0
	str	w0, [x19,13972]
	.loc 1 2400 0
	ldr	w1, [x19,13976]
	ldr	w0, [x20,3928]
	and	w1, w1, -2
	and	w0, w0, 1
	orr	w0, w1, w0
	str	w0, [x19,13976]
	.loc 1 2402 0
	ldr	w1, [x19,13980]
	ldr	w0, [x20,3944]
	and	w1, w1, -2
	and	w0, w0, 1
	orr	w0, w1, w0
	str	w0, [x19,13980]
	.loc 1 2404 0
	ldr	w1, [x20,3960]
	ldr	w0, [x19,13984]
	and	w1, w1, 1
	and	w0, w0, -2
	orr	w0, w0, w1
	str	w0, [x19,13984]
	.loc 1 2406 0
	ldr	w1, [x20,3976]
	ldr	w0, [x19,13988]
	and	w1, w1, 1
	and	w0, w0, -2
	orr	w0, w0, w1
	str	w0, [x19,13988]
	.loc 1 2408 0
	ldr	w1, [x19,13992]
	ldr	w0, [x20,3992]
	and	w1, w1, -2
	and	w0, w0, 1
	orr	w0, w1, w0
	str	w0, [x19,13992]
	.loc 1 2410 0
	ldr	w0, [x19,13996]
	ldr	w1, [x20,4008]
	and	w0, w0, -2
	and	w1, w1, 1
	orr	w0, w0, w1
	str	w0, [x19,13996]
	.loc 1 2427 0
	mov	w1, 7168
	.loc 1 2424 0
	ldr	w0, [x20,752]
	.loc 1 2427 0
	movk	w1, 0x1, lsl 16
	.loc 1 2424 0
	sub	w0, w0, #6
	tst	w0, -3
	.loc 1 2426 0
	ldr	w0, [x19,15968]
	and	w0, w0, -512
	.loc 1 2424 0
	beq	.L126
	.loc 1 2426 0
	orr	w0, w0, 128
	str	w0, [x19,15968]
	.loc 1 2427 0
	ldr	w0, [x19,15968]
	and	w0, w0, -261633
	orr	w1, w0, w1
	str	w1, [x19,15968]
	.loc 1 2428 0
	mov	w0, 70516736
	ldr	w1, [x19,15968]
	and	w1, w1, -133955585
	orr	w0, w1, w0
	str	w0, [x19,15968]
	.loc 1 2429 0
	ldr	w0, [x19,15972]
	and	w0, w0, -256
	orr	w0, w0, 24
	str	w0, [x19,15972]
	.loc 1 2430 0
	mov	w0, 10240
	ldr	w1, [x19,15972]
	and	w1, w1, -65281
	orr	w0, w1, w0
	str	w0, [x19,15972]
	.loc 1 2431 0
	ldr	w0, [x19,15972]
	and	w0, w0, -16711681
	orr	w0, w0, 6291456
	str	w0, [x19,15972]
	.loc 1 2432 0
	ldr	w0, [x19,15972]
	and	w0, w0, 16777215
	orr	w0, w0, 134217728
	str	w0, [x19,15972]
.L127:
	.loc 1 2445 0
	add	x22, x19, 16384
	ldr	w4, [x20,192]
	.loc 1 2447 0
	add	x23, x25, :lo12:.LANCHOR0
	add	x24, x26, :lo12:.LC0
	.loc 1 2445 0
	and	w4, w4, 3
	.loc 1 2447 0
	add	x23, x23, 208
	.loc 1 2445 0
	ldr	w3, [x22]
	.loc 1 2447 0
	mov	w0, 4
	mov	x1, x24
	mov	w2, 2447
	.loc 1 2445 0
	and	w3, w3, -4
	orr	w3, w3, w4
	str	w3, [x22]
	.loc 1 2447 0
	adrp	x4, .LC7
	mov	x3, x23
	.loc 1 2446 0
	ldr	w6, [x21,1856]
	.loc 1 2447 0
	add	x4, x4, :lo12:.LC7
	.loc 1 2446 0
	ldr	w5, [x22]
	ubfiz	w6, w6, 2, 4
	and	w5, w5, -61
	orr	w5, w5, w6
	str	w5, [x22]
	.loc 1 2447 0
	ldr	w5, [x21,4396]
	bl	HI_PRINT
.LVL116:
	.loc 1 2449 0
	ldr	w0, [x21,28]
	.loc 1 2484 0
	adrp	x4, .LC19
	.loc 1 2449 0
	str	w0, [x22,16]
	.loc 1 2484 0
	mov	x1, x24
	mov	w0, 4
	mov	w2, 2484
	.loc 1 2450 0
	ldr	w6, [x21,28]
	.loc 1 2484 0
	mov	x3, x23
	.loc 1 2450 0
	ldr	w5, [x21,56]
	.loc 1 2484 0
	add	x4, x4, :lo12:.LC19
	.loc 1 2450 0
	add	w5, w6, w5
	sub	w5, w5, #1
	str	w5, [x22,20]
	.loc 1 2451 0
	ldr	w5, [x21,32]
	str	w5, [x22,24]
	.loc 1 2452 0
	ldr	w6, [x21,32]
	ldr	w5, [x21,60]
	add	w5, w6, w5
	sub	w5, w5, #1
	str	w5, [x22,28]
	.loc 1 2453 0
	ldr	w5, [x21,40]
	str	w5, [x22,32]
	.loc 1 2454 0
	ldr	w6, [x21,40]
	ldr	w5, [x21,68]
	add	w5, w6, w5
	sub	w5, w5, #1
	str	w5, [x22,36]
	.loc 1 2455 0
	ldr	w5, [x21,36]
	str	w5, [x22,40]
	.loc 1 2456 0
	ldr	w6, [x21,36]
	ldr	w5, [x21,64]
	add	w5, w6, w5
	sub	w5, w5, #1
	str	w5, [x22,44]
	.loc 1 2457 0
	ldr	w5, [x21,908]
	add	x5, x21, x5, lsl 2
	ldr	w5, [x5,12]
	str	w5, [x22,48]
	.loc 1 2458 0
	ldr	w5, [x21,908]
	ldr	w6, [x21,48]
	add	x5, x21, x5, lsl 2
	sub	w6, w6, #1
	ldr	w5, [x5,12]
	add	w5, w6, w5
	str	w5, [x22,52]
	.loc 1 2459 0
	ldr	w5, [x21,908]
	add	x5, x21, x5, lsl 2
	ldr	w5, [x5,20]
	str	w5, [x22,56]
	.loc 1 2460 0
	ldr	w5, [x21,908]
	ldr	w6, [x21,52]
	add	x5, x21, x5, lsl 2
	sub	w6, w6, #1
	ldr	w5, [x5,20]
	add	w5, w6, w5
	str	w5, [x22,60]
	.loc 1 2461 0
	ldr	w5, [x21,908]
	add	x5, x21, x5, lsl 2
	ldr	w5, [x5,1404]
	str	w5, [x22,64]
	.loc 1 2462 0
	ldr	w5, [x21,908]
	ldr	w6, [x21,72]
	add	x5, x21, x5, lsl 2
	sub	w6, w6, #1
	ldr	w5, [x5,1404]
	add	w5, w6, w5
	str	w5, [x22,68]
	.loc 1 2463 0
	ldr	w5, [x21,908]
	add	x5, x21, x5, lsl 2
	ldr	w5, [x5,1412]
	str	w5, [x22,72]
	.loc 1 2464 0
	ldr	w5, [x21,908]
	ldr	w6, [x21,76]
	add	x5, x21, x5, lsl 2
	sub	w6, w6, #1
	ldr	w5, [x5,1412]
	add	w5, w6, w5
	str	w5, [x22,76]
	.loc 1 2465 0
	ldr	w5, [x21,908]
	cmp	w5, wzr
	cset	x5, eq
	add	x5, x21, x5, lsl 2
	ldr	w5, [x5,12]
	str	w5, [x22,80]
	.loc 1 2466 0
	ldr	w5, [x21,908]
	ldr	w6, [x21,48]
	cmp	w5, wzr
	cset	x5, eq
	sub	w6, w6, #1
	add	x5, x21, x5, lsl 2
	ldr	w5, [x5,12]
	add	w5, w6, w5
	str	w5, [x22,84]
	.loc 1 2468 0
	ldr	w5, [x21,908]
	cmp	w5, wzr
	cset	x5, eq
	add	x5, x5, 4
	add	x5, x21, x5, lsl 2
	ldr	w5, [x5,4]
	str	w5, [x22,88]
	.loc 1 2469 0
	ldr	w5, [x21,908]
	ldr	w6, [x21,52]
	cmp	w5, wzr
	cset	x5, eq
	sub	w6, w6, #1
	add	x5, x5, 4
	add	x5, x21, x5, lsl 2
	ldr	w5, [x5,4]
	add	w6, w6, w5
	str	w6, [x22,92]
	.loc 1 2470 0
	ldr	w5, [x21,908]
	cmp	w5, wzr
	cset	x5, eq
	add	x5, x5, 348
	add	x5, x21, x5, lsl 2
	ldr	w5, [x5,12]
	str	w5, [x22,96]
	.loc 1 2471 0
	ldr	w5, [x21,908]
	ldr	w6, [x21,72]
	cmp	w5, wzr
	cset	x5, eq
	sub	w6, w6, #1
	add	x5, x5, 348
	add	x5, x21, x5, lsl 2
	ldr	w5, [x5,12]
	add	w6, w6, w5
	str	w6, [x22,100]
	.loc 1 2472 0
	ldr	w5, [x21,908]
	cmp	w5, wzr
	cset	x5, eq
	add	x5, x5, 352
	add	x5, x21, x5, lsl 2
	ldr	w5, [x5,4]
	str	w5, [x22,104]
	.loc 1 2473 0
	ldr	w5, [x21,908]
	ldr	w6, [x21,76]
	cmp	w5, wzr
	cset	x5, eq
	sub	w6, w6, #1
	add	x5, x5, 352
	add	x5, x21, x5, lsl 2
	ldr	w5, [x5,4]
	add	w6, w6, w5
	str	w6, [x22,108]
	.loc 1 2474 0
	ldr	w5, [x21,1908]
	str	w5, [x22,112]
	.loc 1 2475 0
	ldr	w6, [x21,1908]
	ldr	w5, [x21,88]
	add	w5, w6, w5
	sub	w5, w5, #1
	str	w5, [x22,116]
	.loc 1 2476 0
	ldr	w5, [x21,1912]
	str	w5, [x22,120]
	.loc 1 2477 0
	ldr	w6, [x21,1912]
	ldr	w5, [x21,92]
	add	w5, w6, w5
	sub	w5, w5, #1
	str	w5, [x22,124]
	.loc 1 2478 0
	ldr	w5, [x21,1916]
	str	w5, [x22,128]
	.loc 1 2479 0
	ldr	w6, [x21,1916]
	ldr	w5, [x21,96]
	add	w5, w6, w5
	sub	w5, w5, #1
	str	w5, [x22,132]
	.loc 1 2481 0
	ldr	w5, [x21,1908]
	str	w5, [x22,136]
	.loc 1 2482 0
	ldr	w5, [x21,1908]
	str	w5, [x22,140]
	.loc 1 2484 0
	ldr	w5, [x22,16]
	bl	HI_PRINT
.LVL117:
	.loc 1 2485 0
	ldr	w5, [x22,20]
	adrp	x4, .LC20
	mov	w0, 4
	mov	x1, x24
	mov	w2, 2485
	mov	x3, x23
	add	x4, x4, :lo12:.LC20
	bl	HI_PRINT
.LVL118:
	.loc 1 2486 0
	ldr	w5, [x22,24]
	adrp	x4, .LC21
	mov	w0, 4
	mov	x1, x24
	mov	w2, 2486
	mov	x3, x23
	add	x4, x4, :lo12:.LC21
	bl	HI_PRINT
.LVL119:
	.loc 1 2487 0
	ldr	w5, [x22,28]
	adrp	x4, .LC22
	mov	w0, 4
	mov	x1, x24
	mov	w2, 2487
	mov	x3, x23
	add	x4, x4, :lo12:.LC22
	bl	HI_PRINT
.LVL120:
	.loc 1 2488 0
	ldr	w5, [x22,32]
	adrp	x4, .LC23
	mov	w0, 4
	mov	x1, x24
	mov	w2, 2488
	mov	x3, x23
	add	x4, x4, :lo12:.LC23
	bl	HI_PRINT
.LVL121:
	.loc 1 2489 0
	ldr	w5, [x22,36]
	adrp	x4, .LC24
	mov	w0, 4
	mov	x1, x24
	mov	w2, 2489
	mov	x3, x23
	add	x4, x4, :lo12:.LC24
	bl	HI_PRINT
.LVL122:
	.loc 1 2490 0
	ldr	w5, [x22,40]
	adrp	x4, .LC25
	mov	w0, 4
	mov	x1, x24
	mov	w2, 2490
	mov	x3, x23
	add	x4, x4, :lo12:.LC25
	bl	HI_PRINT
.LVL123:
	.loc 1 2491 0
	ldr	w5, [x22,44]
	adrp	x4, .LC26
	mov	w0, 4
	mov	x1, x24
	mov	w2, 2491
	mov	x3, x23
	add	x4, x4, :lo12:.LC26
	bl	HI_PRINT
.LVL124:
	.loc 1 2492 0
	ldr	w5, [x22,48]
	adrp	x4, .LC27
	mov	w0, 4
	mov	x1, x24
	mov	w2, 2492
	mov	x3, x23
	add	x4, x4, :lo12:.LC27
	bl	HI_PRINT
.LVL125:
	.loc 1 2493 0
	ldr	w5, [x22,52]
	adrp	x4, .LC28
	mov	w0, 4
	mov	x1, x24
	mov	w2, 2493
	mov	x3, x23
	add	x4, x4, :lo12:.LC28
	bl	HI_PRINT
.LVL126:
	.loc 1 2494 0
	ldr	w5, [x22,56]
	adrp	x4, .LC29
	mov	w0, 4
	mov	x1, x24
	mov	w2, 2494
	mov	x3, x23
	add	x4, x4, :lo12:.LC29
	bl	HI_PRINT
.LVL127:
	.loc 1 2495 0
	ldr	w5, [x22,60]
	adrp	x4, .LC30
	mov	w0, 4
	mov	x1, x24
	mov	w2, 2495
	mov	x3, x23
	add	x4, x4, :lo12:.LC30
	bl	HI_PRINT
.LVL128:
	.loc 1 2496 0
	ldr	w5, [x22,64]
	adrp	x4, .LC31
	mov	w0, 4
	mov	x1, x24
	mov	w2, 2496
	mov	x3, x23
	add	x4, x4, :lo12:.LC31
	bl	HI_PRINT
.LVL129:
	.loc 1 2497 0
	ldr	w5, [x22,68]
	adrp	x4, .LC32
	mov	w0, 4
	mov	x1, x24
	mov	w2, 2497
	mov	x3, x23
	add	x4, x4, :lo12:.LC32
	bl	HI_PRINT
.LVL130:
	.loc 1 2498 0
	ldr	w5, [x22,72]
	adrp	x4, .LC33
	mov	w0, 4
	mov	x1, x24
	mov	w2, 2498
	mov	x3, x23
	add	x4, x4, :lo12:.LC33
	bl	HI_PRINT
.LVL131:
	.loc 1 2499 0
	ldr	w5, [x22,76]
	adrp	x4, .LC34
	mov	w0, 4
	mov	x1, x24
	mov	w2, 2499
	mov	x3, x23
	add	x4, x4, :lo12:.LC34
	bl	HI_PRINT
.LVL132:
	.loc 1 2500 0
	ldr	w5, [x22,80]
	adrp	x4, .LC35
	mov	w0, 4
	mov	x1, x24
	mov	w2, 2500
	mov	x3, x23
	add	x4, x4, :lo12:.LC35
	bl	HI_PRINT
.LVL133:
	.loc 1 2501 0
	ldr	w5, [x22,84]
	adrp	x4, .LC36
	mov	w0, 4
	mov	x1, x24
	mov	w2, 2501
	mov	x3, x23
	add	x4, x4, :lo12:.LC36
	bl	HI_PRINT
.LVL134:
	.loc 1 2502 0
	ldr	w5, [x22,88]
	adrp	x4, .LC37
	mov	w0, 4
	mov	x1, x24
	mov	w2, 2502
	mov	x3, x23
	add	x4, x4, :lo12:.LC37
	bl	HI_PRINT
.LVL135:
	.loc 1 2503 0
	ldr	w5, [x22,92]
	adrp	x4, .LC38
	mov	w0, 4
	mov	x1, x24
	mov	w2, 2503
	mov	x3, x23
	add	x4, x4, :lo12:.LC38
	bl	HI_PRINT
.LVL136:
	.loc 1 2504 0
	ldr	w5, [x22,96]
	adrp	x4, .LC39
	mov	w0, 4
	mov	x1, x24
	mov	w2, 2504
	mov	x3, x23
	add	x4, x4, :lo12:.LC39
	bl	HI_PRINT
.LVL137:
	.loc 1 2505 0
	ldr	w5, [x22,100]
	adrp	x4, .LC40
	mov	w0, 4
	mov	x1, x24
	mov	w2, 2505
	mov	x3, x23
	add	x4, x4, :lo12:.LC40
	bl	HI_PRINT
.LVL138:
	.loc 1 2506 0
	ldr	w5, [x22,104]
	adrp	x4, .LC41
	mov	w0, 4
	mov	x1, x24
	mov	w2, 2506
	mov	x3, x23
	add	x4, x4, :lo12:.LC41
	bl	HI_PRINT
.LVL139:
	.loc 1 2507 0
	ldr	w5, [x22,108]
	adrp	x4, .LC42
	mov	w0, 4
	mov	x1, x24
	mov	w2, 2507
	mov	x3, x23
	add	x4, x4, :lo12:.LC42
	bl	HI_PRINT
.LVL140:
	.loc 1 2508 0
	ldr	w5, [x22,112]
	adrp	x4, .LC43
	mov	w0, 4
	mov	x1, x24
	mov	w2, 2508
	mov	x3, x23
	add	x4, x4, :lo12:.LC43
	bl	HI_PRINT
.LVL141:
	.loc 1 2509 0
	ldr	w5, [x22,116]
	adrp	x4, .LC44
	mov	w0, 4
	mov	x1, x24
	mov	w2, 2509
	mov	x3, x23
	add	x4, x4, :lo12:.LC44
	bl	HI_PRINT
.LVL142:
	.loc 1 2510 0
	ldr	w5, [x22,120]
	adrp	x4, .LC45
	mov	w0, 4
	mov	x1, x24
	mov	w2, 2510
	mov	x3, x23
	add	x4, x4, :lo12:.LC45
	bl	HI_PRINT
.LVL143:
	.loc 1 2511 0
	ldr	w5, [x22,124]
	adrp	x4, .LC46
	mov	w0, 4
	mov	x1, x24
	mov	w2, 2511
	mov	x3, x23
	add	x4, x4, :lo12:.LC46
	bl	HI_PRINT
.LVL144:
	.loc 1 2512 0
	ldr	w5, [x22,128]
	adrp	x4, .LC47
	mov	w0, 4
	mov	x1, x24
	mov	w2, 2512
	mov	x3, x23
	add	x4, x4, :lo12:.LC47
	bl	HI_PRINT
.LVL145:
	.loc 1 2513 0
	ldr	w5, [x22,132]
	adrp	x4, .LC48
	mov	w0, 4
	mov	x1, x24
	mov	w2, 2513
	mov	x3, x23
	add	x4, x4, :lo12:.LC48
	bl	HI_PRINT
.LVL146:
	.loc 1 2515 0
	ldr	x0, [x21,104]
	.loc 1 2549 0
	adrp	x4, .LC49
	.loc 1 2515 0
	str	w0, [x22,256]
	.loc 1 2549 0
	mov	x1, x24
	mov	w0, 4
	mov	w2, 2549
	.loc 1 2516 0
	ldr	x3, [x21,112]
	.loc 1 2549 0
	add	x4, x4, :lo12:.LC49
	.loc 1 2516 0
	str	w3, [x22,260]
	.loc 1 2549 0
	mov	x3, x23
	.loc 1 2517 0
	ldr	x5, [x21,120]
	str	w5, [x22,264]
	.loc 1 2518 0
	ldr	x5, [x21,128]
	str	w5, [x22,268]
	.loc 1 2519 0
	ldr	x5, [x21,136]
	str	w5, [x22,272]
	.loc 1 2520 0
	ldr	x5, [x21,144]
	str	w5, [x22,276]
	.loc 1 2521 0
	ldr	x5, [x21,152]
	str	w5, [x22,280]
	.loc 1 2522 0
	ldr	x5, [x21,160]
	str	w5, [x22,284]
	.loc 1 2523 0
	ldr	x5, [x21,168]
	str	w5, [x22,288]
	.loc 1 2524 0
	ldr	x5, [x21,176]
	str	w5, [x22,292]
	.loc 1 2525 0
	ldr	x5, [x21,184]
	str	w5, [x22,296]
	.loc 1 2526 0
	ldr	x5, [x21,192]
	str	w5, [x22,300]
	.loc 1 2527 0
	ldr	x5, [x21,200]
	str	w5, [x22,304]
	.loc 1 2528 0
	ldr	x5, [x21,208]
	str	w5, [x22,308]
	.loc 1 2529 0
	ldr	x5, [x21,216]
	str	w5, [x22,312]
	.loc 1 2530 0
	ldr	x5, [x21,224]
	str	w5, [x22,316]
	.loc 1 2532 0
	ldr	x6, [x21,104]
	ldr	x5, [x21,232]
	add	w5, w6, w5
	sub	w5, w5, #1
	str	w5, [x22,320]
	.loc 1 2533 0
	ldr	x6, [x21,112]
	ldr	x5, [x21,240]
	add	w5, w6, w5
	sub	w5, w5, #1
	str	w5, [x22,324]
	.loc 1 2534 0
	ldr	x6, [x21,120]
	ldr	x5, [x21,248]
	add	w5, w6, w5
	sub	w5, w5, #1
	str	w5, [x22,328]
	.loc 1 2535 0
	ldr	x6, [x21,128]
	ldr	x5, [x21,256]
	add	w5, w6, w5
	sub	w5, w5, #1
	str	w5, [x22,332]
	.loc 1 2536 0
	ldr	x6, [x21,136]
	ldr	x5, [x21,264]
	add	w5, w6, w5
	sub	w5, w5, #1
	str	w5, [x22,336]
	.loc 1 2537 0
	ldr	x6, [x21,144]
	ldr	x5, [x21,272]
	add	w5, w6, w5
	sub	w5, w5, #1
	str	w5, [x22,340]
	.loc 1 2538 0
	ldr	x6, [x21,152]
	ldr	x5, [x21,280]
	add	w5, w6, w5
	sub	w5, w5, #1
	str	w5, [x22,344]
	.loc 1 2539 0
	ldr	x6, [x21,160]
	ldr	x5, [x21,288]
	add	w5, w6, w5
	sub	w5, w5, #1
	str	w5, [x22,348]
	.loc 1 2540 0
	ldr	x6, [x21,168]
	ldr	x5, [x21,296]
	add	w5, w6, w5
	sub	w5, w5, #1
	str	w5, [x22,352]
	.loc 1 2541 0
	ldr	x6, [x21,176]
	ldr	x5, [x21,304]
	add	w5, w6, w5
	sub	w5, w5, #1
	str	w5, [x22,356]
	.loc 1 2542 0
	ldr	x6, [x21,184]
	ldr	x5, [x21,312]
	add	w5, w6, w5
	sub	w5, w5, #1
	str	w5, [x22,360]
	.loc 1 2543 0
	ldr	x6, [x21,192]
	ldr	x5, [x21,320]
	add	w5, w6, w5
	sub	w5, w5, #1
	str	w5, [x22,364]
	.loc 1 2544 0
	ldr	x6, [x21,200]
	ldr	x5, [x21,328]
	add	w5, w6, w5
	sub	w5, w5, #1
	str	w5, [x22,368]
	.loc 1 2545 0
	ldr	x6, [x21,208]
	ldr	x5, [x21,336]
	add	w5, w6, w5
	sub	w5, w5, #1
	str	w5, [x22,372]
	.loc 1 2546 0
	ldr	x6, [x21,216]
	ldr	x5, [x21,344]
	add	w5, w6, w5
	sub	w5, w5, #1
	str	w5, [x22,376]
	.loc 1 2547 0
	ldr	x6, [x21,224]
	ldr	x5, [x21,352]
	add	w5, w6, w5
	sub	w5, w5, #1
	str	w5, [x22,380]
	.loc 1 2549 0
	ldr	x5, [x21,232]
	bl	HI_PRINT
.LVL147:
	.loc 1 2550 0
	ldr	w5, [x21,88]
	adrp	x4, .LC50
	mov	w0, 4
	mov	x1, x24
	mov	w2, 2550
	mov	x3, x23
	add	x4, x4, :lo12:.LC50
	bl	HI_PRINT
.LVL148:
	.loc 1 2551 0
	ldr	w5, [x21,92]
	adrp	x4, .LC51
	mov	w0, 4
	mov	x1, x24
	mov	w2, 2551
	mov	x3, x23
	add	x4, x4, :lo12:.LC51
	bl	HI_PRINT
.LVL149:
	.loc 1 2552 0
	ldr	w5, [x21,96]
	adrp	x4, .LC52
	mov	w0, 4
	mov	x1, x24
	mov	w2, 2552
	mov	x3, x23
	add	x4, x4, :lo12:.LC52
	bl	HI_PRINT
.LVL150:
	.loc 1 2554 0
	ldr	w5, [x22,256]
	adrp	x4, .LC53
	mov	w0, 4
	mov	x1, x24
	mov	w2, 2554
	mov	x3, x23
	add	x4, x4, :lo12:.LC53
	bl	HI_PRINT
.LVL151:
	.loc 1 2555 0
	ldr	w5, [x22,260]
	adrp	x4, .LC54
	mov	w0, 4
	mov	x1, x24
	mov	w2, 2555
	mov	x3, x23
	add	x4, x4, :lo12:.LC54
	bl	HI_PRINT
.LVL152:
	.loc 1 2556 0
	ldr	w5, [x22,264]
	adrp	x4, .LC55
	mov	w0, 4
	mov	x1, x24
	mov	w2, 2556
	mov	x3, x23
	add	x4, x4, :lo12:.LC55
	bl	HI_PRINT
.LVL153:
	.loc 1 2557 0
	ldr	w5, [x22,268]
	adrp	x4, .LC56
	mov	w0, 4
	mov	x1, x24
	mov	w2, 2557
	mov	x3, x23
	add	x4, x4, :lo12:.LC56
	bl	HI_PRINT
.LVL154:
	.loc 1 2558 0
	ldr	w5, [x22,272]
	adrp	x4, .LC57
	mov	w0, 4
	mov	x1, x24
	mov	w2, 2558
	mov	x3, x23
	add	x4, x4, :lo12:.LC57
	bl	HI_PRINT
.LVL155:
	.loc 1 2559 0
	ldr	w5, [x22,276]
	adrp	x4, .LC58
	mov	w0, 4
	mov	x1, x24
	mov	w2, 2559
	mov	x3, x23
	add	x4, x4, :lo12:.LC58
	bl	HI_PRINT
.LVL156:
	.loc 1 2560 0
	ldr	w5, [x22,280]
	adrp	x4, .LC59
	mov	w0, 4
	mov	x1, x24
	mov	w2, 2560
	mov	x3, x23
	add	x4, x4, :lo12:.LC59
	bl	HI_PRINT
.LVL157:
	.loc 1 2561 0
	ldr	w5, [x22,284]
	adrp	x4, .LC60
	mov	w0, 4
	mov	x1, x24
	mov	w2, 2561
	mov	x3, x23
	add	x4, x4, :lo12:.LC60
	bl	HI_PRINT
.LVL158:
	.loc 1 2562 0
	ldr	w5, [x22,288]
	adrp	x4, .LC61
	mov	w0, 4
	mov	x1, x24
	mov	w2, 2562
	mov	x3, x23
	add	x4, x4, :lo12:.LC61
	bl	HI_PRINT
.LVL159:
	.loc 1 2563 0
	ldr	w5, [x22,292]
	adrp	x4, .LC62
	mov	w0, 4
	mov	x1, x24
	mov	w2, 2563
	mov	x3, x23
	add	x4, x4, :lo12:.LC62
	bl	HI_PRINT
.LVL160:
	.loc 1 2564 0
	ldr	w5, [x22,296]
	adrp	x4, .LC63
	mov	w0, 4
	mov	x1, x24
	mov	w2, 2564
	mov	x3, x23
	add	x4, x4, :lo12:.LC63
	bl	HI_PRINT
.LVL161:
	.loc 1 2565 0
	ldr	w5, [x22,300]
	adrp	x4, .LC64
	mov	w0, 4
	mov	x1, x24
	mov	w2, 2565
	mov	x3, x23
	add	x4, x4, :lo12:.LC64
	bl	HI_PRINT
.LVL162:
	.loc 1 2566 0
	ldr	w5, [x22,304]
	adrp	x4, .LC65
	mov	w0, 4
	mov	x1, x24
	mov	w2, 2566
	mov	x3, x23
	add	x4, x4, :lo12:.LC65
	bl	HI_PRINT
.LVL163:
	.loc 1 2568 0
	ldr	w5, [x22,320]
	adrp	x4, .LC66
	mov	w0, 4
	mov	x1, x24
	mov	w2, 2568
	mov	x3, x23
	add	x4, x4, :lo12:.LC66
	bl	HI_PRINT
.LVL164:
	.loc 1 2569 0
	ldr	w5, [x22,324]
	adrp	x4, .LC67
	mov	w0, 4
	mov	x1, x24
	mov	w2, 2569
	mov	x3, x23
	add	x4, x4, :lo12:.LC67
	bl	HI_PRINT
.LVL165:
	.loc 1 2570 0
	ldr	w5, [x22,328]
	adrp	x4, .LC68
	mov	w0, 4
	mov	x1, x24
	mov	w2, 2570
	mov	x3, x23
	add	x4, x4, :lo12:.LC68
	bl	HI_PRINT
.LVL166:
	.loc 1 2571 0
	ldr	w5, [x22,332]
	adrp	x4, .LC69
	mov	w0, 4
	mov	x1, x24
	mov	w2, 2571
	mov	x3, x23
	add	x4, x4, :lo12:.LC69
	bl	HI_PRINT
.LVL167:
	.loc 1 2572 0
	ldr	w5, [x22,336]
	adrp	x4, .LC70
	mov	w0, 4
	mov	x1, x24
	mov	w2, 2572
	mov	x3, x23
	add	x4, x4, :lo12:.LC70
	bl	HI_PRINT
.LVL168:
	.loc 1 2573 0
	ldr	w5, [x22,340]
	adrp	x4, .LC71
	mov	w0, 4
	mov	x1, x24
	mov	w2, 2573
	mov	x3, x23
	add	x4, x4, :lo12:.LC71
	bl	HI_PRINT
.LVL169:
	.loc 1 2574 0
	ldr	w5, [x22,344]
	adrp	x4, .LC72
	mov	w0, 4
	mov	x1, x24
	mov	w2, 2574
	mov	x3, x23
	add	x4, x4, :lo12:.LC72
	bl	HI_PRINT
.LVL170:
	.loc 1 2575 0
	ldr	w5, [x22,348]
	adrp	x4, .LC73
	mov	w0, 4
	mov	x1, x24
	mov	w2, 2575
	mov	x3, x23
	add	x4, x4, :lo12:.LC73
	bl	HI_PRINT
.LVL171:
	.loc 1 2576 0
	ldr	w5, [x22,352]
	adrp	x4, .LC74
	mov	w0, 4
	mov	x1, x24
	mov	w2, 2576
	mov	x3, x23
	add	x4, x4, :lo12:.LC74
	bl	HI_PRINT
.LVL172:
	.loc 1 2577 0
	ldr	w5, [x22,356]
	adrp	x4, .LC75
	mov	w0, 4
	mov	x1, x24
	mov	w2, 2577
	mov	x3, x23
	add	x4, x4, :lo12:.LC75
	bl	HI_PRINT
.LVL173:
	.loc 1 2578 0
	ldr	w5, [x22,360]
	adrp	x4, .LC76
	mov	w0, 4
	mov	x1, x24
	mov	w2, 2578
	mov	x3, x23
	add	x4, x4, :lo12:.LC76
	bl	HI_PRINT
.LVL174:
	.loc 1 2579 0
	ldr	w5, [x22,364]
	adrp	x4, .LC77
	mov	w0, 4
	mov	x1, x24
	mov	w2, 2579
	mov	x3, x23
	add	x4, x4, :lo12:.LC77
	bl	HI_PRINT
.LVL175:
	.loc 1 2580 0
	ldr	w5, [x22,368]
	adrp	x4, .LC78
	mov	w0, 4
	mov	x1, x24
	mov	w2, 2580
	mov	x3, x23
	add	x4, x4, :lo12:.LC78
	bl	HI_PRINT
.LVL176:
	.loc 1 2583 0
	ldr	w0, [x21,44]
	str	w0, [x19,184]
	.loc 1 2584 0
	ldr	w0, [x21,1908]
	str	w0, [x19,188]
	.loc 1 2585 0
	ldr	w0, [x21,1912]
	str	w0, [x19,192]
	.loc 1 2586 0
	ldr	w0, [x21,1916]
	str	w0, [x19,196]
	.loc 1 2587 0
	ldr	w0, [x21,1920]
	str	w0, [x19,200]
	.loc 1 2588 0
	ldr	w0, [x21,1924]
	str	w0, [x19,204]
	.loc 1 2589 0
	ldr	w1, [x21,1864]
	ldr	w0, [x19,296]
	ubfiz	w1, w1, 10, 4
	and	w0, w0, -15361
	orr	w0, w0, w1
	str	w0, [x19,296]
	.loc 1 2590 0
	ldr	w0, [x21,7052]
	cmp	w0, 1
	beq	.L175
.L128:
	.loc 1 2601 0
	ldr	w1, [x19,296]
.LBB40:
	.loc 1 2616 0
	mov	w3, 0
.LVL177:
.LBE40:
	.loc 1 2601 0
	ldr	w0, [x21,1856]
.LBB41:
	.loc 1 2628 0
	mov	w2, 0
.LVL178:
.LBE41:
	.loc 1 2601 0
	and	w1, w1, -961
	ubfiz	w0, w0, 6, 4
	orr	w0, w1, w0
	str	w0, [x19,296]
	.loc 1 2602 0
	ldr	w1, [x19,296]
	ldr	w0, [x21,1860]
	and	w1, w1, -5
	ubfiz	w0, w0, 2, 1
	orr	w0, w1, w0
	str	w0, [x19,296]
	.loc 1 2603 0
	ldr	w0, [x19,208]
	ldrh	w1, [x21,1852]
	and	w0, w0, 65535
	orr	w0, w0, w1, lsl 16
	str	w0, [x19,208]
	.loc 1 2604 0
	ldr	w0, [x19,208]
	ldrh	w1, [x21,1848]
	and	w0, w0, -65536
	orr	w0, w0, w1
	str	w0, [x19,208]
	.loc 1 2607 0
	ldr	w1, [x19,208]
	ldr	w0, [x19,212]
	lsr	w1, w1, 16
	and	w0, w0, 65535
	orr	w0, w0, w1, lsl 17
	str	w0, [x19,212]
	.loc 1 2608 0
	ldr	w1, [x19,208]
	ldr	w0, [x19,212]
	ubfiz	w1, w1, 1, 15
	and	w0, w0, -65536
	orr	w0, w0, w1
	str	w0, [x19,212]
	.loc 1 2610 0
	ldr	w0, [x21,908]
	add	x0, x21, x0, lsl 2
	ldr	w0, [x0,1404]
	str	w0, [x19,216]
	.loc 1 2611 0
	ldr	w0, [x21,908]
	add	x0, x21, x0, lsl 2
	ldr	w0, [x0,1412]
	str	w0, [x19,220]
.LBB42:
	.loc 1 2617 0
	ldr	w0, [x20,300]
	add	w0, w0, 255
	and	w0, w0, 65280
	bfi	w3, w0, 0, 16
	.loc 1 2618 0
	bfi	w3, w0, 16, 16
	.loc 1 2619 0
	str	w3, [x19,224]
.LBE42:
	.loc 1 2622 0
	ldr	w0, [x21,908]
	add	x0, x21, x0, lsl 2
	ldr	w0, [x0,12]
	str	w0, [x19,228]
	.loc 1 2624 0
	ldr	w0, [x21,908]
	add	x0, x21, x0, lsl 2
	ldr	w0, [x0,20]
	str	w0, [x19,232]
.LBB43:
	.loc 1 2629 0
	ldr	w0, [x20,192]
	cbnz	w0, .L130
	.loc 1 2631 0
	ldr	w0, [x20,300]
	add	w0, w0, 63
	lsr	w0, w0, 6
	lsl	w0, w0, 5
	bfi	w2, w0, 0, 16
	mov	w0, w2
.L131:
	.loc 1 2637 0
	str	w0, [x19,236]
.LBE43:
.LBB44:
	.loc 1 2648 0
	mov	w1, 0
.LVL179:
.LBE44:
	.loc 1 2641 0
	ldr	w0, [x21,908]
	cmp	w0, wzr
	cset	x0, eq
	add	x0, x0, 348
	add	x0, x21, x0, lsl 2
	ldr	w0, [x0,12]
	str	w0, [x19,240]
	.loc 1 2643 0
	ldr	w0, [x21,908]
	cmp	w0, wzr
	cset	x0, eq
	add	x0, x0, 352
	add	x0, x21, x0, lsl 2
	ldr	w0, [x0,4]
	str	w0, [x19,244]
.LBB45:
	.loc 1 2650 0
	ldr	w0, [x20,300]
	add	w0, w0, 255
	and	w0, w0, 65280
	bfi	w1, w0, 16, 16
	.loc 1 2651 0
	bfi	w1, w0, 0, 16
	.loc 1 2652 0
	str	w1, [x19,248]
.LBE45:
	.loc 1 2656 0
	ldr	w0, [x21,908]
	cmp	w0, wzr
	cset	x0, eq
	add	x0, x21, x0, lsl 2
	ldr	w0, [x0,12]
	str	w0, [x19,252]
	.loc 1 2658 0
	ldr	w0, [x21,908]
	cmp	w0, wzr
	cset	x0, eq
	add	x0, x0, 4
	add	x0, x21, x0, lsl 2
	ldr	w0, [x0,4]
	str	w0, [x19,256]
.LBB46:
	.loc 1 2663 0
	ldr	w0, [x20,192]
	cbnz	w0, .L132
	.loc 1 2665 0
	ldr	w0, [x20,300]
	add	w0, w0, 63
	lsr	w0, w0, 6
	ubfiz	w0, w0, 5, 11
	orr	w0, w0, w0, lsl 16
.L133:
	.loc 1 2673 0
	str	w0, [x19,260]
.LBE46:
.LBB47:
	.loc 1 2734 0
	mov	w2, 0
.LVL180:
.LBE47:
.LBB48:
	.loc 1 2752 0
	mov	w1, 0
.LVL181:
.LBE48:
.LBB49:
	.loc 1 2762 0
	mov	w3, 0
.LVL182:
.LBE49:
	.loc 1 2677 0
	ldr	w0, [x21,36]
	str	w0, [x19,264]
	.loc 1 2678 0
	ldr	w0, [x21,40]
	str	w0, [x19,268]
	.loc 1 2679 0
	ldr	w0, [x21,28]
	str	w0, [x19,276]
	.loc 1 2680 0
	ldr	w0, [x21,32]
	str	w0, [x19,280]
	.loc 1 2681 0
	ldr	x0, [x21,104]
	str	w0, [x19,420]
	.loc 1 2682 0
	ldr	x0, [x21,112]
	str	w0, [x19,424]
	.loc 1 2683 0
	ldr	x0, [x21,120]
	str	w0, [x19,428]
	.loc 1 2684 0
	ldr	x0, [x21,128]
	str	w0, [x19,432]
	.loc 1 2685 0
	ldr	x0, [x21,136]
	str	w0, [x19,436]
	.loc 1 2686 0
	ldr	x0, [x21,144]
	str	w0, [x19,440]
	.loc 1 2687 0
	ldr	x0, [x21,152]
	str	w0, [x19,444]
	.loc 1 2688 0
	ldr	x0, [x21,160]
	str	w0, [x19,448]
	.loc 1 2689 0
	ldr	x0, [x21,168]
	str	w0, [x19,452]
	.loc 1 2690 0
	ldr	x0, [x21,176]
	str	w0, [x19,456]
	.loc 1 2691 0
	ldr	x0, [x21,184]
	str	w0, [x19,460]
	.loc 1 2692 0
	ldr	x0, [x21,192]
	str	w0, [x19,464]
	.loc 1 2693 0
	ldr	x0, [x21,200]
	str	w0, [x19,468]
	.loc 1 2694 0
	ldr	x0, [x21,208]
	str	w0, [x19,472]
	.loc 1 2695 0
	ldr	x0, [x21,216]
	str	w0, [x19,476]
	.loc 1 2696 0
	ldr	x0, [x21,224]
	str	w0, [x19,480]
	.loc 1 2697 0
	ldr	x0, [x21,232]
	str	w0, [x19,356]
	.loc 1 2698 0
	ldr	x0, [x21,240]
	str	w0, [x19,360]
	.loc 1 2699 0
	ldr	x0, [x21,248]
	str	w0, [x19,364]
	.loc 1 2700 0
	ldr	x0, [x21,256]
	str	w0, [x19,368]
	.loc 1 2701 0
	ldr	x0, [x21,264]
	str	w0, [x19,372]
	.loc 1 2702 0
	ldr	x0, [x21,272]
	str	w0, [x19,376]
	.loc 1 2703 0
	ldr	x0, [x21,280]
	str	w0, [x19,380]
	.loc 1 2704 0
	ldr	x0, [x21,288]
	str	w0, [x19,384]
	.loc 1 2705 0
	ldr	x0, [x21,296]
	str	w0, [x19,388]
	.loc 1 2706 0
	ldr	x0, [x21,304]
	str	w0, [x19,392]
	.loc 1 2707 0
	ldr	x0, [x21,312]
	str	w0, [x19,396]
	.loc 1 2708 0
	ldr	x0, [x21,320]
	str	w0, [x19,400]
	.loc 1 2709 0
	ldr	x0, [x21,328]
	str	w0, [x19,404]
	.loc 1 2710 0
	ldr	x0, [x21,336]
	str	w0, [x19,408]
	.loc 1 2711 0
	ldr	x0, [x21,344]
	str	w0, [x19,412]
	.loc 1 2712 0
	ldr	x0, [x21,352]
	str	w0, [x19,416]
	.loc 1 2725 0
	ldr	w0, [x19,284]
	and	w0, w0, -513
	str	w0, [x19,284]
.LBB50:
	.loc 1 2738 0
	ldr	w4, [x21,1832]
	.loc 1 2736 0
	ldr	w0, [x20,2616]
	.loc 1 2744 0
	cmp	w4, 1
	mov	w4, 9729
	.loc 1 2736 0
	bfi	w2, w0, 8, 3
	.loc 1 2744 0
	mov	w0, 513
	csel	w0, w0, w4, eq
	bfi	w2, w0, 16, 16
	.loc 1 2746 0
	str	w2, [x19,8192]
.LBE50:
.LBB51:
	.loc 1 2754 0
	ldr	w2, [x21,1824]
.LVL183:
	.loc 1 2755 0
	ldr	w0, [x21,1828]
	.loc 1 2754 0
	bfi	w1, w2, 0, 5
	.loc 1 2755 0
	bfi	w1, w0, 16, 16
	.loc 1 2757 0
	str	w1, [x19,8196]
.LBE51:
.LBB52:
	.loc 1 2764 0
	mov	w0, 16
	ldr	w2, [x21,1824]
	ldr	w1, [x21,1788]
.LVL184:
	sub	w0, w0, w2
	lsl	w0, w1, w0
	bfi	w3, w0, 0, 16
	.loc 1 2766 0
	str	w3, [x19,8200]
.LBE52:
	.loc 1 2771 0
	ldr	w0, [x21,872]
	cbnz	w0, .L135
	.loc 1 2773 0
	ldr	w0, [x21,1828]
	cmp	w0, 31
	bls	.L176
	.loc 1 2779 0
	ldr	w0, [x21,1792]
	str	w0, [x19,8204]
.L137:
	.loc 1 2782 0
	ldr	w0, [x21,1828]
	cmp	w0, 32
	bls	.L138
	.loc 1 2784 0
	ldr	w1, [x21,1796]
	mov	w2, 64
	sub	w0, w2, w0
	lsl	w0, w1, w0
	str	w0, [x19,8208]
.L138:
	.loc 1 2786 0
	ldr	w0, [x21,1800]
	str	w0, [x19,8212]
	.loc 1 2787 0
	ldr	w0, [x21,1804]
	str	w0, [x19,8216]
	.loc 1 2788 0
	ldr	w0, [x21,1808]
	str	w0, [x19,8220]
	.loc 1 2789 0
	ldr	w0, [x21,1812]
	str	w0, [x19,8224]
	.loc 1 2790 0
	ldr	w0, [x21,1816]
	str	w0, [x19,8228]
	.loc 1 2791 0
	ldr	w0, [x21,1820]
	str	w0, [x19,8232]
	b	.L139
.LVL185:
.L103:
	.loc 1 1125 0
	cmp	w5, 1
	bne	.L105
	.loc 1 1127 0
	ldr	w0, [x19,20]
	and	w0, w0, -65537
	str	w0, [x19,20]
	.loc 1 1130 0
	ldr	w5, [x21,1832]
	cbz	w5, .L177
.L106:
	.loc 1 1213 0
	cmp	w5, 1
	bne	.L105
	.loc 1 1213 0 is_stmt 0 discriminator 1
	ldr	w0, [x20,192]
	cbnz	w0, .L105
	.loc 1 1215 0 is_stmt 1
	mov	w0, 18
	str	w0, [x20,1652]
	.loc 1 1216 0
	mov	w0, 23
	str	w0, [x20,1656]
	.loc 1 1217 0
	mov	w0, 29
	str	w0, [x20,1660]
	.loc 1 1218 0
	mov	w0, 36
	str	w0, [x20,1664]
	.loc 1 1219 0
	mov	w0, 46
	str	w0, [x20,1668]
	.loc 1 1220 0
	mov	w0, 58
	str	w0, [x20,1672]
	.loc 1 1221 0
	mov	w0, 73
	str	w0, [x20,1676]
	.loc 1 1222 0
	mov	w0, 93
	str	w0, [x20,1680]
	.loc 1 1223 0
	mov	w0, 117
	str	w0, [x20,1684]
	.loc 1 1224 0
	mov	w0, 147
	str	w0, [x20,1688]
	.loc 1 1225 0
	mov	w0, 186
	str	w0, [x20,1692]
	.loc 1 1226 0
	mov	w0, 234
	str	w0, [x20,1696]
	.loc 1 1227 0
	mov	w0, 295
	str	w0, [x20,1700]
	.loc 1 1228 0
	mov	w0, 372
	str	w0, [x20,1704]
	.loc 1 1229 0
	mov	w0, 469
	str	w0, [x20,1708]
	.loc 1 1230 0
	mov	w0, 591
	str	w0, [x20,1712]
	.loc 1 1231 0
	mov	w0, 745
	str	w0, [x20,1716]
	.loc 1 1232 0
	mov	w0, 939
	str	w0, [x20,1720]
	.loc 1 1233 0
	mov	w0, 1183
	str	w0, [x20,1724]
	.loc 1 1234 0
	mov	w0, 1491
	str	w0, [x20,1728]
	.loc 1 1235 0
	mov	w0, 1879
	str	w0, [x20,1732]
	.loc 1 1236 0
	mov	w0, 2367
	str	w0, [x20,1736]
	.loc 1 1237 0
	mov	w0, 2982
	str	w0, [x20,1740]
	.loc 1 1238 0
	mov	w0, 3758
	str	w0, [x20,1744]
	.loc 1 1239 0
	mov	w0, 4734
	str	w0, [x20,1748]
	.loc 1 1240 0
	mov	w0, 5965
	str	w0, [x20,1752]
	.loc 1 1241 0
	mov	w0, 7516
	str	w0, [x20,1756]
	.loc 1 1242 0
	mov	w0, 9469
	str	w0, [x20,1760]
	.loc 1 1243 0
	mov	w0, 11931
	str	w0, [x20,1764]
	.loc 1 1244 0
	mov	w0, 15032
	str	w0, [x20,1768]
	.loc 1 1245 0
	mov	w0, 18939
	str	w0, [x20,1772]
	.loc 1 1246 0
	mov	w0, 23862
	str	w0, [x20,1776]
	.loc 1 1247 0
	mov	w0, 30065
	str	w0, [x20,1780]
	.loc 1 1253 0
	mov	w0, 54724
	.loc 1 1248 0
	mov	w3, 37879
	.loc 1 1253 0
	bfi	w0, w5, 16, 16
	.loc 1 1248 0
	str	w3, [x20,1784]
	.loc 1 1253 0
	str	w0, [x20,1804]
	.loc 1 1254 0
	mov	w0, 131071
	str	w0, [x20,1808]
	.loc 1 1255 0
	mov	w0, 194
	str	w0, [x20,1812]
	.loc 1 1256 0
	mov	w0, 218
	str	w0, [x20,1816]
	.loc 1 1257 0
	mov	w0, 245
	str	w0, [x20,1820]
	.loc 1 1258 0
	mov	w0, 275
	str	w0, [x20,1824]
	.loc 1 1259 0
	mov	w0, 308
	str	w0, [x20,1828]
	.loc 1 1260 0
	mov	w0, 346
	str	w0, [x20,1832]
	.loc 1 1261 0
	mov	w0, 389
	str	w0, [x20,1836]
	.loc 1 1262 0
	mov	w0, 436
	str	w0, [x20,1840]
	.loc 1 1263 0
	mov	w0, 490
	str	w0, [x20,1844]
	.loc 1 1264 0
	mov	w0, 550
	str	w0, [x20,1848]
	.loc 1 1265 0
	mov	w0, 617
	str	w0, [x20,1852]
	.loc 1 1266 0
	mov	w0, 693
	str	w0, [x20,1856]
	.loc 1 1267 0
	mov	w0, 778
	str	w0, [x20,1860]
	.loc 1 1268 0
	mov	w0, 873
	str	w0, [x20,1864]
	.loc 1 1269 0
	mov	w0, 980
	str	w0, [x20,1868]
	.loc 1 1270 0
	mov	w0, 1100
	str	w0, [x20,1872]
	.loc 1 1271 0
	mov	w0, 1235
	str	w0, [x20,1876]
	.loc 1 1272 0
	mov	w0, 1387
	str	w0, [x20,1880]
	.loc 1 1273 0
	mov	w0, 1557
	str	w0, [x20,1884]
	.loc 1 1274 0
	mov	w0, 1747
	str	w0, [x20,1888]
	.loc 1 1275 0
	mov	w0, 1961
	str	w0, [x20,1892]
	.loc 1 1276 0
	mov	w0, 2201
	str	w0, [x20,1896]
	.loc 1 1277 0
	mov	w0, 2471
	str	w0, [x20,1900]
	.loc 1 1278 0
	mov	w0, 2774
	str	w0, [x20,1904]
	.loc 1 1279 0
	mov	w0, 3114
	str	w0, [x20,1908]
	.loc 1 1280 0
	mov	w0, 3495
	.loc 1 1249 0
	mov	w3, 47725
	.loc 1 1280 0
	str	w0, [x20,1912]
	.loc 1 1251 0
	mov	w2, 10223
	.loc 1 1281 0
	mov	w0, 3923
	.loc 1 1252 0
	mov	w1, 29915
	.loc 1 1251 0
	bfi	w2, w5, 16, 16
	.loc 1 1252 0
	bfi	w1, w5, 16, 16
	.loc 1 1249 0
	str	w3, [x20,1788]
	.loc 1 1281 0
	str	w0, [x20,1916]
	.loc 1 1250 0
	mov	w3, 60130
	.loc 1 1282 0
	mov	w0, 4403
	.loc 1 1250 0
	str	w3, [x20,1792]
	.loc 1 1251 0
	str	w2, [x20,1796]
	.loc 1 1252 0
	str	w1, [x20,1800]
	.loc 1 1282 0
	str	w0, [x20,1920]
	.loc 1 1283 0
	mov	w0, 4943
	str	w0, [x20,1924]
	.loc 1 1284 0
	mov	w0, 5548
	str	w0, [x20,1928]
	.loc 1 1285 0
	mov	w0, 6228
	str	w0, [x20,1932]
	.loc 1 1286 0
	mov	w0, 6990
	str	w0, [x20,1936]
	.loc 1 1287 0
	mov	w0, 7846
	str	w0, [x20,1940]
	.loc 1 1288 0
	mov	w0, 8807
	str	w0, [x20,1944]
	.loc 1 1289 0
	mov	w0, 9886
	str	w0, [x20,1948]
	.loc 1 1290 0
	mov	w0, 11097
	str	w0, [x20,1952]
	.loc 1 1291 0
	mov	w0, 12456
	str	w0, [x20,1956]
	.loc 1 1292 0
	mov	w0, 13981
	str	w0, [x20,1960]
	.loc 1 1293 0
	mov	w0, 15693
	str	w0, [x20,1964]
	.loc 1 1294 0
	mov	w0, 17615
	str	w0, [x20,1968]
	ldr	w5, [x21,1832]
	b	.L105
.L100:
	.loc 1 1107 0
	cmp	w0, 1
	.loc 1 1109 0
	ldr	w0, [x19,20]
	.loc 1 1107 0
	beq	.L178
	.loc 1 1113 0
	orr	w0, w0, 201326592
	str	w0, [x19,20]
	b	.L101
.L109:
	.loc 1 1687 0
	cmp	w0, 1
	bne	.L112
	.loc 1 1689 0
	ldr	w1, [x19,672]
	ldr	w0, [x20,1268]
	and	w1, w1, -3841
	ubfiz	w0, w0, 8, 4
	orr	w0, w1, w0
	str	w0, [x19,672]
	.loc 1 1690 0
	ldr	w1, [x19,672]
	ldr	w0, [x20,1272]
	and	w1, w1, -241
	ubfiz	w0, w0, 4, 4
	orr	w0, w1, w0
	str	w0, [x19,672]
	.loc 1 1691 0
	ldr	w1, [x19,672]
	ldr	w0, [x20,1276]
	and	w1, w1, -16
	and	w0, w0, 15
	orr	w0, w1, w0
	str	w0, [x19,672]
	.loc 1 1692 0
	ldr	w1, [x19,684]
	ldr	w0, [x20,1316]
	and	w1, w1, -3841
	ubfiz	w0, w0, 8, 4
	orr	w0, w1, w0
	str	w0, [x19,684]
	.loc 1 1693 0
	ldr	w1, [x19,684]
	ldr	w0, [x20,1320]
	and	w1, w1, -241
	ubfiz	w0, w0, 4, 4
	orr	w0, w1, w0
	str	w0, [x19,684]
	.loc 1 1694 0
	ldr	w1, [x20,1324]
	ldr	w0, [x19,684]
	and	w1, w1, 15
	and	w0, w0, -16
	orr	w0, w0, w1
	str	w0, [x19,684]
	b	.L112
.L157:
	.loc 1 2157 0
	ldr	w0, [x20,3088]
	and	w1, w1, -2147418113
	ubfiz	w0, w0, 16, 15
	orr	w0, w1, w0
	str	w0, [x19,12368]
	.loc 1 2158 0
	ldr	w1, [x19,12368]
	ldr	w0, [x20,3084]
	and	w1, w1, -32768
	and	w0, w0, 32767
	orr	w0, w1, w0
	str	w0, [x19,12368]
	.loc 1 2159 0
	ldr	w1, [x19,12372]
	ldr	w0, [x20,3080]
	and	w1, w1, -2147418113
	ubfiz	w0, w0, 16, 15
	orr	w0, w1, w0
	str	w0, [x19,12372]
	.loc 1 2160 0
	ldr	w1, [x19,12372]
	ldr	w0, [x20,3100]
	and	w1, w1, -32768
	and	w0, w0, 32767
	orr	w0, w1, w0
	str	w0, [x19,12372]
	.loc 1 2161 0
	ldr	w1, [x19,12376]
	ldr	w0, [x20,3096]
	and	w1, w1, -2147418113
	ubfiz	w0, w0, 16, 15
	orr	w0, w1, w0
	str	w0, [x19,12376]
	.loc 1 2162 0
	ldr	w1, [x19,12376]
	ldr	w0, [x20,3092]
	and	w1, w1, -32768
	and	w0, w0, 32767
	orr	w0, w1, w0
	str	w0, [x19,12376]
	.loc 1 2163 0
	ldr	w1, [x19,12380]
	ldr	w0, [x20,3112]
	and	w1, w1, -2147418113
	ubfiz	w0, w0, 16, 15
	orr	w0, w1, w0
	str	w0, [x19,12380]
	.loc 1 2164 0
	ldr	w1, [x19,12380]
	ldr	w0, [x20,3108]
	and	w1, w1, -32768
	and	w0, w0, 32767
	orr	w0, w1, w0
	str	w0, [x19,12380]
	.loc 1 2165 0
	ldr	w1, [x20,3104]
	ldr	w0, [x19,12384]
	and	w1, w1, 32767
	and	w0, w0, -32768
	orr	w0, w0, w1
	str	w0, [x19,12384]
	.loc 1 2166 0
	ldr	w0, [x21,7052]
	cmp	w0, 1
	beq	.L123
	.loc 1 2168 0
	ldr	w0, [x21,1864]
	cmp	w0, 8
	beq	.L179
	.loc 1 2174 0
	str	wzr, [x21,1864]
	b	.L123
.L119:
	.loc 1 1973 0
	cmp	w0, 1
	bne	.L120
	.loc 1 1975 0
	ldr	w0, [x20,816]
	tbz	x0, 2, .L120
	.loc 1 1977 0
	ldr	w0, [x19,4656]
	orr	w0, w0, 4
	str	w0, [x19,4656]
	b	.L120
.LVL186:
.L135:
	.loc 1 2795 0
	ldr	w0, [x21,1876]
	str	w0, [x19,11780]
	.loc 1 2796 0
	ldr	w0, [x21,1880]
	str	w0, [x19,11784]
	.loc 1 2797 0
	ldr	w0, [x21,1884]
	str	w0, [x19,11788]
	.loc 1 2798 0
	ldr	w0, [x21,1888]
	str	w0, [x19,11792]
	.loc 1 2799 0
	ldr	w0, [x21,1892]
	str	w0, [x19,11796]
	.loc 1 2800 0
	ldr	w0, [x21,1896]
	str	w0, [x19,11800]
	.loc 1 2801 0
	ldr	w0, [x21,1900]
	str	w0, [x19,11804]
	.loc 1 2802 0
	ldr	w0, [x21,1904]
	str	w0, [x19,11808]
	.loc 1 2803 0
	ldr	w1, [x21,1872]
	ldr	w0, [x19,11812]
	sub	w1, w1, #1
	ubfiz	w1, w1, 16, 7
	and	w0, w0, -8323073
	orr	w0, w0, w1
	str	w0, [x19,11812]
	.loc 1 2804 0
	ldr	w0, [x21,1872]
	ldr	w1, [x19,11812]
	lsr	w0, w0, 8
	sub	w0, w0, #1
	and	w1, w1, -16129
	ubfiz	w0, w0, 8, 6
	orr	w0, w1, w0
	str	w0, [x19,11812]
	.loc 1 2805 0
	ldrh	w1, [x21,1874]
	ldr	w0, [x19,11812]
	sub	w1, w1, #1
	and	w1, w1, 63
	and	w0, w0, -64
	orr	w0, w0, w1
	str	w0, [x19,11812]
.L139:
	.loc 1 2808 0
	ldr	w2, [x19,11288]
	.loc 1 2881 0
	adrp	x1, g_stVencChn
	add	x0, x1, :lo12:g_stVencChn
	.loc 1 2808 0
	and	w2, w2, -65537
	str	w2, [x19,11288]
	.loc 1 2881 0
	ldr	x2, [x0,24]
	cmp	x2, x21
	beq	.L149
	ldr	x2, [x0,768]
	cmp	x2, x21
	beq	.L150
	ldr	x2, [x0,1512]
	cmp	x2, x21
	beq	.L151
	ldr	x2, [x0,2256]
	cmp	x2, x21
	beq	.L152
	ldr	x2, [x0,3000]
	cmp	x2, x21
	beq	.L153
	ldr	x2, [x0,3744]
	cmp	x2, x21
	beq	.L154
	ldr	x2, [x0,4488]
	cmp	x2, x21
	beq	.L155
	ldr	x0, [x0,5232]
	cmp	x0, x21
	beq	.L156
	.loc 1 2889 0
	add	x3, x25, :lo12:.LANCHOR0
.LVL187:
	adrp	x4, .LC79
	mov	w0, 1
	add	x1, x26, :lo12:.LC0
	mov	w2, 2889
	add	x3, x3, 208
	add	x4, x4, :lo12:.LC79
	bl	HI_PRINT
.LVL188:
.L99:
	.loc 1 2905 0
	ldr	x1, [x29,1128]
	ldr	x0, [x27,#:lo12:__stack_chk_guard]
	cmp	x1, x0
	bne	.L180
	add	sp, x29, 0
	.cfi_remember_state
	.cfi_def_cfa_register 31
	ldp	x19, x20, [sp,16]
	.cfi_restore 20
	.cfi_restore 19
.LVL189:
	ldp	x21, x22, [sp,32]
	.cfi_restore 22
	.cfi_restore 21
.LVL190:
	ldp	x23, x24, [sp,48]
	.cfi_restore 24
	.cfi_restore 23
	ldp	x25, x26, [sp,64]
	.cfi_restore 26
	.cfi_restore 25
	ldr	x27, [sp,80]
	.cfi_restore 27
	ldp	x29, x30, [sp], 96
	.cfi_restore 30
	.cfi_restore 29
	.cfi_def_cfa_offset 1040
	add	sp, sp, 1040
	.cfi_def_cfa_offset 944
	ret
.LVL191:
.L132:
	.cfi_restore_state
.LBB53:
	.loc 1 2668 0
	cmp	w0, 1
	mov	w0, 0
	bne	.L133
	.loc 1 2670 0
	ldr	w0, [x20,300]
	add	w0, w0, 255
	lsr	w0, w0, 8
	ubfiz	w0, w0, 5, 11
	orr	w0, w0, w0, lsl 16
	b	.L133
.LVL192:
.L130:
.LBE53:
.LBB54:
	.loc 1 2633 0
	cmp	w0, 1
	mov	w0, 0
	bne	.L131
	.loc 1 2635 0
	ldr	w0, [x20,300]
	add	w0, w0, 255
	lsr	w0, w0, 8
	lsl	w0, w0, 5
	bfi	w2, w0, 0, 16
	mov	w0, w2
	b	.L131
.LVL193:
.L126:
.LBE54:
	.loc 1 2436 0
	orr	w0, w0, 256
	str	w0, [x19,15968]
	.loc 1 2437 0
	ldr	w0, [x19,15968]
	and	w0, w0, -261633
	orr	w1, w0, w1
	str	w1, [x19,15968]
	.loc 1 2438 0
	mov	w0, 104071168
	ldr	w1, [x19,15968]
	and	w1, w1, -133955585
	orr	w0, w1, w0
	str	w0, [x19,15968]
	.loc 1 2439 0
	ldr	w0, [x19,15972]
	and	w0, w0, -256
	orr	w0, w0, 64
	str	w0, [x19,15972]
	.loc 1 2440 0
	ldr	w0, [x19,15972]
	and	w0, w0, -65281
	orr	w0, w0, 32768
	str	w0, [x19,15972]
	.loc 1 2441 0
	mov	w0, 10485760
	ldr	w1, [x19,15972]
	and	w1, w1, -16711681
	orr	w0, w1, w0
	str	w0, [x19,15972]
	.loc 1 2442 0
	ldr	w0, [x19,15972]
	and	w0, w0, 16777215
	orr	w0, w0, 536870912
	str	w0, [x19,15972]
	b	.L127
.L117:
	.loc 1 1927 0
	cmp	w0, 1
	bne	.L118
	.loc 1 1929 0
	ldr	w0, [x20,816]
	tbz	x0, 1, .L118
	.loc 1 1931 0
	ldr	w0, [x19,4648]
	orr	w0, w0, 4
	str	w0, [x19,4648]
	b	.L118
.L115:
	.loc 1 1880 0
	cmp	w0, 1
	bne	.L116
	.loc 1 1882 0
	ldr	w0, [x20,816]
	tbz	x0, 0, .L116
	.loc 1 1884 0
	ldr	w0, [x19,4640]
	orr	w0, w0, 4
	str	w0, [x19,4640]
	b	.L116
.L107:
	.loc 1 1353 0
	cmp	w0, 1
	bne	.L108
	.loc 1 1355 0
	ldr	w1, [x19,88]
	ldr	w0, [x20,324]
	and	w1, w1, -4128769
	ubfiz	w0, w0, 16, 6
	orr	w0, w1, w0
	str	w0, [x19,88]
	.loc 1 1356 0
	ldr	w1, [x20,328]
	ldr	w0, [x19,88]
	and	w1, w1, 127
	and	w0, w0, -128
	orr	w0, w0, w1
	str	w0, [x19,88]
	b	.L108
.LVL194:
.L176:
	.loc 1 2775 0
	ldr	w1, [x21,1792]
	mov	w2, 32
	sub	w0, w2, w0
	lsl	w0, w1, w0
	str	w0, [x19,8204]
	b	.L137
.LVL195:
.L110:
	.loc 1 1638 0
	cmp	w0, 195
	.loc 1 1638 0 is_stmt 0 discriminator 1
	ldr	w0, [x21,7052]
	.loc 1 1638 0
	bls	.L113
	.loc 1 1638 0 discriminator 1
	cbnz	w0, .L114
	.loc 1 1640 0 is_stmt 1
	ldr	w0, [x19,672]
	and	w0, w0, -61441
	orr	w0, w0, 4096
	str	w0, [x19,672]
	.loc 1 1641 0
	ldr	w0, [x19,672]
	and	w0, w0, -3841
	orr	w0, w0, 256
	str	w0, [x19,672]
	.loc 1 1642 0
	ldr	w0, [x19,672]
	and	w0, w0, -241
	orr	w0, w0, 16
	str	w0, [x19,672]
	.loc 1 1643 0
	ldr	w0, [x19,672]
	and	w0, w0, -16
	orr	w0, w0, 1
	str	w0, [x19,672]
	.loc 1 1644 0
	ldr	w0, [x19,684]
	and	w0, w0, -61441
	orr	w0, w0, 4096
	str	w0, [x19,684]
	.loc 1 1645 0
	ldr	w0, [x19,684]
	and	w0, w0, -3841
	orr	w0, w0, 256
	str	w0, [x19,684]
	.loc 1 1646 0
	ldr	w0, [x19,684]
	and	w0, w0, -241
	orr	w0, w0, 16
	str	w0, [x19,684]
	.loc 1 1647 0
	ldr	w0, [x19,684]
	and	w0, w0, -16
	orr	w0, w0, 1
	str	w0, [x19,684]
	.loc 1 1648 0
	ldr	w0, [x19,696]
	and	w0, w0, -61441
	orr	w0, w0, 4096
	str	w0, [x19,696]
	.loc 1 1649 0
	ldr	w0, [x19,696]
	and	w0, w0, -3841
	orr	w0, w0, 256
	str	w0, [x19,696]
	.loc 1 1650 0
	ldr	w0, [x19,696]
	and	w0, w0, -241
	orr	w0, w0, 16
	str	w0, [x19,696]
	.loc 1 1651 0
	ldr	w0, [x19,696]
	and	w0, w0, -16
	orr	w0, w0, 1
	str	w0, [x19,696]
	.loc 1 1652 0
	ldr	w0, [x19,1536]
	and	w0, w0, -3
	str	w0, [x19,1536]
	b	.L112
.L174:
	.loc 1 1132 0
	mov	w0, 18
	str	w0, [x20,1652]
	.loc 1 1133 0
	mov	w0, 22
	str	w0, [x20,1656]
	.loc 1 1134 0
	mov	w0, 28
	str	w0, [x20,1660]
	.loc 1 1135 0
	mov	w0, 36
	str	w0, [x20,1664]
	.loc 1 1136 0
	mov	w0, 45
	str	w0, [x20,1668]
	.loc 1 1137 0
	mov	w0, 57
	str	w0, [x20,1672]
	.loc 1 1138 0
	mov	w0, 72
	str	w0, [x20,1676]
	.loc 1 1139 0
	mov	w0, 91
	str	w0, [x20,1680]
	.loc 1 1140 0
	mov	w0, 115
	str	w0, [x20,1684]
	.loc 1 1141 0
	mov	w0, 145
	str	w0, [x20,1688]
	.loc 1 1142 0
	mov	w0, 183
	str	w0, [x20,1692]
	.loc 1 1143 0
	mov	w0, 231
	str	w0, [x20,1696]
	.loc 1 1144 0
	mov	w0, 291
	str	w0, [x20,1700]
	.loc 1 1145 0
	mov	w0, 367
	str	w0, [x20,1704]
	.loc 1 1146 0
	mov	w0, 463
	str	w0, [x20,1708]
	.loc 1 1147 0
	mov	w0, 583
	str	w0, [x20,1712]
	.loc 1 1148 0
	mov	w0, 735
	str	w0, [x20,1716]
	.loc 1 1149 0
	mov	w0, 926
	str	w0, [x20,1720]
	.loc 1 1150 0
	mov	w0, 1167
	str	w0, [x20,1724]
	.loc 1 1151 0
	mov	w0, 1470
	str	w0, [x20,1728]
	.loc 1 1152 0
	mov	w0, 1853
	str	w0, [x20,1732]
	.loc 1 1153 0
	mov	w0, 2334
	str	w0, [x20,1736]
	.loc 1 1154 0
	mov	w0, 2941
	str	w0, [x20,1740]
	.loc 1 1155 0
	mov	w0, 3706
	str	w0, [x20,1744]
	.loc 1 1156 0
	mov	w0, 4669
	str	w0, [x20,1748]
	.loc 1 1157 0
	mov	w0, 5883
	str	w0, [x20,1752]
	.loc 1 1158 0
	mov	w0, 7412
	str	w0, [x20,1756]
	.loc 1 1159 0
	mov	w0, 9338
	str	w0, [x20,1760]
	.loc 1 1160 0
	mov	w0, 11766
	str	w0, [x20,1764]
	.loc 1 1161 0
	mov	w0, 14824
	str	w0, [x20,1768]
	.loc 1 1162 0
	mov	w0, 18677
	str	w0, [x20,1772]
	.loc 1 1163 0
	mov	w0, 23532
	str	w0, [x20,1776]
	.loc 1 1164 0
	mov	w0, 29649
	str	w0, [x20,1780]
	.loc 1 1170 0
	mov	w0, 53060
	.loc 1 1165 0
	mov	w3, 37355
	.loc 1 1170 0
	movk	w0, 0x1, lsl 16
	.loc 1 1165 0
	str	w3, [x20,1784]
	.loc 1 1170 0
	str	w0, [x20,1804]
	.loc 1 1171 0
	mov	w0, 131071
	str	w0, [x20,1808]
	.loc 1 1172 0
	mov	w0, 193
	str	w0, [x20,1812]
	.loc 1 1173 0
	mov	w0, 216
	str	w0, [x20,1816]
	.loc 1 1174 0
	mov	w0, 243
	str	w0, [x20,1820]
	.loc 1 1175 0
	mov	w0, 273
	str	w0, [x20,1824]
	.loc 1 1176 0
	mov	w0, 306
	str	w0, [x20,1828]
	.loc 1 1177 0
	mov	w0, 344
	str	w0, [x20,1832]
	.loc 1 1178 0
	mov	w0, 386
	str	w0, [x20,1836]
	.loc 1 1179 0
	mov	w0, 433
	str	w0, [x20,1840]
	.loc 1 1180 0
	mov	w0, 487
	str	w0, [x20,1844]
	.loc 1 1181 0
	mov	w0, 546
	str	w0, [x20,1848]
	.loc 1 1182 0
	mov	w0, 613
	str	w0, [x20,1852]
	.loc 1 1183 0
	mov	w0, 688
	str	w0, [x20,1856]
	.loc 1 1184 0
	mov	w0, 773
	str	w0, [x20,1860]
	.loc 1 1185 0
	mov	w0, 867
	str	w0, [x20,1864]
	.loc 1 1186 0
	mov	w0, 974
	str	w0, [x20,1868]
	.loc 1 1187 0
	mov	w0, 1093
	str	w0, [x20,1872]
	.loc 1 1188 0
	mov	w0, 1227
	str	w0, [x20,1876]
	.loc 1 1189 0
	mov	w0, 1377
	str	w0, [x20,1880]
	.loc 1 1190 0
	mov	w0, 1546
	str	w0, [x20,1884]
	.loc 1 1191 0
	mov	w0, 1735
	str	w0, [x20,1888]
	.loc 1 1192 0
	mov	w0, 1948
	str	w0, [x20,1892]
	.loc 1 1193 0
	mov	w0, 2186
	str	w0, [x20,1896]
	.loc 1 1194 0
	mov	w0, 2454
	str	w0, [x20,1900]
	.loc 1 1195 0
	mov	w0, 2755
	str	w0, [x20,1904]
	.loc 1 1196 0
	mov	w0, 3092
	str	w0, [x20,1908]
	.loc 1 1197 0
	mov	w0, 3471
	.loc 1 1166 0
	mov	w3, 47065
	.loc 1 1197 0
	str	w0, [x20,1912]
	.loc 1 1168 0
	mov	w2, 9175
	.loc 1 1198 0
	mov	w0, 3896
	.loc 1 1169 0
	mov	w1, 28594
	.loc 1 1166 0
	str	w3, [x20,1788]
	.loc 1 1198 0
	str	w0, [x20,1916]
	.loc 1 1167 0
	mov	w3, 59298
	.loc 1 1199 0
	mov	w0, 4373
	.loc 1 1167 0
	str	w3, [x20,1792]
	.loc 1 1168 0
	movk	w2, 0x1, lsl 16
	.loc 1 1169 0
	movk	w1, 0x1, lsl 16
	.loc 1 1168 0
	str	w2, [x20,1796]
	.loc 1 1169 0
	str	w1, [x20,1800]
	.loc 1 1199 0
	str	w0, [x20,1920]
	.loc 1 1200 0
	mov	w0, 4908
	str	w0, [x20,1924]
	.loc 1 1201 0
	mov	w0, 5510
	str	w0, [x20,1928]
	.loc 1 1202 0
	mov	w0, 6184
	str	w0, [x20,1932]
	.loc 1 1203 0
	mov	w0, 6942
	str	w0, [x20,1936]
	.loc 1 1204 0
	mov	w0, 7792
	str	w0, [x20,1940]
	.loc 1 1205 0
	mov	w0, 8746
	str	w0, [x20,1944]
	.loc 1 1206 0
	mov	w0, 9817
	str	w0, [x20,1948]
	.loc 1 1207 0
	mov	w0, 11020
	str	w0, [x20,1952]
	.loc 1 1208 0
	mov	w0, 12369
	str	w0, [x20,1956]
	.loc 1 1209 0
	mov	w0, 13884
	str	w0, [x20,1960]
	.loc 1 1210 0
	mov	w0, 15584
	str	w0, [x20,1964]
	.loc 1 1211 0
	mov	w0, 17493
	str	w0, [x20,1968]
	ldr	w5, [x21,1832]
	b	.L105
.L175:
	.loc 1 2592 0
	ldr	w0, [x21,1864]
	cmp	w0, 8
	beq	.L181
	.loc 1 2598 0
	ldr	w0, [x19,296]
	and	w0, w0, -15361
	str	w0, [x19,296]
	b	.L128
.L178:
	.loc 1 1109 0
	and	w0, w0, -201326593
	str	w0, [x19,20]
	b	.L101
.L114:
	.loc 1 1670 0
	cmp	w0, 1
	bne	.L112
	.loc 1 1672 0
	ldr	w0, [x19,672]
	and	w0, w0, -61441
	str	w0, [x19,672]
	.loc 1 1673 0
	ldr	w0, [x19,672]
	and	w0, w0, -3841
	str	w0, [x19,672]
	.loc 1 1674 0
	ldr	w0, [x19,672]
	and	w0, w0, -241
	str	w0, [x19,672]
	.loc 1 1675 0
	ldr	w0, [x19,672]
	and	w0, w0, -16
	str	w0, [x19,672]
	.loc 1 1676 0
	ldr	w0, [x19,684]
	and	w0, w0, -61441
	str	w0, [x19,684]
	.loc 1 1677 0
	ldr	w0, [x19,684]
	and	w0, w0, -3841
	str	w0, [x19,684]
	.loc 1 1678 0
	ldr	w0, [x19,684]
	and	w0, w0, -241
	str	w0, [x19,684]
	.loc 1 1679 0
	ldr	w0, [x19,684]
	and	w0, w0, -16
	str	w0, [x19,684]
	.loc 1 1680 0
	ldr	w0, [x19,696]
	and	w0, w0, -61441
	str	w0, [x19,696]
	.loc 1 1681 0
	ldr	w0, [x19,696]
	and	w0, w0, -3841
	str	w0, [x19,696]
	.loc 1 1682 0
	ldr	w0, [x19,696]
	and	w0, w0, -241
	str	w0, [x19,696]
	.loc 1 1683 0
	ldr	w0, [x19,696]
	and	w0, w0, -16
	str	w0, [x19,696]
	.loc 1 1684 0
	ldr	w0, [x19,1536]
	orr	w0, w0, 2
	str	w0, [x19,1536]
	b	.L112
.L113:
	.loc 1 1654 0
	cbnz	w0, .L114
	.loc 1 1656 0
	ldr	w0, [x19,672]
	and	w0, w0, -61441
	str	w0, [x19,672]
	.loc 1 1657 0
	ldr	w0, [x19,672]
	and	w0, w0, -3841
	str	w0, [x19,672]
	.loc 1 1658 0
	ldr	w0, [x19,672]
	and	w0, w0, -241
	str	w0, [x19,672]
	.loc 1 1659 0
	ldr	w0, [x19,672]
	and	w0, w0, -16
	str	w0, [x19,672]
	.loc 1 1660 0
	ldr	w0, [x19,684]
	and	w0, w0, -61441
	str	w0, [x19,684]
	.loc 1 1661 0
	ldr	w0, [x19,684]
	and	w0, w0, -3841
	str	w0, [x19,684]
	.loc 1 1662 0
	ldr	w0, [x19,684]
	and	w0, w0, -241
	str	w0, [x19,684]
	.loc 1 1663 0
	ldr	w0, [x19,684]
	and	w0, w0, -16
	str	w0, [x19,684]
	.loc 1 1664 0
	ldr	w0, [x19,696]
	and	w0, w0, -61441
	str	w0, [x19,696]
	.loc 1 1665 0
	ldr	w0, [x19,696]
	and	w0, w0, -3841
	str	w0, [x19,696]
	.loc 1 1666 0
	ldr	w0, [x19,696]
	and	w0, w0, -241
	str	w0, [x19,696]
	.loc 1 1667 0
	ldr	w0, [x19,696]
	and	w0, w0, -16
	str	w0, [x19,696]
	.loc 1 1668 0
	ldr	w0, [x19,1536]
	and	w0, w0, -3
	str	w0, [x19,1536]
	b	.L112
.L179:
	.loc 1 2170 0
	mov	w0, 13
	str	w0, [x21,1864]
	b	.L123
.L181:
	.loc 1 2594 0
	ldr	w1, [x19,296]
	mov	w0, 13312
	and	w1, w1, -15361
	orr	w0, w1, w0
	str	w0, [x19,296]
	b	.L128
.LVL196:
.L149:
	.loc 1 2879 0
	mov	x0, 0
.L140:
.LVL197:
	.loc 1 2893 0
	lsl	x2, x0, 5
	add	x1, x1, :lo12:g_stVencChn
	sub	x0, x2, x0, lsl 3
.LVL198:
	add	x1, x1, x0, lsl 5
	sub	x1, x1, x0
	ldr	w0, [x1,732]
	cbz	w0, .L99
	.loc 1 2895 0
	add	x3, x25, :lo12:.LANCHOR0
.LVL199:
	adrp	x4, .LC80
	add	x21, x19, 12288
.LVL200:
	.loc 1 2901 0
	adrp	x20, .LC81
.LVL201:
	.loc 1 2895 0
	mov	w0, 3
	add	x1, x26, :lo12:.LC0
	mov	w2, 2895
	add	x3, x3, 208
	add	x4, x4, :lo12:.LC80
	add	x21, x21, 3584
	.loc 1 2901 0
	add	x20, x20, :lo12:.LC81
	.loc 1 2895 0
	bl	HI_PRINT
.LVL202:
.L142:
	.loc 1 2900 0
	mov	x1, x19
	mov	x2, 512
	add	x0, x29, 104
	.loc 1 2902 0
	add	x19, x19, x2
	.loc 1 2900 0
	bl	memcpy
.LVL203:
	.loc 1 2901 0
	mov	x0, x20
	add	x1, x29, 104
	mov	w2, 512
	bl	VencHal_SaveFile
.LVL204:
	.loc 1 2898 0 discriminator 1
	cmp	x19, x21
	bne	.L142
	b	.L99
.LVL205:
.L150:
	.loc 1 2879 0 discriminator 2
	mov	x0, 1
	b	.L140
.L151:
	mov	x0, 2
	b	.L140
.L152:
	mov	x0, 3
	b	.L140
.L153:
	mov	x0, 4
	b	.L140
.L154:
	mov	x0, 5
	b	.L140
.L155:
	mov	x0, 6
	b	.L140
.L156:
	mov	x0, 7
	b	.L140
.L180:
	.loc 1 2905 0
	bl	__stack_chk_fail
.LVL206:
	.cfi_endproc
.LFE2969:
	.size	VeduHal_CfgReg, .-VeduHal_CfgReg
	.align	2
	.global	VENC_HAL_CfgReg
	.type	VENC_HAL_CfgReg, %function
VENC_HAL_CfgReg:
.LFB2965:
	.loc 1 302 0
	.cfi_startproc
.LVL207:
	sub	sp, sp, #80
	.cfi_def_cfa_offset 80
	.loc 1 311 0
	adrp	x4, .LC82
	mov	w2, 311
	add	x4, x4, :lo12:.LC82
	.loc 1 302 0
	stp	x29, x30, [sp,16]
	.cfi_offset 29, -64
	.cfi_offset 30, -56
	add	x29, sp, 16
	.cfi_def_cfa 29, 64
	stp	x23, x24, [sp,64]
	.cfi_offset 23, -16
	.cfi_offset 24, -8
	.loc 1 311 0
	adrp	x23, pre_enc_protocol
	.loc 1 302 0
	stp	x19, x20, [sp,32]
	stp	x21, x22, [sp,48]
	.cfi_offset 19, -48
	.cfi_offset 20, -40
	.cfi_offset 21, -32
	.cfi_offset 22, -24
	.loc 1 311 0
	adrp	x20, .LANCHOR0
	adrp	x21, .LC0
	add	x5, x20, :lo12:.LANCHOR0
	ldr	w6, [x0,872]
	ldr	w7, [x23,#:lo12:pre_enc_protocol]
	.loc 1 302 0
	mov	x19, x0
	.loc 1 311 0
	add	x1, x21, :lo12:.LC0
	mov	w0, 4
.LVL208:
	add	x3, x5, 224
	add	x5, x5, 240
	adrp	x22, h_pre_enc_handle
	bl	HI_PRINT
.LVL209:
	.loc 1 323 0
	ldr	w1, [x19,872]
	ldr	w0, [x23,#:lo12:pre_enc_protocol]
	cmp	w1, w0
	beq	.L190
.L183:
.LBB55:
.LBB56:
	.loc 1 42 0
	mov	w0, 0
.LBE56:
.LBE55:
	.loc 1 331 0
	mov	w24, 1
.LVL210:
.LBB58:
.LBB57:
	.loc 1 42 0
	bl	Venc_Regulator_Disable
.LVL211:
	.loc 1 43 0
	bl	Venc_Regulator_Enable
.LVL212:
.LBE57:
.LBE58:
	.loc 1 326 0
	mov	x0, x19
	bl	VENC_HAL_IsHighSpeed
.LVL213:
	.loc 1 327 0
	bl	Venc_SetRate
.LVL214:
	.loc 1 328 0
	add	x3, x20, :lo12:.LANCHOR0
	adrp	x4, .LC83
	mov	w0, 3
	add	x1, x21, :lo12:.LC0
	mov	w2, 328
	add	x3, x3, 224
	add	x4, x4, :lo12:.LC83
	bl	HI_PRINT
.LVL215:
	.loc 1 330 0
	str	x19, [x22,#:lo12:h_pre_enc_handle]
	.loc 1 329 0
	ldr	w0, [x19,872]
	str	w0, [x23,#:lo12:pre_enc_protocol]
.L184:
	.loc 1 334 0
	ldr	w1, [x19,1400]
	add	x5, x20, :lo12:.LANCHOR0
	ldr	w6, [x19,2612]
	adrp	x4, .LC84
	ldr	w7, [x19,1388]
	mov	w0, 4
	str	w1, [sp]
	add	x3, x5, 224
	add	x1, x21, :lo12:.LC0
	mov	w2, 334
	add	x4, x4, :lo12:.LC84
	add	x5, x5, 240
	bl	HI_PRINT
.LVL216:
	.loc 1 336 0
	ldr	w0, [x19,1388]
	cbnz	w0, .L185
	.loc 1 336 0 is_stmt 0 discriminator 1
	ldr	w0, [x19,1400]
	.loc 1 336 0 discriminator 2
	cbz	w0, .L185
	cbnz	w24, .L185
	.loc 1 336 0 discriminator 3
	ldr	x0, [x22,#:lo12:h_pre_enc_handle]
	cmp	x19, x0
	beq	.L186
.L185:
	.loc 1 339 0 is_stmt 1
	mov	x0, x19
	bl	VeduHal_CfgReg
.LVL217:
	.loc 1 340 0
	ldr	w6, [x19,1016]
	add	x5, x20, :lo12:.LANCHOR0
	ldr	x0, [x22,#:lo12:h_pre_enc_handle]
	adrp	x4, .LC85
	str	x0, [sp,8]
	add	x3, x5, 224
	str	x19, [sp]
	mov	w0, 4
	add	x1, x21, :lo12:.LC0
	mov	w2, 341
	add	x4, x4, :lo12:.LC85
	add	x5, x5, 240
	mov	w7, w24
	bl	HI_PRINT
.LVL218:
	.loc 1 342 0
	str	x19, [x22,#:lo12:h_pre_enc_handle]
.L182:
	.loc 1 357 0
	sub	sp, x29, #16
	.cfi_remember_state
	.cfi_def_cfa 31, 80
	ldp	x19, x20, [sp,32]
	.cfi_restore 20
	.cfi_restore 19
.LVL219:
	ldp	x21, x22, [sp,48]
	.cfi_restore 22
	.cfi_restore 21
	ldp	x23, x24, [sp,64]
	.cfi_restore 24
	.cfi_restore 23
.LVL220:
	ldp	x29, x30, [sp,16]
	.cfi_restore 30
	.cfi_restore 29
	add	sp, sp, 80
	.cfi_def_cfa_offset 0
	ret
.LVL221:
.L190:
	.cfi_restore_state
	.loc 1 323 0 discriminator 2
	ldr	x0, [x22,#:lo12:h_pre_enc_handle]
	cmp	x19, x0
	bne	.L183
	.loc 1 303 0
	mov	w24, 0
.LVL222:
	b	.L184
.L186:
	.loc 1 346 0
	mov	x0, x19
	bl	VeduHal_CfgRegSimple
.LVL223:
	b	.L182
	.cfi_endproc
.LFE2965:
	.size	VENC_HAL_CfgReg, .-VENC_HAL_CfgReg
	.section	.rodata
	.align	3
.LANCHOR0 = . + 0
	.type	__FUNCTION__.52677, %object
	.size	__FUNCTION__.52677, 21
__FUNCTION__.52677:
	.string	"VeduHal_ReadReg_Venc"
	.zero	3
	.type	__func__.52679, %object
	.size	__func__.52679, 21
__func__.52679:
	.string	"VeduHal_ReadReg_Venc"
	.zero	3
	.type	__FUNCTION__.52688, %object
	.size	__FUNCTION__.52688, 27
__FUNCTION__.52688:
	.string	"VeduHal_ReadReg_VencSimple"
	.zero	5
	.type	__func__.52689, %object
	.size	__func__.52689, 27
__func__.52689:
	.string	"VeduHal_ReadReg_VencSimple"
	.zero	5
	.type	__FUNCTION__.52714, %object
	.size	__FUNCTION__.52714, 19
__FUNCTION__.52714:
	.string	"VENC_HAL_CfgAXIReg"
	.zero	5
	.type	__func__.52715, %object
	.size	__func__.52715, 19
__func__.52715:
	.string	"VENC_HAL_CfgAXIReg"
	.zero	5
	.type	__FUNCTION__.52732, %object
	.size	__FUNCTION__.52732, 21
__FUNCTION__.52732:
	.string	"VeduHal_CfgRegSimple"
	.zero	3
	.type	__func__.52733, %object
	.size	__func__.52733, 21
__func__.52733:
	.string	"VeduHal_CfgRegSimple"
	.zero	3
	.type	__FUNCTION__.52775, %object
	.size	__FUNCTION__.52775, 15
__FUNCTION__.52775:
	.string	"VeduHal_CfgReg"
	.zero	1
	.type	__FUNCTION__.52724, %object
	.size	__FUNCTION__.52724, 16
__FUNCTION__.52724:
	.string	"VENC_HAL_CfgReg"
	.type	__func__.52725, %object
	.size	__func__.52725, 16
__func__.52725:
	.string	"VENC_HAL_CfgReg"
	.section	.rodata.str1.8,"aMS",%progbits,1
	.align	3
.LC0:
	.string	"/mnt/disk/jenkins/ci/workspace/chipset_release_960_xloader/opensource/component_code/vendor/huawei/extra/build/build_script/kirin_kernel_release/kernel/drivers/vcodec/hi_vcodec/venc/drv/venc/hal_venc.c"
	.zero	6
.LC1:
	.string	"RCinfo: pEncPara->PicBits:%d pEncPara->I8x8Num:%d\n"
	.zero	5
.LC2:
	.string	"%s, pEncPara->VEDU_SLICE_IS_END[%d]:%llu\n"
	.zero	6
.LC3:
	.string	"%s, pEncPara->iSliceSplitNum:%d i:%d\n"
	.zero	2
.LC4:
	.string	"%s, slice split is not correct!!!\n"
	.zero	5
.LC5:
	.string	"%s, VENC_HAL_CfgAXIReg!!\n"
	.zero	6
.LC6:
	.string	"enter %s\n"
	.zero	6
.LC7:
	.string	"pEncPara_channel->iSliceSplitNum:%d\n"
	.zero	3
.LC8:
	.string	"timeout:%d slice_end:%d  buffull:%d\n"
	.zero	3
.LC9:
	.string	"RCinfo: pEncPara_channel->vcpi_frame_type:%d\n"
	.zero	2
.LC10:
	.string	"RCinfo: FrameQp:%d  max:%d  min:%d tarBits:%d startQp:%d\n"
	.zero	6
.LC11:
	.string	"RCinfo: pEncPara_channel->iAveLcuBits:%d\n"
	.zero	6
.LC12:
	.string	"RpEncPara->vcpi_sw_height:%d  pEncPara->vcpi_sw_width:%d \n"
	.zero	5
.LC13:
	.string	"region_en0-7: %d %d %d %d %d %d %d %d \n"
.LC14:
	.string	"roistartx0-7: %d %d %d %d %d %d %d %d \n"
.LC15:
	.string	"roistarty0-7: %d %d %d %d %d %d %d %d \n"
.LC16:
	.string	"REFLD_CMD_CFG.bits.ddr_cross_idx = 0x%x\n"
	.zero	7
.LC17:
	.string	"RECST_DDR_CROSS.bits.ddr_cross_idx = 0x%x\n"
	.zero	5
.LC18:
	.string	"phy_pgd_base:0x%x\n"
	.zero	5
.LC19:
	.string	"MST_VEDU_NBI_MVST_ADDR_STR:0x%x\n"
	.zero	7
.LC20:
	.string	"MST_VEDU_NBI_MVST_ADDR_END:0x%x\n"
	.zero	7
.LC21:
	.string	"MST_VEDU_NBI_MVLD_ADDR_STR:0x%x\n"
	.zero	7
.LC22:
	.string	"MST_VEDU_NBI_MVLD_ADDR_END:0x%x\n"
	.zero	7
.LC23:
	.string	"MST_VEDU_PMEST_ADDR_STR:0x%x\n"
	.zero	2
.LC24:
	.string	"MST_VEDU_PMEST_ADDR_END:0x%x\n"
	.zero	2
.LC25:
	.string	"MST_VEDU_PMELD_ADDR_STR:0x%x\n"
	.zero	2
.LC26:
	.string	"MST_VEDU_PMELD_ADDR_END:0x%x\n"
	.zero	2
.LC27:
	.string	"MST_VEDU_REC_YH_ADDR_STR:0x%x\n"
	.zero	1
.LC28:
	.string	"MST_VEDU_REC_YH_ADDR_END:0x%x\n"
	.zero	1
.LC29:
	.string	"MST_VEDU_REC_CH_ADDR_STR:0x%x\n"
	.zero	1
.LC30:
	.string	"MST_VEDU_REC_CH_ADDR_END:0x%x\n"
	.zero	1
.LC31:
	.string	"MST_VEDU_REC_YADDR_STR:0x%x\n"
	.zero	3
.LC32:
	.string	"MST_VEDU_REC_YADDR_END:0x%x\n"
	.zero	3
.LC33:
	.string	"MST_VEDU_REC_CADDR_STR:0x%x\n"
	.zero	3
.LC34:
	.string	"MST_VEDU_REC_CADDR_END:0x%x\n"
	.zero	3
.LC35:
	.string	"MST_VEDU_REF_YH_ADDR_STR:0x%x\n"
	.zero	1
.LC36:
	.string	"MST_VEDU_REF_YH_ADDR_END:0x%x\n"
	.zero	1
.LC37:
	.string	"MST_VEDU_REF_CH_ADDR_STR:0x%x\n"
	.zero	1
.LC38:
	.string	"MST_VEDU_REF_CH_ADDR_END:0x%x\n"
	.zero	1
.LC39:
	.string	"MST_VEDU_REF_YADDR_STR:0x%x\n"
	.zero	3
.LC40:
	.string	"MST_VEDU_REF_YADDR_END:0x%x\n"
	.zero	3
.LC41:
	.string	"MST_VEDU_REF_CADDR_STR:0x%x\n"
	.zero	3
.LC42:
	.string	"MST_VEDU_REF_CADDR_END:0x%x\n"
	.zero	3
.LC43:
	.string	"MST_VEDU_SRC_YADDR_STR:0x%x\n"
	.zero	3
.LC44:
	.string	"MST_VEDU_SRC_YADDR_END:0x%x\n"
	.zero	3
.LC45:
	.string	"MST_VEDU_SRC_CADDR_STR:0x%x\n"
	.zero	3
.LC46:
	.string	"MST_VEDU_SRC_CADDR_END:0x%x\n"
	.zero	3
.LC47:
	.string	"MST_VEDU_SRC_VADDR_STR:0x%x\n"
	.zero	3
.LC48:
	.string	"MST_VEDU_SRC_VADDR_END:0x%x\n"
	.zero	3
.LC49:
	.string	"pEncPara_channel->VEDU_STRM_BUFLEN[0]:%llu\n"
	.zero	4
.LC50:
	.string	"pEncPara_channel->VEDU_SRC_YLength[0]:%d\n"
	.zero	6
.LC51:
	.string	"pEncPara_channel->VEDU_SRC_CLength[0]:%d\n"
	.zero	6
.LC52:
	.string	"pEncPara_channel->VEDU_SRC_VLength[0]:%d\n"
	.zero	6
.LC53:
	.string	"MST_VEDU_STRMADDR0_STR:0x%x\n"
	.zero	3
.LC54:
	.string	"MST_VEDU_STRMADDR1_STR:0x%x\n"
	.zero	3
.LC55:
	.string	"MST_VEDU_STRMADDR2_STR:0x%x\n"
	.zero	3
.LC56:
	.string	"MST_VEDU_STRMADDR3_STR:0x%x\n"
	.zero	3
.LC57:
	.string	"MST_VEDU_STRMADDR4_STR:0x%x\n"
	.zero	3
.LC58:
	.string	"MST_VEDU_STRMADDR5_STR:0x%x\n"
	.zero	3
.LC59:
	.string	"MST_VEDU_STRMADDR6_STR:0x%x\n"
	.zero	3
.LC60:
	.string	"MST_VEDU_STRMADDR7_STR:0x%x\n"
	.zero	3
.LC61:
	.string	"MST_VEDU_STRMADDR8_STR:0x%x\n"
	.zero	3
.LC62:
	.string	"MST_VEDU_STRMADDR9_STR:0x%x\n"
	.zero	3
.LC63:
	.string	"MST_VEDU_STRMADDR10_STR:0x%x\n"
	.zero	2
.LC64:
	.string	"MST_VEDU_STRMADDR11_STR:0x%x\n"
	.zero	2
.LC65:
	.string	"MST_VEDU_STRMADDR12_STR:0x%x\n"
	.zero	2
.LC66:
	.string	"MST_VEDU_ENDMADDR0_END:0x%x\n"
	.zero	3
.LC67:
	.string	"MST_VEDU_ENDMADDR1_END:0x%x\n"
	.zero	3
.LC68:
	.string	"MST_VEDU_ENDMADDR2_END:0x%x\n"
	.zero	3
.LC69:
	.string	"MST_VEDU_ENDMADDR3_END:0x%x\n"
	.zero	3
.LC70:
	.string	"MST_VEDU_ENDMADDR4_END:0x%x\n"
	.zero	3
.LC71:
	.string	"MST_VEDU_ENDMADDR5_END:0x%x\n"
	.zero	3
.LC72:
	.string	"MST_VEDU_ENDMADDR6_END:0x%x\n"
	.zero	3
.LC73:
	.string	"MST_VEDU_ENDMADDR7_END:0x%x\n"
	.zero	3
.LC74:
	.string	"MST_VEDU_ENDMADDR8_END:0x%x\n"
	.zero	3
.LC75:
	.string	"MST_VEDU_ENDMADDR9_END:0x%x\n"
	.zero	3
.LC76:
	.string	"MST_VEDU_ENDMADDR10_END:0x%x\n"
	.zero	2
.LC77:
	.string	"MST_VEDU_ENDMADDR11_END:0x%x\n"
	.zero	2
.LC78:
	.string	"MST_VEDU_ENDMADDR12_END:0x%x\n"
	.zero	2
.LC79:
	.string	"can't find hVEncHandle in g_stVencChn"
	.zero	2
.LC80:
	.string	"save cfg\n"
	.zero	6
.LC81:
	.string	"/sdcard/reg.txt"
.LC82:
	.string	"%s, pEncPara->vcpi_protocol:%d pre_enc_protocol:%d\n"
	.zero	4
.LC83:
	.string	"vedu reset success!!!\n"
	.zero	1
.LC84:
	.string	"%s, pEncPara->stRc.FrmNumSeq:%d pEncPara->IntraPic:%d pEncPara->InterFrmCnt:%d\n"
.LC85:
	.string	"%s, allcfg reg TotalFrame:%d bResetFlag:%d EncHandle:0x%llx h_pre_enc_handle:0x%llx\n"
	.text
.Letext0:
	.file 4 "/mnt/disk/jenkins/ci/workspace/chipset_release_960_xloader/opensource/component_code/vendor/huawei/extra/build/build_script/kirin_kernel_release/kernel/include/uapi/asm-generic/int-ll64.h"
	.file 5 "/mnt/disk/jenkins/ci/workspace/chipset_release_960_xloader/opensource/component_code/vendor/huawei/extra/build/build_script/kirin_kernel_release/kernel/include/asm-generic/int-ll64.h"
	.file 6 "/mnt/disk/jenkins/ci/workspace/chipset_release_960_xloader/opensource/component_code/vendor/huawei/extra/build/build_script/kirin_kernel_release/kernel/include/uapi/asm-generic/posix_types.h"
	.file 7 "/mnt/disk/jenkins/ci/workspace/chipset_release_960_xloader/opensource/component_code/vendor/huawei/extra/build/build_script/kirin_kernel_release/kernel/include/linux/types.h"
	.file 8 "/mnt/disk/jenkins/ci/workspace/chipset_release_960_xloader/opensource/component_code/vendor/huawei/extra/build/build_script/kirin_kernel_release/kernel/include/linux/export.h"
	.file 9 "/mnt/disk/jenkins/ci/workspace/chipset_release_960_xloader/opensource/component_code/vendor/huawei/extra/build/build_script/kirin_kernel_release/kernel/include/linux/jump_label.h"
	.file 10 "/mnt/disk/jenkins/ci/workspace/chipset_release_960_xloader/opensource/component_code/vendor/huawei/extra/build/build_script/kirin_kernel_release/kernel/include/asm-generic/bug.h"
	.file 11 "/mnt/disk/jenkins/ci/workspace/chipset_release_960_xloader/opensource/component_code/vendor/huawei/extra/build/build_script/kirin_kernel_release/kernel/include/asm-generic/atomic-long.h"
	.file 12 "/mnt/disk/jenkins/ci/workspace/chipset_release_960_xloader/opensource/component_code/vendor/huawei/extra/build/build_script/kirin_kernel_release/kernel/include/linux/module.h"
	.file 13 "/mnt/disk/jenkins/ci/workspace/chipset_release_960_xloader/opensource/component_code/vendor/huawei/extra/build/build_script/kirin_kernel_release/kernel/include/linux/restart_block.h"
	.file 14 "/mnt/disk/jenkins/ci/workspace/chipset_release_960_xloader/opensource/component_code/vendor/huawei/extra/build/build_script/kirin_kernel_release/kernel/include/uapi/linux/time.h"
	.file 15 "/mnt/disk/jenkins/ci/workspace/chipset_release_960_xloader/opensource/component_code/vendor/huawei/extra/build/build_script/kirin_kernel_release/kernel/arch/arm64/include/asm/compat.h"
	.file 16 "/mnt/disk/jenkins/ci/workspace/chipset_release_960_xloader/opensource/component_code/vendor/huawei/extra/build/build_script/kirin_kernel_release/kernel/include/uapi/asm-generic/poll.h"
	.file 17 "/mnt/disk/jenkins/ci/workspace/chipset_release_960_xloader/opensource/component_code/vendor/huawei/extra/build/build_script/kirin_kernel_release/kernel/arch/arm64/include/asm/thread_info.h"
	.file 18 "/mnt/disk/jenkins/ci/workspace/chipset_release_960_xloader/opensource/component_code/vendor/huawei/extra/build/build_script/kirin_kernel_release/kernel/arch/arm64/include/uapi/asm/ptrace.h"
	.file 19 "/mnt/disk/jenkins/ci/workspace/chipset_release_960_xloader/opensource/component_code/vendor/huawei/extra/build/build_script/kirin_kernel_release/kernel/arch/arm64/include/asm/ptrace.h"
	.file 20 "/mnt/disk/jenkins/ci/workspace/chipset_release_960_xloader/opensource/component_code/vendor/huawei/extra/build/build_script/kirin_kernel_release/kernel/arch/arm64/include/asm/spinlock_types.h"
	.file 21 "/mnt/disk/jenkins/ci/workspace/chipset_release_960_xloader/opensource/component_code/vendor/huawei/extra/build/build_script/kirin_kernel_release/kernel/include/linux/spinlock_types.h"
	.file 22 "/mnt/disk/jenkins/ci/workspace/chipset_release_960_xloader/opensource/component_code/vendor/huawei/extra/build/build_script/kirin_kernel_release/kernel/include/linux/rwlock_types.h"
	.file 23 "/mnt/disk/jenkins/ci/workspace/chipset_release_960_xloader/opensource/component_code/vendor/huawei/extra/build/build_script/kirin_kernel_release/kernel/arch/arm64/include/asm/fpsimd.h"
	.file 24 "/mnt/disk/jenkins/ci/workspace/chipset_release_960_xloader/opensource/component_code/vendor/huawei/extra/build/build_script/kirin_kernel_release/kernel/arch/arm64/include/asm/hw_breakpoint.h"
	.file 25 "/mnt/disk/jenkins/ci/workspace/chipset_release_960_xloader/opensource/component_code/vendor/huawei/extra/build/build_script/kirin_kernel_release/kernel/arch/arm64/include/asm/processor.h"
	.file 26 "/mnt/disk/jenkins/ci/workspace/chipset_release_960_xloader/opensource/component_code/vendor/huawei/extra/build/build_script/kirin_kernel_release/kernel/include/linux/perf_event.h"
	.file 27 "/mnt/disk/jenkins/ci/workspace/chipset_release_960_xloader/opensource/component_code/vendor/huawei/extra/build/build_script/kirin_kernel_release/kernel/include/linux/wait.h"
	.file 28 "/mnt/disk/jenkins/ci/workspace/chipset_release_960_xloader/opensource/component_code/vendor/huawei/extra/build/build_script/kirin_kernel_release/kernel/include/linux/cpumask.h"
	.file 29 "/mnt/disk/jenkins/ci/workspace/chipset_release_960_xloader/opensource/component_code/vendor/huawei/extra/build/build_script/kirin_kernel_release/kernel/include/linux/seqlock.h"
	.file 30 "/mnt/disk/jenkins/ci/workspace/chipset_release_960_xloader/opensource/component_code/vendor/huawei/extra/build/build_script/kirin_kernel_release/kernel/include/linux/completion.h"
	.file 31 "/mnt/disk/jenkins/ci/workspace/chipset_release_960_xloader/opensource/component_code/vendor/huawei/extra/build/build_script/kirin_kernel_release/kernel/include/linux/time64.h"
	.file 32 "/mnt/disk/jenkins/ci/workspace/chipset_release_960_xloader/opensource/component_code/vendor/huawei/extra/build/build_script/kirin_kernel_release/kernel/include/linux/ktime.h"
	.file 33 "/mnt/disk/jenkins/ci/workspace/chipset_release_960_xloader/opensource/component_code/vendor/huawei/extra/build/build_script/kirin_kernel_release/kernel/include/linux/list_bl.h"
	.file 34 "/mnt/disk/jenkins/ci/workspace/chipset_release_960_xloader/opensource/component_code/vendor/huawei/extra/build/build_script/kirin_kernel_release/kernel/include/linux/lockref.h"
	.file 35 "/mnt/disk/jenkins/ci/workspace/chipset_release_960_xloader/opensource/component_code/vendor/huawei/extra/build/build_script/kirin_kernel_release/kernel/include/linux/dcache.h"
	.file 36 "/mnt/disk/jenkins/ci/workspace/chipset_release_960_xloader/opensource/component_code/vendor/huawei/extra/build/build_script/kirin_kernel_release/kernel/include/linux/fs.h"
	.file 37 "/mnt/disk/jenkins/ci/workspace/chipset_release_960_xloader/opensource/component_code/vendor/huawei/extra/build/build_script/kirin_kernel_release/kernel/include/linux/path.h"
	.file 38 "/mnt/disk/jenkins/ci/workspace/chipset_release_960_xloader/opensource/component_code/vendor/huawei/extra/build/build_script/kirin_kernel_release/kernel/include/linux/capability.h"
	.file 39 "/mnt/disk/jenkins/ci/workspace/chipset_release_960_xloader/opensource/component_code/vendor/huawei/extra/build/build_script/kirin_kernel_release/kernel/include/linux/plist.h"
	.file 40 "/mnt/disk/jenkins/ci/workspace/chipset_release_960_xloader/opensource/component_code/vendor/huawei/extra/build/build_script/kirin_kernel_release/kernel/include/linux/rbtree.h"
	.file 41 "/mnt/disk/jenkins/ci/workspace/chipset_release_960_xloader/opensource/component_code/vendor/huawei/extra/build/build_script/kirin_kernel_release/kernel/include/linux/nodemask.h"
	.file 42 "/mnt/disk/jenkins/ci/workspace/chipset_release_960_xloader/opensource/component_code/vendor/huawei/extra/build/build_script/kirin_kernel_release/kernel/include/linux/osq_lock.h"
	.file 43 "/mnt/disk/jenkins/ci/workspace/chipset_release_960_xloader/opensource/component_code/vendor/huawei/extra/build/build_script/kirin_kernel_release/kernel/include/linux/rwsem.h"
	.file 44 "/mnt/disk/jenkins/ci/workspace/chipset_release_960_xloader/opensource/component_code/vendor/huawei/extra/build/build_script/kirin_kernel_release/kernel/include/linux/sched.h"
	.file 45 "/mnt/disk/jenkins/ci/workspace/chipset_release_960_xloader/opensource/component_code/vendor/huawei/extra/build/build_script/kirin_kernel_release/kernel/include/linux/mm_types.h"
	.file 46 "/mnt/disk/jenkins/ci/workspace/chipset_release_960_xloader/opensource/component_code/vendor/huawei/extra/build/build_script/kirin_kernel_release/kernel/include/linux/lockdep.h"
	.file 47 "/mnt/disk/jenkins/ci/workspace/chipset_release_960_xloader/opensource/component_code/vendor/huawei/extra/build/build_script/kirin_kernel_release/kernel/include/linux/uprobes.h"
	.file 48 "/mnt/disk/jenkins/ci/workspace/chipset_release_960_xloader/opensource/component_code/vendor/huawei/extra/build/build_script/kirin_kernel_release/kernel/include/linux/timer.h"
	.file 49 "/mnt/disk/jenkins/ci/workspace/chipset_release_960_xloader/opensource/component_code/vendor/huawei/extra/build/build_script/kirin_kernel_release/kernel/include/linux/uidgid.h"
	.file 50 "/mnt/disk/jenkins/ci/workspace/chipset_release_960_xloader/opensource/component_code/vendor/huawei/extra/build/build_script/kirin_kernel_release/kernel/include/linux/sysctl.h"
	.file 51 "/mnt/disk/jenkins/ci/workspace/chipset_release_960_xloader/opensource/component_code/vendor/huawei/extra/build/build_script/kirin_kernel_release/kernel/include/linux/workqueue.h"
	.file 52 "/mnt/disk/jenkins/ci/workspace/chipset_release_960_xloader/opensource/component_code/vendor/huawei/extra/build/build_script/kirin_kernel_release/kernel/arch/arm64/include/asm/pgtable-types.h"
	.file 53 "/mnt/disk/jenkins/ci/workspace/chipset_release_960_xloader/opensource/component_code/vendor/huawei/extra/build/build_script/kirin_kernel_release/kernel/arch/arm64/include/asm/page.h"
	.file 54 "/mnt/disk/jenkins/ci/workspace/chipset_release_960_xloader/opensource/component_code/vendor/huawei/extra/build/build_script/kirin_kernel_release/kernel/include/linux/llist.h"
	.file 55 "/mnt/disk/jenkins/ci/workspace/chipset_release_960_xloader/opensource/component_code/vendor/huawei/extra/build/build_script/kirin_kernel_release/kernel/arch/arm64/include/asm/smp.h"
	.file 56 "/mnt/disk/jenkins/ci/workspace/chipset_release_960_xloader/opensource/component_code/vendor/huawei/extra/build/build_script/kirin_kernel_release/kernel/arch/arm64/include/asm/mmu.h"
	.file 57 "/mnt/disk/jenkins/ci/workspace/chipset_release_960_xloader/opensource/component_code/vendor/huawei/extra/build/build_script/kirin_kernel_release/kernel/include/linux/mm.h"
	.file 58 "/mnt/disk/jenkins/ci/workspace/chipset_release_960_xloader/opensource/component_code/vendor/huawei/extra/build/build_script/kirin_kernel_release/kernel/include/linux/user_namespace.h"
	.file 59 "/mnt/disk/jenkins/ci/workspace/chipset_release_960_xloader/opensource/component_code/vendor/huawei/extra/build/build_script/kirin_kernel_release/kernel/include/asm-generic/cputime_jiffies.h"
	.file 60 "/mnt/disk/jenkins/ci/workspace/chipset_release_960_xloader/opensource/component_code/vendor/huawei/extra/build/build_script/kirin_kernel_release/kernel/include/uapi/asm-generic/signal.h"
	.file 61 "/mnt/disk/jenkins/ci/workspace/chipset_release_960_xloader/opensource/component_code/vendor/huawei/extra/build/build_script/kirin_kernel_release/kernel/include/uapi/asm-generic/signal-defs.h"
	.file 62 "/mnt/disk/jenkins/ci/workspace/chipset_release_960_xloader/opensource/component_code/vendor/huawei/extra/build/build_script/kirin_kernel_release/kernel/include/uapi/asm-generic/siginfo.h"
	.file 63 "/mnt/disk/jenkins/ci/workspace/chipset_release_960_xloader/opensource/component_code/vendor/huawei/extra/build/build_script/kirin_kernel_release/kernel/include/linux/signal.h"
	.file 64 "/mnt/disk/jenkins/ci/workspace/chipset_release_960_xloader/opensource/component_code/vendor/huawei/extra/build/build_script/kirin_kernel_release/kernel/include/linux/pid.h"
	.file 65 "/mnt/disk/jenkins/ci/workspace/chipset_release_960_xloader/opensource/component_code/vendor/huawei/extra/build/build_script/kirin_kernel_release/kernel/include/linux/pid_namespace.h"
	.file 66 "/mnt/disk/jenkins/ci/workspace/chipset_release_960_xloader/opensource/component_code/vendor/huawei/extra/build/build_script/kirin_kernel_release/kernel/include/linux/mmzone.h"
	.file 67 "/mnt/disk/jenkins/ci/workspace/chipset_release_960_xloader/opensource/component_code/vendor/huawei/extra/build/build_script/kirin_kernel_release/kernel/include/linux/mutex.h"
	.file 68 "/mnt/disk/jenkins/ci/workspace/chipset_release_960_xloader/opensource/component_code/vendor/huawei/extra/build/build_script/kirin_kernel_release/kernel/include/linux/seccomp.h"
	.file 69 "/mnt/disk/jenkins/ci/workspace/chipset_release_960_xloader/opensource/component_code/vendor/huawei/extra/build/build_script/kirin_kernel_release/kernel/include/uapi/linux/resource.h"
	.file 70 "/mnt/disk/jenkins/ci/workspace/chipset_release_960_xloader/opensource/component_code/vendor/huawei/extra/build/build_script/kirin_kernel_release/kernel/include/linux/timerqueue.h"
	.file 71 "/mnt/disk/jenkins/ci/workspace/chipset_release_960_xloader/opensource/component_code/vendor/huawei/extra/build/build_script/kirin_kernel_release/kernel/include/linux/hrtimer.h"
	.file 72 "/mnt/disk/jenkins/ci/workspace/chipset_release_960_xloader/opensource/component_code/vendor/huawei/extra/build/build_script/kirin_kernel_release/kernel/include/linux/task_io_accounting.h"
	.file 73 "/mnt/disk/jenkins/ci/workspace/chipset_release_960_xloader/opensource/component_code/vendor/huawei/extra/build/build_script/kirin_kernel_release/kernel/include/linux/assoc_array.h"
	.file 74 "/mnt/disk/jenkins/ci/workspace/chipset_release_960_xloader/opensource/component_code/vendor/huawei/extra/build/build_script/kirin_kernel_release/kernel/include/linux/key.h"
	.file 75 "/mnt/disk/jenkins/ci/workspace/chipset_release_960_xloader/opensource/component_code/vendor/huawei/extra/build/build_script/kirin_kernel_release/kernel/include/linux/cred.h"
	.file 76 "/mnt/disk/jenkins/ci/workspace/chipset_release_960_xloader/opensource/component_code/vendor/huawei/extra/build/build_script/kirin_kernel_release/kernel/include/linux/idr.h"
	.file 77 "/mnt/disk/jenkins/ci/workspace/chipset_release_960_xloader/opensource/component_code/vendor/huawei/extra/build/build_script/kirin_kernel_release/kernel/include/linux/percpu-refcount.h"
	.file 78 "/mnt/disk/jenkins/ci/workspace/chipset_release_960_xloader/opensource/component_code/vendor/huawei/extra/build/build_script/kirin_kernel_release/kernel/include/linux/rcu_sync.h"
	.file 79 "/mnt/disk/jenkins/ci/workspace/chipset_release_960_xloader/opensource/component_code/vendor/huawei/extra/build/build_script/kirin_kernel_release/kernel/include/linux/percpu-rwsem.h"
	.file 80 "/mnt/disk/jenkins/ci/workspace/chipset_release_960_xloader/opensource/component_code/vendor/huawei/extra/build/build_script/kirin_kernel_release/kernel/include/linux/bpf-cgroup.h"
	.file 81 "/mnt/disk/jenkins/ci/workspace/chipset_release_960_xloader/opensource/component_code/vendor/huawei/extra/build/build_script/kirin_kernel_release/kernel/include/linux/cgroup-defs.h"
	.file 82 "/mnt/disk/jenkins/ci/workspace/chipset_release_960_xloader/opensource/component_code/vendor/huawei/extra/build/build_script/kirin_kernel_release/kernel/include/linux/kernfs.h"
	.file 83 "/mnt/disk/jenkins/ci/workspace/chipset_release_960_xloader/opensource/component_code/vendor/huawei/extra/build/build_script/kirin_kernel_release/kernel/include/linux/seq_file.h"
	.file 84 "/mnt/disk/jenkins/ci/workspace/chipset_release_960_xloader/opensource/component_code/vendor/huawei/extra/build/build_script/kirin_kernel_release/kernel/include/uapi/linux/taskstats.h"
	.file 85 "/mnt/disk/jenkins/ci/workspace/chipset_release_960_xloader/opensource/component_code/vendor/huawei/extra/build/build_script/kirin_kernel_release/kernel/include/linux/nsproxy.h"
	.file 86 "/mnt/disk/jenkins/ci/workspace/chipset_release_960_xloader/opensource/component_code/vendor/huawei/extra/build/build_script/kirin_kernel_release/kernel/include/linux/compat.h"
	.file 87 "/mnt/disk/jenkins/ci/workspace/chipset_release_960_xloader/opensource/component_code/vendor/huawei/extra/build/build_script/kirin_kernel_release/kernel/include/linux/stat.h"
	.file 88 "/mnt/disk/jenkins/ci/workspace/chipset_release_960_xloader/opensource/component_code/vendor/huawei/extra/build/build_script/kirin_kernel_release/kernel/include/linux/shrinker.h"
	.file 89 "/mnt/disk/jenkins/ci/workspace/chipset_release_960_xloader/opensource/component_code/vendor/huawei/extra/build/build_script/kirin_kernel_release/kernel/include/linux/list_lru.h"
	.file 90 "/mnt/disk/jenkins/ci/workspace/chipset_release_960_xloader/opensource/component_code/vendor/huawei/extra/build/build_script/kirin_kernel_release/kernel/include/linux/radix-tree.h"
	.file 91 "/mnt/disk/jenkins/ci/workspace/chipset_release_960_xloader/opensource/component_code/vendor/huawei/extra/build/build_script/kirin_kernel_release/kernel/include/uapi/linux/fiemap.h"
	.file 92 "/mnt/disk/jenkins/ci/workspace/chipset_release_960_xloader/opensource/component_code/vendor/huawei/extra/build/build_script/kirin_kernel_release/kernel/include/linux/migrate_mode.h"
	.file 93 "/mnt/disk/jenkins/ci/workspace/chipset_release_960_xloader/opensource/component_code/vendor/huawei/extra/build/build_script/kirin_kernel_release/kernel/include/linux/bvec.h"
	.file 94 "/mnt/disk/jenkins/ci/workspace/chipset_release_960_xloader/opensource/component_code/vendor/huawei/extra/build/build_script/kirin_kernel_release/kernel/include/linux/delayed_call.h"
	.file 95 "/mnt/disk/jenkins/ci/workspace/chipset_release_960_xloader/opensource/component_code/vendor/huawei/extra/build/build_script/kirin_kernel_release/kernel/include/linux/percpu_counter.h"
	.file 96 "/mnt/disk/jenkins/ci/workspace/chipset_release_960_xloader/opensource/component_code/vendor/huawei/extra/build/build_script/kirin_kernel_release/kernel/include/linux/quota.h"
	.file 97 "/mnt/disk/jenkins/ci/workspace/chipset_release_960_xloader/opensource/component_code/vendor/huawei/extra/build/build_script/kirin_kernel_release/kernel/include/linux/projid.h"
	.file 98 "/mnt/disk/jenkins/ci/workspace/chipset_release_960_xloader/opensource/component_code/vendor/huawei/extra/build/build_script/kirin_kernel_release/kernel/include/linux/uio.h"
	.file 99 "/mnt/disk/jenkins/ci/workspace/chipset_release_960_xloader/opensource/component_code/vendor/huawei/extra/build/build_script/kirin_kernel_release/kernel/include/linux/nfs_fs_i.h"
	.file 100 "/mnt/disk/jenkins/ci/workspace/chipset_release_960_xloader/opensource/component_code/vendor/huawei/extra/build/build_script/kirin_kernel_release/kernel/include/linux/poll.h"
	.file 101 "/mnt/disk/jenkins/ci/workspace/chipset_release_960_xloader/opensource/component_code/vendor/huawei/extra/build/build_script/kirin_kernel_release/kernel/include/linux/kobject_ns.h"
	.file 102 "/mnt/disk/jenkins/ci/workspace/chipset_release_960_xloader/opensource/component_code/vendor/huawei/extra/build/build_script/kirin_kernel_release/kernel/include/linux/sysfs.h"
	.file 103 "/mnt/disk/jenkins/ci/workspace/chipset_release_960_xloader/opensource/component_code/vendor/huawei/extra/build/build_script/kirin_kernel_release/kernel/include/linux/kobject.h"
	.file 104 "/mnt/disk/jenkins/ci/workspace/chipset_release_960_xloader/opensource/component_code/vendor/huawei/extra/build/build_script/kirin_kernel_release/kernel/include/linux/kref.h"
	.file 105 "/mnt/disk/jenkins/ci/workspace/chipset_release_960_xloader/opensource/component_code/vendor/huawei/extra/build/build_script/kirin_kernel_release/kernel/include/linux/klist.h"
	.file 106 "/mnt/disk/jenkins/ci/workspace/chipset_release_960_xloader/opensource/component_code/vendor/huawei/extra/build/build_script/kirin_kernel_release/kernel/include/linux/pinctrl/devinfo.h"
	.file 107 "/mnt/disk/jenkins/ci/workspace/chipset_release_960_xloader/opensource/component_code/vendor/huawei/extra/build/build_script/kirin_kernel_release/kernel/include/linux/pm.h"
	.file 108 "/mnt/disk/jenkins/ci/workspace/chipset_release_960_xloader/opensource/component_code/vendor/huawei/extra/build/build_script/kirin_kernel_release/kernel/include/linux/device.h"
	.file 109 "/mnt/disk/jenkins/ci/workspace/chipset_release_960_xloader/opensource/component_code/vendor/huawei/extra/build/build_script/kirin_kernel_release/kernel/include/linux/pm_wakeup.h"
	.file 110 "/mnt/disk/jenkins/ci/workspace/chipset_release_960_xloader/opensource/component_code/vendor/huawei/extra/build/build_script/kirin_kernel_release/kernel/arch/arm64/include/asm/device.h"
	.file 111 "/mnt/disk/jenkins/ci/workspace/chipset_release_960_xloader/opensource/component_code/vendor/huawei/extra/build/build_script/kirin_kernel_release/kernel/include/linux/dma-mapping.h"
	.file 112 "/mnt/disk/jenkins/ci/workspace/chipset_release_960_xloader/opensource/component_code/vendor/huawei/extra/build/build_script/kirin_kernel_release/kernel/include/linux/iommu.h"
	.file 113 "/mnt/disk/jenkins/ci/workspace/chipset_release_960_xloader/opensource/component_code/vendor/huawei/extra/build/build_script/kirin_kernel_release/kernel/include/linux/mod_devicetable.h"
	.file 114 "/mnt/disk/jenkins/ci/workspace/chipset_release_960_xloader/opensource/component_code/vendor/huawei/extra/build/build_script/kirin_kernel_release/kernel/include/linux/of.h"
	.file 115 "/mnt/disk/jenkins/ci/workspace/chipset_release_960_xloader/opensource/component_code/vendor/huawei/extra/build/build_script/kirin_kernel_release/kernel/include/linux/fwnode.h"
	.file 116 "/mnt/disk/jenkins/ci/workspace/chipset_release_960_xloader/opensource/component_code/vendor/huawei/extra/build/build_script/kirin_kernel_release/kernel/drivers/vcodec/hi_vcodec/venc/include/hi_type.h"
	.file 117 "/mnt/disk/jenkins/ci/workspace/chipset_release_960_xloader/opensource/component_code/vendor/huawei/extra/build/build_script/kirin_kernel_release/kernel/drivers/vcodec/hi_vcodec/venc/drv/include/hi_drv_video.h"
	.file 118 "/mnt/disk/jenkins/ci/workspace/chipset_release_960_xloader/opensource/component_code/vendor/huawei/extra/build/build_script/kirin_kernel_release/kernel/drivers/vcodec/hi_vcodec/venc/include/hi_unf_video.h"
